   1              		.syntax unified
   2              		.cpu cortex-m3
   3              		.fpu softvfp
   4              		.eabi_attribute 20, 1
   5              		.eabi_attribute 21, 1
   6              		.eabi_attribute 23, 3
   7              		.eabi_attribute 24, 1
   8              		.eabi_attribute 25, 1
   9              		.eabi_attribute 26, 1
  10              		.eabi_attribute 30, 6
  11              		.eabi_attribute 34, 1
  12              		.eabi_attribute 18, 4
  13              		.thumb
  14              		.syntax unified
  15              		.file	"schedule.c"
  16              		.text
  17              	.Ltext0:
  18              		.cfi_sections	.debug_frame
  19              		.section	.rodata
  20              		.align	2
  23              	rreg_uriquery:
  24 0000 683D7563 		.ascii	"h=ucb\000"
  24      6200
  25 0006 0000     		.align	2
  28              	infoBoardname:
  29 0008 43433235 		.ascii	"CC2538\000"
  29      333800
  30 000f 00       		.align	2
  33              	infouCName:
  34 0010 43433235 		.ascii	"CC2538\000"
  34      333800
  35 0017 00       		.align	2
  38              	infoRadioName:
  39 0018 43433235 		.ascii	"CC2538 SoC\000"
  39      33382053 
  39      6F4300
  40 0023 00       		.align	2
  43              	infoStackName:
  44 0024 4F70656E 		.ascii	"OpenWSN \000"
  44      57534E20 
  44      00
  45 002d 000000   		.align	2
  48              	linklocalprefix:
  49 0030 FE       		.byte	-2
  50 0031 80       		.byte	-128
  51 0032 00       		.byte	0
  52 0033 00       		.byte	0
  53 0034 00       		.byte	0
  54 0035 00       		.byte	0
  55 0036 00       		.byte	0
  56 0037 00       		.byte	0
  57              		.align	2
  60              	chTemplate_default:
  61 0038 05       		.byte	5
  62 0039 06       		.byte	6
  63 003a 0C       		.byte	12
  64 003b 07       		.byte	7
  65 003c 0F       		.byte	15
  66 003d 04       		.byte	4
  67 003e 0E       		.byte	14
  68 003f 0B       		.byte	11
  69 0040 08       		.byte	8
  70 0041 00       		.byte	0
  71 0042 01       		.byte	1
  72 0043 02       		.byte	2
  73 0044 0D       		.byte	13
  74 0045 03       		.byte	3
  75 0046 09       		.byte	9
  76 0047 0A       		.byte	10
  77              		.align	2
  80              	ebIEsBytestream:
  81 0048 1A       		.byte	26
  82 0049 88       		.byte	-120
  83 004a 06       		.byte	6
  84 004b 1A       		.byte	26
  85 004c 00       		.byte	0
  86 004d 00       		.byte	0
  87 004e 00       		.byte	0
  88 004f 00       		.byte	0
  89 0050 00       		.byte	0
  90 0051 00       		.byte	0
  91 0052 01       		.byte	1
  92 0053 1C       		.byte	28
  93 0054 00       		.byte	0
  94 0055 01       		.byte	1
  95 0056 C8       		.byte	-56
  96 0057 00       		.byte	0
  97 0058 0A       		.byte	10
  98 0059 1B       		.byte	27
  99 005a 01       		.byte	1
 100 005b 00       		.byte	0
 101 005c 17       		.byte	23
 102 005d 00       		.byte	0
 103 005e 01       		.byte	1
 104 005f 00       		.byte	0
 105 0060 00       		.byte	0
 106 0061 00       		.byte	0
 107 0062 00       		.byte	0
 108 0063 0F       		.byte	15
 109              		.align	2
 112              	all_routers_multicast:
 113 0064 FF       		.byte	-1
 114 0065 02       		.byte	2
 115 0066 00       		.byte	0
 116 0067 00       		.byte	0
 117 0068 00       		.byte	0
 118 0069 00       		.byte	0
 119 006a 00       		.byte	0
 120 006b 00       		.byte	0
 121 006c 00       		.byte	0
 122 006d 00       		.byte	0
 123 006e 00       		.byte	0
 124 006f 00       		.byte	0
 125 0070 00       		.byte	0
 126 0071 00       		.byte	0
 127 0072 00       		.byte	0
 128 0073 1A       		.byte	26
 129              		.comm	schedule_vars,844,4
 130              		.text
 131              		.align	2
 132              		.global	schedule_init
 133              		.thumb
 134              		.thumb_func
 136              	schedule_init:
 137              	.LFB0:
 138              		.file 1 "build/openmote-cc2538_armgcc/openstack/02b-MAChigh/schedule.c"
   1:build/openmote-cc2538_armgcc/openstack/02b-MAChigh/schedule.c **** #include "opendefs.h"
   2:build/openmote-cc2538_armgcc/openstack/02b-MAChigh/schedule.c **** #include "schedule.h"
   3:build/openmote-cc2538_armgcc/openstack/02b-MAChigh/schedule.c **** #include "openserial.h"
   4:build/openmote-cc2538_armgcc/openstack/02b-MAChigh/schedule.c **** #include "openrandom.h"
   5:build/openmote-cc2538_armgcc/openstack/02b-MAChigh/schedule.c **** #include "packetfunctions.h"
   6:build/openmote-cc2538_armgcc/openstack/02b-MAChigh/schedule.c **** #include "sixtop.h"
   7:build/openmote-cc2538_armgcc/openstack/02b-MAChigh/schedule.c **** #include "idmanager.h"
   8:build/openmote-cc2538_armgcc/openstack/02b-MAChigh/schedule.c **** #include "msf.h"
   9:build/openmote-cc2538_armgcc/openstack/02b-MAChigh/schedule.c **** #include "IEEE802154E.h"
  10:build/openmote-cc2538_armgcc/openstack/02b-MAChigh/schedule.c **** #include "icmpv6rpl.h"
  11:build/openmote-cc2538_armgcc/openstack/02b-MAChigh/schedule.c **** #include "neighbors.h"
  12:build/openmote-cc2538_armgcc/openstack/02b-MAChigh/schedule.c **** 
  13:build/openmote-cc2538_armgcc/openstack/02b-MAChigh/schedule.c **** //=========================== definition ======================================
  14:build/openmote-cc2538_armgcc/openstack/02b-MAChigh/schedule.c **** 
  15:build/openmote-cc2538_armgcc/openstack/02b-MAChigh/schedule.c **** //=========================== variables =======================================
  16:build/openmote-cc2538_armgcc/openstack/02b-MAChigh/schedule.c **** 
  17:build/openmote-cc2538_armgcc/openstack/02b-MAChigh/schedule.c **** schedule_vars_t schedule_vars;
  18:build/openmote-cc2538_armgcc/openstack/02b-MAChigh/schedule.c **** 
  19:build/openmote-cc2538_armgcc/openstack/02b-MAChigh/schedule.c **** //=========================== prototypes ======================================
  20:build/openmote-cc2538_armgcc/openstack/02b-MAChigh/schedule.c **** 
  21:build/openmote-cc2538_armgcc/openstack/02b-MAChigh/schedule.c **** void schedule_resetEntry(scheduleEntry_t* pScheduleEntry);
  22:build/openmote-cc2538_armgcc/openstack/02b-MAChigh/schedule.c **** 
  23:build/openmote-cc2538_armgcc/openstack/02b-MAChigh/schedule.c **** //=========================== public ==========================================
  24:build/openmote-cc2538_armgcc/openstack/02b-MAChigh/schedule.c **** 
  25:build/openmote-cc2538_armgcc/openstack/02b-MAChigh/schedule.c **** //=== admin
  26:build/openmote-cc2538_armgcc/openstack/02b-MAChigh/schedule.c **** 
  27:build/openmote-cc2538_armgcc/openstack/02b-MAChigh/schedule.c **** /**
  28:build/openmote-cc2538_armgcc/openstack/02b-MAChigh/schedule.c **** \brief Initialize this module.
  29:build/openmote-cc2538_armgcc/openstack/02b-MAChigh/schedule.c **** 
  30:build/openmote-cc2538_armgcc/openstack/02b-MAChigh/schedule.c **** \post Call this function before calling any other function in this module.
  31:build/openmote-cc2538_armgcc/openstack/02b-MAChigh/schedule.c **** */
  32:build/openmote-cc2538_armgcc/openstack/02b-MAChigh/schedule.c **** void schedule_init() {
 139              		.loc 1 32 0
 140              		.cfi_startproc
 141              		@ args = 0, pretend = 0, frame = 24
 142              		@ frame_needed = 1, uses_anonymous_args = 0
 143 0000 80B5     		push	{r7, lr}
 144              		.cfi_def_cfa_offset 8
 145              		.cfi_offset 7, -8
 146              		.cfi_offset 14, -4
 147 0002 88B0     		sub	sp, sp, #32
 148              		.cfi_def_cfa_offset 40
 149 0004 02AF     		add	r7, sp, #8
 150              		.cfi_def_cfa 7, 32
  33:build/openmote-cc2538_armgcc/openstack/02b-MAChigh/schedule.c ****     slotOffset_t    start_slotOffset;
  34:build/openmote-cc2538_armgcc/openstack/02b-MAChigh/schedule.c ****     slotOffset_t    running_slotOffset;
  35:build/openmote-cc2538_armgcc/openstack/02b-MAChigh/schedule.c ****     open_addr_t     temp_neighbor;
  36:build/openmote-cc2538_armgcc/openstack/02b-MAChigh/schedule.c **** 
  37:build/openmote-cc2538_armgcc/openstack/02b-MAChigh/schedule.c ****     // reset local variables
  38:build/openmote-cc2538_armgcc/openstack/02b-MAChigh/schedule.c ****     memset(&schedule_vars,0,sizeof(schedule_vars_t));
 151              		.loc 1 38 0
 152 0006 4FF45372 		mov	r2, #844
 153 000a 0021     		movs	r1, #0
 154 000c 2348     		ldr	r0, .L7
 155 000e FFF7FEFF 		bl	memset
  39:build/openmote-cc2538_armgcc/openstack/02b-MAChigh/schedule.c ****     for (running_slotOffset=0;running_slotOffset<MAXACTIVESLOTS;running_slotOffset++) {
 156              		.loc 1 39 0
 157 0012 0023     		movs	r3, #0
 158 0014 FB82     		strh	r3, [r7, #22]	@ movhi
 159 0016 0CE0     		b	.L2
 160              	.L3:
  40:build/openmote-cc2538_armgcc/openstack/02b-MAChigh/schedule.c ****         schedule_resetEntry(&schedule_vars.scheduleBuf[running_slotOffset]);
 161              		.loc 1 40 0 discriminator 3
 162 0018 FA8A     		ldrh	r2, [r7, #22]
 163 001a 1346     		mov	r3, r2
 164 001c DB00     		lsls	r3, r3, #3
 165 001e 1344     		add	r3, r3, r2
 166 0020 9B00     		lsls	r3, r3, #2
 167 0022 1E4A     		ldr	r2, .L7
 168 0024 1344     		add	r3, r3, r2
 169 0026 1846     		mov	r0, r3
 170 0028 FFF7FEFF 		bl	schedule_resetEntry
  39:build/openmote-cc2538_armgcc/openstack/02b-MAChigh/schedule.c ****     for (running_slotOffset=0;running_slotOffset<MAXACTIVESLOTS;running_slotOffset++) {
 171              		.loc 1 39 0 discriminator 3
 172 002c FB8A     		ldrh	r3, [r7, #22]
 173 002e 0133     		adds	r3, r3, #1
 174 0030 FB82     		strh	r3, [r7, #22]	@ movhi
 175              	.L2:
  39:build/openmote-cc2538_armgcc/openstack/02b-MAChigh/schedule.c ****     for (running_slotOffset=0;running_slotOffset<MAXACTIVESLOTS;running_slotOffset++) {
 176              		.loc 1 39 0 is_stmt 0 discriminator 1
 177 0032 FB8A     		ldrh	r3, [r7, #22]
 178 0034 162B     		cmp	r3, #22
 179 0036 EFD9     		bls	.L3
  41:build/openmote-cc2538_armgcc/openstack/02b-MAChigh/schedule.c ****     }
  42:build/openmote-cc2538_armgcc/openstack/02b-MAChigh/schedule.c ****     schedule_vars.backoffExponenton   = MINBE-1;
 180              		.loc 1 42 0 is_stmt 1
 181 0038 184B     		ldr	r3, .L7
 182 003a 0122     		movs	r2, #1
 183 003c 83F84623 		strb	r2, [r3, #838]
  43:build/openmote-cc2538_armgcc/openstack/02b-MAChigh/schedule.c ****     schedule_vars.maxActiveSlots = MAXACTIVESLOTS;
 184              		.loc 1 43 0
 185 0040 164B     		ldr	r3, .L7
 186 0042 1722     		movs	r2, #23
 187 0044 A3F84223 		strh	r2, [r3, #834]	@ movhi
  44:build/openmote-cc2538_armgcc/openstack/02b-MAChigh/schedule.c ****     
  45:build/openmote-cc2538_armgcc/openstack/02b-MAChigh/schedule.c ****     start_slotOffset = SCHEDULE_MINIMAL_6TISCH_SLOTOFFSET;
 188              		.loc 1 45 0
 189 0048 0023     		movs	r3, #0
 190 004a BB82     		strh	r3, [r7, #20]	@ movhi
  46:build/openmote-cc2538_armgcc/openstack/02b-MAChigh/schedule.c ****     if (idmanager_getIsDAGroot()==TRUE) {
 191              		.loc 1 46 0
 192 004c FFF7FEFF 		bl	idmanager_getIsDAGroot
 193 0050 0346     		mov	r3, r0
 194 0052 002B     		cmp	r3, #0
 195 0054 01D0     		beq	.L4
  47:build/openmote-cc2538_armgcc/openstack/02b-MAChigh/schedule.c ****         schedule_startDAGroot();
 196              		.loc 1 47 0
 197 0056 FFF7FEFF 		bl	schedule_startDAGroot
 198              	.L4:
  48:build/openmote-cc2538_armgcc/openstack/02b-MAChigh/schedule.c ****     }
  49:build/openmote-cc2538_armgcc/openstack/02b-MAChigh/schedule.c ****     
  50:build/openmote-cc2538_armgcc/openstack/02b-MAChigh/schedule.c ****     // serial RX slot(s)
  51:build/openmote-cc2538_armgcc/openstack/02b-MAChigh/schedule.c ****     start_slotOffset += SCHEDULE_MINIMAL_6TISCH_ACTIVE_CELLS;
 199              		.loc 1 51 0
 200 005a BB8A     		ldrh	r3, [r7, #20]	@ movhi
 201 005c 0133     		adds	r3, r3, #1
 202 005e BB82     		strh	r3, [r7, #20]	@ movhi
  52:build/openmote-cc2538_armgcc/openstack/02b-MAChigh/schedule.c ****     memset(&temp_neighbor,0,sizeof(temp_neighbor));
 203              		.loc 1 52 0
 204 0060 3B46     		mov	r3, r7
 205 0062 1122     		movs	r2, #17
 206 0064 0021     		movs	r1, #0
 207 0066 1846     		mov	r0, r3
 208 0068 FFF7FEFF 		bl	memset
  53:build/openmote-cc2538_armgcc/openstack/02b-MAChigh/schedule.c ****     for (running_slotOffset=start_slotOffset;running_slotOffset<start_slotOffset+NUMSERIALRX;runnin
 209              		.loc 1 53 0
 210 006c BB8A     		ldrh	r3, [r7, #20]	@ movhi
 211 006e FB82     		strh	r3, [r7, #22]	@ movhi
 212 0070 0AE0     		b	.L5
 213              	.L6:
  54:build/openmote-cc2538_armgcc/openstack/02b-MAChigh/schedule.c ****         schedule_addActiveSlot(
 214              		.loc 1 54 0 discriminator 3
 215 0072 F88A     		ldrh	r0, [r7, #22]
 216 0074 3B46     		mov	r3, r7
 217 0076 0093     		str	r3, [sp]
 218 0078 0023     		movs	r3, #0
 219 007a 0022     		movs	r2, #0
 220 007c 0421     		movs	r1, #4
 221 007e FFF7FEFF 		bl	schedule_addActiveSlot
  53:build/openmote-cc2538_armgcc/openstack/02b-MAChigh/schedule.c ****     for (running_slotOffset=start_slotOffset;running_slotOffset<start_slotOffset+NUMSERIALRX;runnin
 222              		.loc 1 53 0 discriminator 3
 223 0082 FB8A     		ldrh	r3, [r7, #22]
 224 0084 0133     		adds	r3, r3, #1
 225 0086 FB82     		strh	r3, [r7, #22]	@ movhi
 226              	.L5:
  53:build/openmote-cc2538_armgcc/openstack/02b-MAChigh/schedule.c ****     for (running_slotOffset=start_slotOffset;running_slotOffset<start_slotOffset+NUMSERIALRX;runnin
 227              		.loc 1 53 0 is_stmt 0 discriminator 1
 228 0088 FA8A     		ldrh	r2, [r7, #22]
 229 008a BB8A     		ldrh	r3, [r7, #20]
 230 008c 0333     		adds	r3, r3, #3
 231 008e 9A42     		cmp	r2, r3
 232 0090 EFDB     		blt	.L6
  55:build/openmote-cc2538_armgcc/openstack/02b-MAChigh/schedule.c ****             running_slotOffset,                    // slot offset
  56:build/openmote-cc2538_armgcc/openstack/02b-MAChigh/schedule.c ****             CELLTYPE_SERIALRX,                     // type of slot
  57:build/openmote-cc2538_armgcc/openstack/02b-MAChigh/schedule.c ****             FALSE,                                 // shared?
  58:build/openmote-cc2538_armgcc/openstack/02b-MAChigh/schedule.c ****             0,                                     // channel offset
  59:build/openmote-cc2538_armgcc/openstack/02b-MAChigh/schedule.c ****             &temp_neighbor                         // neighbor
  60:build/openmote-cc2538_armgcc/openstack/02b-MAChigh/schedule.c ****         );
  61:build/openmote-cc2538_armgcc/openstack/02b-MAChigh/schedule.c ****     }
  62:build/openmote-cc2538_armgcc/openstack/02b-MAChigh/schedule.c **** }
 233              		.loc 1 62 0 is_stmt 1
 234 0092 00BF     		nop
 235 0094 1837     		adds	r7, r7, #24
 236              		.cfi_def_cfa_offset 8
 237 0096 BD46     		mov	sp, r7
 238              		.cfi_def_cfa_register 13
 239              		@ sp needed
 240 0098 80BD     		pop	{r7, pc}
 241              	.L8:
 242 009a 00BF     		.align	2
 243              	.L7:
 244 009c 00000000 		.word	schedule_vars
 245              		.cfi_endproc
 246              	.LFE0:
 248              		.align	2
 249              		.global	schedule_startDAGroot
 250              		.thumb
 251              		.thumb_func
 253              	schedule_startDAGroot:
 254              	.LFB1:
  63:build/openmote-cc2538_armgcc/openstack/02b-MAChigh/schedule.c **** 
  64:build/openmote-cc2538_armgcc/openstack/02b-MAChigh/schedule.c **** /**
  65:build/openmote-cc2538_armgcc/openstack/02b-MAChigh/schedule.c **** \brief Starting the DAGroot schedule propagation.
  66:build/openmote-cc2538_armgcc/openstack/02b-MAChigh/schedule.c **** */
  67:build/openmote-cc2538_armgcc/openstack/02b-MAChigh/schedule.c **** void schedule_startDAGroot() {
 255              		.loc 1 67 0
 256              		.cfi_startproc
 257              		@ args = 0, pretend = 0, frame = 24
 258              		@ frame_needed = 1, uses_anonymous_args = 0
 259 00a0 80B5     		push	{r7, lr}
 260              		.cfi_def_cfa_offset 8
 261              		.cfi_offset 7, -8
 262              		.cfi_offset 14, -4
 263 00a2 88B0     		sub	sp, sp, #32
 264              		.cfi_def_cfa_offset 40
 265 00a4 02AF     		add	r7, sp, #8
 266              		.cfi_def_cfa 7, 32
  68:build/openmote-cc2538_armgcc/openstack/02b-MAChigh/schedule.c ****    slotOffset_t    start_slotOffset;
  69:build/openmote-cc2538_armgcc/openstack/02b-MAChigh/schedule.c ****    slotOffset_t    running_slotOffset;
  70:build/openmote-cc2538_armgcc/openstack/02b-MAChigh/schedule.c ****    open_addr_t     temp_neighbor;
  71:build/openmote-cc2538_armgcc/openstack/02b-MAChigh/schedule.c ****    
  72:build/openmote-cc2538_armgcc/openstack/02b-MAChigh/schedule.c ****    start_slotOffset = SCHEDULE_MINIMAL_6TISCH_SLOTOFFSET;
 267              		.loc 1 72 0
 268 00a6 0023     		movs	r3, #0
 269 00a8 BB82     		strh	r3, [r7, #20]	@ movhi
  73:build/openmote-cc2538_armgcc/openstack/02b-MAChigh/schedule.c ****    // set frame length, handle and number (default 1 by now)
  74:build/openmote-cc2538_armgcc/openstack/02b-MAChigh/schedule.c ****    if (schedule_vars.frameLength == 0) {
 270              		.loc 1 74 0
 271 00aa 164B     		ldr	r3, .L13
 272 00ac B3F84033 		ldrh	r3, [r3, #832]
 273 00b0 002B     		cmp	r3, #0
 274 00b2 02D1     		bne	.L10
  75:build/openmote-cc2538_armgcc/openstack/02b-MAChigh/schedule.c ****        // slotframe length is not set, set it to default length
  76:build/openmote-cc2538_armgcc/openstack/02b-MAChigh/schedule.c ****        schedule_setFrameLength(SLOTFRAME_LENGTH);
 275              		.loc 1 76 0
 276 00b4 1720     		movs	r0, #23
 277 00b6 FFF7FEFF 		bl	schedule_setFrameLength
 278              	.L10:
  77:build/openmote-cc2538_armgcc/openstack/02b-MAChigh/schedule.c ****    } else {
  78:build/openmote-cc2538_armgcc/openstack/02b-MAChigh/schedule.c ****        // slotframe elgnth is set, nothing to do here
  79:build/openmote-cc2538_armgcc/openstack/02b-MAChigh/schedule.c ****    }
  80:build/openmote-cc2538_armgcc/openstack/02b-MAChigh/schedule.c ****    schedule_setFrameHandle(SCHEDULE_MINIMAL_6TISCH_DEFAULT_SLOTFRAME_HANDLE);
 279              		.loc 1 80 0
 280 00ba 0020     		movs	r0, #0
 281 00bc FFF7FEFF 		bl	schedule_setFrameHandle
  81:build/openmote-cc2538_armgcc/openstack/02b-MAChigh/schedule.c ****    schedule_setFrameNumber(SCHEDULE_MINIMAL_6TISCH_DEFAULT_SLOTFRAME_NUMBER);
 282              		.loc 1 81 0
 283 00c0 0120     		movs	r0, #1
 284 00c2 FFF7FEFF 		bl	schedule_setFrameNumber
  82:build/openmote-cc2538_armgcc/openstack/02b-MAChigh/schedule.c **** 
  83:build/openmote-cc2538_armgcc/openstack/02b-MAChigh/schedule.c ****    // shared TXRX anycast slot(s)
  84:build/openmote-cc2538_armgcc/openstack/02b-MAChigh/schedule.c ****    memset(&temp_neighbor,0,sizeof(temp_neighbor));
 285              		.loc 1 84 0
 286 00c6 3B46     		mov	r3, r7
 287 00c8 1122     		movs	r2, #17
 288 00ca 0021     		movs	r1, #0
 289 00cc 1846     		mov	r0, r3
 290 00ce FFF7FEFF 		bl	memset
  85:build/openmote-cc2538_armgcc/openstack/02b-MAChigh/schedule.c ****    temp_neighbor.type             = ADDR_ANYCAST;
 291              		.loc 1 85 0
 292 00d2 0623     		movs	r3, #6
 293 00d4 3B70     		strb	r3, [r7]
  86:build/openmote-cc2538_armgcc/openstack/02b-MAChigh/schedule.c ****    for (running_slotOffset=start_slotOffset;running_slotOffset<start_slotOffset+SCHEDULE_MINIMAL_6T
 294              		.loc 1 86 0
 295 00d6 BB8A     		ldrh	r3, [r7, #20]	@ movhi
 296 00d8 FB82     		strh	r3, [r7, #22]	@ movhi
 297 00da 0AE0     		b	.L11
 298              	.L12:
  87:build/openmote-cc2538_armgcc/openstack/02b-MAChigh/schedule.c ****       schedule_addActiveSlot(
 299              		.loc 1 87 0 discriminator 3
 300 00dc F88A     		ldrh	r0, [r7, #22]
 301 00de 3B46     		mov	r3, r7
 302 00e0 0093     		str	r3, [sp]
 303 00e2 0023     		movs	r3, #0
 304 00e4 0122     		movs	r2, #1
 305 00e6 0321     		movs	r1, #3
 306 00e8 FFF7FEFF 		bl	schedule_addActiveSlot
  86:build/openmote-cc2538_armgcc/openstack/02b-MAChigh/schedule.c ****    for (running_slotOffset=start_slotOffset;running_slotOffset<start_slotOffset+SCHEDULE_MINIMAL_6T
 307              		.loc 1 86 0 discriminator 3
 308 00ec FB8A     		ldrh	r3, [r7, #22]
 309 00ee 0133     		adds	r3, r3, #1
 310 00f0 FB82     		strh	r3, [r7, #22]	@ movhi
 311              	.L11:
  86:build/openmote-cc2538_armgcc/openstack/02b-MAChigh/schedule.c ****    for (running_slotOffset=start_slotOffset;running_slotOffset<start_slotOffset+SCHEDULE_MINIMAL_6T
 312              		.loc 1 86 0 is_stmt 0 discriminator 1
 313 00f2 FA8A     		ldrh	r2, [r7, #22]
 314 00f4 BB8A     		ldrh	r3, [r7, #20]
 315 00f6 0133     		adds	r3, r3, #1
 316 00f8 9A42     		cmp	r2, r3
 317 00fa EFDB     		blt	.L12
  88:build/openmote-cc2538_armgcc/openstack/02b-MAChigh/schedule.c ****          running_slotOffset,                 // slot offset
  89:build/openmote-cc2538_armgcc/openstack/02b-MAChigh/schedule.c ****          CELLTYPE_TXRX,                      // type of slot
  90:build/openmote-cc2538_armgcc/openstack/02b-MAChigh/schedule.c ****          TRUE,                               // shared?
  91:build/openmote-cc2538_armgcc/openstack/02b-MAChigh/schedule.c ****          SCHEDULE_MINIMAL_6TISCH_CHANNELOFFSET,    // channel offset
  92:build/openmote-cc2538_armgcc/openstack/02b-MAChigh/schedule.c ****          &temp_neighbor                      // neighbor
  93:build/openmote-cc2538_armgcc/openstack/02b-MAChigh/schedule.c ****       );
  94:build/openmote-cc2538_armgcc/openstack/02b-MAChigh/schedule.c ****    }
  95:build/openmote-cc2538_armgcc/openstack/02b-MAChigh/schedule.c **** }
 318              		.loc 1 95 0 is_stmt 1
 319 00fc 00BF     		nop
 320 00fe 1837     		adds	r7, r7, #24
 321              		.cfi_def_cfa_offset 8
 322 0100 BD46     		mov	sp, r7
 323              		.cfi_def_cfa_register 13
 324              		@ sp needed
 325 0102 80BD     		pop	{r7, pc}
 326              	.L14:
 327              		.align	2
 328              	.L13:
 329 0104 00000000 		.word	schedule_vars
 330              		.cfi_endproc
 331              	.LFE1:
 333              		.align	2
 334              		.global	debugPrint_schedule
 335              		.thumb
 336              		.thumb_func
 338              	debugPrint_schedule:
 339              	.LFB2:
  96:build/openmote-cc2538_armgcc/openstack/02b-MAChigh/schedule.c **** 
  97:build/openmote-cc2538_armgcc/openstack/02b-MAChigh/schedule.c **** /**
  98:build/openmote-cc2538_armgcc/openstack/02b-MAChigh/schedule.c **** \brief Trigger this module to print status information, over serial.
  99:build/openmote-cc2538_armgcc/openstack/02b-MAChigh/schedule.c **** 
 100:build/openmote-cc2538_armgcc/openstack/02b-MAChigh/schedule.c **** debugPrint_* functions are used by the openserial module to continuously print
 101:build/openmote-cc2538_armgcc/openstack/02b-MAChigh/schedule.c **** status information about several modules in the OpenWSN stack.
 102:build/openmote-cc2538_armgcc/openstack/02b-MAChigh/schedule.c **** 
 103:build/openmote-cc2538_armgcc/openstack/02b-MAChigh/schedule.c **** \returns TRUE if this function printed something, FALSE otherwise.
 104:build/openmote-cc2538_armgcc/openstack/02b-MAChigh/schedule.c **** */
 105:build/openmote-cc2538_armgcc/openstack/02b-MAChigh/schedule.c **** bool debugPrint_schedule() {
 340              		.loc 1 105 0
 341              		.cfi_startproc
 342              		@ args = 0, pretend = 0, frame = 32
 343              		@ frame_needed = 1, uses_anonymous_args = 0
 344 0108 B0B5     		push	{r4, r5, r7, lr}
 345              		.cfi_def_cfa_offset 16
 346              		.cfi_offset 4, -16
 347              		.cfi_offset 5, -12
 348              		.cfi_offset 7, -8
 349              		.cfi_offset 14, -4
 350 010a 88B0     		sub	sp, sp, #32
 351              		.cfi_def_cfa_offset 48
 352 010c 00AF     		add	r7, sp, #0
 353              		.cfi_def_cfa_register 7
 106:build/openmote-cc2538_armgcc/openstack/02b-MAChigh/schedule.c ****    debugScheduleEntry_t temp;
 107:build/openmote-cc2538_armgcc/openstack/02b-MAChigh/schedule.c ****    
 108:build/openmote-cc2538_armgcc/openstack/02b-MAChigh/schedule.c ****    // increment the row just printed
 109:build/openmote-cc2538_armgcc/openstack/02b-MAChigh/schedule.c ****    schedule_vars.debugPrintRow         = (schedule_vars.debugPrintRow+1)%schedule_vars.maxActiveSlo
 354              		.loc 1 109 0
 355 010e 514B     		ldr	r3, .L17
 356 0110 93F84833 		ldrb	r3, [r3, #840]	@ zero_extendqisi2
 357 0114 0133     		adds	r3, r3, #1
 358 0116 4F4A     		ldr	r2, .L17
 359 0118 B2F84223 		ldrh	r2, [r2, #834]
 360 011c 93FBF2F1 		sdiv	r1, r3, r2
 361 0120 02FB01F2 		mul	r2, r2, r1
 362 0124 9B1A     		subs	r3, r3, r2
 363 0126 DAB2     		uxtb	r2, r3
 364 0128 4A4B     		ldr	r3, .L17
 365 012a 83F84823 		strb	r2, [r3, #840]
 110:build/openmote-cc2538_armgcc/openstack/02b-MAChigh/schedule.c ****    
 111:build/openmote-cc2538_armgcc/openstack/02b-MAChigh/schedule.c ****    // gather status data
 112:build/openmote-cc2538_armgcc/openstack/02b-MAChigh/schedule.c ****    temp.row                            = schedule_vars.debugPrintRow;
 366              		.loc 1 112 0
 367 012e 494B     		ldr	r3, .L17
 368 0130 93F84833 		ldrb	r3, [r3, #840]	@ zero_extendqisi2
 369 0134 3B70     		strb	r3, [r7]
 113:build/openmote-cc2538_armgcc/openstack/02b-MAChigh/schedule.c ****    temp.slotOffset                     = \
 114:build/openmote-cc2538_armgcc/openstack/02b-MAChigh/schedule.c ****       schedule_vars.scheduleBuf[schedule_vars.debugPrintRow].slotOffset;
 370              		.loc 1 114 0
 371 0136 474B     		ldr	r3, .L17
 372 0138 93F84833 		ldrb	r3, [r3, #840]	@ zero_extendqisi2
 373 013c 1946     		mov	r1, r3
 374 013e 454A     		ldr	r2, .L17
 375 0140 0B46     		mov	r3, r1
 376 0142 DB00     		lsls	r3, r3, #3
 377 0144 0B44     		add	r3, r3, r1
 378 0146 9B00     		lsls	r3, r3, #2
 379 0148 1344     		add	r3, r3, r2
 380 014a 1B88     		ldrh	r3, [r3]
 113:build/openmote-cc2538_armgcc/openstack/02b-MAChigh/schedule.c ****    temp.slotOffset                     = \
 381              		.loc 1 113 0
 382 014c A7F80130 		strh	r3, [r7, #1]	@ unaligned
 115:build/openmote-cc2538_armgcc/openstack/02b-MAChigh/schedule.c ****    temp.type                           = \
 116:build/openmote-cc2538_armgcc/openstack/02b-MAChigh/schedule.c ****       schedule_vars.scheduleBuf[schedule_vars.debugPrintRow].type;
 383              		.loc 1 116 0
 384 0150 404B     		ldr	r3, .L17
 385 0152 93F84833 		ldrb	r3, [r3, #840]	@ zero_extendqisi2
 115:build/openmote-cc2538_armgcc/openstack/02b-MAChigh/schedule.c ****    temp.type                           = \
 386              		.loc 1 115 0
 387 0156 1946     		mov	r1, r3
 388              		.loc 1 116 0
 389 0158 3E4A     		ldr	r2, .L17
 390 015a 0B46     		mov	r3, r1
 391 015c DB00     		lsls	r3, r3, #3
 392 015e 0B44     		add	r3, r3, r1
 393 0160 9B00     		lsls	r3, r3, #2
 394 0162 1344     		add	r3, r3, r2
 395 0164 0233     		adds	r3, r3, #2
 396 0166 1B78     		ldrb	r3, [r3]	@ zero_extendqisi2
 115:build/openmote-cc2538_armgcc/openstack/02b-MAChigh/schedule.c ****    temp.type                           = \
 397              		.loc 1 115 0
 398 0168 FB70     		strb	r3, [r7, #3]
 117:build/openmote-cc2538_armgcc/openstack/02b-MAChigh/schedule.c ****    temp.shared                         = \
 118:build/openmote-cc2538_armgcc/openstack/02b-MAChigh/schedule.c ****       schedule_vars.scheduleBuf[schedule_vars.debugPrintRow].shared;
 399              		.loc 1 118 0
 400 016a 3A4B     		ldr	r3, .L17
 401 016c 93F84833 		ldrb	r3, [r3, #840]	@ zero_extendqisi2
 402 0170 1946     		mov	r1, r3
 403 0172 384A     		ldr	r2, .L17
 404 0174 0B46     		mov	r3, r1
 405 0176 DB00     		lsls	r3, r3, #3
 406 0178 0B44     		add	r3, r3, r1
 407 017a 9B00     		lsls	r3, r3, #2
 408 017c 1344     		add	r3, r3, r2
 409 017e 0333     		adds	r3, r3, #3
 410 0180 1B78     		ldrb	r3, [r3]	@ zero_extendqisi2
 117:build/openmote-cc2538_armgcc/openstack/02b-MAChigh/schedule.c ****    temp.shared                         = \
 411              		.loc 1 117 0
 412 0182 3B71     		strb	r3, [r7, #4]
 119:build/openmote-cc2538_armgcc/openstack/02b-MAChigh/schedule.c ****    temp.channelOffset                  = \
 120:build/openmote-cc2538_armgcc/openstack/02b-MAChigh/schedule.c ****       schedule_vars.scheduleBuf[schedule_vars.debugPrintRow].channelOffset;
 413              		.loc 1 120 0
 414 0184 334B     		ldr	r3, .L17
 415 0186 93F84833 		ldrb	r3, [r3, #840]	@ zero_extendqisi2
 416 018a 1946     		mov	r1, r3
 417 018c 314A     		ldr	r2, .L17
 418 018e 0B46     		mov	r3, r1
 419 0190 DB00     		lsls	r3, r3, #3
 420 0192 0B44     		add	r3, r3, r1
 421 0194 9B00     		lsls	r3, r3, #2
 422 0196 1344     		add	r3, r3, r2
 423 0198 0433     		adds	r3, r3, #4
 424 019a 1B78     		ldrb	r3, [r3]	@ zero_extendqisi2
 119:build/openmote-cc2538_armgcc/openstack/02b-MAChigh/schedule.c ****    temp.channelOffset                  = \
 425              		.loc 1 119 0
 426 019c 7B71     		strb	r3, [r7, #5]
 121:build/openmote-cc2538_armgcc/openstack/02b-MAChigh/schedule.c ****    memcpy(
 122:build/openmote-cc2538_armgcc/openstack/02b-MAChigh/schedule.c ****       &temp.neighbor,
 123:build/openmote-cc2538_armgcc/openstack/02b-MAChigh/schedule.c ****       &schedule_vars.scheduleBuf[schedule_vars.debugPrintRow].neighbor,
 427              		.loc 1 123 0
 428 019e 2D4B     		ldr	r3, .L17
 429 01a0 93F84833 		ldrb	r3, [r3, #840]	@ zero_extendqisi2
 430 01a4 1A46     		mov	r2, r3
 431 01a6 1346     		mov	r3, r2
 432 01a8 DB00     		lsls	r3, r3, #3
 433 01aa 1344     		add	r3, r3, r2
 434 01ac 9B00     		lsls	r3, r3, #2
 435 01ae 294A     		ldr	r2, .L17
 436 01b0 1344     		add	r3, r3, r2
 437 01b2 5A1D     		adds	r2, r3, #5
 121:build/openmote-cc2538_armgcc/openstack/02b-MAChigh/schedule.c ****    memcpy(
 438              		.loc 1 121 0
 439 01b4 BB1D     		adds	r3, r7, #6
 440 01b6 1568     		ldr	r5, [r2]	@ unaligned
 441 01b8 5468     		ldr	r4, [r2, #4]	@ unaligned
 442 01ba 9068     		ldr	r0, [r2, #8]	@ unaligned
 443 01bc D168     		ldr	r1, [r2, #12]	@ unaligned
 444 01be 1D60     		str	r5, [r3]	@ unaligned
 445 01c0 5C60     		str	r4, [r3, #4]	@ unaligned
 446 01c2 9860     		str	r0, [r3, #8]	@ unaligned
 447 01c4 D960     		str	r1, [r3, #12]	@ unaligned
 448 01c6 127C     		ldrb	r2, [r2, #16]
 449 01c8 1A74     		strb	r2, [r3, #16]
 124:build/openmote-cc2538_armgcc/openstack/02b-MAChigh/schedule.c ****       sizeof(open_addr_t)
 125:build/openmote-cc2538_armgcc/openstack/02b-MAChigh/schedule.c ****    );
 126:build/openmote-cc2538_armgcc/openstack/02b-MAChigh/schedule.c ****    temp.numRx                          = \
 127:build/openmote-cc2538_armgcc/openstack/02b-MAChigh/schedule.c ****       schedule_vars.scheduleBuf[schedule_vars.debugPrintRow].numRx;
 450              		.loc 1 127 0
 451 01ca 224B     		ldr	r3, .L17
 452 01cc 93F84833 		ldrb	r3, [r3, #840]	@ zero_extendqisi2
 453 01d0 1946     		mov	r1, r3
 454 01d2 204A     		ldr	r2, .L17
 455 01d4 0B46     		mov	r3, r1
 456 01d6 DB00     		lsls	r3, r3, #3
 457 01d8 0B44     		add	r3, r3, r1
 458 01da 9B00     		lsls	r3, r3, #2
 459 01dc 1344     		add	r3, r3, r2
 460 01de 1633     		adds	r3, r3, #22
 461 01e0 1B78     		ldrb	r3, [r3]	@ zero_extendqisi2
 126:build/openmote-cc2538_armgcc/openstack/02b-MAChigh/schedule.c ****       schedule_vars.scheduleBuf[schedule_vars.debugPrintRow].numRx;
 462              		.loc 1 126 0
 463 01e2 FB75     		strb	r3, [r7, #23]
 128:build/openmote-cc2538_armgcc/openstack/02b-MAChigh/schedule.c ****    temp.numTx                          = \
 129:build/openmote-cc2538_armgcc/openstack/02b-MAChigh/schedule.c ****       schedule_vars.scheduleBuf[schedule_vars.debugPrintRow].numTx;
 464              		.loc 1 129 0
 465 01e4 1B4B     		ldr	r3, .L17
 466 01e6 93F84833 		ldrb	r3, [r3, #840]	@ zero_extendqisi2
 467 01ea 1946     		mov	r1, r3
 468 01ec 194A     		ldr	r2, .L17
 469 01ee 0B46     		mov	r3, r1
 470 01f0 DB00     		lsls	r3, r3, #3
 471 01f2 0B44     		add	r3, r3, r1
 472 01f4 9B00     		lsls	r3, r3, #2
 473 01f6 1344     		add	r3, r3, r2
 474 01f8 1733     		adds	r3, r3, #23
 475 01fa 1B78     		ldrb	r3, [r3]	@ zero_extendqisi2
 128:build/openmote-cc2538_armgcc/openstack/02b-MAChigh/schedule.c ****    temp.numTx                          = \
 476              		.loc 1 128 0
 477 01fc 3B76     		strb	r3, [r7, #24]
 130:build/openmote-cc2538_armgcc/openstack/02b-MAChigh/schedule.c ****    temp.numTxACK                       = \
 131:build/openmote-cc2538_armgcc/openstack/02b-MAChigh/schedule.c ****       schedule_vars.scheduleBuf[schedule_vars.debugPrintRow].numTxACK;
 478              		.loc 1 131 0
 479 01fe 154B     		ldr	r3, .L17
 480 0200 93F84833 		ldrb	r3, [r3, #840]	@ zero_extendqisi2
 481 0204 1946     		mov	r1, r3
 482 0206 134A     		ldr	r2, .L17
 483 0208 0B46     		mov	r3, r1
 484 020a DB00     		lsls	r3, r3, #3
 485 020c 0B44     		add	r3, r3, r1
 486 020e 9B00     		lsls	r3, r3, #2
 487 0210 1344     		add	r3, r3, r2
 488 0212 1833     		adds	r3, r3, #24
 489 0214 1B78     		ldrb	r3, [r3]	@ zero_extendqisi2
 130:build/openmote-cc2538_armgcc/openstack/02b-MAChigh/schedule.c ****    temp.numTxACK                       = \
 490              		.loc 1 130 0
 491 0216 7B76     		strb	r3, [r7, #25]
 132:build/openmote-cc2538_armgcc/openstack/02b-MAChigh/schedule.c ****    memcpy(
 133:build/openmote-cc2538_armgcc/openstack/02b-MAChigh/schedule.c ****       &temp.lastUsedAsn,
 134:build/openmote-cc2538_armgcc/openstack/02b-MAChigh/schedule.c ****       &schedule_vars.scheduleBuf[schedule_vars.debugPrintRow].lastUsedAsn,
 492              		.loc 1 134 0
 493 0218 0E4B     		ldr	r3, .L17
 494 021a 93F84833 		ldrb	r3, [r3, #840]	@ zero_extendqisi2
 495 021e 1A46     		mov	r2, r3
 496 0220 1346     		mov	r3, r2
 497 0222 DB00     		lsls	r3, r3, #3
 498 0224 1344     		add	r3, r3, r2
 499 0226 9B00     		lsls	r3, r3, #2
 500 0228 1833     		adds	r3, r3, #24
 501 022a 0A4A     		ldr	r2, .L17
 502 022c 1344     		add	r3, r3, r2
 503 022e 5A1C     		adds	r2, r3, #1
 132:build/openmote-cc2538_armgcc/openstack/02b-MAChigh/schedule.c ****    memcpy(
 504              		.loc 1 132 0
 505 0230 07F11A03 		add	r3, r7, #26
 506 0234 1168     		ldr	r1, [r2]	@ unaligned
 507 0236 1960     		str	r1, [r3]	@ unaligned
 508 0238 1279     		ldrb	r2, [r2, #4]
 509 023a 1A71     		strb	r2, [r3, #4]
 135:build/openmote-cc2538_armgcc/openstack/02b-MAChigh/schedule.c ****       sizeof(asn_t)
 136:build/openmote-cc2538_armgcc/openstack/02b-MAChigh/schedule.c ****    );
 137:build/openmote-cc2538_armgcc/openstack/02b-MAChigh/schedule.c ****    
 138:build/openmote-cc2538_armgcc/openstack/02b-MAChigh/schedule.c ****    // send status data over serial port
 139:build/openmote-cc2538_armgcc/openstack/02b-MAChigh/schedule.c ****    openserial_printStatus(
 510              		.loc 1 139 0
 511 023c 3B46     		mov	r3, r7
 512 023e 1F22     		movs	r2, #31
 513 0240 1946     		mov	r1, r3
 514 0242 0620     		movs	r0, #6
 515 0244 FFF7FEFF 		bl	openserial_printStatus
 140:build/openmote-cc2538_armgcc/openstack/02b-MAChigh/schedule.c ****       STATUS_SCHEDULE,
 141:build/openmote-cc2538_armgcc/openstack/02b-MAChigh/schedule.c ****       (uint8_t*)&temp,
 142:build/openmote-cc2538_armgcc/openstack/02b-MAChigh/schedule.c ****       sizeof(debugScheduleEntry_t)
 143:build/openmote-cc2538_armgcc/openstack/02b-MAChigh/schedule.c ****    );
 144:build/openmote-cc2538_armgcc/openstack/02b-MAChigh/schedule.c ****    
 145:build/openmote-cc2538_armgcc/openstack/02b-MAChigh/schedule.c ****    return TRUE;
 516              		.loc 1 145 0
 517 0248 0123     		movs	r3, #1
 146:build/openmote-cc2538_armgcc/openstack/02b-MAChigh/schedule.c **** }
 518              		.loc 1 146 0
 519 024a 1846     		mov	r0, r3
 520 024c 2037     		adds	r7, r7, #32
 521              		.cfi_def_cfa_offset 16
 522 024e BD46     		mov	sp, r7
 523              		.cfi_def_cfa_register 13
 524              		@ sp needed
 525 0250 B0BD     		pop	{r4, r5, r7, pc}
 526              	.L18:
 527 0252 00BF     		.align	2
 528              	.L17:
 529 0254 00000000 		.word	schedule_vars
 530              		.cfi_endproc
 531              	.LFE2:
 533              		.align	2
 534              		.global	debugPrint_backoff
 535              		.thumb
 536              		.thumb_func
 538              	debugPrint_backoff:
 539              	.LFB3:
 147:build/openmote-cc2538_armgcc/openstack/02b-MAChigh/schedule.c **** 
 148:build/openmote-cc2538_armgcc/openstack/02b-MAChigh/schedule.c **** /**
 149:build/openmote-cc2538_armgcc/openstack/02b-MAChigh/schedule.c **** \brief Trigger this module to print status information, over serial.
 150:build/openmote-cc2538_armgcc/openstack/02b-MAChigh/schedule.c **** 
 151:build/openmote-cc2538_armgcc/openstack/02b-MAChigh/schedule.c **** debugPrint_* functions are used by the openserial module to continuously print
 152:build/openmote-cc2538_armgcc/openstack/02b-MAChigh/schedule.c **** status information about several modules in the OpenWSN stack.
 153:build/openmote-cc2538_armgcc/openstack/02b-MAChigh/schedule.c **** 
 154:build/openmote-cc2538_armgcc/openstack/02b-MAChigh/schedule.c **** \returns TRUE if this function printed something, FALSE otherwise.
 155:build/openmote-cc2538_armgcc/openstack/02b-MAChigh/schedule.c **** */
 156:build/openmote-cc2538_armgcc/openstack/02b-MAChigh/schedule.c **** bool debugPrint_backoff() {
 540              		.loc 1 156 0
 541              		.cfi_startproc
 542              		@ args = 0, pretend = 0, frame = 8
 543              		@ frame_needed = 1, uses_anonymous_args = 0
 544 0258 80B5     		push	{r7, lr}
 545              		.cfi_def_cfa_offset 8
 546              		.cfi_offset 7, -8
 547              		.cfi_offset 14, -4
 548 025a 82B0     		sub	sp, sp, #8
 549              		.cfi_def_cfa_offset 16
 550 025c 00AF     		add	r7, sp, #0
 551              		.cfi_def_cfa_register 7
 157:build/openmote-cc2538_armgcc/openstack/02b-MAChigh/schedule.c ****    uint8_t temp[2];
 158:build/openmote-cc2538_armgcc/openstack/02b-MAChigh/schedule.c ****    
 159:build/openmote-cc2538_armgcc/openstack/02b-MAChigh/schedule.c ****    // gather status data
 160:build/openmote-cc2538_armgcc/openstack/02b-MAChigh/schedule.c ****    temp[0] = schedule_vars.backoffExponenton;
 552              		.loc 1 160 0
 553 025e 094B     		ldr	r3, .L21
 554 0260 93F84633 		ldrb	r3, [r3, #838]	@ zero_extendqisi2
 555 0264 3B71     		strb	r3, [r7, #4]
 161:build/openmote-cc2538_armgcc/openstack/02b-MAChigh/schedule.c ****    temp[1] = schedule_vars.backoff;
 556              		.loc 1 161 0
 557 0266 074B     		ldr	r3, .L21
 558 0268 93F84733 		ldrb	r3, [r3, #839]	@ zero_extendqisi2
 559 026c 7B71     		strb	r3, [r7, #5]
 162:build/openmote-cc2538_armgcc/openstack/02b-MAChigh/schedule.c ****    
 163:build/openmote-cc2538_armgcc/openstack/02b-MAChigh/schedule.c ****    // send status data over serial port
 164:build/openmote-cc2538_armgcc/openstack/02b-MAChigh/schedule.c ****    openserial_printStatus(
 560              		.loc 1 164 0
 561 026e 3B1D     		adds	r3, r7, #4
 562 0270 0222     		movs	r2, #2
 563 0272 1946     		mov	r1, r3
 564 0274 0720     		movs	r0, #7
 565 0276 FFF7FEFF 		bl	openserial_printStatus
 165:build/openmote-cc2538_armgcc/openstack/02b-MAChigh/schedule.c ****       STATUS_BACKOFF,
 166:build/openmote-cc2538_armgcc/openstack/02b-MAChigh/schedule.c ****       (uint8_t*)&temp,
 167:build/openmote-cc2538_armgcc/openstack/02b-MAChigh/schedule.c ****       sizeof(temp)
 168:build/openmote-cc2538_armgcc/openstack/02b-MAChigh/schedule.c ****    );
 169:build/openmote-cc2538_armgcc/openstack/02b-MAChigh/schedule.c ****    
 170:build/openmote-cc2538_armgcc/openstack/02b-MAChigh/schedule.c ****    return TRUE;
 566              		.loc 1 170 0
 567 027a 0123     		movs	r3, #1
 171:build/openmote-cc2538_armgcc/openstack/02b-MAChigh/schedule.c **** }
 568              		.loc 1 171 0
 569 027c 1846     		mov	r0, r3
 570 027e 0837     		adds	r7, r7, #8
 571              		.cfi_def_cfa_offset 8
 572 0280 BD46     		mov	sp, r7
 573              		.cfi_def_cfa_register 13
 574              		@ sp needed
 575 0282 80BD     		pop	{r7, pc}
 576              	.L22:
 577              		.align	2
 578              	.L21:
 579 0284 00000000 		.word	schedule_vars
 580              		.cfi_endproc
 581              	.LFE3:
 583              		.align	2
 584              		.global	schedule_setFrameLength
 585              		.thumb
 586              		.thumb_func
 588              	schedule_setFrameLength:
 589              	.LFB4:
 172:build/openmote-cc2538_armgcc/openstack/02b-MAChigh/schedule.c **** 
 173:build/openmote-cc2538_armgcc/openstack/02b-MAChigh/schedule.c **** //=== from 6top (writing the schedule)
 174:build/openmote-cc2538_armgcc/openstack/02b-MAChigh/schedule.c **** 
 175:build/openmote-cc2538_armgcc/openstack/02b-MAChigh/schedule.c **** /**
 176:build/openmote-cc2538_armgcc/openstack/02b-MAChigh/schedule.c **** \brief Set frame length.
 177:build/openmote-cc2538_armgcc/openstack/02b-MAChigh/schedule.c **** 
 178:build/openmote-cc2538_armgcc/openstack/02b-MAChigh/schedule.c **** \param newFrameLength The new frame length.
 179:build/openmote-cc2538_armgcc/openstack/02b-MAChigh/schedule.c **** */
 180:build/openmote-cc2538_armgcc/openstack/02b-MAChigh/schedule.c **** void schedule_setFrameLength(frameLength_t newFrameLength) {
 590              		.loc 1 180 0
 591              		.cfi_startproc
 592              		@ args = 0, pretend = 0, frame = 8
 593              		@ frame_needed = 1, uses_anonymous_args = 0
 594 0288 80B5     		push	{r7, lr}
 595              		.cfi_def_cfa_offset 8
 596              		.cfi_offset 7, -8
 597              		.cfi_offset 14, -4
 598 028a 82B0     		sub	sp, sp, #8
 599              		.cfi_def_cfa_offset 16
 600 028c 00AF     		add	r7, sp, #0
 601              		.cfi_def_cfa_register 7
 602 028e 0346     		mov	r3, r0
 603 0290 FB80     		strh	r3, [r7, #6]	@ movhi
 181:build/openmote-cc2538_armgcc/openstack/02b-MAChigh/schedule.c ****    
 182:build/openmote-cc2538_armgcc/openstack/02b-MAChigh/schedule.c ****    INTERRUPT_DECLARATION();
 183:build/openmote-cc2538_armgcc/openstack/02b-MAChigh/schedule.c ****    DISABLE_INTERRUPTS();
 604              		.loc 1 183 0
 605 0292 FFF7FEFF 		bl	IntMasterDisable
 184:build/openmote-cc2538_armgcc/openstack/02b-MAChigh/schedule.c ****    
 185:build/openmote-cc2538_armgcc/openstack/02b-MAChigh/schedule.c ****    schedule_vars.frameLength = newFrameLength;
 606              		.loc 1 185 0
 607 0296 084A     		ldr	r2, .L25
 608 0298 FB88     		ldrh	r3, [r7, #6]	@ movhi
 609 029a A2F84033 		strh	r3, [r2, #832]	@ movhi
 186:build/openmote-cc2538_armgcc/openstack/02b-MAChigh/schedule.c ****    if (newFrameLength <= MAXACTIVESLOTS) {
 610              		.loc 1 186 0
 611 029e FB88     		ldrh	r3, [r7, #6]
 612 02a0 172B     		cmp	r3, #23
 613 02a2 03D8     		bhi	.L24
 187:build/openmote-cc2538_armgcc/openstack/02b-MAChigh/schedule.c ****       schedule_vars.maxActiveSlots = newFrameLength;
 614              		.loc 1 187 0
 615 02a4 044A     		ldr	r2, .L25
 616 02a6 FB88     		ldrh	r3, [r7, #6]	@ movhi
 617 02a8 A2F84233 		strh	r3, [r2, #834]	@ movhi
 618              	.L24:
 188:build/openmote-cc2538_armgcc/openstack/02b-MAChigh/schedule.c ****    }
 189:build/openmote-cc2538_armgcc/openstack/02b-MAChigh/schedule.c ****    ENABLE_INTERRUPTS();
 619              		.loc 1 189 0
 620 02ac FFF7FEFF 		bl	IntMasterEnable
 190:build/openmote-cc2538_armgcc/openstack/02b-MAChigh/schedule.c **** }
 621              		.loc 1 190 0
 622 02b0 00BF     		nop
 623 02b2 0837     		adds	r7, r7, #8
 624              		.cfi_def_cfa_offset 8
 625 02b4 BD46     		mov	sp, r7
 626              		.cfi_def_cfa_register 13
 627              		@ sp needed
 628 02b6 80BD     		pop	{r7, pc}
 629              	.L26:
 630              		.align	2
 631              	.L25:
 632 02b8 00000000 		.word	schedule_vars
 633              		.cfi_endproc
 634              	.LFE4:
 636              		.align	2
 637              		.global	schedule_setFrameHandle
 638              		.thumb
 639              		.thumb_func
 641              	schedule_setFrameHandle:
 642              	.LFB5:
 191:build/openmote-cc2538_armgcc/openstack/02b-MAChigh/schedule.c **** 
 192:build/openmote-cc2538_armgcc/openstack/02b-MAChigh/schedule.c **** /**
 193:build/openmote-cc2538_armgcc/openstack/02b-MAChigh/schedule.c **** \brief Set frame handle.
 194:build/openmote-cc2538_armgcc/openstack/02b-MAChigh/schedule.c **** 
 195:build/openmote-cc2538_armgcc/openstack/02b-MAChigh/schedule.c **** \param frameHandle The new frame handle.
 196:build/openmote-cc2538_armgcc/openstack/02b-MAChigh/schedule.c **** */
 197:build/openmote-cc2538_armgcc/openstack/02b-MAChigh/schedule.c **** void schedule_setFrameHandle(uint8_t frameHandle) {
 643              		.loc 1 197 0
 644              		.cfi_startproc
 645              		@ args = 0, pretend = 0, frame = 8
 646              		@ frame_needed = 1, uses_anonymous_args = 0
 647 02bc 80B5     		push	{r7, lr}
 648              		.cfi_def_cfa_offset 8
 649              		.cfi_offset 7, -8
 650              		.cfi_offset 14, -4
 651 02be 82B0     		sub	sp, sp, #8
 652              		.cfi_def_cfa_offset 16
 653 02c0 00AF     		add	r7, sp, #0
 654              		.cfi_def_cfa_register 7
 655 02c2 0346     		mov	r3, r0
 656 02c4 FB71     		strb	r3, [r7, #7]
 198:build/openmote-cc2538_armgcc/openstack/02b-MAChigh/schedule.c ****    
 199:build/openmote-cc2538_armgcc/openstack/02b-MAChigh/schedule.c ****    INTERRUPT_DECLARATION();
 200:build/openmote-cc2538_armgcc/openstack/02b-MAChigh/schedule.c ****    DISABLE_INTERRUPTS();
 657              		.loc 1 200 0
 658 02c6 FFF7FEFF 		bl	IntMasterDisable
 201:build/openmote-cc2538_armgcc/openstack/02b-MAChigh/schedule.c ****    
 202:build/openmote-cc2538_armgcc/openstack/02b-MAChigh/schedule.c ****    schedule_vars.frameHandle = frameHandle;
 659              		.loc 1 202 0
 660 02ca 054A     		ldr	r2, .L28
 661 02cc FB79     		ldrb	r3, [r7, #7]
 662 02ce 82F84433 		strb	r3, [r2, #836]
 203:build/openmote-cc2538_armgcc/openstack/02b-MAChigh/schedule.c ****    
 204:build/openmote-cc2538_armgcc/openstack/02b-MAChigh/schedule.c ****    ENABLE_INTERRUPTS();
 663              		.loc 1 204 0
 664 02d2 FFF7FEFF 		bl	IntMasterEnable
 205:build/openmote-cc2538_armgcc/openstack/02b-MAChigh/schedule.c **** }
 665              		.loc 1 205 0
 666 02d6 00BF     		nop
 667 02d8 0837     		adds	r7, r7, #8
 668              		.cfi_def_cfa_offset 8
 669 02da BD46     		mov	sp, r7
 670              		.cfi_def_cfa_register 13
 671              		@ sp needed
 672 02dc 80BD     		pop	{r7, pc}
 673              	.L29:
 674 02de 00BF     		.align	2
 675              	.L28:
 676 02e0 00000000 		.word	schedule_vars
 677              		.cfi_endproc
 678              	.LFE5:
 680              		.align	2
 681              		.global	schedule_setFrameNumber
 682              		.thumb
 683              		.thumb_func
 685              	schedule_setFrameNumber:
 686              	.LFB6:
 206:build/openmote-cc2538_armgcc/openstack/02b-MAChigh/schedule.c **** 
 207:build/openmote-cc2538_armgcc/openstack/02b-MAChigh/schedule.c **** /**
 208:build/openmote-cc2538_armgcc/openstack/02b-MAChigh/schedule.c **** \brief Set frame number.
 209:build/openmote-cc2538_armgcc/openstack/02b-MAChigh/schedule.c **** 
 210:build/openmote-cc2538_armgcc/openstack/02b-MAChigh/schedule.c **** \param frameNumber The new frame number.
 211:build/openmote-cc2538_armgcc/openstack/02b-MAChigh/schedule.c **** */
 212:build/openmote-cc2538_armgcc/openstack/02b-MAChigh/schedule.c **** void schedule_setFrameNumber(uint8_t frameNumber) {
 687              		.loc 1 212 0
 688              		.cfi_startproc
 689              		@ args = 0, pretend = 0, frame = 8
 690              		@ frame_needed = 1, uses_anonymous_args = 0
 691 02e4 80B5     		push	{r7, lr}
 692              		.cfi_def_cfa_offset 8
 693              		.cfi_offset 7, -8
 694              		.cfi_offset 14, -4
 695 02e6 82B0     		sub	sp, sp, #8
 696              		.cfi_def_cfa_offset 16
 697 02e8 00AF     		add	r7, sp, #0
 698              		.cfi_def_cfa_register 7
 699 02ea 0346     		mov	r3, r0
 700 02ec FB71     		strb	r3, [r7, #7]
 213:build/openmote-cc2538_armgcc/openstack/02b-MAChigh/schedule.c ****    
 214:build/openmote-cc2538_armgcc/openstack/02b-MAChigh/schedule.c ****    INTERRUPT_DECLARATION();
 215:build/openmote-cc2538_armgcc/openstack/02b-MAChigh/schedule.c ****    DISABLE_INTERRUPTS();
 701              		.loc 1 215 0
 702 02ee FFF7FEFF 		bl	IntMasterDisable
 216:build/openmote-cc2538_armgcc/openstack/02b-MAChigh/schedule.c ****    
 217:build/openmote-cc2538_armgcc/openstack/02b-MAChigh/schedule.c ****    schedule_vars.frameNumber = frameNumber;
 703              		.loc 1 217 0
 704 02f2 054A     		ldr	r2, .L31
 705 02f4 FB79     		ldrb	r3, [r7, #7]
 706 02f6 82F84533 		strb	r3, [r2, #837]
 218:build/openmote-cc2538_armgcc/openstack/02b-MAChigh/schedule.c ****    
 219:build/openmote-cc2538_armgcc/openstack/02b-MAChigh/schedule.c ****    ENABLE_INTERRUPTS();
 707              		.loc 1 219 0
 708 02fa FFF7FEFF 		bl	IntMasterEnable
 220:build/openmote-cc2538_armgcc/openstack/02b-MAChigh/schedule.c **** }
 709              		.loc 1 220 0
 710 02fe 00BF     		nop
 711 0300 0837     		adds	r7, r7, #8
 712              		.cfi_def_cfa_offset 8
 713 0302 BD46     		mov	sp, r7
 714              		.cfi_def_cfa_register 13
 715              		@ sp needed
 716 0304 80BD     		pop	{r7, pc}
 717              	.L32:
 718 0306 00BF     		.align	2
 719              	.L31:
 720 0308 00000000 		.word	schedule_vars
 721              		.cfi_endproc
 722              	.LFE6:
 724              		.align	2
 725              		.global	schedule_getSlotInfo
 726              		.thumb
 727              		.thumb_func
 729              	schedule_getSlotInfo:
 730              	.LFB7:
 221:build/openmote-cc2538_armgcc/openstack/02b-MAChigh/schedule.c **** 
 222:build/openmote-cc2538_armgcc/openstack/02b-MAChigh/schedule.c **** /**
 223:build/openmote-cc2538_armgcc/openstack/02b-MAChigh/schedule.c **** \brief Get the information of a specific slot.
 224:build/openmote-cc2538_armgcc/openstack/02b-MAChigh/schedule.c **** 
 225:build/openmote-cc2538_armgcc/openstack/02b-MAChigh/schedule.c **** \param slotOffset
 226:build/openmote-cc2538_armgcc/openstack/02b-MAChigh/schedule.c **** \param neighbor
 227:build/openmote-cc2538_armgcc/openstack/02b-MAChigh/schedule.c **** \param info
 228:build/openmote-cc2538_armgcc/openstack/02b-MAChigh/schedule.c **** */
 229:build/openmote-cc2538_armgcc/openstack/02b-MAChigh/schedule.c **** void  schedule_getSlotInfo(
 230:build/openmote-cc2538_armgcc/openstack/02b-MAChigh/schedule.c ****    slotOffset_t         slotOffset,
 231:build/openmote-cc2538_armgcc/openstack/02b-MAChigh/schedule.c ****    open_addr_t*         neighbor,
 232:build/openmote-cc2538_armgcc/openstack/02b-MAChigh/schedule.c ****    slotinfo_element_t*  info
 233:build/openmote-cc2538_armgcc/openstack/02b-MAChigh/schedule.c **** ){
 731              		.loc 1 233 0
 732              		.cfi_startproc
 733              		@ args = 0, pretend = 0, frame = 24
 734              		@ frame_needed = 1, uses_anonymous_args = 0
 735 030c 80B5     		push	{r7, lr}
 736              		.cfi_def_cfa_offset 8
 737              		.cfi_offset 7, -8
 738              		.cfi_offset 14, -4
 739 030e 86B0     		sub	sp, sp, #24
 740              		.cfi_def_cfa_offset 32
 741 0310 00AF     		add	r7, sp, #0
 742              		.cfi_def_cfa_register 7
 743 0312 0346     		mov	r3, r0
 744 0314 B960     		str	r1, [r7, #8]
 745 0316 7A60     		str	r2, [r7, #4]
 746 0318 FB81     		strh	r3, [r7, #14]	@ movhi
 234:build/openmote-cc2538_armgcc/openstack/02b-MAChigh/schedule.c ****    
 235:build/openmote-cc2538_armgcc/openstack/02b-MAChigh/schedule.c ****    scheduleEntry_t* slotContainer;
 236:build/openmote-cc2538_armgcc/openstack/02b-MAChigh/schedule.c ****   
 237:build/openmote-cc2538_armgcc/openstack/02b-MAChigh/schedule.c ****    // find an empty schedule entry container
 238:build/openmote-cc2538_armgcc/openstack/02b-MAChigh/schedule.c ****    slotContainer = &schedule_vars.scheduleBuf[0];
 747              		.loc 1 238 0
 748 031a 1D4B     		ldr	r3, .L38
 749 031c 7B61     		str	r3, [r7, #20]
 239:build/openmote-cc2538_armgcc/openstack/02b-MAChigh/schedule.c ****    while (slotContainer<=&schedule_vars.scheduleBuf[schedule_vars.maxActiveSlots-1]) {
 750              		.loc 1 239 0
 751 031e 1DE0     		b	.L34
 752              	.L37:
 240:build/openmote-cc2538_armgcc/openstack/02b-MAChigh/schedule.c ****        //check that this entry for that neighbour and timeslot is not already scheduled.
 241:build/openmote-cc2538_armgcc/openstack/02b-MAChigh/schedule.c ****        if (packetfunctions_sameAddress(neighbor,&(slotContainer->neighbor))&& (slotContainer->slotO
 753              		.loc 1 241 0
 754 0320 7B69     		ldr	r3, [r7, #20]
 755 0322 0533     		adds	r3, r3, #5
 756 0324 1946     		mov	r1, r3
 757 0326 B868     		ldr	r0, [r7, #8]
 758 0328 FFF7FEFF 		bl	packetfunctions_sameAddress
 759 032c 0346     		mov	r3, r0
 760 032e 002B     		cmp	r3, #0
 761 0330 11D0     		beq	.L35
 762              		.loc 1 241 0 is_stmt 0 discriminator 1
 763 0332 7B69     		ldr	r3, [r7, #20]
 764 0334 1B88     		ldrh	r3, [r3]
 765 0336 FA89     		ldrh	r2, [r7, #14]
 766 0338 9A42     		cmp	r2, r3
 767 033a 0CD1     		bne	.L35
 242:build/openmote-cc2538_armgcc/openstack/02b-MAChigh/schedule.c ****                //it exists so this is an update.
 243:build/openmote-cc2538_armgcc/openstack/02b-MAChigh/schedule.c ****                info->link_type                 = slotContainer->type;
 768              		.loc 1 243 0 is_stmt 1
 769 033c 7B69     		ldr	r3, [r7, #20]
 770 033e 9A78     		ldrb	r2, [r3, #2]	@ zero_extendqisi2
 771 0340 7B68     		ldr	r3, [r7, #4]
 772 0342 1A72     		strb	r2, [r3, #8]
 244:build/openmote-cc2538_armgcc/openstack/02b-MAChigh/schedule.c ****                info->shared                    =slotContainer->shared;
 773              		.loc 1 244 0
 774 0344 7B69     		ldr	r3, [r7, #20]
 775 0346 DA78     		ldrb	r2, [r3, #3]	@ zero_extendqisi2
 776 0348 7B68     		ldr	r3, [r7, #4]
 777 034a 5A72     		strb	r2, [r3, #9]
 245:build/openmote-cc2538_armgcc/openstack/02b-MAChigh/schedule.c ****                info->channelOffset             = slotContainer->channelOffset;
 778              		.loc 1 245 0
 779 034c 7B69     		ldr	r3, [r7, #20]
 780 034e 1A79     		ldrb	r2, [r3, #4]	@ zero_extendqisi2
 781 0350 7B68     		ldr	r3, [r7, #4]
 782 0352 1A73     		strb	r2, [r3, #12]
 246:build/openmote-cc2538_armgcc/openstack/02b-MAChigh/schedule.c ****                return; //as this is an update. No need to re-insert as it is in the same position o
 783              		.loc 1 246 0
 784 0354 18E0     		b	.L33
 785              	.L35:
 247:build/openmote-cc2538_armgcc/openstack/02b-MAChigh/schedule.c ****         }
 248:build/openmote-cc2538_armgcc/openstack/02b-MAChigh/schedule.c ****         slotContainer++;
 786              		.loc 1 248 0
 787 0356 7B69     		ldr	r3, [r7, #20]
 788 0358 2433     		adds	r3, r3, #36
 789 035a 7B61     		str	r3, [r7, #20]
 790              	.L34:
 239:build/openmote-cc2538_armgcc/openstack/02b-MAChigh/schedule.c ****        //check that this entry for that neighbour and timeslot is not already scheduled.
 791              		.loc 1 239 0
 792 035c 0C4B     		ldr	r3, .L38
 793 035e B3F84233 		ldrh	r3, [r3, #834]
 794 0362 5A1E     		subs	r2, r3, #1
 795 0364 1346     		mov	r3, r2
 796 0366 DB00     		lsls	r3, r3, #3
 797 0368 1344     		add	r3, r3, r2
 798 036a 9B00     		lsls	r3, r3, #2
 799 036c 084A     		ldr	r2, .L38
 800 036e 1A44     		add	r2, r2, r3
 801 0370 7B69     		ldr	r3, [r7, #20]
 802 0372 9A42     		cmp	r2, r3
 803 0374 D4D2     		bcs	.L37
 249:build/openmote-cc2538_armgcc/openstack/02b-MAChigh/schedule.c ****    }
 250:build/openmote-cc2538_armgcc/openstack/02b-MAChigh/schedule.c ****    //return cell type off.
 251:build/openmote-cc2538_armgcc/openstack/02b-MAChigh/schedule.c ****    info->link_type                 = CELLTYPE_OFF;
 804              		.loc 1 251 0
 805 0376 7B68     		ldr	r3, [r7, #4]
 806 0378 0022     		movs	r2, #0
 807 037a 1A72     		strb	r2, [r3, #8]
 252:build/openmote-cc2538_armgcc/openstack/02b-MAChigh/schedule.c ****    info->shared                    = FALSE;
 808              		.loc 1 252 0
 809 037c 7B68     		ldr	r3, [r7, #4]
 810 037e 0022     		movs	r2, #0
 811 0380 5A72     		strb	r2, [r3, #9]
 253:build/openmote-cc2538_armgcc/openstack/02b-MAChigh/schedule.c ****    info->channelOffset             = 0;//set to zero if not set.                          
 812              		.loc 1 253 0
 813 0382 7B68     		ldr	r3, [r7, #4]
 814 0384 0022     		movs	r2, #0
 815 0386 1A73     		strb	r2, [r3, #12]
 816              	.L33:
 254:build/openmote-cc2538_armgcc/openstack/02b-MAChigh/schedule.c **** }
 817              		.loc 1 254 0
 818 0388 1837     		adds	r7, r7, #24
 819              		.cfi_def_cfa_offset 8
 820 038a BD46     		mov	sp, r7
 821              		.cfi_def_cfa_register 13
 822              		@ sp needed
 823 038c 80BD     		pop	{r7, pc}
 824              	.L39:
 825 038e 00BF     		.align	2
 826              	.L38:
 827 0390 00000000 		.word	schedule_vars
 828              		.cfi_endproc
 829              	.LFE7:
 831              		.align	2
 832              		.global	schedule_addActiveSlot
 833              		.thumb
 834              		.thumb_func
 836              	schedule_addActiveSlot:
 837              	.LFB8:
 255:build/openmote-cc2538_armgcc/openstack/02b-MAChigh/schedule.c **** 
 256:build/openmote-cc2538_armgcc/openstack/02b-MAChigh/schedule.c **** /**
 257:build/openmote-cc2538_armgcc/openstack/02b-MAChigh/schedule.c **** \brief Add a new active slot into the schedule.
 258:build/openmote-cc2538_armgcc/openstack/02b-MAChigh/schedule.c **** 
 259:build/openmote-cc2538_armgcc/openstack/02b-MAChigh/schedule.c **** \param slotOffset       The slotoffset of the new slot
 260:build/openmote-cc2538_armgcc/openstack/02b-MAChigh/schedule.c **** \param type             The type of the cell
 261:build/openmote-cc2538_armgcc/openstack/02b-MAChigh/schedule.c **** \param shared           Whether this cell is shared (TRUE) or not (FALSE).
 262:build/openmote-cc2538_armgcc/openstack/02b-MAChigh/schedule.c **** \param channelOffset    The channelOffset of the new slot
 263:build/openmote-cc2538_armgcc/openstack/02b-MAChigh/schedule.c **** \param neighbor         The neighbor associated with this cell (all 0's if
 264:build/openmote-cc2538_armgcc/openstack/02b-MAChigh/schedule.c ****    none)
 265:build/openmote-cc2538_armgcc/openstack/02b-MAChigh/schedule.c **** */
 266:build/openmote-cc2538_armgcc/openstack/02b-MAChigh/schedule.c **** owerror_t schedule_addActiveSlot(
 267:build/openmote-cc2538_armgcc/openstack/02b-MAChigh/schedule.c ****       slotOffset_t    slotOffset,
 268:build/openmote-cc2538_armgcc/openstack/02b-MAChigh/schedule.c ****       cellType_t      type,
 269:build/openmote-cc2538_armgcc/openstack/02b-MAChigh/schedule.c ****       bool            shared,
 270:build/openmote-cc2538_armgcc/openstack/02b-MAChigh/schedule.c ****       channelOffset_t channelOffset,
 271:build/openmote-cc2538_armgcc/openstack/02b-MAChigh/schedule.c ****       open_addr_t*    neighbor
 272:build/openmote-cc2538_armgcc/openstack/02b-MAChigh/schedule.c ****    ) {
 838              		.loc 1 272 0
 839              		.cfi_startproc
 840              		@ args = 4, pretend = 0, frame = 32
 841              		@ frame_needed = 1, uses_anonymous_args = 0
 842 0394 90B5     		push	{r4, r7, lr}
 843              		.cfi_def_cfa_offset 12
 844              		.cfi_offset 4, -12
 845              		.cfi_offset 7, -8
 846              		.cfi_offset 14, -4
 847 0396 89B0     		sub	sp, sp, #36
 848              		.cfi_def_cfa_offset 48
 849 0398 00AF     		add	r7, sp, #0
 850              		.cfi_def_cfa_register 7
 851 039a 0446     		mov	r4, r0
 852 039c 0846     		mov	r0, r1
 853 039e 1146     		mov	r1, r2
 854 03a0 1A46     		mov	r2, r3
 855 03a2 2346     		mov	r3, r4	@ movhi
 856 03a4 FB80     		strh	r3, [r7, #6]	@ movhi
 857 03a6 0346     		mov	r3, r0
 858 03a8 7B71     		strb	r3, [r7, #5]
 859 03aa 0B46     		mov	r3, r1
 860 03ac 3B71     		strb	r3, [r7, #4]
 861 03ae 1346     		mov	r3, r2
 862 03b0 FB70     		strb	r3, [r7, #3]
 273:build/openmote-cc2538_armgcc/openstack/02b-MAChigh/schedule.c ****    uint8_t asn[5];
 274:build/openmote-cc2538_armgcc/openstack/02b-MAChigh/schedule.c ****    scheduleEntry_t* slotContainer;
 275:build/openmote-cc2538_armgcc/openstack/02b-MAChigh/schedule.c ****    scheduleEntry_t* previousSlotWalker;
 276:build/openmote-cc2538_armgcc/openstack/02b-MAChigh/schedule.c ****    scheduleEntry_t* nextSlotWalker;
 277:build/openmote-cc2538_armgcc/openstack/02b-MAChigh/schedule.c ****    
 278:build/openmote-cc2538_armgcc/openstack/02b-MAChigh/schedule.c ****    INTERRUPT_DECLARATION();
 279:build/openmote-cc2538_armgcc/openstack/02b-MAChigh/schedule.c ****    DISABLE_INTERRUPTS();
 863              		.loc 1 279 0
 864 03b2 FFF7FEFF 		bl	IntMasterDisable
 280:build/openmote-cc2538_armgcc/openstack/02b-MAChigh/schedule.c ****    
 281:build/openmote-cc2538_armgcc/openstack/02b-MAChigh/schedule.c ****    // find an empty schedule entry container
 282:build/openmote-cc2538_armgcc/openstack/02b-MAChigh/schedule.c ****    slotContainer = &schedule_vars.scheduleBuf[0];
 865              		.loc 1 282 0
 866 03b6 644B     		ldr	r3, .L55
 867 03b8 FB61     		str	r3, [r7, #28]
 283:build/openmote-cc2538_armgcc/openstack/02b-MAChigh/schedule.c ****    while (
 868              		.loc 1 283 0
 869 03ba 02E0     		b	.L41
 870              	.L43:
 284:build/openmote-cc2538_armgcc/openstack/02b-MAChigh/schedule.c ****          slotContainer->type!=CELLTYPE_OFF &&
 285:build/openmote-cc2538_armgcc/openstack/02b-MAChigh/schedule.c ****          slotContainer<=&schedule_vars.scheduleBuf[schedule_vars.maxActiveSlots-1]
 286:build/openmote-cc2538_armgcc/openstack/02b-MAChigh/schedule.c ****       ) {
 287:build/openmote-cc2538_armgcc/openstack/02b-MAChigh/schedule.c ****       slotContainer++;
 871              		.loc 1 287 0
 872 03bc FB69     		ldr	r3, [r7, #28]
 873 03be 2433     		adds	r3, r3, #36
 874 03c0 FB61     		str	r3, [r7, #28]
 875              	.L41:
 284:build/openmote-cc2538_armgcc/openstack/02b-MAChigh/schedule.c ****          slotContainer->type!=CELLTYPE_OFF &&
 876              		.loc 1 284 0
 877 03c2 FB69     		ldr	r3, [r7, #28]
 878 03c4 9B78     		ldrb	r3, [r3, #2]	@ zero_extendqisi2
 283:build/openmote-cc2538_armgcc/openstack/02b-MAChigh/schedule.c ****    while (
 879              		.loc 1 283 0
 880 03c6 002B     		cmp	r3, #0
 881 03c8 0CD0     		beq	.L42
 285:build/openmote-cc2538_armgcc/openstack/02b-MAChigh/schedule.c ****       ) {
 882              		.loc 1 285 0
 883 03ca 5F4B     		ldr	r3, .L55
 884 03cc B3F84233 		ldrh	r3, [r3, #834]
 885 03d0 5A1E     		subs	r2, r3, #1
 886 03d2 1346     		mov	r3, r2
 887 03d4 DB00     		lsls	r3, r3, #3
 888 03d6 1344     		add	r3, r3, r2
 889 03d8 9B00     		lsls	r3, r3, #2
 890 03da 5B4A     		ldr	r2, .L55
 891 03dc 1A44     		add	r2, r2, r3
 284:build/openmote-cc2538_armgcc/openstack/02b-MAChigh/schedule.c ****          slotContainer->type!=CELLTYPE_OFF &&
 892              		.loc 1 284 0
 893 03de FB69     		ldr	r3, [r7, #28]
 894 03e0 9A42     		cmp	r2, r3
 895 03e2 EBD2     		bcs	.L43
 896              	.L42:
 288:build/openmote-cc2538_armgcc/openstack/02b-MAChigh/schedule.c ****    }
 289:build/openmote-cc2538_armgcc/openstack/02b-MAChigh/schedule.c ****    
 290:build/openmote-cc2538_armgcc/openstack/02b-MAChigh/schedule.c ****    // abort it schedule overflow
 291:build/openmote-cc2538_armgcc/openstack/02b-MAChigh/schedule.c ****    if (slotContainer>&schedule_vars.scheduleBuf[schedule_vars.maxActiveSlots-1]) {
 897              		.loc 1 291 0
 898 03e4 584B     		ldr	r3, .L55
 899 03e6 B3F84233 		ldrh	r3, [r3, #834]
 900 03ea 5A1E     		subs	r2, r3, #1
 901 03ec 1346     		mov	r3, r2
 902 03ee DB00     		lsls	r3, r3, #3
 903 03f0 1344     		add	r3, r3, r2
 904 03f2 9B00     		lsls	r3, r3, #2
 905 03f4 544A     		ldr	r2, .L55
 906 03f6 1A44     		add	r2, r2, r3
 907 03f8 FB69     		ldr	r3, [r7, #28]
 908 03fa 9A42     		cmp	r2, r3
 909 03fc 09D2     		bcs	.L44
 292:build/openmote-cc2538_armgcc/openstack/02b-MAChigh/schedule.c ****       ENABLE_INTERRUPTS();
 910              		.loc 1 292 0
 911 03fe FFF7FEFF 		bl	IntMasterEnable
 293:build/openmote-cc2538_armgcc/openstack/02b-MAChigh/schedule.c ****       openserial_printError(
 912              		.loc 1 293 0
 913 0402 0023     		movs	r3, #0
 914 0404 0022     		movs	r2, #0
 915 0406 1721     		movs	r1, #23
 916 0408 0E20     		movs	r0, #14
 917 040a FFF7FEFF 		bl	openserial_printError
 294:build/openmote-cc2538_armgcc/openstack/02b-MAChigh/schedule.c ****          COMPONENT_SCHEDULE,ERR_SCHEDULE_OVERFLOWN,
 295:build/openmote-cc2538_armgcc/openstack/02b-MAChigh/schedule.c ****          (errorparameter_t)0,
 296:build/openmote-cc2538_armgcc/openstack/02b-MAChigh/schedule.c ****          (errorparameter_t)0
 297:build/openmote-cc2538_armgcc/openstack/02b-MAChigh/schedule.c ****       );
 298:build/openmote-cc2538_armgcc/openstack/02b-MAChigh/schedule.c ****       return E_FAIL;
 918              		.loc 1 298 0
 919 040e 0123     		movs	r3, #1
 920 0410 96E0     		b	.L54
 921              	.L44:
 299:build/openmote-cc2538_armgcc/openstack/02b-MAChigh/schedule.c ****    }
 300:build/openmote-cc2538_armgcc/openstack/02b-MAChigh/schedule.c ****    
 301:build/openmote-cc2538_armgcc/openstack/02b-MAChigh/schedule.c ****    // fill that schedule entry with parameters passed
 302:build/openmote-cc2538_armgcc/openstack/02b-MAChigh/schedule.c ****    slotContainer->slotOffset                = slotOffset;
 922              		.loc 1 302 0
 923 0412 FB69     		ldr	r3, [r7, #28]
 924 0414 FA88     		ldrh	r2, [r7, #6]	@ movhi
 925 0416 1A80     		strh	r2, [r3]	@ movhi
 303:build/openmote-cc2538_armgcc/openstack/02b-MAChigh/schedule.c ****    slotContainer->type                      = type;
 926              		.loc 1 303 0
 927 0418 FB69     		ldr	r3, [r7, #28]
 928 041a 7A79     		ldrb	r2, [r7, #5]
 929 041c 9A70     		strb	r2, [r3, #2]
 304:build/openmote-cc2538_armgcc/openstack/02b-MAChigh/schedule.c ****    slotContainer->shared                    = shared;
 930              		.loc 1 304 0
 931 041e FB69     		ldr	r3, [r7, #28]
 932 0420 3A79     		ldrb	r2, [r7, #4]
 933 0422 DA70     		strb	r2, [r3, #3]
 305:build/openmote-cc2538_armgcc/openstack/02b-MAChigh/schedule.c ****    slotContainer->channelOffset             = channelOffset;
 934              		.loc 1 305 0
 935 0424 FB69     		ldr	r3, [r7, #28]
 936 0426 FA78     		ldrb	r2, [r7, #3]
 937 0428 1A71     		strb	r2, [r3, #4]
 306:build/openmote-cc2538_armgcc/openstack/02b-MAChigh/schedule.c ****    memcpy(&slotContainer->neighbor,neighbor,sizeof(open_addr_t));
 938              		.loc 1 306 0
 939 042a FB69     		ldr	r3, [r7, #28]
 940 042c 0533     		adds	r3, r3, #5
 941 042e 1122     		movs	r2, #17
 942 0430 396B     		ldr	r1, [r7, #48]
 943 0432 1846     		mov	r0, r3
 944 0434 FFF7FEFF 		bl	memcpy
 307:build/openmote-cc2538_armgcc/openstack/02b-MAChigh/schedule.c ****    
 308:build/openmote-cc2538_armgcc/openstack/02b-MAChigh/schedule.c ****    // fill that schedule entry with current asn
 309:build/openmote-cc2538_armgcc/openstack/02b-MAChigh/schedule.c ****    ieee154e_getAsn(&(asn[0]));
 945              		.loc 1 309 0
 946 0438 07F10C03 		add	r3, r7, #12
 947 043c 1846     		mov	r0, r3
 948 043e FFF7FEFF 		bl	ieee154e_getAsn
 310:build/openmote-cc2538_armgcc/openstack/02b-MAChigh/schedule.c ****    slotContainer->lastUsedAsn.bytes0and1 = 256*asn[1]+asn[0];
 949              		.loc 1 310 0
 950 0442 7B7B     		ldrb	r3, [r7, #13]	@ zero_extendqisi2
 951 0444 9BB2     		uxth	r3, r3
 952 0446 1B02     		lsls	r3, r3, #8
 953 0448 9AB2     		uxth	r2, r3
 954 044a 3B7B     		ldrb	r3, [r7, #12]	@ zero_extendqisi2
 955 044c 9BB2     		uxth	r3, r3
 956 044e 1344     		add	r3, r3, r2
 957 0450 9AB2     		uxth	r2, r3
 958 0452 FB69     		ldr	r3, [r7, #28]
 959 0454 9A83     		strh	r2, [r3, #28]	@ movhi
 311:build/openmote-cc2538_armgcc/openstack/02b-MAChigh/schedule.c ****    slotContainer->lastUsedAsn.bytes2and3 = 256*asn[3]+asn[2];
 960              		.loc 1 311 0
 961 0456 FB7B     		ldrb	r3, [r7, #15]	@ zero_extendqisi2
 962 0458 9BB2     		uxth	r3, r3
 963 045a 1B02     		lsls	r3, r3, #8
 964 045c 9AB2     		uxth	r2, r3
 965 045e BB7B     		ldrb	r3, [r7, #14]	@ zero_extendqisi2
 966 0460 9BB2     		uxth	r3, r3
 967 0462 1344     		add	r3, r3, r2
 968 0464 9AB2     		uxth	r2, r3
 969 0466 FB69     		ldr	r3, [r7, #28]
 970 0468 5A83     		strh	r2, [r3, #26]	@ movhi
 312:build/openmote-cc2538_armgcc/openstack/02b-MAChigh/schedule.c ****    slotContainer->lastUsedAsn.byte4      = asn[4];
 971              		.loc 1 312 0
 972 046a 3A7C     		ldrb	r2, [r7, #16]	@ zero_extendqisi2
 973 046c FB69     		ldr	r3, [r7, #28]
 974 046e 5A76     		strb	r2, [r3, #25]
 313:build/openmote-cc2538_armgcc/openstack/02b-MAChigh/schedule.c ****    
 314:build/openmote-cc2538_armgcc/openstack/02b-MAChigh/schedule.c ****    // insert in circular list
 315:build/openmote-cc2538_armgcc/openstack/02b-MAChigh/schedule.c ****    if (schedule_vars.currentScheduleEntry==NULL) {
 975              		.loc 1 315 0
 976 0470 354B     		ldr	r3, .L55
 977 0472 D3F83C33 		ldr	r3, [r3, #828]
 978 0476 002B     		cmp	r3, #0
 979 0478 07D1     		bne	.L46
 316:build/openmote-cc2538_armgcc/openstack/02b-MAChigh/schedule.c ****       // this is the first active slot added
 317:build/openmote-cc2538_armgcc/openstack/02b-MAChigh/schedule.c ****       
 318:build/openmote-cc2538_armgcc/openstack/02b-MAChigh/schedule.c ****       // the next slot of this slot is this slot
 319:build/openmote-cc2538_armgcc/openstack/02b-MAChigh/schedule.c ****       slotContainer->next                   = slotContainer;
 980              		.loc 1 319 0
 981 047a FB69     		ldr	r3, [r7, #28]
 982 047c FA69     		ldr	r2, [r7, #28]
 983 047e 1A62     		str	r2, [r3, #32]
 320:build/openmote-cc2538_armgcc/openstack/02b-MAChigh/schedule.c ****       
 321:build/openmote-cc2538_armgcc/openstack/02b-MAChigh/schedule.c ****       // current slot points to this slot
 322:build/openmote-cc2538_armgcc/openstack/02b-MAChigh/schedule.c ****       schedule_vars.currentScheduleEntry    = slotContainer;
 984              		.loc 1 322 0
 985 0480 314A     		ldr	r2, .L55
 986 0482 FB69     		ldr	r3, [r7, #28]
 987 0484 C2F83C33 		str	r3, [r2, #828]
 988 0488 57E0     		b	.L47
 989              	.L46:
 323:build/openmote-cc2538_armgcc/openstack/02b-MAChigh/schedule.c ****    } else  {
 324:build/openmote-cc2538_armgcc/openstack/02b-MAChigh/schedule.c ****       // this is NOT the first active slot added
 325:build/openmote-cc2538_armgcc/openstack/02b-MAChigh/schedule.c ****       
 326:build/openmote-cc2538_armgcc/openstack/02b-MAChigh/schedule.c ****       // find position in schedule
 327:build/openmote-cc2538_armgcc/openstack/02b-MAChigh/schedule.c ****       previousSlotWalker                    = schedule_vars.currentScheduleEntry;
 990              		.loc 1 327 0
 991 048a 2F4B     		ldr	r3, .L55
 992 048c D3F83C33 		ldr	r3, [r3, #828]
 993 0490 BB61     		str	r3, [r7, #24]
 994              	.L53:
 328:build/openmote-cc2538_armgcc/openstack/02b-MAChigh/schedule.c ****       while (1) {
 329:build/openmote-cc2538_armgcc/openstack/02b-MAChigh/schedule.c ****          nextSlotWalker                     = previousSlotWalker->next;
 995              		.loc 1 329 0
 996 0492 BB69     		ldr	r3, [r7, #24]
 997 0494 1B6A     		ldr	r3, [r3, #32]
 998 0496 7B61     		str	r3, [r7, #20]
 330:build/openmote-cc2538_armgcc/openstack/02b-MAChigh/schedule.c ****          if (
 331:build/openmote-cc2538_armgcc/openstack/02b-MAChigh/schedule.c ****                (
 332:build/openmote-cc2538_armgcc/openstack/02b-MAChigh/schedule.c ****                      (previousSlotWalker->slotOffset <  slotContainer->slotOffset) &&
 999              		.loc 1 332 0
 1000 0498 BB69     		ldr	r3, [r7, #24]
 1001 049a 1A88     		ldrh	r2, [r3]
 1002 049c FB69     		ldr	r3, [r7, #28]
 1003 049e 1B88     		ldrh	r3, [r3]
 330:build/openmote-cc2538_armgcc/openstack/02b-MAChigh/schedule.c ****          if (
 1004              		.loc 1 330 0
 1005 04a0 9A42     		cmp	r2, r3
 1006 04a2 05D2     		bcs	.L48
 333:build/openmote-cc2538_armgcc/openstack/02b-MAChigh/schedule.c ****                      (slotContainer->slotOffset <  nextSlotWalker->slotOffset)
 1007              		.loc 1 333 0
 1008 04a4 FB69     		ldr	r3, [r7, #28]
 1009 04a6 1A88     		ldrh	r2, [r3]
 1010 04a8 7B69     		ldr	r3, [r7, #20]
 1011 04aa 1B88     		ldrh	r3, [r3]
 332:build/openmote-cc2538_armgcc/openstack/02b-MAChigh/schedule.c ****                      (slotContainer->slotOffset <  nextSlotWalker->slotOffset)
 1012              		.loc 1 332 0
 1013 04ac 9A42     		cmp	r2, r3
 1014 04ae 3ED3     		bcc	.L49
 1015              	.L48:
 334:build/openmote-cc2538_armgcc/openstack/02b-MAChigh/schedule.c ****                )
 335:build/openmote-cc2538_armgcc/openstack/02b-MAChigh/schedule.c ****                ||
 336:build/openmote-cc2538_armgcc/openstack/02b-MAChigh/schedule.c ****                (
 337:build/openmote-cc2538_armgcc/openstack/02b-MAChigh/schedule.c ****                      (previousSlotWalker->slotOffset <  slotContainer->slotOffset) &&
 1016              		.loc 1 337 0
 1017 04b0 BB69     		ldr	r3, [r7, #24]
 1018 04b2 1A88     		ldrh	r2, [r3]
 1019 04b4 FB69     		ldr	r3, [r7, #28]
 1020 04b6 1B88     		ldrh	r3, [r3]
 335:build/openmote-cc2538_armgcc/openstack/02b-MAChigh/schedule.c ****                (
 1021              		.loc 1 335 0
 1022 04b8 9A42     		cmp	r2, r3
 1023 04ba 05D2     		bcs	.L50
 338:build/openmote-cc2538_armgcc/openstack/02b-MAChigh/schedule.c ****                      (nextSlotWalker->slotOffset <= previousSlotWalker->slotOffset)
 1024              		.loc 1 338 0
 1025 04bc 7B69     		ldr	r3, [r7, #20]
 1026 04be 1A88     		ldrh	r2, [r3]
 1027 04c0 BB69     		ldr	r3, [r7, #24]
 1028 04c2 1B88     		ldrh	r3, [r3]
 337:build/openmote-cc2538_armgcc/openstack/02b-MAChigh/schedule.c ****                      (nextSlotWalker->slotOffset <= previousSlotWalker->slotOffset)
 1029              		.loc 1 337 0
 1030 04c4 9A42     		cmp	r2, r3
 1031 04c6 32D9     		bls	.L49
 1032              	.L50:
 339:build/openmote-cc2538_armgcc/openstack/02b-MAChigh/schedule.c ****                )
 340:build/openmote-cc2538_armgcc/openstack/02b-MAChigh/schedule.c ****                ||
 341:build/openmote-cc2538_armgcc/openstack/02b-MAChigh/schedule.c ****                (
 342:build/openmote-cc2538_armgcc/openstack/02b-MAChigh/schedule.c ****                      (slotContainer->slotOffset <  nextSlotWalker->slotOffset) &&
 1033              		.loc 1 342 0
 1034 04c8 FB69     		ldr	r3, [r7, #28]
 1035 04ca 1A88     		ldrh	r2, [r3]
 1036 04cc 7B69     		ldr	r3, [r7, #20]
 1037 04ce 1B88     		ldrh	r3, [r3]
 340:build/openmote-cc2538_armgcc/openstack/02b-MAChigh/schedule.c ****                (
 1038              		.loc 1 340 0
 1039 04d0 9A42     		cmp	r2, r3
 1040 04d2 05D2     		bcs	.L51
 343:build/openmote-cc2538_armgcc/openstack/02b-MAChigh/schedule.c ****                      (nextSlotWalker->slotOffset <= previousSlotWalker->slotOffset)
 1041              		.loc 1 343 0
 1042 04d4 7B69     		ldr	r3, [r7, #20]
 1043 04d6 1A88     		ldrh	r2, [r3]
 1044 04d8 BB69     		ldr	r3, [r7, #24]
 1045 04da 1B88     		ldrh	r3, [r3]
 342:build/openmote-cc2538_armgcc/openstack/02b-MAChigh/schedule.c ****                      (nextSlotWalker->slotOffset <= previousSlotWalker->slotOffset)
 1046              		.loc 1 342 0
 1047 04dc 9A42     		cmp	r2, r3
 1048 04de 26D9     		bls	.L49
 1049              	.L51:
 344:build/openmote-cc2538_armgcc/openstack/02b-MAChigh/schedule.c ****                )
 345:build/openmote-cc2538_armgcc/openstack/02b-MAChigh/schedule.c ****          ) {
 346:build/openmote-cc2538_armgcc/openstack/02b-MAChigh/schedule.c ****             break;
 347:build/openmote-cc2538_armgcc/openstack/02b-MAChigh/schedule.c ****          }
 348:build/openmote-cc2538_armgcc/openstack/02b-MAChigh/schedule.c ****          if (previousSlotWalker->slotOffset == slotContainer->slotOffset) {
 1050              		.loc 1 348 0
 1051 04e0 BB69     		ldr	r3, [r7, #24]
 1052 04e2 1A88     		ldrh	r2, [r3]
 1053 04e4 FB69     		ldr	r3, [r7, #28]
 1054 04e6 1B88     		ldrh	r3, [r3]
 1055 04e8 9A42     		cmp	r2, r3
 1056 04ea 1DD1     		bne	.L52
 349:build/openmote-cc2538_armgcc/openstack/02b-MAChigh/schedule.c ****             // slot is already in schedule
 350:build/openmote-cc2538_armgcc/openstack/02b-MAChigh/schedule.c ****             openserial_printError(
 351:build/openmote-cc2538_armgcc/openstack/02b-MAChigh/schedule.c ****                COMPONENT_SCHEDULE,ERR_SCHEDULE_ADDDUPLICATESLOT,
 352:build/openmote-cc2538_armgcc/openstack/02b-MAChigh/schedule.c ****                (errorparameter_t)slotContainer->slotOffset,
 1057              		.loc 1 352 0
 1058 04ec FB69     		ldr	r3, [r7, #28]
 1059 04ee 1A88     		ldrh	r2, [r3]
 350:build/openmote-cc2538_armgcc/openstack/02b-MAChigh/schedule.c ****                COMPONENT_SCHEDULE,ERR_SCHEDULE_ADDDUPLICATESLOT,
 1060              		.loc 1 350 0
 1061 04f0 0023     		movs	r3, #0
 1062 04f2 3F21     		movs	r1, #63
 1063 04f4 0E20     		movs	r0, #14
 1064 04f6 FFF7FEFF 		bl	openserial_printError
 353:build/openmote-cc2538_armgcc/openstack/02b-MAChigh/schedule.c ****                (errorparameter_t)0
 354:build/openmote-cc2538_armgcc/openstack/02b-MAChigh/schedule.c ****             );
 355:build/openmote-cc2538_armgcc/openstack/02b-MAChigh/schedule.c ****             // reset the entry
 356:build/openmote-cc2538_armgcc/openstack/02b-MAChigh/schedule.c ****             slotContainer->slotOffset                = 0;
 1065              		.loc 1 356 0
 1066 04fa FB69     		ldr	r3, [r7, #28]
 1067 04fc 0022     		movs	r2, #0
 1068 04fe 1A80     		strh	r2, [r3]	@ movhi
 357:build/openmote-cc2538_armgcc/openstack/02b-MAChigh/schedule.c ****             slotContainer->type                      = CELLTYPE_OFF;
 1069              		.loc 1 357 0
 1070 0500 FB69     		ldr	r3, [r7, #28]
 1071 0502 0022     		movs	r2, #0
 1072 0504 9A70     		strb	r2, [r3, #2]
 358:build/openmote-cc2538_armgcc/openstack/02b-MAChigh/schedule.c ****             slotContainer->shared                    = FALSE;
 1073              		.loc 1 358 0
 1074 0506 FB69     		ldr	r3, [r7, #28]
 1075 0508 0022     		movs	r2, #0
 1076 050a DA70     		strb	r2, [r3, #3]
 359:build/openmote-cc2538_armgcc/openstack/02b-MAChigh/schedule.c ****             slotContainer->channelOffset             = 0;
 1077              		.loc 1 359 0
 1078 050c FB69     		ldr	r3, [r7, #28]
 1079 050e 0022     		movs	r2, #0
 1080 0510 1A71     		strb	r2, [r3, #4]
 360:build/openmote-cc2538_armgcc/openstack/02b-MAChigh/schedule.c ****             memset(&slotContainer->neighbor,0,sizeof(open_addr_t));
 1081              		.loc 1 360 0
 1082 0512 FB69     		ldr	r3, [r7, #28]
 1083 0514 0533     		adds	r3, r3, #5
 1084 0516 1122     		movs	r2, #17
 1085 0518 0021     		movs	r1, #0
 1086 051a 1846     		mov	r0, r3
 1087 051c FFF7FEFF 		bl	memset
 361:build/openmote-cc2538_armgcc/openstack/02b-MAChigh/schedule.c ****             ENABLE_INTERRUPTS();
 1088              		.loc 1 361 0
 1089 0520 FFF7FEFF 		bl	IntMasterEnable
 362:build/openmote-cc2538_armgcc/openstack/02b-MAChigh/schedule.c ****             return E_FAIL;
 1090              		.loc 1 362 0
 1091 0524 0123     		movs	r3, #1
 1092 0526 0BE0     		b	.L54
 1093              	.L52:
 363:build/openmote-cc2538_armgcc/openstack/02b-MAChigh/schedule.c ****          }
 364:build/openmote-cc2538_armgcc/openstack/02b-MAChigh/schedule.c ****          previousSlotWalker                 = nextSlotWalker;
 1094              		.loc 1 364 0
 1095 0528 7B69     		ldr	r3, [r7, #20]
 1096 052a BB61     		str	r3, [r7, #24]
 365:build/openmote-cc2538_armgcc/openstack/02b-MAChigh/schedule.c ****       }
 1097              		.loc 1 365 0
 1098 052c B1E7     		b	.L53
 1099              	.L49:
 366:build/openmote-cc2538_armgcc/openstack/02b-MAChigh/schedule.c ****       // insert between previousSlotWalker and nextSlotWalker
 367:build/openmote-cc2538_armgcc/openstack/02b-MAChigh/schedule.c ****       previousSlotWalker->next              = slotContainer;
 1100              		.loc 1 367 0
 1101 052e BB69     		ldr	r3, [r7, #24]
 1102 0530 FA69     		ldr	r2, [r7, #28]
 1103 0532 1A62     		str	r2, [r3, #32]
 368:build/openmote-cc2538_armgcc/openstack/02b-MAChigh/schedule.c ****       slotContainer->next                   = nextSlotWalker;
 1104              		.loc 1 368 0
 1105 0534 FB69     		ldr	r3, [r7, #28]
 1106 0536 7A69     		ldr	r2, [r7, #20]
 1107 0538 1A62     		str	r2, [r3, #32]
 1108              	.L47:
 369:build/openmote-cc2538_armgcc/openstack/02b-MAChigh/schedule.c ****    }
 370:build/openmote-cc2538_armgcc/openstack/02b-MAChigh/schedule.c ****    
 371:build/openmote-cc2538_armgcc/openstack/02b-MAChigh/schedule.c ****    ENABLE_INTERRUPTS();
 1109              		.loc 1 371 0
 1110 053a FFF7FEFF 		bl	IntMasterEnable
 372:build/openmote-cc2538_armgcc/openstack/02b-MAChigh/schedule.c ****    return E_SUCCESS;
 1111              		.loc 1 372 0
 1112 053e 0023     		movs	r3, #0
 1113              	.L54:
 373:build/openmote-cc2538_armgcc/openstack/02b-MAChigh/schedule.c **** }
 1114              		.loc 1 373 0 discriminator 1
 1115 0540 1846     		mov	r0, r3
 1116 0542 2437     		adds	r7, r7, #36
 1117              		.cfi_def_cfa_offset 12
 1118 0544 BD46     		mov	sp, r7
 1119              		.cfi_def_cfa_register 13
 1120              		@ sp needed
 1121 0546 90BD     		pop	{r4, r7, pc}
 1122              	.L56:
 1123              		.align	2
 1124              	.L55:
 1125 0548 00000000 		.word	schedule_vars
 1126              		.cfi_endproc
 1127              	.LFE8:
 1129              		.align	2
 1130              		.global	schedule_removeActiveSlot
 1131              		.thumb
 1132              		.thumb_func
 1134              	schedule_removeActiveSlot:
 1135              	.LFB9:
 374:build/openmote-cc2538_armgcc/openstack/02b-MAChigh/schedule.c **** 
 375:build/openmote-cc2538_armgcc/openstack/02b-MAChigh/schedule.c **** /**
 376:build/openmote-cc2538_armgcc/openstack/02b-MAChigh/schedule.c **** \brief Remove an active slot from the schedule.
 377:build/openmote-cc2538_armgcc/openstack/02b-MAChigh/schedule.c **** 
 378:build/openmote-cc2538_armgcc/openstack/02b-MAChigh/schedule.c **** \param slotOffset       The slotoffset of the slot to remove.
 379:build/openmote-cc2538_armgcc/openstack/02b-MAChigh/schedule.c **** \param neighbor         The neighbor associated with this cell (all 0's if
 380:build/openmote-cc2538_armgcc/openstack/02b-MAChigh/schedule.c ****    none)
 381:build/openmote-cc2538_armgcc/openstack/02b-MAChigh/schedule.c **** */
 382:build/openmote-cc2538_armgcc/openstack/02b-MAChigh/schedule.c **** owerror_t schedule_removeActiveSlot(slotOffset_t slotOffset, open_addr_t* neighbor) {
 1136              		.loc 1 382 0
 1137              		.cfi_startproc
 1138              		@ args = 0, pretend = 0, frame = 16
 1139              		@ frame_needed = 1, uses_anonymous_args = 0
 1140 054c 80B5     		push	{r7, lr}
 1141              		.cfi_def_cfa_offset 8
 1142              		.cfi_offset 7, -8
 1143              		.cfi_offset 14, -4
 1144 054e 84B0     		sub	sp, sp, #16
 1145              		.cfi_def_cfa_offset 24
 1146 0550 00AF     		add	r7, sp, #0
 1147              		.cfi_def_cfa_register 7
 1148 0552 0346     		mov	r3, r0
 1149 0554 3960     		str	r1, [r7]
 1150 0556 FB80     		strh	r3, [r7, #6]	@ movhi
 383:build/openmote-cc2538_armgcc/openstack/02b-MAChigh/schedule.c ****    scheduleEntry_t* slotContainer;
 384:build/openmote-cc2538_armgcc/openstack/02b-MAChigh/schedule.c ****    scheduleEntry_t* previousSlotWalker;
 385:build/openmote-cc2538_armgcc/openstack/02b-MAChigh/schedule.c ****    
 386:build/openmote-cc2538_armgcc/openstack/02b-MAChigh/schedule.c ****    INTERRUPT_DECLARATION();
 387:build/openmote-cc2538_armgcc/openstack/02b-MAChigh/schedule.c ****    DISABLE_INTERRUPTS();
 1151              		.loc 1 387 0
 1152 0558 FFF7FEFF 		bl	IntMasterDisable
 388:build/openmote-cc2538_armgcc/openstack/02b-MAChigh/schedule.c ****    
 389:build/openmote-cc2538_armgcc/openstack/02b-MAChigh/schedule.c ****    // find the schedule entry
 390:build/openmote-cc2538_armgcc/openstack/02b-MAChigh/schedule.c ****    slotContainer = &schedule_vars.scheduleBuf[0];
 1153              		.loc 1 390 0
 1154 055c 364B     		ldr	r3, .L72
 1155 055e FB60     		str	r3, [r7, #12]
 391:build/openmote-cc2538_armgcc/openstack/02b-MAChigh/schedule.c ****    while (slotContainer<=&schedule_vars.scheduleBuf[schedule_vars.maxActiveSlots-1]) {
 1156              		.loc 1 391 0
 1157 0560 10E0     		b	.L58
 1158              	.L61:
 392:build/openmote-cc2538_armgcc/openstack/02b-MAChigh/schedule.c ****       if (
 393:build/openmote-cc2538_armgcc/openstack/02b-MAChigh/schedule.c ****             slotContainer->slotOffset==slotOffset
 1159              		.loc 1 393 0
 1160 0562 FB68     		ldr	r3, [r7, #12]
 1161 0564 1B88     		ldrh	r3, [r3]
 392:build/openmote-cc2538_armgcc/openstack/02b-MAChigh/schedule.c ****       if (
 1162              		.loc 1 392 0
 1163 0566 FA88     		ldrh	r2, [r7, #6]
 1164 0568 9A42     		cmp	r2, r3
 1165 056a 08D1     		bne	.L59
 394:build/openmote-cc2538_armgcc/openstack/02b-MAChigh/schedule.c ****             &&
 395:build/openmote-cc2538_armgcc/openstack/02b-MAChigh/schedule.c ****             packetfunctions_sameAddress(neighbor,&(slotContainer->neighbor))
 1166              		.loc 1 395 0
 1167 056c FB68     		ldr	r3, [r7, #12]
 1168 056e 0533     		adds	r3, r3, #5
 1169 0570 1946     		mov	r1, r3
 1170 0572 3868     		ldr	r0, [r7]
 1171 0574 FFF7FEFF 		bl	packetfunctions_sameAddress
 1172 0578 0346     		mov	r3, r0
 394:build/openmote-cc2538_armgcc/openstack/02b-MAChigh/schedule.c ****             &&
 1173              		.loc 1 394 0
 1174 057a 002B     		cmp	r3, #0
 1175 057c 10D1     		bne	.L70
 1176              	.L59:
 396:build/openmote-cc2538_armgcc/openstack/02b-MAChigh/schedule.c ****             ){
 397:build/openmote-cc2538_armgcc/openstack/02b-MAChigh/schedule.c ****          break;
 398:build/openmote-cc2538_armgcc/openstack/02b-MAChigh/schedule.c ****       }
 399:build/openmote-cc2538_armgcc/openstack/02b-MAChigh/schedule.c ****       slotContainer++;
 1177              		.loc 1 399 0
 1178 057e FB68     		ldr	r3, [r7, #12]
 1179 0580 2433     		adds	r3, r3, #36
 1180 0582 FB60     		str	r3, [r7, #12]
 1181              	.L58:
 391:build/openmote-cc2538_armgcc/openstack/02b-MAChigh/schedule.c ****       if (
 1182              		.loc 1 391 0
 1183 0584 2C4B     		ldr	r3, .L72
 1184 0586 B3F84233 		ldrh	r3, [r3, #834]
 1185 058a 5A1E     		subs	r2, r3, #1
 1186 058c 1346     		mov	r3, r2
 1187 058e DB00     		lsls	r3, r3, #3
 1188 0590 1344     		add	r3, r3, r2
 1189 0592 9B00     		lsls	r3, r3, #2
 1190 0594 284A     		ldr	r2, .L72
 1191 0596 1A44     		add	r2, r2, r3
 1192 0598 FB68     		ldr	r3, [r7, #12]
 1193 059a 9A42     		cmp	r2, r3
 1194 059c E1D2     		bcs	.L61
 1195 059e 00E0     		b	.L60
 1196              	.L70:
 397:build/openmote-cc2538_armgcc/openstack/02b-MAChigh/schedule.c ****       }
 1197              		.loc 1 397 0
 1198 05a0 00BF     		nop
 1199              	.L60:
 400:build/openmote-cc2538_armgcc/openstack/02b-MAChigh/schedule.c ****    }
 401:build/openmote-cc2538_armgcc/openstack/02b-MAChigh/schedule.c ****    
 402:build/openmote-cc2538_armgcc/openstack/02b-MAChigh/schedule.c ****    // abort it could not find
 403:build/openmote-cc2538_armgcc/openstack/02b-MAChigh/schedule.c ****    if (slotContainer>&schedule_vars.scheduleBuf[schedule_vars.maxActiveSlots-1]) {
 1200              		.loc 1 403 0
 1201 05a2 254B     		ldr	r3, .L72
 1202 05a4 B3F84233 		ldrh	r3, [r3, #834]
 1203 05a8 5A1E     		subs	r2, r3, #1
 1204 05aa 1346     		mov	r3, r2
 1205 05ac DB00     		lsls	r3, r3, #3
 1206 05ae 1344     		add	r3, r3, r2
 1207 05b0 9B00     		lsls	r3, r3, #2
 1208 05b2 214A     		ldr	r2, .L72
 1209 05b4 1A44     		add	r2, r2, r3
 1210 05b6 FB68     		ldr	r3, [r7, #12]
 1211 05b8 9A42     		cmp	r2, r3
 1212 05ba 09D2     		bcs	.L62
 404:build/openmote-cc2538_armgcc/openstack/02b-MAChigh/schedule.c ****       ENABLE_INTERRUPTS();
 1213              		.loc 1 404 0
 1214 05bc FFF7FEFF 		bl	IntMasterEnable
 405:build/openmote-cc2538_armgcc/openstack/02b-MAChigh/schedule.c ****       openserial_printCritical(
 1215              		.loc 1 405 0
 1216 05c0 0023     		movs	r3, #0
 1217 05c2 0022     		movs	r2, #0
 1218 05c4 2E21     		movs	r1, #46
 1219 05c6 0E20     		movs	r0, #14
 1220 05c8 FFF7FEFF 		bl	openserial_printCritical
 406:build/openmote-cc2538_armgcc/openstack/02b-MAChigh/schedule.c ****          COMPONENT_SCHEDULE,ERR_FREEING_ERROR,
 407:build/openmote-cc2538_armgcc/openstack/02b-MAChigh/schedule.c ****          (errorparameter_t)0,
 408:build/openmote-cc2538_armgcc/openstack/02b-MAChigh/schedule.c ****          (errorparameter_t)0
 409:build/openmote-cc2538_armgcc/openstack/02b-MAChigh/schedule.c ****       );
 410:build/openmote-cc2538_armgcc/openstack/02b-MAChigh/schedule.c ****       //printf("I am node %d, removing slot. COULD NOT FIND \n", idmanager_getMyID(ADDR_64B)->addr_
 411:build/openmote-cc2538_armgcc/openstack/02b-MAChigh/schedule.c ****       return E_FAIL;
 1221              		.loc 1 411 0
 1222 05cc 0123     		movs	r3, #1
 1223 05ce 2FE0     		b	.L63
 1224              	.L62:
 412:build/openmote-cc2538_armgcc/openstack/02b-MAChigh/schedule.c ****    }
 413:build/openmote-cc2538_armgcc/openstack/02b-MAChigh/schedule.c ****    
 414:build/openmote-cc2538_armgcc/openstack/02b-MAChigh/schedule.c ****    // remove from linked list
 415:build/openmote-cc2538_armgcc/openstack/02b-MAChigh/schedule.c ****    if (slotContainer->next==slotContainer) {
 1225              		.loc 1 415 0
 1226 05d0 FB68     		ldr	r3, [r7, #12]
 1227 05d2 1A6A     		ldr	r2, [r3, #32]
 1228 05d4 FB68     		ldr	r3, [r7, #12]
 1229 05d6 9A42     		cmp	r2, r3
 1230 05d8 07D1     		bne	.L64
 416:build/openmote-cc2538_armgcc/openstack/02b-MAChigh/schedule.c ****       // this is the last active slot
 417:build/openmote-cc2538_armgcc/openstack/02b-MAChigh/schedule.c ****       
 418:build/openmote-cc2538_armgcc/openstack/02b-MAChigh/schedule.c ****       // the next slot of this slot is NULL
 419:build/openmote-cc2538_armgcc/openstack/02b-MAChigh/schedule.c ****       slotContainer->next                   = NULL;
 1231              		.loc 1 419 0
 1232 05da FB68     		ldr	r3, [r7, #12]
 1233 05dc 0022     		movs	r2, #0
 1234 05de 1A62     		str	r2, [r3, #32]
 420:build/openmote-cc2538_armgcc/openstack/02b-MAChigh/schedule.c ****       
 421:build/openmote-cc2538_armgcc/openstack/02b-MAChigh/schedule.c ****       // current slot points to this slot
 422:build/openmote-cc2538_armgcc/openstack/02b-MAChigh/schedule.c ****       schedule_vars.currentScheduleEntry    = NULL;
 1235              		.loc 1 422 0
 1236 05e0 154B     		ldr	r3, .L72
 1237 05e2 0022     		movs	r2, #0
 1238 05e4 C3F83C23 		str	r2, [r3, #828]
 1239 05e8 1CE0     		b	.L65
 1240              	.L64:
 423:build/openmote-cc2538_armgcc/openstack/02b-MAChigh/schedule.c ****    } else  {
 424:build/openmote-cc2538_armgcc/openstack/02b-MAChigh/schedule.c ****       // this is NOT the last active slot
 425:build/openmote-cc2538_armgcc/openstack/02b-MAChigh/schedule.c ****       
 426:build/openmote-cc2538_armgcc/openstack/02b-MAChigh/schedule.c ****       // find the previous in the schedule
 427:build/openmote-cc2538_armgcc/openstack/02b-MAChigh/schedule.c ****       previousSlotWalker                    = schedule_vars.currentScheduleEntry;
 1241              		.loc 1 427 0
 1242 05ea 134B     		ldr	r3, .L72
 1243 05ec D3F83C33 		ldr	r3, [r3, #828]
 1244 05f0 BB60     		str	r3, [r7, #8]
 1245              	.L68:
 428:build/openmote-cc2538_armgcc/openstack/02b-MAChigh/schedule.c ****       
 429:build/openmote-cc2538_armgcc/openstack/02b-MAChigh/schedule.c ****       while (1) {
 430:build/openmote-cc2538_armgcc/openstack/02b-MAChigh/schedule.c ****          if (previousSlotWalker->next==slotContainer){
 1246              		.loc 1 430 0
 1247 05f2 BB68     		ldr	r3, [r7, #8]
 1248 05f4 1A6A     		ldr	r2, [r3, #32]
 1249 05f6 FB68     		ldr	r3, [r7, #12]
 1250 05f8 9A42     		cmp	r2, r3
 1251 05fa 03D0     		beq	.L71
 431:build/openmote-cc2538_armgcc/openstack/02b-MAChigh/schedule.c ****             break;
 432:build/openmote-cc2538_armgcc/openstack/02b-MAChigh/schedule.c ****          }
 433:build/openmote-cc2538_armgcc/openstack/02b-MAChigh/schedule.c ****          previousSlotWalker                 = previousSlotWalker->next;
 1252              		.loc 1 433 0
 1253 05fc BB68     		ldr	r3, [r7, #8]
 1254 05fe 1B6A     		ldr	r3, [r3, #32]
 1255 0600 BB60     		str	r3, [r7, #8]
 434:build/openmote-cc2538_armgcc/openstack/02b-MAChigh/schedule.c ****       }
 1256              		.loc 1 434 0
 1257 0602 F6E7     		b	.L68
 1258              	.L71:
 431:build/openmote-cc2538_armgcc/openstack/02b-MAChigh/schedule.c ****             break;
 1259              		.loc 1 431 0
 1260 0604 00BF     		nop
 435:build/openmote-cc2538_armgcc/openstack/02b-MAChigh/schedule.c ****       
 436:build/openmote-cc2538_armgcc/openstack/02b-MAChigh/schedule.c ****       // remove this element from the linked list, i.e. have the previous slot
 437:build/openmote-cc2538_armgcc/openstack/02b-MAChigh/schedule.c ****       // "jump" to slotContainer's next
 438:build/openmote-cc2538_armgcc/openstack/02b-MAChigh/schedule.c ****       previousSlotWalker->next              = slotContainer->next;
 1261              		.loc 1 438 0
 1262 0606 FB68     		ldr	r3, [r7, #12]
 1263 0608 1A6A     		ldr	r2, [r3, #32]
 1264 060a BB68     		ldr	r3, [r7, #8]
 1265 060c 1A62     		str	r2, [r3, #32]
 439:build/openmote-cc2538_armgcc/openstack/02b-MAChigh/schedule.c ****       
 440:build/openmote-cc2538_armgcc/openstack/02b-MAChigh/schedule.c ****       // update current slot if points to slot I just removed
 441:build/openmote-cc2538_armgcc/openstack/02b-MAChigh/schedule.c ****       if (schedule_vars.currentScheduleEntry==slotContainer) {
 1266              		.loc 1 441 0
 1267 060e 0A4B     		ldr	r3, .L72
 1268 0610 D3F83C23 		ldr	r2, [r3, #828]
 1269 0614 FB68     		ldr	r3, [r7, #12]
 1270 0616 9A42     		cmp	r2, r3
 1271 0618 04D1     		bne	.L65
 442:build/openmote-cc2538_armgcc/openstack/02b-MAChigh/schedule.c ****          schedule_vars.currentScheduleEntry = slotContainer->next;
 1272              		.loc 1 442 0
 1273 061a FB68     		ldr	r3, [r7, #12]
 1274 061c 1B6A     		ldr	r3, [r3, #32]
 1275 061e 064A     		ldr	r2, .L72
 1276 0620 C2F83C33 		str	r3, [r2, #828]
 1277              	.L65:
 443:build/openmote-cc2538_armgcc/openstack/02b-MAChigh/schedule.c ****       }
 444:build/openmote-cc2538_armgcc/openstack/02b-MAChigh/schedule.c ****    }
 445:build/openmote-cc2538_armgcc/openstack/02b-MAChigh/schedule.c ****    
 446:build/openmote-cc2538_armgcc/openstack/02b-MAChigh/schedule.c ****    // reset removed schedule entry
 447:build/openmote-cc2538_armgcc/openstack/02b-MAChigh/schedule.c ****    schedule_resetEntry(slotContainer);
 1278              		.loc 1 447 0
 1279 0624 F868     		ldr	r0, [r7, #12]
 1280 0626 FFF7FEFF 		bl	schedule_resetEntry
 448:build/openmote-cc2538_armgcc/openstack/02b-MAChigh/schedule.c ****    
 449:build/openmote-cc2538_armgcc/openstack/02b-MAChigh/schedule.c ****    ENABLE_INTERRUPTS();
 1281              		.loc 1 449 0
 1282 062a FFF7FEFF 		bl	IntMasterEnable
 450:build/openmote-cc2538_armgcc/openstack/02b-MAChigh/schedule.c ****    
 451:build/openmote-cc2538_armgcc/openstack/02b-MAChigh/schedule.c ****    return E_SUCCESS;
 1283              		.loc 1 451 0
 1284 062e 0023     		movs	r3, #0
 1285              	.L63:
 452:build/openmote-cc2538_armgcc/openstack/02b-MAChigh/schedule.c **** }
 1286              		.loc 1 452 0
 1287 0630 1846     		mov	r0, r3
 1288 0632 1037     		adds	r7, r7, #16
 1289              		.cfi_def_cfa_offset 8
 1290 0634 BD46     		mov	sp, r7
 1291              		.cfi_def_cfa_register 13
 1292              		@ sp needed
 1293 0636 80BD     		pop	{r7, pc}
 1294              	.L73:
 1295              		.align	2
 1296              	.L72:
 1297 0638 00000000 		.word	schedule_vars
 1298              		.cfi_endproc
 1299              	.LFE9:
 1301              		.align	2
 1302              		.global	schedule_isSlotOffsetAvailable
 1303              		.thumb
 1304              		.thumb_func
 1306              	schedule_isSlotOffsetAvailable:
 1307              	.LFB10:
 453:build/openmote-cc2538_armgcc/openstack/02b-MAChigh/schedule.c **** 
 454:build/openmote-cc2538_armgcc/openstack/02b-MAChigh/schedule.c **** bool schedule_isSlotOffsetAvailable(uint16_t slotOffset){
 1308              		.loc 1 454 0
 1309              		.cfi_startproc
 1310              		@ args = 0, pretend = 0, frame = 16
 1311              		@ frame_needed = 1, uses_anonymous_args = 0
 1312 063c 80B5     		push	{r7, lr}
 1313              		.cfi_def_cfa_offset 8
 1314              		.cfi_offset 7, -8
 1315              		.cfi_offset 14, -4
 1316 063e 84B0     		sub	sp, sp, #16
 1317              		.cfi_def_cfa_offset 24
 1318 0640 00AF     		add	r7, sp, #0
 1319              		.cfi_def_cfa_register 7
 1320 0642 0346     		mov	r3, r0
 1321 0644 FB80     		strh	r3, [r7, #6]	@ movhi
 455:build/openmote-cc2538_armgcc/openstack/02b-MAChigh/schedule.c ****    
 456:build/openmote-cc2538_armgcc/openstack/02b-MAChigh/schedule.c ****    scheduleEntry_t* scheduleWalker;
 457:build/openmote-cc2538_armgcc/openstack/02b-MAChigh/schedule.c ****    
 458:build/openmote-cc2538_armgcc/openstack/02b-MAChigh/schedule.c ****    INTERRUPT_DECLARATION();
 459:build/openmote-cc2538_armgcc/openstack/02b-MAChigh/schedule.c ****    DISABLE_INTERRUPTS();
 1322              		.loc 1 459 0
 1323 0646 FFF7FEFF 		bl	IntMasterDisable
 460:build/openmote-cc2538_armgcc/openstack/02b-MAChigh/schedule.c ****    
 461:build/openmote-cc2538_armgcc/openstack/02b-MAChigh/schedule.c ****    if (slotOffset>=schedule_vars.frameLength){
 1324              		.loc 1 461 0
 1325 064a 134B     		ldr	r3, .L79
 1326 064c B3F84033 		ldrh	r3, [r3, #832]
 1327 0650 FA88     		ldrh	r2, [r7, #6]
 1328 0652 9A42     		cmp	r2, r3
 1329 0654 03D3     		bcc	.L75
 462:build/openmote-cc2538_armgcc/openstack/02b-MAChigh/schedule.c ****       ENABLE_INTERRUPTS();
 1330              		.loc 1 462 0
 1331 0656 FFF7FEFF 		bl	IntMasterEnable
 463:build/openmote-cc2538_armgcc/openstack/02b-MAChigh/schedule.c ****       return FALSE;
 1332              		.loc 1 463 0
 1333 065a 0023     		movs	r3, #0
 1334 065c 18E0     		b	.L76
 1335              	.L75:
 464:build/openmote-cc2538_armgcc/openstack/02b-MAChigh/schedule.c ****    }
 465:build/openmote-cc2538_armgcc/openstack/02b-MAChigh/schedule.c ****    
 466:build/openmote-cc2538_armgcc/openstack/02b-MAChigh/schedule.c ****    scheduleWalker = schedule_vars.currentScheduleEntry;
 1336              		.loc 1 466 0
 1337 065e 0E4B     		ldr	r3, .L79
 1338 0660 D3F83C33 		ldr	r3, [r3, #828]
 1339 0664 FB60     		str	r3, [r7, #12]
 1340              	.L78:
 467:build/openmote-cc2538_armgcc/openstack/02b-MAChigh/schedule.c ****    do {
 468:build/openmote-cc2538_armgcc/openstack/02b-MAChigh/schedule.c ****       if(slotOffset == scheduleWalker->slotOffset){
 1341              		.loc 1 468 0
 1342 0666 FB68     		ldr	r3, [r7, #12]
 1343 0668 1B88     		ldrh	r3, [r3]
 1344 066a FA88     		ldrh	r2, [r7, #6]
 1345 066c 9A42     		cmp	r2, r3
 1346 066e 03D1     		bne	.L77
 469:build/openmote-cc2538_armgcc/openstack/02b-MAChigh/schedule.c ****           ENABLE_INTERRUPTS();
 1347              		.loc 1 469 0
 1348 0670 FFF7FEFF 		bl	IntMasterEnable
 470:build/openmote-cc2538_armgcc/openstack/02b-MAChigh/schedule.c ****           return FALSE;
 1349              		.loc 1 470 0
 1350 0674 0023     		movs	r3, #0
 1351 0676 0BE0     		b	.L76
 1352              	.L77:
 471:build/openmote-cc2538_armgcc/openstack/02b-MAChigh/schedule.c ****       }
 472:build/openmote-cc2538_armgcc/openstack/02b-MAChigh/schedule.c ****       scheduleWalker = scheduleWalker->next;
 1353              		.loc 1 472 0
 1354 0678 FB68     		ldr	r3, [r7, #12]
 1355 067a 1B6A     		ldr	r3, [r3, #32]
 1356 067c FB60     		str	r3, [r7, #12]
 473:build/openmote-cc2538_armgcc/openstack/02b-MAChigh/schedule.c ****    }while(scheduleWalker!=schedule_vars.currentScheduleEntry);
 1357              		.loc 1 473 0
 1358 067e 064B     		ldr	r3, .L79
 1359 0680 D3F83C23 		ldr	r2, [r3, #828]
 1360 0684 FB68     		ldr	r3, [r7, #12]
 1361 0686 9A42     		cmp	r2, r3
 1362 0688 EDD1     		bne	.L78
 474:build/openmote-cc2538_armgcc/openstack/02b-MAChigh/schedule.c ****    
 475:build/openmote-cc2538_armgcc/openstack/02b-MAChigh/schedule.c ****    ENABLE_INTERRUPTS();
 1363              		.loc 1 475 0
 1364 068a FFF7FEFF 		bl	IntMasterEnable
 476:build/openmote-cc2538_armgcc/openstack/02b-MAChigh/schedule.c ****    
 477:build/openmote-cc2538_armgcc/openstack/02b-MAChigh/schedule.c ****    return TRUE;
 1365              		.loc 1 477 0
 1366 068e 0123     		movs	r3, #1
 1367              	.L76:
 478:build/openmote-cc2538_armgcc/openstack/02b-MAChigh/schedule.c **** }
 1368              		.loc 1 478 0
 1369 0690 1846     		mov	r0, r3
 1370 0692 1037     		adds	r7, r7, #16
 1371              		.cfi_def_cfa_offset 8
 1372 0694 BD46     		mov	sp, r7
 1373              		.cfi_def_cfa_register 13
 1374              		@ sp needed
 1375 0696 80BD     		pop	{r7, pc}
 1376              	.L80:
 1377              		.align	2
 1378              	.L79:
 1379 0698 00000000 		.word	schedule_vars
 1380              		.cfi_endproc
 1381              	.LFE10:
 1383              		.align	2
 1384              		.global	schedule_removeAllCells
 1385              		.thumb
 1386              		.thumb_func
 1388              	schedule_removeAllCells:
 1389              	.LFB11:
 479:build/openmote-cc2538_armgcc/openstack/02b-MAChigh/schedule.c **** 
 480:build/openmote-cc2538_armgcc/openstack/02b-MAChigh/schedule.c **** void schedule_removeAllCells(
 481:build/openmote-cc2538_armgcc/openstack/02b-MAChigh/schedule.c ****     uint8_t        slotframeID,
 482:build/openmote-cc2538_armgcc/openstack/02b-MAChigh/schedule.c ****     open_addr_t*   previousHop
 483:build/openmote-cc2538_armgcc/openstack/02b-MAChigh/schedule.c ****     ){
 1390              		.loc 1 483 0
 1391              		.cfi_startproc
 1392              		@ args = 0, pretend = 0, frame = 16
 1393              		@ frame_needed = 1, uses_anonymous_args = 0
 1394 069c 80B5     		push	{r7, lr}
 1395              		.cfi_def_cfa_offset 8
 1396              		.cfi_offset 7, -8
 1397              		.cfi_offset 14, -4
 1398 069e 84B0     		sub	sp, sp, #16
 1399              		.cfi_def_cfa_offset 24
 1400 06a0 00AF     		add	r7, sp, #0
 1401              		.cfi_def_cfa_register 7
 1402 06a2 0346     		mov	r3, r0
 1403 06a4 3960     		str	r1, [r7]
 1404 06a6 FB71     		strb	r3, [r7, #7]
 484:build/openmote-cc2538_armgcc/openstack/02b-MAChigh/schedule.c ****     uint8_t i;
 485:build/openmote-cc2538_armgcc/openstack/02b-MAChigh/schedule.c ****     //printf("I am node %d, Removig ALL cells!! \n", idmanager_getMyID(ADDR_64B)->addr_64b[7]);
 486:build/openmote-cc2538_armgcc/openstack/02b-MAChigh/schedule.c ****     // remove all entries in schedule with previousHop address
 487:build/openmote-cc2538_armgcc/openstack/02b-MAChigh/schedule.c ****     for(i=0;i<MAXACTIVESLOTS;i++){
 1405              		.loc 1 487 0
 1406 06a8 0023     		movs	r3, #0
 1407 06aa FB73     		strb	r3, [r7, #15]
 1408 06ac 1DE0     		b	.L82
 1409              	.L84:
 488:build/openmote-cc2538_armgcc/openstack/02b-MAChigh/schedule.c ****         if (packetfunctions_sameAddress(&(schedule_vars.scheduleBuf[i].neighbor),previousHop)){
 1410              		.loc 1 488 0
 1411 06ae FA7B     		ldrb	r2, [r7, #15]	@ zero_extendqisi2
 1412 06b0 1346     		mov	r3, r2
 1413 06b2 DB00     		lsls	r3, r3, #3
 1414 06b4 1344     		add	r3, r3, r2
 1415 06b6 9B00     		lsls	r3, r3, #2
 1416 06b8 0F4A     		ldr	r2, .L85
 1417 06ba 1344     		add	r3, r3, r2
 1418 06bc 0533     		adds	r3, r3, #5
 1419 06be 3968     		ldr	r1, [r7]
 1420 06c0 1846     		mov	r0, r3
 1421 06c2 FFF7FEFF 		bl	packetfunctions_sameAddress
 1422 06c6 0346     		mov	r3, r0
 1423 06c8 002B     		cmp	r3, #0
 1424 06ca 0BD0     		beq	.L83
 489:build/openmote-cc2538_armgcc/openstack/02b-MAChigh/schedule.c ****            schedule_removeActiveSlot(
 1425              		.loc 1 489 0
 1426 06cc FA7B     		ldrb	r2, [r7, #15]	@ zero_extendqisi2
 1427 06ce 0A49     		ldr	r1, .L85
 1428 06d0 1346     		mov	r3, r2
 1429 06d2 DB00     		lsls	r3, r3, #3
 1430 06d4 1344     		add	r3, r3, r2
 1431 06d6 9B00     		lsls	r3, r3, #2
 1432 06d8 0B44     		add	r3, r3, r1
 1433 06da 1B88     		ldrh	r3, [r3]
 1434 06dc 3968     		ldr	r1, [r7]
 1435 06de 1846     		mov	r0, r3
 1436 06e0 FFF7FEFF 		bl	schedule_removeActiveSlot
 1437              	.L83:
 487:build/openmote-cc2538_armgcc/openstack/02b-MAChigh/schedule.c ****         if (packetfunctions_sameAddress(&(schedule_vars.scheduleBuf[i].neighbor),previousHop)){
 1438              		.loc 1 487 0 discriminator 2
 1439 06e4 FB7B     		ldrb	r3, [r7, #15]	@ zero_extendqisi2
 1440 06e6 0133     		adds	r3, r3, #1
 1441 06e8 FB73     		strb	r3, [r7, #15]
 1442              	.L82:
 487:build/openmote-cc2538_armgcc/openstack/02b-MAChigh/schedule.c ****         if (packetfunctions_sameAddress(&(schedule_vars.scheduleBuf[i].neighbor),previousHop)){
 1443              		.loc 1 487 0 is_stmt 0 discriminator 1
 1444 06ea FB7B     		ldrb	r3, [r7, #15]	@ zero_extendqisi2
 1445 06ec 162B     		cmp	r3, #22
 1446 06ee DED9     		bls	.L84
 490:build/openmote-cc2538_armgcc/openstack/02b-MAChigh/schedule.c ****               schedule_vars.scheduleBuf[i].slotOffset,
 491:build/openmote-cc2538_armgcc/openstack/02b-MAChigh/schedule.c ****               previousHop
 492:build/openmote-cc2538_armgcc/openstack/02b-MAChigh/schedule.c ****            );
 493:build/openmote-cc2538_armgcc/openstack/02b-MAChigh/schedule.c ****            //printf("I am node %d, Removig cell %d \n", idmanager_getMyID(ADDR_64B)->addr_64b[7],sc
 494:build/openmote-cc2538_armgcc/openstack/02b-MAChigh/schedule.c ****         }
 495:build/openmote-cc2538_armgcc/openstack/02b-MAChigh/schedule.c ****     }
 496:build/openmote-cc2538_armgcc/openstack/02b-MAChigh/schedule.c **** }
 1447              		.loc 1 496 0 is_stmt 1
 1448 06f0 00BF     		nop
 1449 06f2 1037     		adds	r7, r7, #16
 1450              		.cfi_def_cfa_offset 8
 1451 06f4 BD46     		mov	sp, r7
 1452              		.cfi_def_cfa_register 13
 1453              		@ sp needed
 1454 06f6 80BD     		pop	{r7, pc}
 1455              	.L86:
 1456              		.align	2
 1457              	.L85:
 1458 06f8 00000000 		.word	schedule_vars
 1459              		.cfi_endproc
 1460              	.LFE11:
 1462              		.align	2
 1463              		.global	schedule_getNumberOfFreeEntries
 1464              		.thumb
 1465              		.thumb_func
 1467              	schedule_getNumberOfFreeEntries:
 1468              	.LFB12:
 497:build/openmote-cc2538_armgcc/openstack/02b-MAChigh/schedule.c **** 
 498:build/openmote-cc2538_armgcc/openstack/02b-MAChigh/schedule.c **** uint8_t schedule_getNumberOfFreeEntries(){
 1469              		.loc 1 498 0
 1470              		.cfi_startproc
 1471              		@ args = 0, pretend = 0, frame = 8
 1472              		@ frame_needed = 1, uses_anonymous_args = 0
 1473 06fc 80B5     		push	{r7, lr}
 1474              		.cfi_def_cfa_offset 8
 1475              		.cfi_offset 7, -8
 1476              		.cfi_offset 14, -4
 1477 06fe 82B0     		sub	sp, sp, #8
 1478              		.cfi_def_cfa_offset 16
 1479 0700 00AF     		add	r7, sp, #0
 1480              		.cfi_def_cfa_register 7
 499:build/openmote-cc2538_armgcc/openstack/02b-MAChigh/schedule.c ****    uint8_t i; 
 500:build/openmote-cc2538_armgcc/openstack/02b-MAChigh/schedule.c ****    uint8_t counter;
 501:build/openmote-cc2538_armgcc/openstack/02b-MAChigh/schedule.c ****    
 502:build/openmote-cc2538_armgcc/openstack/02b-MAChigh/schedule.c ****    INTERRUPT_DECLARATION();
 503:build/openmote-cc2538_armgcc/openstack/02b-MAChigh/schedule.c ****    DISABLE_INTERRUPTS();
 1481              		.loc 1 503 0
 1482 0702 FFF7FEFF 		bl	IntMasterDisable
 504:build/openmote-cc2538_armgcc/openstack/02b-MAChigh/schedule.c ****    
 505:build/openmote-cc2538_armgcc/openstack/02b-MAChigh/schedule.c ****    counter = 0;
 1483              		.loc 1 505 0
 1484 0706 0023     		movs	r3, #0
 1485 0708 BB71     		strb	r3, [r7, #6]
 506:build/openmote-cc2538_armgcc/openstack/02b-MAChigh/schedule.c ****    for(i=0;i<MAXACTIVESLOTS;i++) {
 1486              		.loc 1 506 0
 1487 070a 0023     		movs	r3, #0
 1488 070c FB71     		strb	r3, [r7, #7]
 1489 070e 10E0     		b	.L88
 1490              	.L90:
 507:build/openmote-cc2538_armgcc/openstack/02b-MAChigh/schedule.c ****       if(schedule_vars.scheduleBuf[i].type == CELLTYPE_OFF){
 1491              		.loc 1 507 0
 1492 0710 FA79     		ldrb	r2, [r7, #7]	@ zero_extendqisi2
 1493 0712 0D49     		ldr	r1, .L92
 1494 0714 1346     		mov	r3, r2
 1495 0716 DB00     		lsls	r3, r3, #3
 1496 0718 1344     		add	r3, r3, r2
 1497 071a 9B00     		lsls	r3, r3, #2
 1498 071c 0B44     		add	r3, r3, r1
 1499 071e 0233     		adds	r3, r3, #2
 1500 0720 1B78     		ldrb	r3, [r3]	@ zero_extendqisi2
 1501 0722 002B     		cmp	r3, #0
 1502 0724 02D1     		bne	.L89
 508:build/openmote-cc2538_armgcc/openstack/02b-MAChigh/schedule.c ****          counter++;
 1503              		.loc 1 508 0
 1504 0726 BB79     		ldrb	r3, [r7, #6]	@ zero_extendqisi2
 1505 0728 0133     		adds	r3, r3, #1
 1506 072a BB71     		strb	r3, [r7, #6]
 1507              	.L89:
 506:build/openmote-cc2538_armgcc/openstack/02b-MAChigh/schedule.c ****    for(i=0;i<MAXACTIVESLOTS;i++) {
 1508              		.loc 1 506 0 discriminator 2
 1509 072c FB79     		ldrb	r3, [r7, #7]	@ zero_extendqisi2
 1510 072e 0133     		adds	r3, r3, #1
 1511 0730 FB71     		strb	r3, [r7, #7]
 1512              	.L88:
 506:build/openmote-cc2538_armgcc/openstack/02b-MAChigh/schedule.c ****    for(i=0;i<MAXACTIVESLOTS;i++) {
 1513              		.loc 1 506 0 is_stmt 0 discriminator 1
 1514 0732 FB79     		ldrb	r3, [r7, #7]	@ zero_extendqisi2
 1515 0734 162B     		cmp	r3, #22
 1516 0736 EBD9     		bls	.L90
 509:build/openmote-cc2538_armgcc/openstack/02b-MAChigh/schedule.c ****       }
 510:build/openmote-cc2538_armgcc/openstack/02b-MAChigh/schedule.c ****    }
 511:build/openmote-cc2538_armgcc/openstack/02b-MAChigh/schedule.c ****    
 512:build/openmote-cc2538_armgcc/openstack/02b-MAChigh/schedule.c ****    ENABLE_INTERRUPTS();
 1517              		.loc 1 512 0 is_stmt 1
 1518 0738 FFF7FEFF 		bl	IntMasterEnable
 513:build/openmote-cc2538_armgcc/openstack/02b-MAChigh/schedule.c ****    
 514:build/openmote-cc2538_armgcc/openstack/02b-MAChigh/schedule.c ****    return counter;
 1519              		.loc 1 514 0
 1520 073c BB79     		ldrb	r3, [r7, #6]	@ zero_extendqisi2
 515:build/openmote-cc2538_armgcc/openstack/02b-MAChigh/schedule.c **** }
 1521              		.loc 1 515 0
 1522 073e 1846     		mov	r0, r3
 1523 0740 0837     		adds	r7, r7, #8
 1524              		.cfi_def_cfa_offset 8
 1525 0742 BD46     		mov	sp, r7
 1526              		.cfi_def_cfa_register 13
 1527              		@ sp needed
 1528 0744 80BD     		pop	{r7, pc}
 1529              	.L93:
 1530 0746 00BF     		.align	2
 1531              	.L92:
 1532 0748 00000000 		.word	schedule_vars
 1533              		.cfi_endproc
 1534              	.LFE12:
 1536              		.align	2
 1537              		.global	schedule_getNumberOfDedicatedCells
 1538              		.thumb
 1539              		.thumb_func
 1541              	schedule_getNumberOfDedicatedCells:
 1542              	.LFB13:
 516:build/openmote-cc2538_armgcc/openstack/02b-MAChigh/schedule.c **** 
 517:build/openmote-cc2538_armgcc/openstack/02b-MAChigh/schedule.c **** uint8_t schedule_getNumberOfDedicatedCells(open_addr_t* neighbor){
 1543              		.loc 1 517 0
 1544              		.cfi_startproc
 1545              		@ args = 0, pretend = 0, frame = 16
 1546              		@ frame_needed = 1, uses_anonymous_args = 0
 1547 074c 80B5     		push	{r7, lr}
 1548              		.cfi_def_cfa_offset 8
 1549              		.cfi_offset 7, -8
 1550              		.cfi_offset 14, -4
 1551 074e 84B0     		sub	sp, sp, #16
 1552              		.cfi_def_cfa_offset 24
 1553 0750 00AF     		add	r7, sp, #0
 1554              		.cfi_def_cfa_register 7
 1555 0752 7860     		str	r0, [r7, #4]
 518:build/openmote-cc2538_armgcc/openstack/02b-MAChigh/schedule.c ****    uint8_t i; 
 519:build/openmote-cc2538_armgcc/openstack/02b-MAChigh/schedule.c ****    uint8_t counter;
 520:build/openmote-cc2538_armgcc/openstack/02b-MAChigh/schedule.c ****    
 521:build/openmote-cc2538_armgcc/openstack/02b-MAChigh/schedule.c ****    INTERRUPT_DECLARATION();
 522:build/openmote-cc2538_armgcc/openstack/02b-MAChigh/schedule.c ****    DISABLE_INTERRUPTS();
 1556              		.loc 1 522 0
 1557 0754 FFF7FEFF 		bl	IntMasterDisable
 523:build/openmote-cc2538_armgcc/openstack/02b-MAChigh/schedule.c ****    
 524:build/openmote-cc2538_armgcc/openstack/02b-MAChigh/schedule.c ****    counter = 0;
 1558              		.loc 1 524 0
 1559 0758 0023     		movs	r3, #0
 1560 075a BB73     		strb	r3, [r7, #14]
 525:build/openmote-cc2538_armgcc/openstack/02b-MAChigh/schedule.c ****    for(i=0;i<MAXACTIVESLOTS;i++) {
 1561              		.loc 1 525 0
 1562 075c 0023     		movs	r3, #0
 1563 075e FB73     		strb	r3, [r7, #15]
 1564 0760 14E0     		b	.L95
 1565              	.L97:
 526:build/openmote-cc2538_armgcc/openstack/02b-MAChigh/schedule.c ****       if(
 527:build/openmote-cc2538_armgcc/openstack/02b-MAChigh/schedule.c ****          packetfunctions_sameAddress(&schedule_vars.scheduleBuf[i].neighbor, neighbor) == TRUE
 1566              		.loc 1 527 0
 1567 0762 FA7B     		ldrb	r2, [r7, #15]	@ zero_extendqisi2
 1568 0764 1346     		mov	r3, r2
 1569 0766 DB00     		lsls	r3, r3, #3
 1570 0768 1344     		add	r3, r3, r2
 1571 076a 9B00     		lsls	r3, r3, #2
 1572 076c 0C4A     		ldr	r2, .L99
 1573 076e 1344     		add	r3, r3, r2
 1574 0770 0533     		adds	r3, r3, #5
 1575 0772 7968     		ldr	r1, [r7, #4]
 1576 0774 1846     		mov	r0, r3
 1577 0776 FFF7FEFF 		bl	packetfunctions_sameAddress
 1578 077a 0346     		mov	r3, r0
 526:build/openmote-cc2538_armgcc/openstack/02b-MAChigh/schedule.c ****       if(
 1579              		.loc 1 526 0
 1580 077c 002B     		cmp	r3, #0
 1581 077e 02D0     		beq	.L96
 528:build/openmote-cc2538_armgcc/openstack/02b-MAChigh/schedule.c ****       ){
 529:build/openmote-cc2538_armgcc/openstack/02b-MAChigh/schedule.c ****          counter++;
 1582              		.loc 1 529 0
 1583 0780 BB7B     		ldrb	r3, [r7, #14]	@ zero_extendqisi2
 1584 0782 0133     		adds	r3, r3, #1
 1585 0784 BB73     		strb	r3, [r7, #14]
 1586              	.L96:
 525:build/openmote-cc2538_armgcc/openstack/02b-MAChigh/schedule.c ****       if(
 1587              		.loc 1 525 0 discriminator 2
 1588 0786 FB7B     		ldrb	r3, [r7, #15]	@ zero_extendqisi2
 1589 0788 0133     		adds	r3, r3, #1
 1590 078a FB73     		strb	r3, [r7, #15]
 1591              	.L95:
 525:build/openmote-cc2538_armgcc/openstack/02b-MAChigh/schedule.c ****       if(
 1592              		.loc 1 525 0 is_stmt 0 discriminator 1
 1593 078c FB7B     		ldrb	r3, [r7, #15]	@ zero_extendqisi2
 1594 078e 162B     		cmp	r3, #22
 1595 0790 E7D9     		bls	.L97
 530:build/openmote-cc2538_armgcc/openstack/02b-MAChigh/schedule.c ****       }
 531:build/openmote-cc2538_armgcc/openstack/02b-MAChigh/schedule.c ****    }
 532:build/openmote-cc2538_armgcc/openstack/02b-MAChigh/schedule.c ****    
 533:build/openmote-cc2538_armgcc/openstack/02b-MAChigh/schedule.c ****    ENABLE_INTERRUPTS();
 1596              		.loc 1 533 0 is_stmt 1
 1597 0792 FFF7FEFF 		bl	IntMasterEnable
 534:build/openmote-cc2538_armgcc/openstack/02b-MAChigh/schedule.c ****    
 535:build/openmote-cc2538_armgcc/openstack/02b-MAChigh/schedule.c ****    return counter;
 1598              		.loc 1 535 0
 1599 0796 BB7B     		ldrb	r3, [r7, #14]	@ zero_extendqisi2
 536:build/openmote-cc2538_armgcc/openstack/02b-MAChigh/schedule.c **** }
 1600              		.loc 1 536 0
 1601 0798 1846     		mov	r0, r3
 1602 079a 1037     		adds	r7, r7, #16
 1603              		.cfi_def_cfa_offset 8
 1604 079c BD46     		mov	sp, r7
 1605              		.cfi_def_cfa_register 13
 1606              		@ sp needed
 1607 079e 80BD     		pop	{r7, pc}
 1608              	.L100:
 1609              		.align	2
 1610              	.L99:
 1611 07a0 00000000 		.word	schedule_vars
 1612              		.cfi_endproc
 1613              	.LFE13:
 1615              		.align	2
 1616              		.global	schedule_getNonParentNeighborWithDedicatedCells
 1617              		.thumb
 1618              		.thumb_func
 1620              	schedule_getNonParentNeighborWithDedicatedCells:
 1621              	.LFB14:
 537:build/openmote-cc2538_armgcc/openstack/02b-MAChigh/schedule.c **** 
 538:build/openmote-cc2538_armgcc/openstack/02b-MAChigh/schedule.c **** open_addr_t* schedule_getNonParentNeighborWithDedicatedCells(open_addr_t* neighbor){
 1622              		.loc 1 538 0
 1623              		.cfi_startproc
 1624              		@ args = 0, pretend = 0, frame = 16
 1625              		@ frame_needed = 1, uses_anonymous_args = 0
 1626 07a4 80B5     		push	{r7, lr}
 1627              		.cfi_def_cfa_offset 8
 1628              		.cfi_offset 7, -8
 1629              		.cfi_offset 14, -4
 1630 07a6 84B0     		sub	sp, sp, #16
 1631              		.cfi_def_cfa_offset 24
 1632 07a8 00AF     		add	r7, sp, #0
 1633              		.cfi_def_cfa_register 7
 1634 07aa 7860     		str	r0, [r7, #4]
 539:build/openmote-cc2538_armgcc/openstack/02b-MAChigh/schedule.c ****    uint8_t i; 
 540:build/openmote-cc2538_armgcc/openstack/02b-MAChigh/schedule.c ****    
 541:build/openmote-cc2538_armgcc/openstack/02b-MAChigh/schedule.c ****    INTERRUPT_DECLARATION();
 542:build/openmote-cc2538_armgcc/openstack/02b-MAChigh/schedule.c ****    DISABLE_INTERRUPTS();
 1635              		.loc 1 542 0
 1636 07ac FFF7FEFF 		bl	IntMasterDisable
 543:build/openmote-cc2538_armgcc/openstack/02b-MAChigh/schedule.c **** 
 544:build/openmote-cc2538_armgcc/openstack/02b-MAChigh/schedule.c ****    for(i=0;i<MAXACTIVESLOTS;i++) {
 1637              		.loc 1 544 0
 1638 07b0 0023     		movs	r3, #0
 1639 07b2 FB73     		strb	r3, [r7, #15]
 1640 07b4 28E0     		b	.L102
 1641              	.L105:
 545:build/openmote-cc2538_armgcc/openstack/02b-MAChigh/schedule.c ****       if(
 546:build/openmote-cc2538_armgcc/openstack/02b-MAChigh/schedule.c ****          schedule_vars.scheduleBuf[i].neighbor.type == ADDR_64B &&
 1642              		.loc 1 546 0
 1643 07b6 FA7B     		ldrb	r2, [r7, #15]	@ zero_extendqisi2
 1644 07b8 1849     		ldr	r1, .L106
 1645 07ba 1346     		mov	r3, r2
 1646 07bc DB00     		lsls	r3, r3, #3
 1647 07be 1344     		add	r3, r3, r2
 1648 07c0 9B00     		lsls	r3, r3, #2
 1649 07c2 0B44     		add	r3, r3, r1
 1650 07c4 0533     		adds	r3, r3, #5
 1651 07c6 1B78     		ldrb	r3, [r3]	@ zero_extendqisi2
 545:build/openmote-cc2538_armgcc/openstack/02b-MAChigh/schedule.c ****       if(
 1652              		.loc 1 545 0
 1653 07c8 022B     		cmp	r3, #2
 1654 07ca 1AD1     		bne	.L103
 547:build/openmote-cc2538_armgcc/openstack/02b-MAChigh/schedule.c ****          packetfunctions_sameAddress(&schedule_vars.scheduleBuf[i].neighbor, neighbor) == FALSE
 1655              		.loc 1 547 0
 1656 07cc FA7B     		ldrb	r2, [r7, #15]	@ zero_extendqisi2
 1657 07ce 1346     		mov	r3, r2
 1658 07d0 DB00     		lsls	r3, r3, #3
 1659 07d2 1344     		add	r3, r3, r2
 1660 07d4 9B00     		lsls	r3, r3, #2
 1661 07d6 114A     		ldr	r2, .L106
 1662 07d8 1344     		add	r3, r3, r2
 1663 07da 0533     		adds	r3, r3, #5
 1664 07dc 7968     		ldr	r1, [r7, #4]
 1665 07de 1846     		mov	r0, r3
 1666 07e0 FFF7FEFF 		bl	packetfunctions_sameAddress
 1667 07e4 0346     		mov	r3, r0
 1668 07e6 83F00103 		eor	r3, r3, #1
 1669 07ea DBB2     		uxtb	r3, r3
 546:build/openmote-cc2538_armgcc/openstack/02b-MAChigh/schedule.c ****          packetfunctions_sameAddress(&schedule_vars.scheduleBuf[i].neighbor, neighbor) == FALSE
 1670              		.loc 1 546 0
 1671 07ec 002B     		cmp	r3, #0
 1672 07ee 08D0     		beq	.L103
 548:build/openmote-cc2538_armgcc/openstack/02b-MAChigh/schedule.c ****       ){
 549:build/openmote-cc2538_armgcc/openstack/02b-MAChigh/schedule.c ****          return &schedule_vars.scheduleBuf[i].neighbor;
 1673              		.loc 1 549 0
 1674 07f0 FA7B     		ldrb	r2, [r7, #15]	@ zero_extendqisi2
 1675 07f2 1346     		mov	r3, r2
 1676 07f4 DB00     		lsls	r3, r3, #3
 1677 07f6 1344     		add	r3, r3, r2
 1678 07f8 9B00     		lsls	r3, r3, #2
 1679 07fa 084A     		ldr	r2, .L106
 1680 07fc 1344     		add	r3, r3, r2
 1681 07fe 0533     		adds	r3, r3, #5
 1682 0800 08E0     		b	.L104
 1683              	.L103:
 544:build/openmote-cc2538_armgcc/openstack/02b-MAChigh/schedule.c ****       if(
 1684              		.loc 1 544 0 discriminator 2
 1685 0802 FB7B     		ldrb	r3, [r7, #15]	@ zero_extendqisi2
 1686 0804 0133     		adds	r3, r3, #1
 1687 0806 FB73     		strb	r3, [r7, #15]
 1688              	.L102:
 544:build/openmote-cc2538_armgcc/openstack/02b-MAChigh/schedule.c ****       if(
 1689              		.loc 1 544 0 is_stmt 0 discriminator 1
 1690 0808 FB7B     		ldrb	r3, [r7, #15]	@ zero_extendqisi2
 1691 080a 162B     		cmp	r3, #22
 1692 080c D3D9     		bls	.L105
 550:build/openmote-cc2538_armgcc/openstack/02b-MAChigh/schedule.c ****       }
 551:build/openmote-cc2538_armgcc/openstack/02b-MAChigh/schedule.c ****    }
 552:build/openmote-cc2538_armgcc/openstack/02b-MAChigh/schedule.c ****    
 553:build/openmote-cc2538_armgcc/openstack/02b-MAChigh/schedule.c ****    ENABLE_INTERRUPTS();
 1693              		.loc 1 553 0 is_stmt 1
 1694 080e FFF7FEFF 		bl	IntMasterEnable
 554:build/openmote-cc2538_armgcc/openstack/02b-MAChigh/schedule.c ****    
 555:build/openmote-cc2538_armgcc/openstack/02b-MAChigh/schedule.c ****    return NULL;
 1695              		.loc 1 555 0
 1696 0812 0023     		movs	r3, #0
 1697              	.L104:
 556:build/openmote-cc2538_armgcc/openstack/02b-MAChigh/schedule.c **** }
 1698              		.loc 1 556 0
 1699 0814 1846     		mov	r0, r3
 1700 0816 1037     		adds	r7, r7, #16
 1701              		.cfi_def_cfa_offset 8
 1702 0818 BD46     		mov	sp, r7
 1703              		.cfi_def_cfa_register 13
 1704              		@ sp needed
 1705 081a 80BD     		pop	{r7, pc}
 1706              	.L107:
 1707              		.align	2
 1708              	.L106:
 1709 081c 00000000 		.word	schedule_vars
 1710              		.cfi_endproc
 1711              	.LFE14:
 1713              		.align	2
 1714              		.global	schedule_isNumTxWrapped
 1715              		.thumb
 1716              		.thumb_func
 1718              	schedule_isNumTxWrapped:
 1719              	.LFB15:
 557:build/openmote-cc2538_armgcc/openstack/02b-MAChigh/schedule.c **** 
 558:build/openmote-cc2538_armgcc/openstack/02b-MAChigh/schedule.c **** bool schedule_isNumTxWrapped(open_addr_t* neighbor){
 1720              		.loc 1 558 0
 1721              		.cfi_startproc
 1722              		@ args = 0, pretend = 0, frame = 16
 1723              		@ frame_needed = 1, uses_anonymous_args = 0
 1724 0820 80B5     		push	{r7, lr}
 1725              		.cfi_def_cfa_offset 8
 1726              		.cfi_offset 7, -8
 1727              		.cfi_offset 14, -4
 1728 0822 84B0     		sub	sp, sp, #16
 1729              		.cfi_def_cfa_offset 24
 1730 0824 00AF     		add	r7, sp, #0
 1731              		.cfi_def_cfa_register 7
 1732 0826 7860     		str	r0, [r7, #4]
 559:build/openmote-cc2538_armgcc/openstack/02b-MAChigh/schedule.c ****     uint8_t i;
 560:build/openmote-cc2538_armgcc/openstack/02b-MAChigh/schedule.c ****     
 561:build/openmote-cc2538_armgcc/openstack/02b-MAChigh/schedule.c ****     INTERRUPT_DECLARATION();
 562:build/openmote-cc2538_armgcc/openstack/02b-MAChigh/schedule.c ****     DISABLE_INTERRUPTS();
 1733              		.loc 1 562 0
 1734 0828 FFF7FEFF 		bl	IntMasterDisable
 563:build/openmote-cc2538_armgcc/openstack/02b-MAChigh/schedule.c ****     
 564:build/openmote-cc2538_armgcc/openstack/02b-MAChigh/schedule.c ****     for(i=0;i<MAXACTIVESLOTS;i++) {
 1735              		.loc 1 564 0
 1736 082c 0023     		movs	r3, #0
 1737 082e FB73     		strb	r3, [r7, #15]
 1738 0830 20E0     		b	.L109
 1739              	.L112:
 565:build/openmote-cc2538_armgcc/openstack/02b-MAChigh/schedule.c ****         if(
 566:build/openmote-cc2538_armgcc/openstack/02b-MAChigh/schedule.c ****             packetfunctions_sameAddress(&schedule_vars.scheduleBuf[i].neighbor, neighbor) == TRUE
 1740              		.loc 1 566 0
 1741 0832 FA7B     		ldrb	r2, [r7, #15]	@ zero_extendqisi2
 1742 0834 1346     		mov	r3, r2
 1743 0836 DB00     		lsls	r3, r3, #3
 1744 0838 1344     		add	r3, r3, r2
 1745 083a 9B00     		lsls	r3, r3, #2
 1746 083c 124A     		ldr	r2, .L113
 1747 083e 1344     		add	r3, r3, r2
 1748 0840 0533     		adds	r3, r3, #5
 1749 0842 7968     		ldr	r1, [r7, #4]
 1750 0844 1846     		mov	r0, r3
 1751 0846 FFF7FEFF 		bl	packetfunctions_sameAddress
 1752 084a 0346     		mov	r3, r0
 565:build/openmote-cc2538_armgcc/openstack/02b-MAChigh/schedule.c ****         if(
 1753              		.loc 1 565 0
 1754 084c 002B     		cmp	r3, #0
 1755 084e 0ED0     		beq	.L110
 567:build/openmote-cc2538_armgcc/openstack/02b-MAChigh/schedule.c ****         ){
 568:build/openmote-cc2538_armgcc/openstack/02b-MAChigh/schedule.c ****             if (schedule_vars.scheduleBuf[i].numTx<0xFF/2){
 1756              		.loc 1 568 0
 1757 0850 FA7B     		ldrb	r2, [r7, #15]	@ zero_extendqisi2
 1758 0852 0D49     		ldr	r1, .L113
 1759 0854 1346     		mov	r3, r2
 1760 0856 DB00     		lsls	r3, r3, #3
 1761 0858 1344     		add	r3, r3, r2
 1762 085a 9B00     		lsls	r3, r3, #2
 1763 085c 0B44     		add	r3, r3, r1
 1764 085e 1733     		adds	r3, r3, #23
 1765 0860 1B78     		ldrb	r3, [r3]	@ zero_extendqisi2
 1766 0862 7E2B     		cmp	r3, #126
 1767 0864 03D8     		bhi	.L110
 569:build/openmote-cc2538_armgcc/openstack/02b-MAChigh/schedule.c ****                 ENABLE_INTERRUPTS();
 1768              		.loc 1 569 0
 1769 0866 FFF7FEFF 		bl	IntMasterEnable
 570:build/openmote-cc2538_armgcc/openstack/02b-MAChigh/schedule.c ****                 return FALSE;
 1770              		.loc 1 570 0
 1771 086a 0023     		movs	r3, #0
 1772 086c 08E0     		b	.L111
 1773              	.L110:
 564:build/openmote-cc2538_armgcc/openstack/02b-MAChigh/schedule.c ****         if(
 1774              		.loc 1 564 0 discriminator 2
 1775 086e FB7B     		ldrb	r3, [r7, #15]	@ zero_extendqisi2
 1776 0870 0133     		adds	r3, r3, #1
 1777 0872 FB73     		strb	r3, [r7, #15]
 1778              	.L109:
 564:build/openmote-cc2538_armgcc/openstack/02b-MAChigh/schedule.c ****         if(
 1779              		.loc 1 564 0 is_stmt 0 discriminator 1
 1780 0874 FB7B     		ldrb	r3, [r7, #15]	@ zero_extendqisi2
 1781 0876 162B     		cmp	r3, #22
 1782 0878 DBD9     		bls	.L112
 571:build/openmote-cc2538_armgcc/openstack/02b-MAChigh/schedule.c ****             }
 572:build/openmote-cc2538_armgcc/openstack/02b-MAChigh/schedule.c ****         }
 573:build/openmote-cc2538_armgcc/openstack/02b-MAChigh/schedule.c ****     }
 574:build/openmote-cc2538_armgcc/openstack/02b-MAChigh/schedule.c ****     
 575:build/openmote-cc2538_armgcc/openstack/02b-MAChigh/schedule.c ****     ENABLE_INTERRUPTS();
 1783              		.loc 1 575 0 is_stmt 1
 1784 087a FFF7FEFF 		bl	IntMasterEnable
 576:build/openmote-cc2538_armgcc/openstack/02b-MAChigh/schedule.c ****     return TRUE;
 1785              		.loc 1 576 0
 1786 087e 0123     		movs	r3, #1
 1787              	.L111:
 577:build/openmote-cc2538_armgcc/openstack/02b-MAChigh/schedule.c **** }
 1788              		.loc 1 577 0
 1789 0880 1846     		mov	r0, r3
 1790 0882 1037     		adds	r7, r7, #16
 1791              		.cfi_def_cfa_offset 8
 1792 0884 BD46     		mov	sp, r7
 1793              		.cfi_def_cfa_register 13
 1794              		@ sp needed
 1795 0886 80BD     		pop	{r7, pc}
 1796              	.L114:
 1797              		.align	2
 1798              	.L113:
 1799 0888 00000000 		.word	schedule_vars
 1800              		.cfi_endproc
 1801              	.LFE15:
 1803              		.align	2
 1804              		.global	schedule_getCellsToBeRelocated
 1805              		.thumb
 1806              		.thumb_func
 1808              	schedule_getCellsToBeRelocated:
 1809              	.LFB16:
 578:build/openmote-cc2538_armgcc/openstack/02b-MAChigh/schedule.c **** bool schedule_getCellsToBeRelocated(open_addr_t* neighbor, cellInfo_ht* celllist){
 1810              		.loc 1 578 0
 1811              		.cfi_startproc
 1812              		@ args = 0, pretend = 0, frame = 16
 1813              		@ frame_needed = 1, uses_anonymous_args = 0
 1814 088c 80B5     		push	{r7, lr}
 1815              		.cfi_def_cfa_offset 8
 1816              		.cfi_offset 7, -8
 1817              		.cfi_offset 14, -4
 1818 088e 84B0     		sub	sp, sp, #16
 1819              		.cfi_def_cfa_offset 24
 1820 0890 00AF     		add	r7, sp, #0
 1821              		.cfi_def_cfa_register 7
 1822 0892 7860     		str	r0, [r7, #4]
 1823 0894 3960     		str	r1, [r7]
 579:build/openmote-cc2538_armgcc/openstack/02b-MAChigh/schedule.c ****     uint8_t     i;
 580:build/openmote-cc2538_armgcc/openstack/02b-MAChigh/schedule.c ****     
 581:build/openmote-cc2538_armgcc/openstack/02b-MAChigh/schedule.c ****     uint16_t    highestPDR;
 582:build/openmote-cc2538_armgcc/openstack/02b-MAChigh/schedule.c ****     uint16_t    cellPDR;
 583:build/openmote-cc2538_armgcc/openstack/02b-MAChigh/schedule.c ****     
 584:build/openmote-cc2538_armgcc/openstack/02b-MAChigh/schedule.c ****     INTERRUPT_DECLARATION();
 585:build/openmote-cc2538_armgcc/openstack/02b-MAChigh/schedule.c ****     DISABLE_INTERRUPTS();
 1824              		.loc 1 585 0
 1825 0896 FFF7FEFF 		bl	IntMasterDisable
 586:build/openmote-cc2538_armgcc/openstack/02b-MAChigh/schedule.c ****     
 587:build/openmote-cc2538_armgcc/openstack/02b-MAChigh/schedule.c ****     highestPDR = 0;
 1826              		.loc 1 587 0
 1827 089a 0023     		movs	r3, #0
 1828 089c BB81     		strh	r3, [r7, #12]	@ movhi
 588:build/openmote-cc2538_armgcc/openstack/02b-MAChigh/schedule.c ****     // found the cell with higest PDR
 589:build/openmote-cc2538_armgcc/openstack/02b-MAChigh/schedule.c ****     for(i=0;i<MAXACTIVESLOTS;i++) {
 1829              		.loc 1 589 0
 1830 089e 0023     		movs	r3, #0
 1831 08a0 FB73     		strb	r3, [r7, #15]
 1832 08a2 3BE0     		b	.L116
 1833              	.L118:
 590:build/openmote-cc2538_armgcc/openstack/02b-MAChigh/schedule.c ****         if(
 591:build/openmote-cc2538_armgcc/openstack/02b-MAChigh/schedule.c ****             packetfunctions_sameAddress(&schedule_vars.scheduleBuf[i].neighbor, neighbor) == TRUE
 1834              		.loc 1 591 0
 1835 08a4 FA7B     		ldrb	r2, [r7, #15]	@ zero_extendqisi2
 1836 08a6 1346     		mov	r3, r2
 1837 08a8 DB00     		lsls	r3, r3, #3
 1838 08aa 1344     		add	r3, r3, r2
 1839 08ac 9B00     		lsls	r3, r3, #2
 1840 08ae 524A     		ldr	r2, .L124
 1841 08b0 1344     		add	r3, r3, r2
 1842 08b2 0533     		adds	r3, r3, #5
 1843 08b4 7968     		ldr	r1, [r7, #4]
 1844 08b6 1846     		mov	r0, r3
 1845 08b8 FFF7FEFF 		bl	packetfunctions_sameAddress
 1846 08bc 0346     		mov	r3, r0
 590:build/openmote-cc2538_armgcc/openstack/02b-MAChigh/schedule.c ****         if(
 1847              		.loc 1 590 0
 1848 08be 002B     		cmp	r3, #0
 1849 08c0 29D0     		beq	.L117
 592:build/openmote-cc2538_armgcc/openstack/02b-MAChigh/schedule.c ****         ){
 593:build/openmote-cc2538_armgcc/openstack/02b-MAChigh/schedule.c ****             if (schedule_vars.scheduleBuf[i].numTx>0){
 1850              		.loc 1 593 0
 1851 08c2 FA7B     		ldrb	r2, [r7, #15]	@ zero_extendqisi2
 1852 08c4 4C49     		ldr	r1, .L124
 1853 08c6 1346     		mov	r3, r2
 1854 08c8 DB00     		lsls	r3, r3, #3
 1855 08ca 1344     		add	r3, r3, r2
 1856 08cc 9B00     		lsls	r3, r3, #2
 1857 08ce 0B44     		add	r3, r3, r1
 1858 08d0 1733     		adds	r3, r3, #23
 1859 08d2 1B78     		ldrb	r3, [r3]	@ zero_extendqisi2
 1860 08d4 002B     		cmp	r3, #0
 1861 08d6 1ED0     		beq	.L117
 594:build/openmote-cc2538_armgcc/openstack/02b-MAChigh/schedule.c ****                 cellPDR = 100*schedule_vars.scheduleBuf[i].numTxACK/schedule_vars.scheduleBuf[i].nu
 1862              		.loc 1 594 0
 1863 08d8 FA7B     		ldrb	r2, [r7, #15]	@ zero_extendqisi2
 1864 08da 4749     		ldr	r1, .L124
 1865 08dc 1346     		mov	r3, r2
 1866 08de DB00     		lsls	r3, r3, #3
 1867 08e0 1344     		add	r3, r3, r2
 1868 08e2 9B00     		lsls	r3, r3, #2
 1869 08e4 0B44     		add	r3, r3, r1
 1870 08e6 1833     		adds	r3, r3, #24
 1871 08e8 1B78     		ldrb	r3, [r3]	@ zero_extendqisi2
 1872 08ea 1A46     		mov	r2, r3
 1873 08ec 6423     		movs	r3, #100
 1874 08ee 03FB02F1 		mul	r1, r3, r2
 1875 08f2 FA7B     		ldrb	r2, [r7, #15]	@ zero_extendqisi2
 1876 08f4 4048     		ldr	r0, .L124
 1877 08f6 1346     		mov	r3, r2
 1878 08f8 DB00     		lsls	r3, r3, #3
 1879 08fa 1344     		add	r3, r3, r2
 1880 08fc 9B00     		lsls	r3, r3, #2
 1881 08fe 0344     		add	r3, r3, r0
 1882 0900 1733     		adds	r3, r3, #23
 1883 0902 1B78     		ldrb	r3, [r3]	@ zero_extendqisi2
 1884 0904 91FBF3F3 		sdiv	r3, r1, r3
 1885 0908 7B81     		strh	r3, [r7, #10]	@ movhi
 595:build/openmote-cc2538_armgcc/openstack/02b-MAChigh/schedule.c ****                 if (cellPDR > highestPDR){
 1886              		.loc 1 595 0
 1887 090a 7A89     		ldrh	r2, [r7, #10]
 1888 090c BB89     		ldrh	r3, [r7, #12]
 1889 090e 9A42     		cmp	r2, r3
 1890 0910 01D9     		bls	.L117
 596:build/openmote-cc2538_armgcc/openstack/02b-MAChigh/schedule.c ****                     highestPDR = cellPDR;
 1891              		.loc 1 596 0
 1892 0912 7B89     		ldrh	r3, [r7, #10]	@ movhi
 1893 0914 BB81     		strh	r3, [r7, #12]	@ movhi
 1894              	.L117:
 589:build/openmote-cc2538_armgcc/openstack/02b-MAChigh/schedule.c ****         if(
 1895              		.loc 1 589 0 discriminator 2
 1896 0916 FB7B     		ldrb	r3, [r7, #15]	@ zero_extendqisi2
 1897 0918 0133     		adds	r3, r3, #1
 1898 091a FB73     		strb	r3, [r7, #15]
 1899              	.L116:
 589:build/openmote-cc2538_armgcc/openstack/02b-MAChigh/schedule.c ****         if(
 1900              		.loc 1 589 0 is_stmt 0 discriminator 1
 1901 091c FB7B     		ldrb	r3, [r7, #15]	@ zero_extendqisi2
 1902 091e 162B     		cmp	r3, #22
 1903 0920 C0D9     		bls	.L118
 597:build/openmote-cc2538_armgcc/openstack/02b-MAChigh/schedule.c ****                 }
 598:build/openmote-cc2538_armgcc/openstack/02b-MAChigh/schedule.c ****             }
 599:build/openmote-cc2538_armgcc/openstack/02b-MAChigh/schedule.c ****         }
 600:build/openmote-cc2538_armgcc/openstack/02b-MAChigh/schedule.c ****     }
 601:build/openmote-cc2538_armgcc/openstack/02b-MAChigh/schedule.c ****     
 602:build/openmote-cc2538_armgcc/openstack/02b-MAChigh/schedule.c ****     if (highestPDR==0){
 1904              		.loc 1 602 0 is_stmt 1
 1905 0922 BB89     		ldrh	r3, [r7, #12]
 1906 0924 002B     		cmp	r3, #0
 1907 0926 01D1     		bne	.L119
 603:build/openmote-cc2538_armgcc/openstack/02b-MAChigh/schedule.c ****         // no cell to relocate
 604:build/openmote-cc2538_armgcc/openstack/02b-MAChigh/schedule.c ****         return FALSE;
 1908              		.loc 1 604 0
 1909 0928 0023     		movs	r3, #0
 1910 092a 60E0     		b	.L120
 1911              	.L119:
 605:build/openmote-cc2538_armgcc/openstack/02b-MAChigh/schedule.c ****     }
 606:build/openmote-cc2538_armgcc/openstack/02b-MAChigh/schedule.c ****     
 607:build/openmote-cc2538_armgcc/openstack/02b-MAChigh/schedule.c ****     for(i=0;i<MAXACTIVESLOTS;i++) {
 1912              		.loc 1 607 0
 1913 092c 0023     		movs	r3, #0
 1914 092e FB73     		strb	r3, [r7, #15]
 1915 0930 57E0     		b	.L121
 1916              	.L123:
 608:build/openmote-cc2538_armgcc/openstack/02b-MAChigh/schedule.c ****         if(
 609:build/openmote-cc2538_armgcc/openstack/02b-MAChigh/schedule.c ****             packetfunctions_sameAddress(&schedule_vars.scheduleBuf[i].neighbor, neighbor) == TRUE
 1917              		.loc 1 609 0
 1918 0932 FA7B     		ldrb	r2, [r7, #15]	@ zero_extendqisi2
 1919 0934 1346     		mov	r3, r2
 1920 0936 DB00     		lsls	r3, r3, #3
 1921 0938 1344     		add	r3, r3, r2
 1922 093a 9B00     		lsls	r3, r3, #2
 1923 093c 2E4A     		ldr	r2, .L124
 1924 093e 1344     		add	r3, r3, r2
 1925 0940 0533     		adds	r3, r3, #5
 1926 0942 7968     		ldr	r1, [r7, #4]
 1927 0944 1846     		mov	r0, r3
 1928 0946 FFF7FEFF 		bl	packetfunctions_sameAddress
 1929 094a 0346     		mov	r3, r0
 608:build/openmote-cc2538_armgcc/openstack/02b-MAChigh/schedule.c ****         if(
 1930              		.loc 1 608 0
 1931 094c 002B     		cmp	r3, #0
 1932 094e 45D0     		beq	.L122
 610:build/openmote-cc2538_armgcc/openstack/02b-MAChigh/schedule.c ****         ){
 611:build/openmote-cc2538_armgcc/openstack/02b-MAChigh/schedule.c ****             if (schedule_vars.scheduleBuf[i].numTx>0){
 1933              		.loc 1 611 0
 1934 0950 FA7B     		ldrb	r2, [r7, #15]	@ zero_extendqisi2
 1935 0952 2949     		ldr	r1, .L124
 1936 0954 1346     		mov	r3, r2
 1937 0956 DB00     		lsls	r3, r3, #3
 1938 0958 1344     		add	r3, r3, r2
 1939 095a 9B00     		lsls	r3, r3, #2
 1940 095c 0B44     		add	r3, r3, r1
 1941 095e 1733     		adds	r3, r3, #23
 1942 0960 1B78     		ldrb	r3, [r3]	@ zero_extendqisi2
 1943 0962 002B     		cmp	r3, #0
 1944 0964 3AD0     		beq	.L122
 612:build/openmote-cc2538_armgcc/openstack/02b-MAChigh/schedule.c ****                 cellPDR = 100*schedule_vars.scheduleBuf[i].numTxACK/schedule_vars.scheduleBuf[i].nu
 1945              		.loc 1 612 0
 1946 0966 FA7B     		ldrb	r2, [r7, #15]	@ zero_extendqisi2
 1947 0968 2349     		ldr	r1, .L124
 1948 096a 1346     		mov	r3, r2
 1949 096c DB00     		lsls	r3, r3, #3
 1950 096e 1344     		add	r3, r3, r2
 1951 0970 9B00     		lsls	r3, r3, #2
 1952 0972 0B44     		add	r3, r3, r1
 1953 0974 1833     		adds	r3, r3, #24
 1954 0976 1B78     		ldrb	r3, [r3]	@ zero_extendqisi2
 1955 0978 1A46     		mov	r2, r3
 1956 097a 6423     		movs	r3, #100
 1957 097c 03FB02F1 		mul	r1, r3, r2
 1958 0980 FA7B     		ldrb	r2, [r7, #15]	@ zero_extendqisi2
 1959 0982 1D48     		ldr	r0, .L124
 1960 0984 1346     		mov	r3, r2
 1961 0986 DB00     		lsls	r3, r3, #3
 1962 0988 1344     		add	r3, r3, r2
 1963 098a 9B00     		lsls	r3, r3, #2
 1964 098c 0344     		add	r3, r3, r0
 1965 098e 1733     		adds	r3, r3, #23
 1966 0990 1B78     		ldrb	r3, [r3]	@ zero_extendqisi2
 1967 0992 91FBF3F3 		sdiv	r3, r1, r3
 1968 0996 7B81     		strh	r3, [r7, #10]	@ movhi
 613:build/openmote-cc2538_armgcc/openstack/02b-MAChigh/schedule.c ****                 if (highestPDR-cellPDR > RELOCATE_PDRTHRES){
 1969              		.loc 1 613 0
 1970 0998 BA89     		ldrh	r2, [r7, #12]
 1971 099a 7B89     		ldrh	r3, [r7, #10]
 1972 099c D31A     		subs	r3, r2, r3
 1973 099e 322B     		cmp	r3, #50
 1974 09a0 1CDD     		ble	.L122
 614:build/openmote-cc2538_armgcc/openstack/02b-MAChigh/schedule.c ****                     celllist->isUsed            = TRUE;
 1975              		.loc 1 614 0
 1976 09a2 3B68     		ldr	r3, [r7]
 1977 09a4 0122     		movs	r2, #1
 1978 09a6 1A70     		strb	r2, [r3]
 615:build/openmote-cc2538_armgcc/openstack/02b-MAChigh/schedule.c ****                     celllist->slotoffset        = schedule_vars.scheduleBuf[i].slotOffset;
 1979              		.loc 1 615 0
 1980 09a8 FA7B     		ldrb	r2, [r7, #15]	@ zero_extendqisi2
 1981 09aa 1349     		ldr	r1, .L124
 1982 09ac 1346     		mov	r3, r2
 1983 09ae DB00     		lsls	r3, r3, #3
 1984 09b0 1344     		add	r3, r3, r2
 1985 09b2 9B00     		lsls	r3, r3, #2
 1986 09b4 0B44     		add	r3, r3, r1
 1987 09b6 1A88     		ldrh	r2, [r3]
 1988 09b8 3B68     		ldr	r3, [r7]
 1989 09ba A3F80120 		strh	r2, [r3, #1]	@ unaligned
 616:build/openmote-cc2538_armgcc/openstack/02b-MAChigh/schedule.c ****                     celllist->channeloffset     = schedule_vars.scheduleBuf[i].channelOffset;
 1990              		.loc 1 616 0
 1991 09be FA7B     		ldrb	r2, [r7, #15]	@ zero_extendqisi2
 1992 09c0 0D49     		ldr	r1, .L124
 1993 09c2 1346     		mov	r3, r2
 1994 09c4 DB00     		lsls	r3, r3, #3
 1995 09c6 1344     		add	r3, r3, r2
 1996 09c8 9B00     		lsls	r3, r3, #2
 1997 09ca 0B44     		add	r3, r3, r1
 1998 09cc 0433     		adds	r3, r3, #4
 1999 09ce 1B78     		ldrb	r3, [r3]	@ zero_extendqisi2
 2000 09d0 9AB2     		uxth	r2, r3
 2001 09d2 3B68     		ldr	r3, [r7]
 2002 09d4 A3F80320 		strh	r2, [r3, #3]	@ unaligned
 617:build/openmote-cc2538_armgcc/openstack/02b-MAChigh/schedule.c ****                     return TRUE;
 2003              		.loc 1 617 0
 2004 09d8 0123     		movs	r3, #1
 2005 09da 08E0     		b	.L120
 2006              	.L122:
 607:build/openmote-cc2538_armgcc/openstack/02b-MAChigh/schedule.c ****         if(
 2007              		.loc 1 607 0 discriminator 2
 2008 09dc FB7B     		ldrb	r3, [r7, #15]	@ zero_extendqisi2
 2009 09de 0133     		adds	r3, r3, #1
 2010 09e0 FB73     		strb	r3, [r7, #15]
 2011              	.L121:
 607:build/openmote-cc2538_armgcc/openstack/02b-MAChigh/schedule.c ****         if(
 2012              		.loc 1 607 0 is_stmt 0 discriminator 1
 2013 09e2 FB7B     		ldrb	r3, [r7, #15]	@ zero_extendqisi2
 2014 09e4 162B     		cmp	r3, #22
 2015 09e6 A4D9     		bls	.L123
 618:build/openmote-cc2538_armgcc/openstack/02b-MAChigh/schedule.c ****                 }
 619:build/openmote-cc2538_armgcc/openstack/02b-MAChigh/schedule.c ****             }
 620:build/openmote-cc2538_armgcc/openstack/02b-MAChigh/schedule.c ****         }
 621:build/openmote-cc2538_armgcc/openstack/02b-MAChigh/schedule.c ****     }
 622:build/openmote-cc2538_armgcc/openstack/02b-MAChigh/schedule.c ****     
 623:build/openmote-cc2538_armgcc/openstack/02b-MAChigh/schedule.c ****     ENABLE_INTERRUPTS();
 2016              		.loc 1 623 0 is_stmt 1
 2017 09e8 FFF7FEFF 		bl	IntMasterEnable
 624:build/openmote-cc2538_armgcc/openstack/02b-MAChigh/schedule.c ****     
 625:build/openmote-cc2538_armgcc/openstack/02b-MAChigh/schedule.c ****     return FALSE;
 2018              		.loc 1 625 0
 2019 09ec 0023     		movs	r3, #0
 2020              	.L120:
 626:build/openmote-cc2538_armgcc/openstack/02b-MAChigh/schedule.c **** }
 2021              		.loc 1 626 0
 2022 09ee 1846     		mov	r0, r3
 2023 09f0 1037     		adds	r7, r7, #16
 2024              		.cfi_def_cfa_offset 8
 2025 09f2 BD46     		mov	sp, r7
 2026              		.cfi_def_cfa_register 13
 2027              		@ sp needed
 2028 09f4 80BD     		pop	{r7, pc}
 2029              	.L125:
 2030 09f6 00BF     		.align	2
 2031              	.L124:
 2032 09f8 00000000 		.word	schedule_vars
 2033              		.cfi_endproc
 2034              	.LFE16:
 2036              		.align	2
 2037              		.global	schedule_hasDedicatedCellToNeighbor
 2038              		.thumb
 2039              		.thumb_func
 2041              	schedule_hasDedicatedCellToNeighbor:
 2042              	.LFB17:
 627:build/openmote-cc2538_armgcc/openstack/02b-MAChigh/schedule.c **** 
 628:build/openmote-cc2538_armgcc/openstack/02b-MAChigh/schedule.c **** bool schedule_hasDedicatedCellToNeighbor(open_addr_t* neighbor){
 2043              		.loc 1 628 0
 2044              		.cfi_startproc
 2045              		@ args = 0, pretend = 0, frame = 16
 2046              		@ frame_needed = 1, uses_anonymous_args = 0
 2047 09fc 80B5     		push	{r7, lr}
 2048              		.cfi_def_cfa_offset 8
 2049              		.cfi_offset 7, -8
 2050              		.cfi_offset 14, -4
 2051 09fe 84B0     		sub	sp, sp, #16
 2052              		.cfi_def_cfa_offset 24
 2053 0a00 00AF     		add	r7, sp, #0
 2054              		.cfi_def_cfa_register 7
 2055 0a02 7860     		str	r0, [r7, #4]
 629:build/openmote-cc2538_armgcc/openstack/02b-MAChigh/schedule.c ****     uint8_t i;
 630:build/openmote-cc2538_armgcc/openstack/02b-MAChigh/schedule.c ****     
 631:build/openmote-cc2538_armgcc/openstack/02b-MAChigh/schedule.c ****     INTERRUPT_DECLARATION();
 632:build/openmote-cc2538_armgcc/openstack/02b-MAChigh/schedule.c ****     DISABLE_INTERRUPTS();
 2056              		.loc 1 632 0
 2057 0a04 FFF7FEFF 		bl	IntMasterDisable
 633:build/openmote-cc2538_armgcc/openstack/02b-MAChigh/schedule.c ****     
 634:build/openmote-cc2538_armgcc/openstack/02b-MAChigh/schedule.c ****     for(i=0;i<MAXACTIVESLOTS;i++) {
 2058              		.loc 1 634 0
 2059 0a08 0023     		movs	r3, #0
 2060 0a0a FB73     		strb	r3, [r7, #15]
 2061 0a0c 1EE0     		b	.L127
 2062              	.L130:
 635:build/openmote-cc2538_armgcc/openstack/02b-MAChigh/schedule.c ****         if(
 636:build/openmote-cc2538_armgcc/openstack/02b-MAChigh/schedule.c ****             schedule_vars.scheduleBuf[i].neighbor.type == ADDR_64B &&
 2063              		.loc 1 636 0
 2064 0a0e FA7B     		ldrb	r2, [r7, #15]	@ zero_extendqisi2
 2065 0a10 1349     		ldr	r1, .L131
 2066 0a12 1346     		mov	r3, r2
 2067 0a14 DB00     		lsls	r3, r3, #3
 2068 0a16 1344     		add	r3, r3, r2
 2069 0a18 9B00     		lsls	r3, r3, #2
 2070 0a1a 0B44     		add	r3, r3, r1
 2071 0a1c 0533     		adds	r3, r3, #5
 2072 0a1e 1B78     		ldrb	r3, [r3]	@ zero_extendqisi2
 635:build/openmote-cc2538_armgcc/openstack/02b-MAChigh/schedule.c ****         if(
 2073              		.loc 1 635 0
 2074 0a20 022B     		cmp	r3, #2
 2075 0a22 10D1     		bne	.L128
 637:build/openmote-cc2538_armgcc/openstack/02b-MAChigh/schedule.c ****             packetfunctions_sameAddress(neighbor,&schedule_vars.scheduleBuf[i].neighbor)
 2076              		.loc 1 637 0
 2077 0a24 FA7B     		ldrb	r2, [r7, #15]	@ zero_extendqisi2
 2078 0a26 1346     		mov	r3, r2
 2079 0a28 DB00     		lsls	r3, r3, #3
 2080 0a2a 1344     		add	r3, r3, r2
 2081 0a2c 9B00     		lsls	r3, r3, #2
 2082 0a2e 0C4A     		ldr	r2, .L131
 2083 0a30 1344     		add	r3, r3, r2
 2084 0a32 0533     		adds	r3, r3, #5
 2085 0a34 1946     		mov	r1, r3
 2086 0a36 7868     		ldr	r0, [r7, #4]
 2087 0a38 FFF7FEFF 		bl	packetfunctions_sameAddress
 2088 0a3c 0346     		mov	r3, r0
 636:build/openmote-cc2538_armgcc/openstack/02b-MAChigh/schedule.c ****             packetfunctions_sameAddress(neighbor,&schedule_vars.scheduleBuf[i].neighbor)
 2089              		.loc 1 636 0
 2090 0a3e 002B     		cmp	r3, #0
 2091 0a40 01D0     		beq	.L128
 638:build/openmote-cc2538_armgcc/openstack/02b-MAChigh/schedule.c ****         ){
 639:build/openmote-cc2538_armgcc/openstack/02b-MAChigh/schedule.c ****             return TRUE;
 2092              		.loc 1 639 0
 2093 0a42 0123     		movs	r3, #1
 2094 0a44 08E0     		b	.L129
 2095              	.L128:
 634:build/openmote-cc2538_armgcc/openstack/02b-MAChigh/schedule.c ****         if(
 2096              		.loc 1 634 0 discriminator 2
 2097 0a46 FB7B     		ldrb	r3, [r7, #15]	@ zero_extendqisi2
 2098 0a48 0133     		adds	r3, r3, #1
 2099 0a4a FB73     		strb	r3, [r7, #15]
 2100              	.L127:
 634:build/openmote-cc2538_armgcc/openstack/02b-MAChigh/schedule.c ****         if(
 2101              		.loc 1 634 0 is_stmt 0 discriminator 1
 2102 0a4c FB7B     		ldrb	r3, [r7, #15]	@ zero_extendqisi2
 2103 0a4e 162B     		cmp	r3, #22
 2104 0a50 DDD9     		bls	.L130
 640:build/openmote-cc2538_armgcc/openstack/02b-MAChigh/schedule.c ****         }
 641:build/openmote-cc2538_armgcc/openstack/02b-MAChigh/schedule.c ****     }
 642:build/openmote-cc2538_armgcc/openstack/02b-MAChigh/schedule.c ****     
 643:build/openmote-cc2538_armgcc/openstack/02b-MAChigh/schedule.c ****     ENABLE_INTERRUPTS();
 2105              		.loc 1 643 0 is_stmt 1
 2106 0a52 FFF7FEFF 		bl	IntMasterEnable
 644:build/openmote-cc2538_armgcc/openstack/02b-MAChigh/schedule.c ****     return FALSE;
 2107              		.loc 1 644 0
 2108 0a56 0023     		movs	r3, #0
 2109              	.L129:
 645:build/openmote-cc2538_armgcc/openstack/02b-MAChigh/schedule.c **** }
 2110              		.loc 1 645 0
 2111 0a58 1846     		mov	r0, r3
 2112 0a5a 1037     		adds	r7, r7, #16
 2113              		.cfi_def_cfa_offset 8
 2114 0a5c BD46     		mov	sp, r7
 2115              		.cfi_def_cfa_register 13
 2116              		@ sp needed
 2117 0a5e 80BD     		pop	{r7, pc}
 2118              	.L132:
 2119              		.align	2
 2120              	.L131:
 2121 0a60 00000000 		.word	schedule_vars
 2122              		.cfi_endproc
 2123              	.LFE17:
 2125              		.align	2
 2126              		.global	schedule_syncSlotOffset
 2127              		.thumb
 2128              		.thumb_func
 2130              	schedule_syncSlotOffset:
 2131              	.LFB18:
 646:build/openmote-cc2538_armgcc/openstack/02b-MAChigh/schedule.c **** 
 647:build/openmote-cc2538_armgcc/openstack/02b-MAChigh/schedule.c **** //=== from IEEE802154E: reading the schedule and updating statistics
 648:build/openmote-cc2538_armgcc/openstack/02b-MAChigh/schedule.c **** 
 649:build/openmote-cc2538_armgcc/openstack/02b-MAChigh/schedule.c **** void schedule_syncSlotOffset(slotOffset_t targetSlotOffset) {
 2132              		.loc 1 649 0
 2133              		.cfi_startproc
 2134              		@ args = 0, pretend = 0, frame = 8
 2135              		@ frame_needed = 1, uses_anonymous_args = 0
 2136 0a64 80B5     		push	{r7, lr}
 2137              		.cfi_def_cfa_offset 8
 2138              		.cfi_offset 7, -8
 2139              		.cfi_offset 14, -4
 2140 0a66 82B0     		sub	sp, sp, #8
 2141              		.cfi_def_cfa_offset 16
 2142 0a68 00AF     		add	r7, sp, #0
 2143              		.cfi_def_cfa_register 7
 2144 0a6a 0346     		mov	r3, r0
 2145 0a6c FB80     		strh	r3, [r7, #6]	@ movhi
 650:build/openmote-cc2538_armgcc/openstack/02b-MAChigh/schedule.c ****    
 651:build/openmote-cc2538_armgcc/openstack/02b-MAChigh/schedule.c ****     INTERRUPT_DECLARATION();
 652:build/openmote-cc2538_armgcc/openstack/02b-MAChigh/schedule.c ****     DISABLE_INTERRUPTS();
 2146              		.loc 1 652 0
 2147 0a6e FFF7FEFF 		bl	IntMasterDisable
 653:build/openmote-cc2538_armgcc/openstack/02b-MAChigh/schedule.c ****     
 654:build/openmote-cc2538_armgcc/openstack/02b-MAChigh/schedule.c ****     while (schedule_vars.currentScheduleEntry->slotOffset!=targetSlotOffset) {
 2148              		.loc 1 654 0
 2149 0a72 01E0     		b	.L134
 2150              	.L135:
 655:build/openmote-cc2538_armgcc/openstack/02b-MAChigh/schedule.c ****         schedule_advanceSlot();
 2151              		.loc 1 655 0
 2152 0a74 FFF7FEFF 		bl	schedule_advanceSlot
 2153              	.L134:
 654:build/openmote-cc2538_armgcc/openstack/02b-MAChigh/schedule.c ****         schedule_advanceSlot();
 2154              		.loc 1 654 0
 2155 0a78 064B     		ldr	r3, .L136
 2156 0a7a D3F83C33 		ldr	r3, [r3, #828]
 2157 0a7e 1B88     		ldrh	r3, [r3]
 2158 0a80 FA88     		ldrh	r2, [r7, #6]
 2159 0a82 9A42     		cmp	r2, r3
 2160 0a84 F6D1     		bne	.L135
 656:build/openmote-cc2538_armgcc/openstack/02b-MAChigh/schedule.c ****     }
 657:build/openmote-cc2538_armgcc/openstack/02b-MAChigh/schedule.c ****     
 658:build/openmote-cc2538_armgcc/openstack/02b-MAChigh/schedule.c ****     ENABLE_INTERRUPTS();
 2161              		.loc 1 658 0
 2162 0a86 FFF7FEFF 		bl	IntMasterEnable
 659:build/openmote-cc2538_armgcc/openstack/02b-MAChigh/schedule.c **** }
 2163              		.loc 1 659 0
 2164 0a8a 00BF     		nop
 2165 0a8c 0837     		adds	r7, r7, #8
 2166              		.cfi_def_cfa_offset 8
 2167 0a8e BD46     		mov	sp, r7
 2168              		.cfi_def_cfa_register 13
 2169              		@ sp needed
 2170 0a90 80BD     		pop	{r7, pc}
 2171              	.L137:
 2172 0a92 00BF     		.align	2
 2173              	.L136:
 2174 0a94 00000000 		.word	schedule_vars
 2175              		.cfi_endproc
 2176              	.LFE18:
 2178              		.align	2
 2179              		.global	schedule_advanceSlot
 2180              		.thumb
 2181              		.thumb_func
 2183              	schedule_advanceSlot:
 2184              	.LFB19:
 660:build/openmote-cc2538_armgcc/openstack/02b-MAChigh/schedule.c **** 
 661:build/openmote-cc2538_armgcc/openstack/02b-MAChigh/schedule.c **** /**
 662:build/openmote-cc2538_armgcc/openstack/02b-MAChigh/schedule.c **** \brief advance to next active slot
 663:build/openmote-cc2538_armgcc/openstack/02b-MAChigh/schedule.c **** */
 664:build/openmote-cc2538_armgcc/openstack/02b-MAChigh/schedule.c **** void schedule_advanceSlot() {
 2185              		.loc 1 664 0
 2186              		.cfi_startproc
 2187              		@ args = 0, pretend = 0, frame = 0
 2188              		@ frame_needed = 1, uses_anonymous_args = 0
 2189 0a98 80B5     		push	{r7, lr}
 2190              		.cfi_def_cfa_offset 8
 2191              		.cfi_offset 7, -8
 2192              		.cfi_offset 14, -4
 2193 0a9a 00AF     		add	r7, sp, #0
 2194              		.cfi_def_cfa_register 7
 665:build/openmote-cc2538_armgcc/openstack/02b-MAChigh/schedule.c **** 
 666:build/openmote-cc2538_armgcc/openstack/02b-MAChigh/schedule.c ****     INTERRUPT_DECLARATION();
 667:build/openmote-cc2538_armgcc/openstack/02b-MAChigh/schedule.c ****     DISABLE_INTERRUPTS();
 2195              		.loc 1 667 0
 2196 0a9c FFF7FEFF 		bl	IntMasterDisable
 668:build/openmote-cc2538_armgcc/openstack/02b-MAChigh/schedule.c ****     schedule_vars.currentScheduleEntry = schedule_vars.currentScheduleEntry->next;
 2197              		.loc 1 668 0
 2198 0aa0 054B     		ldr	r3, .L139
 2199 0aa2 D3F83C33 		ldr	r3, [r3, #828]
 2200 0aa6 1B6A     		ldr	r3, [r3, #32]
 2201 0aa8 034A     		ldr	r2, .L139
 2202 0aaa C2F83C33 		str	r3, [r2, #828]
 669:build/openmote-cc2538_armgcc/openstack/02b-MAChigh/schedule.c **** 
 670:build/openmote-cc2538_armgcc/openstack/02b-MAChigh/schedule.c ****     ENABLE_INTERRUPTS();
 2203              		.loc 1 670 0
 2204 0aae FFF7FEFF 		bl	IntMasterEnable
 671:build/openmote-cc2538_armgcc/openstack/02b-MAChigh/schedule.c **** }
 2205              		.loc 1 671 0
 2206 0ab2 00BF     		nop
 2207 0ab4 80BD     		pop	{r7, pc}
 2208              	.L140:
 2209 0ab6 00BF     		.align	2
 2210              	.L139:
 2211 0ab8 00000000 		.word	schedule_vars
 2212              		.cfi_endproc
 2213              	.LFE19:
 2215              		.align	2
 2216              		.global	schedule_getNextActiveSlotOffset
 2217              		.thumb
 2218              		.thumb_func
 2220              	schedule_getNextActiveSlotOffset:
 2221              	.LFB20:
 672:build/openmote-cc2538_armgcc/openstack/02b-MAChigh/schedule.c **** 
 673:build/openmote-cc2538_armgcc/openstack/02b-MAChigh/schedule.c **** /**
 674:build/openmote-cc2538_armgcc/openstack/02b-MAChigh/schedule.c **** \brief return slotOffset of next active slot
 675:build/openmote-cc2538_armgcc/openstack/02b-MAChigh/schedule.c **** */
 676:build/openmote-cc2538_armgcc/openstack/02b-MAChigh/schedule.c **** slotOffset_t schedule_getNextActiveSlotOffset() {
 2222              		.loc 1 676 0
 2223              		.cfi_startproc
 2224              		@ args = 0, pretend = 0, frame = 8
 2225              		@ frame_needed = 1, uses_anonymous_args = 0
 2226 0abc 80B5     		push	{r7, lr}
 2227              		.cfi_def_cfa_offset 8
 2228              		.cfi_offset 7, -8
 2229              		.cfi_offset 14, -4
 2230 0abe 82B0     		sub	sp, sp, #8
 2231              		.cfi_def_cfa_offset 16
 2232 0ac0 00AF     		add	r7, sp, #0
 2233              		.cfi_def_cfa_register 7
 677:build/openmote-cc2538_armgcc/openstack/02b-MAChigh/schedule.c ****     slotOffset_t res;   
 678:build/openmote-cc2538_armgcc/openstack/02b-MAChigh/schedule.c ****     
 679:build/openmote-cc2538_armgcc/openstack/02b-MAChigh/schedule.c ****     INTERRUPT_DECLARATION();
 680:build/openmote-cc2538_armgcc/openstack/02b-MAChigh/schedule.c ****     DISABLE_INTERRUPTS();
 2234              		.loc 1 680 0
 2235 0ac2 FFF7FEFF 		bl	IntMasterDisable
 681:build/openmote-cc2538_armgcc/openstack/02b-MAChigh/schedule.c ****     
 682:build/openmote-cc2538_armgcc/openstack/02b-MAChigh/schedule.c ****     res = ((scheduleEntry_t*)(schedule_vars.currentScheduleEntry->next))->slotOffset;
 2236              		.loc 1 682 0
 2237 0ac6 064B     		ldr	r3, .L143
 2238 0ac8 D3F83C33 		ldr	r3, [r3, #828]
 2239 0acc 1B6A     		ldr	r3, [r3, #32]
 2240 0ace 1B88     		ldrh	r3, [r3]	@ movhi
 2241 0ad0 FB80     		strh	r3, [r7, #6]	@ movhi
 683:build/openmote-cc2538_armgcc/openstack/02b-MAChigh/schedule.c ****     
 684:build/openmote-cc2538_armgcc/openstack/02b-MAChigh/schedule.c ****     ENABLE_INTERRUPTS();
 2242              		.loc 1 684 0
 2243 0ad2 FFF7FEFF 		bl	IntMasterEnable
 685:build/openmote-cc2538_armgcc/openstack/02b-MAChigh/schedule.c ****     
 686:build/openmote-cc2538_armgcc/openstack/02b-MAChigh/schedule.c ****     return res;
 2244              		.loc 1 686 0
 2245 0ad6 FB88     		ldrh	r3, [r7, #6]
 687:build/openmote-cc2538_armgcc/openstack/02b-MAChigh/schedule.c **** }
 2246              		.loc 1 687 0
 2247 0ad8 1846     		mov	r0, r3
 2248 0ada 0837     		adds	r7, r7, #8
 2249              		.cfi_def_cfa_offset 8
 2250 0adc BD46     		mov	sp, r7
 2251              		.cfi_def_cfa_register 13
 2252              		@ sp needed
 2253 0ade 80BD     		pop	{r7, pc}
 2254              	.L144:
 2255              		.align	2
 2256              	.L143:
 2257 0ae0 00000000 		.word	schedule_vars
 2258              		.cfi_endproc
 2259              	.LFE20:
 2261              		.align	2
 2262              		.global	schedule_getFrameLength
 2263              		.thumb
 2264              		.thumb_func
 2266              	schedule_getFrameLength:
 2267              	.LFB21:
 688:build/openmote-cc2538_armgcc/openstack/02b-MAChigh/schedule.c **** 
 689:build/openmote-cc2538_armgcc/openstack/02b-MAChigh/schedule.c **** /**
 690:build/openmote-cc2538_armgcc/openstack/02b-MAChigh/schedule.c **** \brief Get the frame length.
 691:build/openmote-cc2538_armgcc/openstack/02b-MAChigh/schedule.c **** 
 692:build/openmote-cc2538_armgcc/openstack/02b-MAChigh/schedule.c **** \returns The frame length.
 693:build/openmote-cc2538_armgcc/openstack/02b-MAChigh/schedule.c **** */
 694:build/openmote-cc2538_armgcc/openstack/02b-MAChigh/schedule.c **** frameLength_t schedule_getFrameLength() {
 2268              		.loc 1 694 0
 2269              		.cfi_startproc
 2270              		@ args = 0, pretend = 0, frame = 8
 2271              		@ frame_needed = 1, uses_anonymous_args = 0
 2272 0ae4 80B5     		push	{r7, lr}
 2273              		.cfi_def_cfa_offset 8
 2274              		.cfi_offset 7, -8
 2275              		.cfi_offset 14, -4
 2276 0ae6 82B0     		sub	sp, sp, #8
 2277              		.cfi_def_cfa_offset 16
 2278 0ae8 00AF     		add	r7, sp, #0
 2279              		.cfi_def_cfa_register 7
 695:build/openmote-cc2538_armgcc/openstack/02b-MAChigh/schedule.c ****     frameLength_t returnVal;
 696:build/openmote-cc2538_armgcc/openstack/02b-MAChigh/schedule.c ****     
 697:build/openmote-cc2538_armgcc/openstack/02b-MAChigh/schedule.c ****     INTERRUPT_DECLARATION();
 698:build/openmote-cc2538_armgcc/openstack/02b-MAChigh/schedule.c ****     DISABLE_INTERRUPTS();
 2280              		.loc 1 698 0
 2281 0aea FFF7FEFF 		bl	IntMasterDisable
 699:build/openmote-cc2538_armgcc/openstack/02b-MAChigh/schedule.c ****     
 700:build/openmote-cc2538_armgcc/openstack/02b-MAChigh/schedule.c ****     returnVal = schedule_vars.frameLength;
 2282              		.loc 1 700 0
 2283 0aee 054B     		ldr	r3, .L147
 2284 0af0 B3F84033 		ldrh	r3, [r3, #832]	@ movhi
 2285 0af4 FB80     		strh	r3, [r7, #6]	@ movhi
 701:build/openmote-cc2538_armgcc/openstack/02b-MAChigh/schedule.c ****     
 702:build/openmote-cc2538_armgcc/openstack/02b-MAChigh/schedule.c ****     ENABLE_INTERRUPTS();
 2286              		.loc 1 702 0
 2287 0af6 FFF7FEFF 		bl	IntMasterEnable
 703:build/openmote-cc2538_armgcc/openstack/02b-MAChigh/schedule.c ****     
 704:build/openmote-cc2538_armgcc/openstack/02b-MAChigh/schedule.c ****     return returnVal;
 2288              		.loc 1 704 0
 2289 0afa FB88     		ldrh	r3, [r7, #6]
 705:build/openmote-cc2538_armgcc/openstack/02b-MAChigh/schedule.c **** }
 2290              		.loc 1 705 0
 2291 0afc 1846     		mov	r0, r3
 2292 0afe 0837     		adds	r7, r7, #8
 2293              		.cfi_def_cfa_offset 8
 2294 0b00 BD46     		mov	sp, r7
 2295              		.cfi_def_cfa_register 13
 2296              		@ sp needed
 2297 0b02 80BD     		pop	{r7, pc}
 2298              	.L148:
 2299              		.align	2
 2300              	.L147:
 2301 0b04 00000000 		.word	schedule_vars
 2302              		.cfi_endproc
 2303              	.LFE21:
 2305              		.align	2
 2306              		.global	schedule_getType
 2307              		.thumb
 2308              		.thumb_func
 2310              	schedule_getType:
 2311              	.LFB22:
 706:build/openmote-cc2538_armgcc/openstack/02b-MAChigh/schedule.c **** 
 707:build/openmote-cc2538_armgcc/openstack/02b-MAChigh/schedule.c **** /**
 708:build/openmote-cc2538_armgcc/openstack/02b-MAChigh/schedule.c **** \brief Get the type of the current schedule entry.
 709:build/openmote-cc2538_armgcc/openstack/02b-MAChigh/schedule.c **** 
 710:build/openmote-cc2538_armgcc/openstack/02b-MAChigh/schedule.c **** \returns The type of the current schedule entry.
 711:build/openmote-cc2538_armgcc/openstack/02b-MAChigh/schedule.c **** */
 712:build/openmote-cc2538_armgcc/openstack/02b-MAChigh/schedule.c **** cellType_t schedule_getType() {
 2312              		.loc 1 712 0
 2313              		.cfi_startproc
 2314              		@ args = 0, pretend = 0, frame = 8
 2315              		@ frame_needed = 1, uses_anonymous_args = 0
 2316 0b08 80B5     		push	{r7, lr}
 2317              		.cfi_def_cfa_offset 8
 2318              		.cfi_offset 7, -8
 2319              		.cfi_offset 14, -4
 2320 0b0a 82B0     		sub	sp, sp, #8
 2321              		.cfi_def_cfa_offset 16
 2322 0b0c 00AF     		add	r7, sp, #0
 2323              		.cfi_def_cfa_register 7
 713:build/openmote-cc2538_armgcc/openstack/02b-MAChigh/schedule.c ****    cellType_t returnVal;
 714:build/openmote-cc2538_armgcc/openstack/02b-MAChigh/schedule.c ****    
 715:build/openmote-cc2538_armgcc/openstack/02b-MAChigh/schedule.c ****    INTERRUPT_DECLARATION();
 716:build/openmote-cc2538_armgcc/openstack/02b-MAChigh/schedule.c ****    DISABLE_INTERRUPTS();
 2324              		.loc 1 716 0
 2325 0b0e FFF7FEFF 		bl	IntMasterDisable
 717:build/openmote-cc2538_armgcc/openstack/02b-MAChigh/schedule.c ****    
 718:build/openmote-cc2538_armgcc/openstack/02b-MAChigh/schedule.c ****    returnVal = schedule_vars.currentScheduleEntry->type;
 2326              		.loc 1 718 0
 2327 0b12 064B     		ldr	r3, .L151
 2328 0b14 D3F83C33 		ldr	r3, [r3, #828]
 2329 0b18 9B78     		ldrb	r3, [r3, #2]
 2330 0b1a FB71     		strb	r3, [r7, #7]
 719:build/openmote-cc2538_armgcc/openstack/02b-MAChigh/schedule.c ****    
 720:build/openmote-cc2538_armgcc/openstack/02b-MAChigh/schedule.c ****    ENABLE_INTERRUPTS();
 2331              		.loc 1 720 0
 2332 0b1c FFF7FEFF 		bl	IntMasterEnable
 721:build/openmote-cc2538_armgcc/openstack/02b-MAChigh/schedule.c ****    
 722:build/openmote-cc2538_armgcc/openstack/02b-MAChigh/schedule.c ****    return returnVal;
 2333              		.loc 1 722 0
 2334 0b20 FB79     		ldrb	r3, [r7, #7]	@ zero_extendqisi2
 723:build/openmote-cc2538_armgcc/openstack/02b-MAChigh/schedule.c **** }
 2335              		.loc 1 723 0
 2336 0b22 1846     		mov	r0, r3
 2337 0b24 0837     		adds	r7, r7, #8
 2338              		.cfi_def_cfa_offset 8
 2339 0b26 BD46     		mov	sp, r7
 2340              		.cfi_def_cfa_register 13
 2341              		@ sp needed
 2342 0b28 80BD     		pop	{r7, pc}
 2343              	.L152:
 2344 0b2a 00BF     		.align	2
 2345              	.L151:
 2346 0b2c 00000000 		.word	schedule_vars
 2347              		.cfi_endproc
 2348              	.LFE22:
 2350              		.align	2
 2351              		.global	schedule_getNeighbor
 2352              		.thumb
 2353              		.thumb_func
 2355              	schedule_getNeighbor:
 2356              	.LFB23:
 724:build/openmote-cc2538_armgcc/openstack/02b-MAChigh/schedule.c **** 
 725:build/openmote-cc2538_armgcc/openstack/02b-MAChigh/schedule.c **** /**
 726:build/openmote-cc2538_armgcc/openstack/02b-MAChigh/schedule.c **** \brief Get the neighbor associated wit the current schedule entry.
 727:build/openmote-cc2538_armgcc/openstack/02b-MAChigh/schedule.c **** 
 728:build/openmote-cc2538_armgcc/openstack/02b-MAChigh/schedule.c **** \returns The neighbor associated wit the current schedule entry.
 729:build/openmote-cc2538_armgcc/openstack/02b-MAChigh/schedule.c **** */
 730:build/openmote-cc2538_armgcc/openstack/02b-MAChigh/schedule.c **** void schedule_getNeighbor(open_addr_t* addrToWrite) {
 2357              		.loc 1 730 0
 2358              		.cfi_startproc
 2359              		@ args = 0, pretend = 0, frame = 8
 2360              		@ frame_needed = 1, uses_anonymous_args = 0
 2361 0b30 80B5     		push	{r7, lr}
 2362              		.cfi_def_cfa_offset 8
 2363              		.cfi_offset 7, -8
 2364              		.cfi_offset 14, -4
 2365 0b32 82B0     		sub	sp, sp, #8
 2366              		.cfi_def_cfa_offset 16
 2367 0b34 00AF     		add	r7, sp, #0
 2368              		.cfi_def_cfa_register 7
 2369 0b36 7860     		str	r0, [r7, #4]
 731:build/openmote-cc2538_armgcc/openstack/02b-MAChigh/schedule.c ****    
 732:build/openmote-cc2538_armgcc/openstack/02b-MAChigh/schedule.c ****    INTERRUPT_DECLARATION();
 733:build/openmote-cc2538_armgcc/openstack/02b-MAChigh/schedule.c ****    DISABLE_INTERRUPTS();
 2370              		.loc 1 733 0
 2371 0b38 FFF7FEFF 		bl	IntMasterDisable
 734:build/openmote-cc2538_armgcc/openstack/02b-MAChigh/schedule.c ****    
 735:build/openmote-cc2538_armgcc/openstack/02b-MAChigh/schedule.c ****    memcpy(addrToWrite,&(schedule_vars.currentScheduleEntry->neighbor),sizeof(open_addr_t));
 2372              		.loc 1 735 0
 2373 0b3c 074B     		ldr	r3, .L154
 2374 0b3e D3F83C33 		ldr	r3, [r3, #828]
 2375 0b42 0533     		adds	r3, r3, #5
 2376 0b44 1122     		movs	r2, #17
 2377 0b46 1946     		mov	r1, r3
 2378 0b48 7868     		ldr	r0, [r7, #4]
 2379 0b4a FFF7FEFF 		bl	memcpy
 736:build/openmote-cc2538_armgcc/openstack/02b-MAChigh/schedule.c ****    
 737:build/openmote-cc2538_armgcc/openstack/02b-MAChigh/schedule.c ****    ENABLE_INTERRUPTS();
 2380              		.loc 1 737 0
 2381 0b4e FFF7FEFF 		bl	IntMasterEnable
 738:build/openmote-cc2538_armgcc/openstack/02b-MAChigh/schedule.c **** }
 2382              		.loc 1 738 0
 2383 0b52 00BF     		nop
 2384 0b54 0837     		adds	r7, r7, #8
 2385              		.cfi_def_cfa_offset 8
 2386 0b56 BD46     		mov	sp, r7
 2387              		.cfi_def_cfa_register 13
 2388              		@ sp needed
 2389 0b58 80BD     		pop	{r7, pc}
 2390              	.L155:
 2391 0b5a 00BF     		.align	2
 2392              	.L154:
 2393 0b5c 00000000 		.word	schedule_vars
 2394              		.cfi_endproc
 2395              	.LFE23:
 2397              		.align	2
 2398              		.global	schedule_getChannelOffset
 2399              		.thumb
 2400              		.thumb_func
 2402              	schedule_getChannelOffset:
 2403              	.LFB24:
 739:build/openmote-cc2538_armgcc/openstack/02b-MAChigh/schedule.c **** 
 740:build/openmote-cc2538_armgcc/openstack/02b-MAChigh/schedule.c **** /**
 741:build/openmote-cc2538_armgcc/openstack/02b-MAChigh/schedule.c **** \brief Get the channel offset of the current schedule entry.
 742:build/openmote-cc2538_armgcc/openstack/02b-MAChigh/schedule.c **** 
 743:build/openmote-cc2538_armgcc/openstack/02b-MAChigh/schedule.c **** \returns The channel offset of the current schedule entry.
 744:build/openmote-cc2538_armgcc/openstack/02b-MAChigh/schedule.c **** */
 745:build/openmote-cc2538_armgcc/openstack/02b-MAChigh/schedule.c **** channelOffset_t schedule_getChannelOffset() {
 2404              		.loc 1 745 0
 2405              		.cfi_startproc
 2406              		@ args = 0, pretend = 0, frame = 8
 2407              		@ frame_needed = 1, uses_anonymous_args = 0
 2408 0b60 80B5     		push	{r7, lr}
 2409              		.cfi_def_cfa_offset 8
 2410              		.cfi_offset 7, -8
 2411              		.cfi_offset 14, -4
 2412 0b62 82B0     		sub	sp, sp, #8
 2413              		.cfi_def_cfa_offset 16
 2414 0b64 00AF     		add	r7, sp, #0
 2415              		.cfi_def_cfa_register 7
 746:build/openmote-cc2538_armgcc/openstack/02b-MAChigh/schedule.c ****    channelOffset_t returnVal;
 747:build/openmote-cc2538_armgcc/openstack/02b-MAChigh/schedule.c ****    
 748:build/openmote-cc2538_armgcc/openstack/02b-MAChigh/schedule.c ****    INTERRUPT_DECLARATION();
 749:build/openmote-cc2538_armgcc/openstack/02b-MAChigh/schedule.c ****    DISABLE_INTERRUPTS();
 2416              		.loc 1 749 0
 2417 0b66 FFF7FEFF 		bl	IntMasterDisable
 750:build/openmote-cc2538_armgcc/openstack/02b-MAChigh/schedule.c ****    
 751:build/openmote-cc2538_armgcc/openstack/02b-MAChigh/schedule.c ****    returnVal = schedule_vars.currentScheduleEntry->channelOffset;
 2418              		.loc 1 751 0
 2419 0b6a 064B     		ldr	r3, .L158
 2420 0b6c D3F83C33 		ldr	r3, [r3, #828]
 2421 0b70 1B79     		ldrb	r3, [r3, #4]
 2422 0b72 FB71     		strb	r3, [r7, #7]
 752:build/openmote-cc2538_armgcc/openstack/02b-MAChigh/schedule.c ****    
 753:build/openmote-cc2538_armgcc/openstack/02b-MAChigh/schedule.c ****    ENABLE_INTERRUPTS();
 2423              		.loc 1 753 0
 2424 0b74 FFF7FEFF 		bl	IntMasterEnable
 754:build/openmote-cc2538_armgcc/openstack/02b-MAChigh/schedule.c ****    
 755:build/openmote-cc2538_armgcc/openstack/02b-MAChigh/schedule.c ****    return returnVal;
 2425              		.loc 1 755 0
 2426 0b78 FB79     		ldrb	r3, [r7, #7]	@ zero_extendqisi2
 756:build/openmote-cc2538_armgcc/openstack/02b-MAChigh/schedule.c **** }
 2427              		.loc 1 756 0
 2428 0b7a 1846     		mov	r0, r3
 2429 0b7c 0837     		adds	r7, r7, #8
 2430              		.cfi_def_cfa_offset 8
 2431 0b7e BD46     		mov	sp, r7
 2432              		.cfi_def_cfa_register 13
 2433              		@ sp needed
 2434 0b80 80BD     		pop	{r7, pc}
 2435              	.L159:
 2436 0b82 00BF     		.align	2
 2437              	.L158:
 2438 0b84 00000000 		.word	schedule_vars
 2439              		.cfi_endproc
 2440              	.LFE24:
 2442              		.align	2
 2443              		.global	schedule_getOkToSend
 2444              		.thumb
 2445              		.thumb_func
 2447              	schedule_getOkToSend:
 2448              	.LFB25:
 757:build/openmote-cc2538_armgcc/openstack/02b-MAChigh/schedule.c **** 
 758:build/openmote-cc2538_armgcc/openstack/02b-MAChigh/schedule.c **** /**
 759:build/openmote-cc2538_armgcc/openstack/02b-MAChigh/schedule.c **** \brief Check whether I can send on this slot.
 760:build/openmote-cc2538_armgcc/openstack/02b-MAChigh/schedule.c **** 
 761:build/openmote-cc2538_armgcc/openstack/02b-MAChigh/schedule.c **** This function is called at the beginning of every TX slot.
 762:build/openmote-cc2538_armgcc/openstack/02b-MAChigh/schedule.c **** If the slot is *not* a shared slot, it always return TRUE.
 763:build/openmote-cc2538_armgcc/openstack/02b-MAChigh/schedule.c **** If the slot is a shared slot, it decrements the backoff counter and returns 
 764:build/openmote-cc2538_armgcc/openstack/02b-MAChigh/schedule.c **** TRUE only if it hits 0.
 765:build/openmote-cc2538_armgcc/openstack/02b-MAChigh/schedule.c **** 
 766:build/openmote-cc2538_armgcc/openstack/02b-MAChigh/schedule.c **** Note that the backoff counter is global, not per slot.
 767:build/openmote-cc2538_armgcc/openstack/02b-MAChigh/schedule.c **** 
 768:build/openmote-cc2538_armgcc/openstack/02b-MAChigh/schedule.c **** \returns TRUE if it is OK to send on this slot, FALSE otherwise.
 769:build/openmote-cc2538_armgcc/openstack/02b-MAChigh/schedule.c **** */
 770:build/openmote-cc2538_armgcc/openstack/02b-MAChigh/schedule.c **** bool schedule_getOkToSend(void) {
 2449              		.loc 1 770 0
 2450              		.cfi_startproc
 2451              		@ args = 0, pretend = 0, frame = 8
 2452              		@ frame_needed = 1, uses_anonymous_args = 0
 2453 0b88 80B5     		push	{r7, lr}
 2454              		.cfi_def_cfa_offset 8
 2455              		.cfi_offset 7, -8
 2456              		.cfi_offset 14, -4
 2457 0b8a 82B0     		sub	sp, sp, #8
 2458              		.cfi_def_cfa_offset 16
 2459 0b8c 00AF     		add	r7, sp, #0
 2460              		.cfi_def_cfa_register 7
 771:build/openmote-cc2538_armgcc/openstack/02b-MAChigh/schedule.c ****     bool returnVal;
 772:build/openmote-cc2538_armgcc/openstack/02b-MAChigh/schedule.c ****     
 773:build/openmote-cc2538_armgcc/openstack/02b-MAChigh/schedule.c ****     INTERRUPT_DECLARATION();
 774:build/openmote-cc2538_armgcc/openstack/02b-MAChigh/schedule.c ****     DISABLE_INTERRUPTS();
 2461              		.loc 1 774 0
 2462 0b8e FFF7FEFF 		bl	IntMasterDisable
 775:build/openmote-cc2538_armgcc/openstack/02b-MAChigh/schedule.c ****     
 776:build/openmote-cc2538_armgcc/openstack/02b-MAChigh/schedule.c ****     if (schedule_vars.currentScheduleEntry->shared==FALSE) {
 2463              		.loc 1 776 0
 2464 0b92 204B     		ldr	r3, .L168
 2465 0b94 D3F83C33 		ldr	r3, [r3, #828]
 2466 0b98 DB78     		ldrb	r3, [r3, #3]	@ zero_extendqisi2
 2467 0b9a 83F00103 		eor	r3, r3, #1
 2468 0b9e DBB2     		uxtb	r3, r3
 2469 0ba0 002B     		cmp	r3, #0
 2470 0ba2 02D0     		beq	.L161
 777:build/openmote-cc2538_armgcc/openstack/02b-MAChigh/schedule.c ****         // non-shared slot: backoff does not apply
 778:build/openmote-cc2538_armgcc/openstack/02b-MAChigh/schedule.c ****         
 779:build/openmote-cc2538_armgcc/openstack/02b-MAChigh/schedule.c ****         returnVal = TRUE;
 2471              		.loc 1 779 0
 2472 0ba4 0123     		movs	r3, #1
 2473 0ba6 FB71     		strb	r3, [r7, #7]
 2474 0ba8 2DE0     		b	.L162
 2475              	.L161:
 780:build/openmote-cc2538_armgcc/openstack/02b-MAChigh/schedule.c ****     } else {
 781:build/openmote-cc2538_armgcc/openstack/02b-MAChigh/schedule.c ****         // shared slot: check backoff before answering
 782:build/openmote-cc2538_armgcc/openstack/02b-MAChigh/schedule.c ****       
 783:build/openmote-cc2538_armgcc/openstack/02b-MAChigh/schedule.c ****         if (schedule_vars.currentScheduleEntry->neighbor.type == ADDR_ANYCAST){
 2476              		.loc 1 783 0
 2477 0baa 1A4B     		ldr	r3, .L168
 2478 0bac D3F83C33 		ldr	r3, [r3, #828]
 2479 0bb0 5B79     		ldrb	r3, [r3, #5]	@ zero_extendqisi2
 2480 0bb2 062B     		cmp	r3, #6
 2481 0bb4 17D1     		bne	.L163
 784:build/openmote-cc2538_armgcc/openstack/02b-MAChigh/schedule.c ****             // this is a minimal cell
 785:build/openmote-cc2538_armgcc/openstack/02b-MAChigh/schedule.c ****             if (schedule_vars.backoff>0) {
 2482              		.loc 1 785 0
 2483 0bb6 174B     		ldr	r3, .L168
 2484 0bb8 93F84733 		ldrb	r3, [r3, #839]	@ zero_extendqisi2
 2485 0bbc 002B     		cmp	r3, #0
 2486 0bbe 07D0     		beq	.L164
 786:build/openmote-cc2538_armgcc/openstack/02b-MAChigh/schedule.c ****                 schedule_vars.backoff--;
 2487              		.loc 1 786 0
 2488 0bc0 144B     		ldr	r3, .L168
 2489 0bc2 93F84733 		ldrb	r3, [r3, #839]	@ zero_extendqisi2
 2490 0bc6 013B     		subs	r3, r3, #1
 2491 0bc8 DAB2     		uxtb	r2, r3
 2492 0bca 124B     		ldr	r3, .L168
 2493 0bcc 83F84723 		strb	r2, [r3, #839]
 2494              	.L164:
 787:build/openmote-cc2538_armgcc/openstack/02b-MAChigh/schedule.c ****             }
 788:build/openmote-cc2538_armgcc/openstack/02b-MAChigh/schedule.c ****             
 789:build/openmote-cc2538_armgcc/openstack/02b-MAChigh/schedule.c ****             // only return TRUE if backoff hit 0
 790:build/openmote-cc2538_armgcc/openstack/02b-MAChigh/schedule.c ****             if (schedule_vars.backoff==0) {
 2495              		.loc 1 790 0
 2496 0bd0 104B     		ldr	r3, .L168
 2497 0bd2 93F84733 		ldrb	r3, [r3, #839]	@ zero_extendqisi2
 2498 0bd6 002B     		cmp	r3, #0
 2499 0bd8 02D1     		bne	.L165
 791:build/openmote-cc2538_armgcc/openstack/02b-MAChigh/schedule.c ****                 returnVal = TRUE;
 2500              		.loc 1 791 0
 2501 0bda 0123     		movs	r3, #1
 2502 0bdc FB71     		strb	r3, [r7, #7]
 2503 0bde 12E0     		b	.L162
 2504              	.L165:
 792:build/openmote-cc2538_armgcc/openstack/02b-MAChigh/schedule.c ****             } else {
 793:build/openmote-cc2538_armgcc/openstack/02b-MAChigh/schedule.c ****                 returnVal = FALSE;
 2505              		.loc 1 793 0
 2506 0be0 0023     		movs	r3, #0
 2507 0be2 FB71     		strb	r3, [r7, #7]
 2508 0be4 0FE0     		b	.L162
 2509              	.L163:
 794:build/openmote-cc2538_armgcc/openstack/02b-MAChigh/schedule.c ****             }
 795:build/openmote-cc2538_armgcc/openstack/02b-MAChigh/schedule.c ****         } else {
 796:build/openmote-cc2538_armgcc/openstack/02b-MAChigh/schedule.c ****             // this is a dedicated cell
 797:build/openmote-cc2538_armgcc/openstack/02b-MAChigh/schedule.c ****             neighbors_decreaseBackoff(&schedule_vars.currentScheduleEntry->neighbor);
 2510              		.loc 1 797 0
 2511 0be6 0B4B     		ldr	r3, .L168
 2512 0be8 D3F83C33 		ldr	r3, [r3, #828]
 2513 0bec 0533     		adds	r3, r3, #5
 2514 0bee 1846     		mov	r0, r3
 2515 0bf0 FFF7FEFF 		bl	neighbors_decreaseBackoff
 798:build/openmote-cc2538_armgcc/openstack/02b-MAChigh/schedule.c ****             
 799:build/openmote-cc2538_armgcc/openstack/02b-MAChigh/schedule.c ****             returnVal = neighbors_backoffHitZero(&schedule_vars.currentScheduleEntry->neighbor);
 2516              		.loc 1 799 0
 2517 0bf4 074B     		ldr	r3, .L168
 2518 0bf6 D3F83C33 		ldr	r3, [r3, #828]
 2519 0bfa 0533     		adds	r3, r3, #5
 2520 0bfc 1846     		mov	r0, r3
 2521 0bfe FFF7FEFF 		bl	neighbors_backoffHitZero
 2522 0c02 0346     		mov	r3, r0
 2523 0c04 FB71     		strb	r3, [r7, #7]
 2524              	.L162:
 800:build/openmote-cc2538_armgcc/openstack/02b-MAChigh/schedule.c ****         }
 801:build/openmote-cc2538_armgcc/openstack/02b-MAChigh/schedule.c ****     }
 802:build/openmote-cc2538_armgcc/openstack/02b-MAChigh/schedule.c ****     
 803:build/openmote-cc2538_armgcc/openstack/02b-MAChigh/schedule.c ****     ENABLE_INTERRUPTS();
 2525              		.loc 1 803 0
 2526 0c06 FFF7FEFF 		bl	IntMasterEnable
 804:build/openmote-cc2538_armgcc/openstack/02b-MAChigh/schedule.c ****     
 805:build/openmote-cc2538_armgcc/openstack/02b-MAChigh/schedule.c ****     return returnVal;
 2527              		.loc 1 805 0
 2528 0c0a FB79     		ldrb	r3, [r7, #7]	@ zero_extendqisi2
 806:build/openmote-cc2538_armgcc/openstack/02b-MAChigh/schedule.c **** }
 2529              		.loc 1 806 0
 2530 0c0c 1846     		mov	r0, r3
 2531 0c0e 0837     		adds	r7, r7, #8
 2532              		.cfi_def_cfa_offset 8
 2533 0c10 BD46     		mov	sp, r7
 2534              		.cfi_def_cfa_register 13
 2535              		@ sp needed
 2536 0c12 80BD     		pop	{r7, pc}
 2537              	.L169:
 2538              		.align	2
 2539              	.L168:
 2540 0c14 00000000 		.word	schedule_vars
 2541              		.cfi_endproc
 2542              	.LFE25:
 2544              		.align	2
 2545              		.global	schedule_resetBackoff
 2546              		.thumb
 2547              		.thumb_func
 2549              	schedule_resetBackoff:
 2550              	.LFB26:
 807:build/openmote-cc2538_armgcc/openstack/02b-MAChigh/schedule.c **** 
 808:build/openmote-cc2538_armgcc/openstack/02b-MAChigh/schedule.c **** /**
 809:build/openmote-cc2538_armgcc/openstack/02b-MAChigh/schedule.c **** \brief Reset the backoff and backoffExponent.
 810:build/openmote-cc2538_armgcc/openstack/02b-MAChigh/schedule.c **** */
 811:build/openmote-cc2538_armgcc/openstack/02b-MAChigh/schedule.c **** void schedule_resetBackoff() {
 2551              		.loc 1 811 0
 2552              		.cfi_startproc
 2553              		@ args = 0, pretend = 0, frame = 0
 2554              		@ frame_needed = 1, uses_anonymous_args = 0
 2555 0c18 80B5     		push	{r7, lr}
 2556              		.cfi_def_cfa_offset 8
 2557              		.cfi_offset 7, -8
 2558              		.cfi_offset 14, -4
 2559 0c1a 00AF     		add	r7, sp, #0
 2560              		.cfi_def_cfa_register 7
 812:build/openmote-cc2538_armgcc/openstack/02b-MAChigh/schedule.c ****    
 813:build/openmote-cc2538_armgcc/openstack/02b-MAChigh/schedule.c ****     INTERRUPT_DECLARATION();
 814:build/openmote-cc2538_armgcc/openstack/02b-MAChigh/schedule.c ****     DISABLE_INTERRUPTS();
 2561              		.loc 1 814 0
 2562 0c1c FFF7FEFF 		bl	IntMasterDisable
 815:build/openmote-cc2538_armgcc/openstack/02b-MAChigh/schedule.c ****     
 816:build/openmote-cc2538_armgcc/openstack/02b-MAChigh/schedule.c ****     // reset backoffExponent
 817:build/openmote-cc2538_armgcc/openstack/02b-MAChigh/schedule.c ****     schedule_vars.backoffExponenton   = MINBE-1;
 2563              		.loc 1 817 0
 2564 0c20 054B     		ldr	r3, .L171
 2565 0c22 0122     		movs	r2, #1
 2566 0c24 83F84623 		strb	r2, [r3, #838]
 818:build/openmote-cc2538_armgcc/openstack/02b-MAChigh/schedule.c ****     // reset backoff
 819:build/openmote-cc2538_armgcc/openstack/02b-MAChigh/schedule.c ****     schedule_vars.backoff             = 0;
 2567              		.loc 1 819 0
 2568 0c28 034B     		ldr	r3, .L171
 2569 0c2a 0022     		movs	r2, #0
 2570 0c2c 83F84723 		strb	r2, [r3, #839]
 820:build/openmote-cc2538_armgcc/openstack/02b-MAChigh/schedule.c ****     
 821:build/openmote-cc2538_armgcc/openstack/02b-MAChigh/schedule.c ****     ENABLE_INTERRUPTS();
 2571              		.loc 1 821 0
 2572 0c30 FFF7FEFF 		bl	IntMasterEnable
 822:build/openmote-cc2538_armgcc/openstack/02b-MAChigh/schedule.c **** }
 2573              		.loc 1 822 0
 2574 0c34 00BF     		nop
 2575 0c36 80BD     		pop	{r7, pc}
 2576              	.L172:
 2577              		.align	2
 2578              	.L171:
 2579 0c38 00000000 		.word	schedule_vars
 2580              		.cfi_endproc
 2581              	.LFE26:
 2583              		.align	2
 2584              		.global	schedule_indicateRx
 2585              		.thumb
 2586              		.thumb_func
 2588              	schedule_indicateRx:
 2589              	.LFB27:
 823:build/openmote-cc2538_armgcc/openstack/02b-MAChigh/schedule.c **** 
 824:build/openmote-cc2538_armgcc/openstack/02b-MAChigh/schedule.c **** /**
 825:build/openmote-cc2538_armgcc/openstack/02b-MAChigh/schedule.c **** \brief Indicate the reception of a packet.
 826:build/openmote-cc2538_armgcc/openstack/02b-MAChigh/schedule.c **** */
 827:build/openmote-cc2538_armgcc/openstack/02b-MAChigh/schedule.c **** void schedule_indicateRx(asn_t* asnTimestamp) {
 2590              		.loc 1 827 0
 2591              		.cfi_startproc
 2592              		@ args = 0, pretend = 0, frame = 8
 2593              		@ frame_needed = 1, uses_anonymous_args = 0
 2594 0c3c 80B5     		push	{r7, lr}
 2595              		.cfi_def_cfa_offset 8
 2596              		.cfi_offset 7, -8
 2597              		.cfi_offset 14, -4
 2598 0c3e 82B0     		sub	sp, sp, #8
 2599              		.cfi_def_cfa_offset 16
 2600 0c40 00AF     		add	r7, sp, #0
 2601              		.cfi_def_cfa_register 7
 2602 0c42 7860     		str	r0, [r7, #4]
 828:build/openmote-cc2538_armgcc/openstack/02b-MAChigh/schedule.c ****    
 829:build/openmote-cc2538_armgcc/openstack/02b-MAChigh/schedule.c ****    INTERRUPT_DECLARATION();
 830:build/openmote-cc2538_armgcc/openstack/02b-MAChigh/schedule.c ****    DISABLE_INTERRUPTS();
 2603              		.loc 1 830 0
 2604 0c44 FFF7FEFF 		bl	IntMasterDisable
 831:build/openmote-cc2538_armgcc/openstack/02b-MAChigh/schedule.c ****    
 832:build/openmote-cc2538_armgcc/openstack/02b-MAChigh/schedule.c ****    // increment usage statistics
 833:build/openmote-cc2538_armgcc/openstack/02b-MAChigh/schedule.c ****    schedule_vars.currentScheduleEntry->numRx++;
 2605              		.loc 1 833 0
 2606 0c48 0A4B     		ldr	r3, .L174
 2607 0c4a D3F83C33 		ldr	r3, [r3, #828]
 2608 0c4e 9A7D     		ldrb	r2, [r3, #22]	@ zero_extendqisi2
 2609 0c50 0132     		adds	r2, r2, #1
 2610 0c52 D2B2     		uxtb	r2, r2
 2611 0c54 9A75     		strb	r2, [r3, #22]
 834:build/openmote-cc2538_armgcc/openstack/02b-MAChigh/schedule.c **** 
 835:build/openmote-cc2538_armgcc/openstack/02b-MAChigh/schedule.c ****    // update last used timestamp
 836:build/openmote-cc2538_armgcc/openstack/02b-MAChigh/schedule.c ****    memcpy(&(schedule_vars.currentScheduleEntry->lastUsedAsn), asnTimestamp, sizeof(asn_t));
 2612              		.loc 1 836 0
 2613 0c56 074B     		ldr	r3, .L174
 2614 0c58 D3F83C33 		ldr	r3, [r3, #828]
 2615 0c5c 1933     		adds	r3, r3, #25
 2616 0c5e 0522     		movs	r2, #5
 2617 0c60 7968     		ldr	r1, [r7, #4]
 2618 0c62 1846     		mov	r0, r3
 2619 0c64 FFF7FEFF 		bl	memcpy
 837:build/openmote-cc2538_armgcc/openstack/02b-MAChigh/schedule.c ****    
 838:build/openmote-cc2538_armgcc/openstack/02b-MAChigh/schedule.c ****    ENABLE_INTERRUPTS();
 2620              		.loc 1 838 0
 2621 0c68 FFF7FEFF 		bl	IntMasterEnable
 839:build/openmote-cc2538_armgcc/openstack/02b-MAChigh/schedule.c **** }
 2622              		.loc 1 839 0
 2623 0c6c 00BF     		nop
 2624 0c6e 0837     		adds	r7, r7, #8
 2625              		.cfi_def_cfa_offset 8
 2626 0c70 BD46     		mov	sp, r7
 2627              		.cfi_def_cfa_register 13
 2628              		@ sp needed
 2629 0c72 80BD     		pop	{r7, pc}
 2630              	.L175:
 2631              		.align	2
 2632              	.L174:
 2633 0c74 00000000 		.word	schedule_vars
 2634              		.cfi_endproc
 2635              	.LFE27:
 2637              		.align	2
 2638              		.global	schedule_indicateTx
 2639              		.thumb
 2640              		.thumb_func
 2642              	schedule_indicateTx:
 2643              	.LFB28:
 840:build/openmote-cc2538_armgcc/openstack/02b-MAChigh/schedule.c **** 
 841:build/openmote-cc2538_armgcc/openstack/02b-MAChigh/schedule.c **** /**
 842:build/openmote-cc2538_armgcc/openstack/02b-MAChigh/schedule.c **** \brief Indicate the transmission of a packet.
 843:build/openmote-cc2538_armgcc/openstack/02b-MAChigh/schedule.c **** */
 844:build/openmote-cc2538_armgcc/openstack/02b-MAChigh/schedule.c **** void schedule_indicateTx(asn_t* asnTimestamp, bool succesfullTx) {
 2644              		.loc 1 844 0
 2645              		.cfi_startproc
 2646              		@ args = 0, pretend = 0, frame = 8
 2647              		@ frame_needed = 1, uses_anonymous_args = 0
 2648 0c78 80B5     		push	{r7, lr}
 2649              		.cfi_def_cfa_offset 8
 2650              		.cfi_offset 7, -8
 2651              		.cfi_offset 14, -4
 2652 0c7a 82B0     		sub	sp, sp, #8
 2653              		.cfi_def_cfa_offset 16
 2654 0c7c 00AF     		add	r7, sp, #0
 2655              		.cfi_def_cfa_register 7
 2656 0c7e 7860     		str	r0, [r7, #4]
 2657 0c80 0B46     		mov	r3, r1
 2658 0c82 FB70     		strb	r3, [r7, #3]
 845:build/openmote-cc2538_armgcc/openstack/02b-MAChigh/schedule.c ****    
 846:build/openmote-cc2538_armgcc/openstack/02b-MAChigh/schedule.c ****     INTERRUPT_DECLARATION();
 847:build/openmote-cc2538_armgcc/openstack/02b-MAChigh/schedule.c ****     DISABLE_INTERRUPTS();
 2659              		.loc 1 847 0
 2660 0c84 FFF7FEFF 		bl	IntMasterDisable
 848:build/openmote-cc2538_armgcc/openstack/02b-MAChigh/schedule.c ****     
 849:build/openmote-cc2538_armgcc/openstack/02b-MAChigh/schedule.c ****     // increment usage statistics
 850:build/openmote-cc2538_armgcc/openstack/02b-MAChigh/schedule.c ****     if (schedule_vars.currentScheduleEntry->numTx==0xFF) {
 2661              		.loc 1 850 0
 2662 0c88 444B     		ldr	r3, .L185
 2663 0c8a D3F83C33 		ldr	r3, [r3, #828]
 2664 0c8e DB7D     		ldrb	r3, [r3, #23]	@ zero_extendqisi2
 2665 0c90 FF2B     		cmp	r3, #255
 2666 0c92 13D1     		bne	.L177
 851:build/openmote-cc2538_armgcc/openstack/02b-MAChigh/schedule.c ****         schedule_vars.currentScheduleEntry->numTx/=2;
 2667              		.loc 1 851 0
 2668 0c94 414B     		ldr	r3, .L185
 2669 0c96 D3F83C33 		ldr	r3, [r3, #828]
 2670 0c9a 404A     		ldr	r2, .L185
 2671 0c9c D2F83C23 		ldr	r2, [r2, #828]
 2672 0ca0 D27D     		ldrb	r2, [r2, #23]	@ zero_extendqisi2
 2673 0ca2 5208     		lsrs	r2, r2, #1
 2674 0ca4 D2B2     		uxtb	r2, r2
 2675 0ca6 DA75     		strb	r2, [r3, #23]
 852:build/openmote-cc2538_armgcc/openstack/02b-MAChigh/schedule.c ****         schedule_vars.currentScheduleEntry->numTxACK/=2;
 2676              		.loc 1 852 0
 2677 0ca8 3C4B     		ldr	r3, .L185
 2678 0caa D3F83C33 		ldr	r3, [r3, #828]
 2679 0cae 3B4A     		ldr	r2, .L185
 2680 0cb0 D2F83C23 		ldr	r2, [r2, #828]
 2681 0cb4 127E     		ldrb	r2, [r2, #24]	@ zero_extendqisi2
 2682 0cb6 5208     		lsrs	r2, r2, #1
 2683 0cb8 D2B2     		uxtb	r2, r2
 2684 0cba 1A76     		strb	r2, [r3, #24]
 2685              	.L177:
 853:build/openmote-cc2538_armgcc/openstack/02b-MAChigh/schedule.c ****     }
 854:build/openmote-cc2538_armgcc/openstack/02b-MAChigh/schedule.c ****     schedule_vars.currentScheduleEntry->numTx++;
 2686              		.loc 1 854 0
 2687 0cbc 374B     		ldr	r3, .L185
 2688 0cbe D3F83C33 		ldr	r3, [r3, #828]
 2689 0cc2 DA7D     		ldrb	r2, [r3, #23]	@ zero_extendqisi2
 2690 0cc4 0132     		adds	r2, r2, #1
 2691 0cc6 D2B2     		uxtb	r2, r2
 2692 0cc8 DA75     		strb	r2, [r3, #23]
 855:build/openmote-cc2538_armgcc/openstack/02b-MAChigh/schedule.c ****     if (succesfullTx==TRUE) {
 2693              		.loc 1 855 0
 2694 0cca FB78     		ldrb	r3, [r7, #3]	@ zero_extendqisi2
 2695 0ccc 002B     		cmp	r3, #0
 2696 0cce 06D0     		beq	.L178
 856:build/openmote-cc2538_armgcc/openstack/02b-MAChigh/schedule.c ****         schedule_vars.currentScheduleEntry->numTxACK++;
 2697              		.loc 1 856 0
 2698 0cd0 324B     		ldr	r3, .L185
 2699 0cd2 D3F83C33 		ldr	r3, [r3, #828]
 2700 0cd6 1A7E     		ldrb	r2, [r3, #24]	@ zero_extendqisi2
 2701 0cd8 0132     		adds	r2, r2, #1
 2702 0cda D2B2     		uxtb	r2, r2
 2703 0cdc 1A76     		strb	r2, [r3, #24]
 2704              	.L178:
 857:build/openmote-cc2538_armgcc/openstack/02b-MAChigh/schedule.c ****     }
 858:build/openmote-cc2538_armgcc/openstack/02b-MAChigh/schedule.c **** 
 859:build/openmote-cc2538_armgcc/openstack/02b-MAChigh/schedule.c ****     // update last used timestamp
 860:build/openmote-cc2538_armgcc/openstack/02b-MAChigh/schedule.c ****     memcpy(&schedule_vars.currentScheduleEntry->lastUsedAsn, asnTimestamp, sizeof(asn_t));
 2705              		.loc 1 860 0
 2706 0cde 2F4B     		ldr	r3, .L185
 2707 0ce0 D3F83C33 		ldr	r3, [r3, #828]
 2708 0ce4 1933     		adds	r3, r3, #25
 2709 0ce6 0522     		movs	r2, #5
 2710 0ce8 7968     		ldr	r1, [r7, #4]
 2711 0cea 1846     		mov	r0, r3
 2712 0cec FFF7FEFF 		bl	memcpy
 861:build/openmote-cc2538_armgcc/openstack/02b-MAChigh/schedule.c **** 
 862:build/openmote-cc2538_armgcc/openstack/02b-MAChigh/schedule.c ****     // update this backoff parameters for shared slots
 863:build/openmote-cc2538_armgcc/openstack/02b-MAChigh/schedule.c ****     if (schedule_vars.currentScheduleEntry->shared==TRUE) {
 2713              		.loc 1 863 0
 2714 0cf0 2A4B     		ldr	r3, .L185
 2715 0cf2 D3F83C33 		ldr	r3, [r3, #828]
 2716 0cf6 DB78     		ldrb	r3, [r3, #3]	@ zero_extendqisi2
 2717 0cf8 002B     		cmp	r3, #0
 2718 0cfa 48D0     		beq	.L179
 864:build/openmote-cc2538_armgcc/openstack/02b-MAChigh/schedule.c ****         if (succesfullTx==TRUE) {
 2719              		.loc 1 864 0
 2720 0cfc FB78     		ldrb	r3, [r7, #3]	@ zero_extendqisi2
 2721 0cfe 002B     		cmp	r3, #0
 2722 0d00 16D0     		beq	.L180
 865:build/openmote-cc2538_armgcc/openstack/02b-MAChigh/schedule.c ****             if (schedule_vars.currentScheduleEntry->neighbor.type==ADDR_ANYCAST){
 2723              		.loc 1 865 0
 2724 0d02 264B     		ldr	r3, .L185
 2725 0d04 D3F83C33 		ldr	r3, [r3, #828]
 2726 0d08 5B79     		ldrb	r3, [r3, #5]	@ zero_extendqisi2
 2727 0d0a 062B     		cmp	r3, #6
 2728 0d0c 08D1     		bne	.L181
 866:build/openmote-cc2538_armgcc/openstack/02b-MAChigh/schedule.c ****                 // reset backoffExponent
 867:build/openmote-cc2538_armgcc/openstack/02b-MAChigh/schedule.c ****                 schedule_vars.backoffExponenton     = MINBE-1;
 2729              		.loc 1 867 0
 2730 0d0e 234B     		ldr	r3, .L185
 2731 0d10 0122     		movs	r2, #1
 2732 0d12 83F84623 		strb	r2, [r3, #838]
 868:build/openmote-cc2538_armgcc/openstack/02b-MAChigh/schedule.c ****                 // reset backoff
 869:build/openmote-cc2538_armgcc/openstack/02b-MAChigh/schedule.c ****                 schedule_vars.backoff               = 0;
 2733              		.loc 1 869 0
 2734 0d16 214B     		ldr	r3, .L185
 2735 0d18 0022     		movs	r2, #0
 2736 0d1a 83F84723 		strb	r2, [r3, #839]
 2737 0d1e 36E0     		b	.L179
 2738              	.L181:
 870:build/openmote-cc2538_armgcc/openstack/02b-MAChigh/schedule.c ****             } else {
 871:build/openmote-cc2538_armgcc/openstack/02b-MAChigh/schedule.c ****                 neighbors_resetBackoff(&schedule_vars.currentScheduleEntry->neighbor);
 2739              		.loc 1 871 0
 2740 0d20 1E4B     		ldr	r3, .L185
 2741 0d22 D3F83C33 		ldr	r3, [r3, #828]
 2742 0d26 0533     		adds	r3, r3, #5
 2743 0d28 1846     		mov	r0, r3
 2744 0d2a FFF7FEFF 		bl	neighbors_resetBackoff
 2745 0d2e 2EE0     		b	.L179
 2746              	.L180:
 872:build/openmote-cc2538_armgcc/openstack/02b-MAChigh/schedule.c ****             }
 873:build/openmote-cc2538_armgcc/openstack/02b-MAChigh/schedule.c ****         } else {
 874:build/openmote-cc2538_armgcc/openstack/02b-MAChigh/schedule.c ****             if (schedule_vars.currentScheduleEntry->neighbor.type==ADDR_ANYCAST){
 2747              		.loc 1 874 0
 2748 0d30 1A4B     		ldr	r3, .L185
 2749 0d32 D3F83C33 		ldr	r3, [r3, #828]
 2750 0d36 5B79     		ldrb	r3, [r3, #5]	@ zero_extendqisi2
 2751 0d38 062B     		cmp	r3, #6
 2752 0d3a 21D1     		bne	.L183
 875:build/openmote-cc2538_armgcc/openstack/02b-MAChigh/schedule.c ****                 // increase the backoffExponent
 876:build/openmote-cc2538_armgcc/openstack/02b-MAChigh/schedule.c ****                 if (schedule_vars.backoffExponenton<MAXBE) {
 2753              		.loc 1 876 0
 2754 0d3c 174B     		ldr	r3, .L185
 2755 0d3e 93F84633 		ldrb	r3, [r3, #838]	@ zero_extendqisi2
 2756 0d42 032B     		cmp	r3, #3
 2757 0d44 07D8     		bhi	.L184
 877:build/openmote-cc2538_armgcc/openstack/02b-MAChigh/schedule.c ****                     schedule_vars.backoffExponenton++;
 2758              		.loc 1 877 0
 2759 0d46 154B     		ldr	r3, .L185
 2760 0d48 93F84633 		ldrb	r3, [r3, #838]	@ zero_extendqisi2
 2761 0d4c 0133     		adds	r3, r3, #1
 2762 0d4e DAB2     		uxtb	r2, r3
 2763 0d50 124B     		ldr	r3, .L185
 2764 0d52 83F84623 		strb	r2, [r3, #838]
 2765              	.L184:
 878:build/openmote-cc2538_armgcc/openstack/02b-MAChigh/schedule.c ****                 }
 879:build/openmote-cc2538_armgcc/openstack/02b-MAChigh/schedule.c ****                 // set the backoff to a random value in [0..2^BE]
 880:build/openmote-cc2538_armgcc/openstack/02b-MAChigh/schedule.c ****                 schedule_vars.backoff       = openrandom_get16b()%(1<<schedule_vars.backoffExponent
 2766              		.loc 1 880 0
 2767 0d56 FFF7FEFF 		bl	openrandom_get16b
 2768 0d5a 0346     		mov	r3, r0
 2769 0d5c 5AB2     		sxtb	r2, r3
 2770 0d5e 0F4B     		ldr	r3, .L185
 2771 0d60 93F84633 		ldrb	r3, [r3, #838]	@ zero_extendqisi2
 2772 0d64 1946     		mov	r1, r3
 2773 0d66 0123     		movs	r3, #1
 2774 0d68 8B40     		lsls	r3, r3, r1
 2775 0d6a DBB2     		uxtb	r3, r3
 2776 0d6c 013B     		subs	r3, r3, #1
 2777 0d6e DBB2     		uxtb	r3, r3
 2778 0d70 5BB2     		sxtb	r3, r3
 2779 0d72 1340     		ands	r3, r3, r2
 2780 0d74 5BB2     		sxtb	r3, r3
 2781 0d76 DAB2     		uxtb	r2, r3
 2782 0d78 084B     		ldr	r3, .L185
 2783 0d7a 83F84723 		strb	r2, [r3, #839]
 2784 0d7e 06E0     		b	.L179
 2785              	.L183:
 881:build/openmote-cc2538_armgcc/openstack/02b-MAChigh/schedule.c ****             } else {
 882:build/openmote-cc2538_armgcc/openstack/02b-MAChigh/schedule.c ****                 neighbors_updateBackoff(&schedule_vars.currentScheduleEntry->neighbor);
 2786              		.loc 1 882 0
 2787 0d80 064B     		ldr	r3, .L185
 2788 0d82 D3F83C33 		ldr	r3, [r3, #828]
 2789 0d86 0533     		adds	r3, r3, #5
 2790 0d88 1846     		mov	r0, r3
 2791 0d8a FFF7FEFF 		bl	neighbors_updateBackoff
 2792              	.L179:
 883:build/openmote-cc2538_armgcc/openstack/02b-MAChigh/schedule.c ****             }
 884:build/openmote-cc2538_armgcc/openstack/02b-MAChigh/schedule.c ****         }
 885:build/openmote-cc2538_armgcc/openstack/02b-MAChigh/schedule.c ****     }
 886:build/openmote-cc2538_armgcc/openstack/02b-MAChigh/schedule.c ****     
 887:build/openmote-cc2538_armgcc/openstack/02b-MAChigh/schedule.c ****     ENABLE_INTERRUPTS();
 2793              		.loc 1 887 0
 2794 0d8e FFF7FEFF 		bl	IntMasterEnable
 888:build/openmote-cc2538_armgcc/openstack/02b-MAChigh/schedule.c **** }
 2795              		.loc 1 888 0
 2796 0d92 00BF     		nop
 2797 0d94 0837     		adds	r7, r7, #8
 2798              		.cfi_def_cfa_offset 8
 2799 0d96 BD46     		mov	sp, r7
 2800              		.cfi_def_cfa_register 13
 2801              		@ sp needed
 2802 0d98 80BD     		pop	{r7, pc}
 2803              	.L186:
 2804 0d9a 00BF     		.align	2
 2805              	.L185:
 2806 0d9c 00000000 		.word	schedule_vars
 2807              		.cfi_endproc
 2808              	.LFE28:
 2810              		.align	2
 2811              		.global	schedule_getOneCellAfterOffset
 2812              		.thumb
 2813              		.thumb_func
 2815              	schedule_getOneCellAfterOffset:
 2816              	.LFB29:
 889:build/openmote-cc2538_armgcc/openstack/02b-MAChigh/schedule.c **** 
 890:build/openmote-cc2538_armgcc/openstack/02b-MAChigh/schedule.c **** bool schedule_getOneCellAfterOffset(uint8_t metadata,uint8_t offset,open_addr_t* neighbor, uint8_t 
 2817              		.loc 1 890 0
 2818              		.cfi_startproc
 2819              		@ args = 8, pretend = 0, frame = 24
 2820              		@ frame_needed = 1, uses_anonymous_args = 0
 2821 0da0 80B5     		push	{r7, lr}
 2822              		.cfi_def_cfa_offset 8
 2823              		.cfi_offset 7, -8
 2824              		.cfi_offset 14, -4
 2825 0da2 86B0     		sub	sp, sp, #24
 2826              		.cfi_def_cfa_offset 32
 2827 0da4 00AF     		add	r7, sp, #0
 2828              		.cfi_def_cfa_register 7
 2829 0da6 3A60     		str	r2, [r7]
 2830 0da8 1A46     		mov	r2, r3
 2831 0daa 0346     		mov	r3, r0
 2832 0dac FB71     		strb	r3, [r7, #7]
 2833 0dae 0B46     		mov	r3, r1
 2834 0db0 BB71     		strb	r3, [r7, #6]
 2835 0db2 1346     		mov	r3, r2
 2836 0db4 7B71     		strb	r3, [r7, #5]
 891:build/openmote-cc2538_armgcc/openstack/02b-MAChigh/schedule.c ****     bool returnVal;
 892:build/openmote-cc2538_armgcc/openstack/02b-MAChigh/schedule.c ****     scheduleEntry_t* scheduleWalker;
 893:build/openmote-cc2538_armgcc/openstack/02b-MAChigh/schedule.c ****     cellType_t type;
 894:build/openmote-cc2538_armgcc/openstack/02b-MAChigh/schedule.c ****     INTERRUPT_DECLARATION();
 895:build/openmote-cc2538_armgcc/openstack/02b-MAChigh/schedule.c ****     DISABLE_INTERRUPTS();
 2837              		.loc 1 895 0
 2838 0db6 FFF7FEFF 		bl	IntMasterDisable
 896:build/openmote-cc2538_armgcc/openstack/02b-MAChigh/schedule.c **** 
 897:build/openmote-cc2538_armgcc/openstack/02b-MAChigh/schedule.c ****     // translate cellOptions to cell type 
 898:build/openmote-cc2538_armgcc/openstack/02b-MAChigh/schedule.c ****     if (cellOptions == CELLOPTIONS_TX){
 2839              		.loc 1 898 0
 2840 0dba 7B79     		ldrb	r3, [r7, #5]	@ zero_extendqisi2
 2841 0dbc 012B     		cmp	r3, #1
 2842 0dbe 01D1     		bne	.L188
 899:build/openmote-cc2538_armgcc/openstack/02b-MAChigh/schedule.c ****         type = CELLTYPE_TX;
 2843              		.loc 1 899 0
 2844 0dc0 0123     		movs	r3, #1
 2845 0dc2 FB73     		strb	r3, [r7, #15]
 2846              	.L188:
 900:build/openmote-cc2538_armgcc/openstack/02b-MAChigh/schedule.c ****     }
 901:build/openmote-cc2538_armgcc/openstack/02b-MAChigh/schedule.c ****     if (cellOptions == CELLOPTIONS_RX){
 2847              		.loc 1 901 0
 2848 0dc4 7B79     		ldrb	r3, [r7, #5]	@ zero_extendqisi2
 2849 0dc6 022B     		cmp	r3, #2
 2850 0dc8 01D1     		bne	.L189
 902:build/openmote-cc2538_armgcc/openstack/02b-MAChigh/schedule.c ****         type = CELLTYPE_RX;
 2851              		.loc 1 902 0
 2852 0dca 0223     		movs	r3, #2
 2853 0dcc FB73     		strb	r3, [r7, #15]
 2854              	.L189:
 903:build/openmote-cc2538_armgcc/openstack/02b-MAChigh/schedule.c ****     }
 904:build/openmote-cc2538_armgcc/openstack/02b-MAChigh/schedule.c ****     if (cellOptions == (CELLOPTIONS_TX | CELLOPTIONS_RX | CELLOPTIONS_SHARED)){
 2855              		.loc 1 904 0
 2856 0dce 7B79     		ldrb	r3, [r7, #5]	@ zero_extendqisi2
 2857 0dd0 072B     		cmp	r3, #7
 2858 0dd2 01D1     		bne	.L190
 905:build/openmote-cc2538_armgcc/openstack/02b-MAChigh/schedule.c ****         type = CELLTYPE_TXRX;
 2859              		.loc 1 905 0
 2860 0dd4 0323     		movs	r3, #3
 2861 0dd6 FB73     		strb	r3, [r7, #15]
 2862              	.L190:
 906:build/openmote-cc2538_armgcc/openstack/02b-MAChigh/schedule.c ****     }
 907:build/openmote-cc2538_armgcc/openstack/02b-MAChigh/schedule.c ****     
 908:build/openmote-cc2538_armgcc/openstack/02b-MAChigh/schedule.c ****     returnVal      = FALSE;
 2863              		.loc 1 908 0
 2864 0dd8 0023     		movs	r3, #0
 2865 0dda FB75     		strb	r3, [r7, #23]
 909:build/openmote-cc2538_armgcc/openstack/02b-MAChigh/schedule.c ****     scheduleWalker = &schedule_vars.scheduleBuf[0]; // fisrt entry record slotoffset 0
 2866              		.loc 1 909 0
 2867 0ddc 134B     		ldr	r3, .L195
 2868 0dde 3B61     		str	r3, [r7, #16]
 2869              	.L193:
 910:build/openmote-cc2538_armgcc/openstack/02b-MAChigh/schedule.c ****     do {
 911:build/openmote-cc2538_armgcc/openstack/02b-MAChigh/schedule.c ****         if(type == scheduleWalker->type && scheduleWalker->slotOffset >= offset){
 2870              		.loc 1 911 0
 2871 0de0 3B69     		ldr	r3, [r7, #16]
 2872 0de2 9B78     		ldrb	r3, [r3, #2]	@ zero_extendqisi2
 2873 0de4 FA7B     		ldrb	r2, [r7, #15]	@ zero_extendqisi2
 2874 0de6 9A42     		cmp	r2, r3
 2875 0de8 11D1     		bne	.L191
 2876              		.loc 1 911 0 is_stmt 0 discriminator 1
 2877 0dea 3B69     		ldr	r3, [r7, #16]
 2878 0dec 1A88     		ldrh	r2, [r3]
 2879 0dee BB79     		ldrb	r3, [r7, #6]	@ zero_extendqisi2
 2880 0df0 9BB2     		uxth	r3, r3
 2881 0df2 9A42     		cmp	r2, r3
 2882 0df4 0BD3     		bcc	.L191
 912:build/openmote-cc2538_armgcc/openstack/02b-MAChigh/schedule.c ****             *slotoffset    = scheduleWalker->slotOffset;
 2883              		.loc 1 912 0 is_stmt 1
 2884 0df6 3B69     		ldr	r3, [r7, #16]
 2885 0df8 1A88     		ldrh	r2, [r3]
 2886 0dfa 3B6A     		ldr	r3, [r7, #32]
 2887 0dfc 1A80     		strh	r2, [r3]	@ movhi
 913:build/openmote-cc2538_armgcc/openstack/02b-MAChigh/schedule.c ****             *channeloffset = scheduleWalker->channelOffset;
 2888              		.loc 1 913 0
 2889 0dfe 3B69     		ldr	r3, [r7, #16]
 2890 0e00 1B79     		ldrb	r3, [r3, #4]	@ zero_extendqisi2
 2891 0e02 9AB2     		uxth	r2, r3
 2892 0e04 7B6A     		ldr	r3, [r7, #36]
 2893 0e06 1A80     		strh	r2, [r3]	@ movhi
 914:build/openmote-cc2538_armgcc/openstack/02b-MAChigh/schedule.c ****             returnVal      = TRUE;
 2894              		.loc 1 914 0
 2895 0e08 0123     		movs	r3, #1
 2896 0e0a FB75     		strb	r3, [r7, #23]
 915:build/openmote-cc2538_armgcc/openstack/02b-MAChigh/schedule.c ****             break;
 2897              		.loc 1 915 0
 2898 0e0c 06E0     		b	.L192
 2899              	.L191:
 916:build/openmote-cc2538_armgcc/openstack/02b-MAChigh/schedule.c ****         }
 917:build/openmote-cc2538_armgcc/openstack/02b-MAChigh/schedule.c ****         scheduleWalker = scheduleWalker->next;
 2900              		.loc 1 917 0
 2901 0e0e 3B69     		ldr	r3, [r7, #16]
 2902 0e10 1B6A     		ldr	r3, [r3, #32]
 2903 0e12 3B61     		str	r3, [r7, #16]
 918:build/openmote-cc2538_armgcc/openstack/02b-MAChigh/schedule.c ****    }while(scheduleWalker!=&schedule_vars.scheduleBuf[0]);
 2904              		.loc 1 918 0
 2905 0e14 3B69     		ldr	r3, [r7, #16]
 2906 0e16 054A     		ldr	r2, .L195
 2907 0e18 9342     		cmp	r3, r2
 2908 0e1a E1D1     		bne	.L193
 2909              	.L192:
 919:build/openmote-cc2538_armgcc/openstack/02b-MAChigh/schedule.c ****    
 920:build/openmote-cc2538_armgcc/openstack/02b-MAChigh/schedule.c ****     ENABLE_INTERRUPTS();
 2910              		.loc 1 920 0
 2911 0e1c FFF7FEFF 		bl	IntMasterEnable
 921:build/openmote-cc2538_armgcc/openstack/02b-MAChigh/schedule.c ****    
 922:build/openmote-cc2538_armgcc/openstack/02b-MAChigh/schedule.c ****    return returnVal;
 2912              		.loc 1 922 0
 2913 0e20 FB7D     		ldrb	r3, [r7, #23]	@ zero_extendqisi2
 923:build/openmote-cc2538_armgcc/openstack/02b-MAChigh/schedule.c **** }
 2914              		.loc 1 923 0
 2915 0e22 1846     		mov	r0, r3
 2916 0e24 1837     		adds	r7, r7, #24
 2917              		.cfi_def_cfa_offset 8
 2918 0e26 BD46     		mov	sp, r7
 2919              		.cfi_def_cfa_register 13
 2920              		@ sp needed
 2921 0e28 80BD     		pop	{r7, pc}
 2922              	.L196:
 2923 0e2a 00BF     		.align	2
 2924              	.L195:
 2925 0e2c 00000000 		.word	schedule_vars
 2926              		.cfi_endproc
 2927              	.LFE29:
 2929              		.align	2
 2930              		.global	schedule_resetEntry
 2931              		.thumb
 2932              		.thumb_func
 2934              	schedule_resetEntry:
 2935              	.LFB30:
 924:build/openmote-cc2538_armgcc/openstack/02b-MAChigh/schedule.c **** 
 925:build/openmote-cc2538_armgcc/openstack/02b-MAChigh/schedule.c **** //=========================== private =========================================
 926:build/openmote-cc2538_armgcc/openstack/02b-MAChigh/schedule.c **** 
 927:build/openmote-cc2538_armgcc/openstack/02b-MAChigh/schedule.c **** /**
 928:build/openmote-cc2538_armgcc/openstack/02b-MAChigh/schedule.c **** \pre This function assumes interrupts are already disabled.
 929:build/openmote-cc2538_armgcc/openstack/02b-MAChigh/schedule.c **** */
 930:build/openmote-cc2538_armgcc/openstack/02b-MAChigh/schedule.c **** void schedule_resetEntry(scheduleEntry_t* e) {
 2936              		.loc 1 930 0
 2937              		.cfi_startproc
 2938              		@ args = 0, pretend = 0, frame = 8
 2939              		@ frame_needed = 1, uses_anonymous_args = 0
 2940 0e30 80B5     		push	{r7, lr}
 2941              		.cfi_def_cfa_offset 8
 2942              		.cfi_offset 7, -8
 2943              		.cfi_offset 14, -4
 2944 0e32 82B0     		sub	sp, sp, #8
 2945              		.cfi_def_cfa_offset 16
 2946 0e34 00AF     		add	r7, sp, #0
 2947              		.cfi_def_cfa_register 7
 2948 0e36 7860     		str	r0, [r7, #4]
 931:build/openmote-cc2538_armgcc/openstack/02b-MAChigh/schedule.c ****    e->slotOffset             = 0;
 2949              		.loc 1 931 0
 2950 0e38 7B68     		ldr	r3, [r7, #4]
 2951 0e3a 0022     		movs	r2, #0
 2952 0e3c 1A80     		strh	r2, [r3]	@ movhi
 932:build/openmote-cc2538_armgcc/openstack/02b-MAChigh/schedule.c ****    e->type                   = CELLTYPE_OFF;
 2953              		.loc 1 932 0
 2954 0e3e 7B68     		ldr	r3, [r7, #4]
 2955 0e40 0022     		movs	r2, #0
 2956 0e42 9A70     		strb	r2, [r3, #2]
 933:build/openmote-cc2538_armgcc/openstack/02b-MAChigh/schedule.c ****    e->shared                 = FALSE;
 2957              		.loc 1 933 0
 2958 0e44 7B68     		ldr	r3, [r7, #4]
 2959 0e46 0022     		movs	r2, #0
 2960 0e48 DA70     		strb	r2, [r3, #3]
 934:build/openmote-cc2538_armgcc/openstack/02b-MAChigh/schedule.c ****    e->channelOffset          = 0;
 2961              		.loc 1 934 0
 2962 0e4a 7B68     		ldr	r3, [r7, #4]
 2963 0e4c 0022     		movs	r2, #0
 2964 0e4e 1A71     		strb	r2, [r3, #4]
 935:build/openmote-cc2538_armgcc/openstack/02b-MAChigh/schedule.c **** 
 936:build/openmote-cc2538_armgcc/openstack/02b-MAChigh/schedule.c ****    e->neighbor.type          = ADDR_NONE;
 2965              		.loc 1 936 0
 2966 0e50 7B68     		ldr	r3, [r7, #4]
 2967 0e52 0022     		movs	r2, #0
 2968 0e54 5A71     		strb	r2, [r3, #5]
 937:build/openmote-cc2538_armgcc/openstack/02b-MAChigh/schedule.c ****    memset(&e->neighbor.addr_64b[0], 0x00, sizeof(e->neighbor.addr_64b));
 2969              		.loc 1 937 0
 2970 0e56 7B68     		ldr	r3, [r7, #4]
 2971 0e58 0633     		adds	r3, r3, #6
 2972 0e5a 0822     		movs	r2, #8
 2973 0e5c 0021     		movs	r1, #0
 2974 0e5e 1846     		mov	r0, r3
 2975 0e60 FFF7FEFF 		bl	memset
 938:build/openmote-cc2538_armgcc/openstack/02b-MAChigh/schedule.c **** 
 939:build/openmote-cc2538_armgcc/openstack/02b-MAChigh/schedule.c ****    e->numRx                  = 0;
 2976              		.loc 1 939 0
 2977 0e64 7B68     		ldr	r3, [r7, #4]
 2978 0e66 0022     		movs	r2, #0
 2979 0e68 9A75     		strb	r2, [r3, #22]
 940:build/openmote-cc2538_armgcc/openstack/02b-MAChigh/schedule.c ****    e->numTx                  = 0;
 2980              		.loc 1 940 0
 2981 0e6a 7B68     		ldr	r3, [r7, #4]
 2982 0e6c 0022     		movs	r2, #0
 2983 0e6e DA75     		strb	r2, [r3, #23]
 941:build/openmote-cc2538_armgcc/openstack/02b-MAChigh/schedule.c ****    e->numTxACK               = 0;
 2984              		.loc 1 941 0
 2985 0e70 7B68     		ldr	r3, [r7, #4]
 2986 0e72 0022     		movs	r2, #0
 2987 0e74 1A76     		strb	r2, [r3, #24]
 942:build/openmote-cc2538_armgcc/openstack/02b-MAChigh/schedule.c ****    e->lastUsedAsn.bytes0and1 = 0;
 2988              		.loc 1 942 0
 2989 0e76 7B68     		ldr	r3, [r7, #4]
 2990 0e78 0022     		movs	r2, #0
 2991 0e7a 9A83     		strh	r2, [r3, #28]	@ movhi
 943:build/openmote-cc2538_armgcc/openstack/02b-MAChigh/schedule.c ****    e->lastUsedAsn.bytes2and3 = 0;
 2992              		.loc 1 943 0
 2993 0e7c 7B68     		ldr	r3, [r7, #4]
 2994 0e7e 0022     		movs	r2, #0
 2995 0e80 5A83     		strh	r2, [r3, #26]	@ movhi
 944:build/openmote-cc2538_armgcc/openstack/02b-MAChigh/schedule.c ****    e->lastUsedAsn.byte4      = 0;
 2996              		.loc 1 944 0
 2997 0e82 7B68     		ldr	r3, [r7, #4]
 2998 0e84 0022     		movs	r2, #0
 2999 0e86 5A76     		strb	r2, [r3, #25]
 945:build/openmote-cc2538_armgcc/openstack/02b-MAChigh/schedule.c ****    
 946:build/openmote-cc2538_armgcc/openstack/02b-MAChigh/schedule.c ****    e->next                   = NULL;
 3000              		.loc 1 946 0
 3001 0e88 7B68     		ldr	r3, [r7, #4]
 3002 0e8a 0022     		movs	r2, #0
 3003 0e8c 1A62     		str	r2, [r3, #32]
 947:build/openmote-cc2538_armgcc/openstack/02b-MAChigh/schedule.c **** }
 3004              		.loc 1 947 0
 3005 0e8e 00BF     		nop
 3006 0e90 0837     		adds	r7, r7, #8
 3007              		.cfi_def_cfa_offset 8
 3008 0e92 BD46     		mov	sp, r7
 3009              		.cfi_def_cfa_register 13
 3010              		@ sp needed
 3011 0e94 80BD     		pop	{r7, pc}
 3012              		.cfi_endproc
 3013              	.LFE30:
 3015              	.Letext0:
 3016              		.file 2 "/usr/include/newlib/machine/_default_types.h"
 3017              		.file 3 "/usr/include/newlib/sys/_stdint.h"
 3018              		.file 4 "inc/opendefs.h"
 3019              		.file 5 "build/openmote-cc2538_armgcc/openstack/02b-MAChigh/schedule.h"
 3020              		.file 6 "bsp/boards/openmote-cc2538/board_info.h"
 3021              		.file 7 "openstack/cross-layers/idmanager.h"
 3022              		.file 8 "openstack/02a-MAClow/IEEE802154E.h"
 3023              		.file 9 "openstack/03b-IPv6/icmpv6rpl.h"