   1              		.syntax unified
   2              		.cpu cortex-m3
   3              		.fpu softvfp
   4              		.eabi_attribute 20, 1
   5              		.eabi_attribute 21, 1
   6              		.eabi_attribute 23, 3
   7              		.eabi_attribute 24, 1
   8              		.eabi_attribute 25, 1
   9              		.eabi_attribute 26, 1
  10              		.eabi_attribute 30, 6
  11              		.eabi_attribute 34, 1
  12              		.eabi_attribute 18, 4
  13              		.thumb
  14              		.syntax unified
  15              		.file	"cwellknown.c"
  16              		.text
  17              	.Ltext0:
  18              		.cfi_sections	.debug_frame
  19              		.section	.rodata
  20              		.align	2
  23              	rreg_uriquery:
  24 0000 683D7563 		.ascii	"h=ucb\000"
  24      6200
  25 0006 0000     		.align	2
  28              	infoBoardname:
  29 0008 43433235 		.ascii	"CC2538\000"
  29      333800
  30 000f 00       		.align	2
  33              	infouCName:
  34 0010 43433235 		.ascii	"CC2538\000"
  34      333800
  35 0017 00       		.align	2
  38              	infoRadioName:
  39 0018 43433235 		.ascii	"CC2538 SoC\000"
  39      33382053 
  39      6F4300
  40 0023 00       		.align	2
  43              	infoStackName:
  44 0024 4F70656E 		.ascii	"OpenWSN \000"
  44      57534E20 
  44      00
  45 002d 000000   		.align	2
  48              	ipAddr_ipsoRD:
  49 0030 26       		.byte	38
  50 0031 07       		.byte	7
  51 0032 F7       		.byte	-9
  52 0033 40       		.byte	64
  53 0034 00       		.byte	0
  54 0035 00       		.byte	0
  55 0036 00       		.byte	0
  56 0037 3F       		.byte	63
  57 0038 00       		.byte	0
  58 0039 00       		.byte	0
  59 003a 00       		.byte	0
  60 003b 00       		.byte	0
  61 003c 00       		.byte	0
  62 003d 00       		.byte	0
  63 003e 0E       		.byte	14
  64 003f 29       		.byte	41
  65              		.align	2
  68              	ipAddr_motesEecs:
  69 0040 20       		.byte	32
  70 0041 01       		.byte	1
  71 0042 04       		.byte	4
  72 0043 70       		.byte	112
  73 0044 00       		.byte	0
  74 0045 66       		.byte	102
  75 0046 00       		.byte	0
  76 0047 19       		.byte	25
  77 0048 00       		.byte	0
  78 0049 00       		.byte	0
  79 004a 00       		.byte	0
  80 004b 00       		.byte	0
  81 004c 00       		.byte	0
  82 004d 00       		.byte	0
  83 004e 00       		.byte	0
  84 004f 02       		.byte	2
  85              		.align	2
  88              	ipAddr_local:
  89 0050 26       		.byte	38
  90 0051 07       		.byte	7
  91 0052 F1       		.byte	-15
  92 0053 40       		.byte	64
  93 0054 04       		.byte	4
  94 0055 00       		.byte	0
  95 0056 10       		.byte	16
  96 0057 36       		.byte	54
  97 0058 4D       		.byte	77
  98 0059 CD       		.byte	-51
  99 005a AB       		.byte	-85
 100 005b 54       		.byte	84
 101 005c 81       		.byte	-127
 102 005d 99       		.byte	-103
 103 005e C1       		.byte	-63
 104 005f F7       		.byte	-9
 105              		.align	2
 108              	ipAddr_motedata:
 109 0060 20       		.byte	32
 110 0061 01       		.byte	1
 111 0062 04       		.byte	4
 112 0063 70       		.byte	112
 113 0064 00       		.byte	0
 114 0065 66       		.byte	102
 115 0066 00       		.byte	0
 116 0067 17       		.byte	23
 117 0068 00       		.byte	0
 118 0069 00       		.byte	0
 119 006a 00       		.byte	0
 120 006b 00       		.byte	0
 121 006c 00       		.byte	0
 122 006d 00       		.byte	0
 123 006e 00       		.byte	0
 124 006f 02       		.byte	2
 125              		.align	2
 128              	ipAddr_ringmaster:
 129 0070 BB       		.byte	-69
 130 0071 BB       		.byte	-69
 131 0072 00       		.byte	0
 132 0073 00       		.byte	0
 133 0074 00       		.byte	0
 134 0075 00       		.byte	0
 135 0076 00       		.byte	0
 136 0077 00       		.byte	0
 137 0078 00       		.byte	0
 138 0079 00       		.byte	0
 139 007a 00       		.byte	0
 140 007b 00       		.byte	0
 141 007c 00       		.byte	0
 142 007d 00       		.byte	0
 143 007e 00       		.byte	0
 144 007f 01       		.byte	1
 145              		.align	2
 148              	linklocalprefix:
 149 0080 FE       		.byte	-2
 150 0081 80       		.byte	-128
 151 0082 00       		.byte	0
 152 0083 00       		.byte	0
 153 0084 00       		.byte	0
 154 0085 00       		.byte	0
 155 0086 00       		.byte	0
 156 0087 00       		.byte	0
 157              		.comm	cwellknown_vars,60,4
 158              		.global	cwellknown_path0
 159              		.align	2
 162              	cwellknown_path0:
 163 0088 2E77656C 		.ascii	".well-known\000"
 163      6C2D6B6E 
 163      6F776E00 
 164              		.global	cwellknown_path1
 165              		.align	2
 168              	cwellknown_path1:
 169 0094 636F7265 		.ascii	"core\000"
 169      00
 170              		.text
 171              		.align	2
 172              		.global	cwellknown_init
 173              		.thumb
 174              		.thumb_func
 176              	cwellknown_init:
 177              	.LFB0:
 178              		.file 1 "build/openmote-cc2538_armgcc/openapps/cwellknown/cwellknown.c"
   1:build/openmote-cc2538_armgcc/openapps/cwellknown/cwellknown.c **** #include "opendefs.h"
   2:build/openmote-cc2538_armgcc/openapps/cwellknown/cwellknown.c **** #include "cwellknown.h"
   3:build/openmote-cc2538_armgcc/openapps/cwellknown/cwellknown.c **** #include "opencoap.h"
   4:build/openmote-cc2538_armgcc/openapps/cwellknown/cwellknown.c **** #include "openqueue.h"
   5:build/openmote-cc2538_armgcc/openapps/cwellknown/cwellknown.c **** #include "packetfunctions.h"
   6:build/openmote-cc2538_armgcc/openapps/cwellknown/cwellknown.c **** #include "openserial.h"
   7:build/openmote-cc2538_armgcc/openapps/cwellknown/cwellknown.c **** #include "idmanager.h"
   8:build/openmote-cc2538_armgcc/openapps/cwellknown/cwellknown.c **** 
   9:build/openmote-cc2538_armgcc/openapps/cwellknown/cwellknown.c **** //=========================== variables =======================================
  10:build/openmote-cc2538_armgcc/openapps/cwellknown/cwellknown.c **** 
  11:build/openmote-cc2538_armgcc/openapps/cwellknown/cwellknown.c **** cwellknown_vars_t cwellknown_vars;
  12:build/openmote-cc2538_armgcc/openapps/cwellknown/cwellknown.c **** 
  13:build/openmote-cc2538_armgcc/openapps/cwellknown/cwellknown.c **** const uint8_t cwellknown_path0[]       = ".well-known";
  14:build/openmote-cc2538_armgcc/openapps/cwellknown/cwellknown.c **** const uint8_t cwellknown_path1[]       = "core";
  15:build/openmote-cc2538_armgcc/openapps/cwellknown/cwellknown.c **** 
  16:build/openmote-cc2538_armgcc/openapps/cwellknown/cwellknown.c **** //=========================== prototypes ======================================
  17:build/openmote-cc2538_armgcc/openapps/cwellknown/cwellknown.c **** 
  18:build/openmote-cc2538_armgcc/openapps/cwellknown/cwellknown.c **** owerror_t cwellknown_receive(OpenQueueEntry_t* msg,
  19:build/openmote-cc2538_armgcc/openapps/cwellknown/cwellknown.c ****         coap_header_iht*  coap_header,
  20:build/openmote-cc2538_armgcc/openapps/cwellknown/cwellknown.c ****         coap_option_iht*  coap_incomingOptions,
  21:build/openmote-cc2538_armgcc/openapps/cwellknown/cwellknown.c ****         coap_option_iht*  coap_outgoingOptions,
  22:build/openmote-cc2538_armgcc/openapps/cwellknown/cwellknown.c ****         uint8_t*          coap_outgoingOptionsLen
  23:build/openmote-cc2538_armgcc/openapps/cwellknown/cwellknown.c **** );
  24:build/openmote-cc2538_armgcc/openapps/cwellknown/cwellknown.c **** 
  25:build/openmote-cc2538_armgcc/openapps/cwellknown/cwellknown.c **** void    cwellknown_sendDone(
  26:build/openmote-cc2538_armgcc/openapps/cwellknown/cwellknown.c ****    OpenQueueEntry_t* msg,
  27:build/openmote-cc2538_armgcc/openapps/cwellknown/cwellknown.c ****    owerror_t         error
  28:build/openmote-cc2538_armgcc/openapps/cwellknown/cwellknown.c **** );
  29:build/openmote-cc2538_armgcc/openapps/cwellknown/cwellknown.c **** 
  30:build/openmote-cc2538_armgcc/openapps/cwellknown/cwellknown.c **** //=========================== public ==========================================
  31:build/openmote-cc2538_armgcc/openapps/cwellknown/cwellknown.c **** 
  32:build/openmote-cc2538_armgcc/openapps/cwellknown/cwellknown.c **** void cwellknown_init() {
 179              		.loc 1 32 0
 180              		.cfi_startproc
 181              		@ args = 0, pretend = 0, frame = 0
 182              		@ frame_needed = 1, uses_anonymous_args = 0
 183 0000 80B5     		push	{r7, lr}
 184              		.cfi_def_cfa_offset 8
 185              		.cfi_offset 7, -8
 186              		.cfi_offset 14, -4
 187 0002 00AF     		add	r7, sp, #0
 188              		.cfi_def_cfa_register 7
  33:build/openmote-cc2538_armgcc/openapps/cwellknown/cwellknown.c ****    if(idmanager_getIsDAGroot()==TRUE) return; 
 189              		.loc 1 33 0
 190 0004 FFF7FEFF 		bl	idmanager_getIsDAGroot
 191 0008 0346     		mov	r3, r0
 192 000a 002B     		cmp	r3, #0
 193 000c 1ED1     		bne	.L4
  34:build/openmote-cc2538_armgcc/openapps/cwellknown/cwellknown.c ****    
  35:build/openmote-cc2538_armgcc/openapps/cwellknown/cwellknown.c ****    // prepare the resource descriptor for the /.well-known/core path
  36:build/openmote-cc2538_armgcc/openapps/cwellknown/cwellknown.c ****    cwellknown_vars.desc.path0len            = sizeof(cwellknown_path0)-1;
 194              		.loc 1 36 0
 195 000e 104B     		ldr	r3, .L5
 196 0010 0B22     		movs	r2, #11
 197 0012 1A70     		strb	r2, [r3]
  37:build/openmote-cc2538_armgcc/openapps/cwellknown/cwellknown.c ****    cwellknown_vars.desc.path0val            = (uint8_t*)(&cwellknown_path0);
 198              		.loc 1 37 0
 199 0014 0E4B     		ldr	r3, .L5
 200 0016 0F4A     		ldr	r2, .L5+4
 201 0018 5A60     		str	r2, [r3, #4]
  38:build/openmote-cc2538_armgcc/openapps/cwellknown/cwellknown.c ****    cwellknown_vars.desc.path1len            = sizeof(cwellknown_path1)-1;
 202              		.loc 1 38 0
 203 001a 0D4B     		ldr	r3, .L5
 204 001c 0422     		movs	r2, #4
 205 001e 1A72     		strb	r2, [r3, #8]
  39:build/openmote-cc2538_armgcc/openapps/cwellknown/cwellknown.c ****    cwellknown_vars.desc.path1val            = (uint8_t*)(&cwellknown_path1);
 206              		.loc 1 39 0
 207 0020 0B4B     		ldr	r3, .L5
 208 0022 0D4A     		ldr	r2, .L5+8
 209 0024 DA60     		str	r2, [r3, #12]
  40:build/openmote-cc2538_armgcc/openapps/cwellknown/cwellknown.c ****    cwellknown_vars.desc.componentID         = COMPONENT_CWELLKNOWN;
 210              		.loc 1 40 0
 211 0026 0A4B     		ldr	r3, .L5
 212 0028 2122     		movs	r2, #33
 213 002a 1A74     		strb	r2, [r3, #16]
  41:build/openmote-cc2538_armgcc/openapps/cwellknown/cwellknown.c ****    cwellknown_vars.desc.securityContext     = NULL;
 214              		.loc 1 41 0
 215 002c 084B     		ldr	r3, .L5
 216 002e 0022     		movs	r2, #0
 217 0030 5A61     		str	r2, [r3, #20]
  42:build/openmote-cc2538_armgcc/openapps/cwellknown/cwellknown.c ****    cwellknown_vars.desc.discoverable        = FALSE;
 218              		.loc 1 42 0
 219 0032 074B     		ldr	r3, .L5
 220 0034 0022     		movs	r2, #0
 221 0036 1A76     		strb	r2, [r3, #24]
  43:build/openmote-cc2538_armgcc/openapps/cwellknown/cwellknown.c ****    cwellknown_vars.desc.callbackRx          = &cwellknown_receive;
 222              		.loc 1 43 0
 223 0038 054B     		ldr	r3, .L5
 224 003a 084A     		ldr	r2, .L5+12
 225 003c DA61     		str	r2, [r3, #28]
  44:build/openmote-cc2538_armgcc/openapps/cwellknown/cwellknown.c ****    cwellknown_vars.desc.callbackSendDone    = &cwellknown_sendDone;
 226              		.loc 1 44 0
 227 003e 044B     		ldr	r3, .L5
 228 0040 074A     		ldr	r2, .L5+16
 229 0042 1A62     		str	r2, [r3, #32]
  45:build/openmote-cc2538_armgcc/openapps/cwellknown/cwellknown.c ****    
  46:build/openmote-cc2538_armgcc/openapps/cwellknown/cwellknown.c ****    opencoap_register(&cwellknown_vars.desc);
 230              		.loc 1 46 0
 231 0044 0248     		ldr	r0, .L5
 232 0046 FFF7FEFF 		bl	opencoap_register
 233 004a 00E0     		b	.L1
 234              	.L4:
  33:build/openmote-cc2538_armgcc/openapps/cwellknown/cwellknown.c ****    
 235              		.loc 1 33 0
 236 004c 00BF     		nop
 237              	.L1:
  47:build/openmote-cc2538_armgcc/openapps/cwellknown/cwellknown.c **** }
 238              		.loc 1 47 0
 239 004e 80BD     		pop	{r7, pc}
 240              	.L6:
 241              		.align	2
 242              	.L5:
 243 0050 00000000 		.word	cwellknown_vars
 244 0054 00000000 		.word	cwellknown_path0
 245 0058 00000000 		.word	cwellknown_path1
 246 005c 00000000 		.word	cwellknown_receive
 247 0060 00000000 		.word	cwellknown_sendDone
 248              		.cfi_endproc
 249              	.LFE0:
 251              		.align	2
 252              		.global	cwellknown_receive
 253              		.thumb
 254              		.thumb_func
 256              	cwellknown_receive:
 257              	.LFB1:
  48:build/openmote-cc2538_armgcc/openapps/cwellknown/cwellknown.c **** 
  49:build/openmote-cc2538_armgcc/openapps/cwellknown/cwellknown.c **** //=========================== private =========================================
  50:build/openmote-cc2538_armgcc/openapps/cwellknown/cwellknown.c **** 
  51:build/openmote-cc2538_armgcc/openapps/cwellknown/cwellknown.c **** owerror_t cwellknown_receive(OpenQueueEntry_t* msg,
  52:build/openmote-cc2538_armgcc/openapps/cwellknown/cwellknown.c ****         coap_header_iht*  coap_header,
  53:build/openmote-cc2538_armgcc/openapps/cwellknown/cwellknown.c ****         coap_option_iht*  coap_incomingOptions,
  54:build/openmote-cc2538_armgcc/openapps/cwellknown/cwellknown.c ****         coap_option_iht*  coap_outgoingOptions,
  55:build/openmote-cc2538_armgcc/openapps/cwellknown/cwellknown.c ****         uint8_t*          coap_outgoingOptionsLen) {
 258              		.loc 1 55 0
 259              		.cfi_startproc
 260              		@ args = 4, pretend = 0, frame = 24
 261              		@ frame_needed = 1, uses_anonymous_args = 0
 262 0064 80B5     		push	{r7, lr}
 263              		.cfi_def_cfa_offset 8
 264              		.cfi_offset 7, -8
 265              		.cfi_offset 14, -4
 266 0066 86B0     		sub	sp, sp, #24
 267              		.cfi_def_cfa_offset 32
 268 0068 00AF     		add	r7, sp, #0
 269              		.cfi_def_cfa_register 7
 270 006a F860     		str	r0, [r7, #12]
 271 006c B960     		str	r1, [r7, #8]
 272 006e 7A60     		str	r2, [r7, #4]
 273 0070 3B60     		str	r3, [r7]
  56:build/openmote-cc2538_armgcc/openapps/cwellknown/cwellknown.c ****    
  57:build/openmote-cc2538_armgcc/openapps/cwellknown/cwellknown.c ****     owerror_t outcome;
  58:build/openmote-cc2538_armgcc/openapps/cwellknown/cwellknown.c ****    
  59:build/openmote-cc2538_armgcc/openapps/cwellknown/cwellknown.c ****    switch(coap_header->Code) {
 274              		.loc 1 59 0
 275 0072 BB68     		ldr	r3, [r7, #8]
 276 0074 DB78     		ldrb	r3, [r3, #3]	@ zero_extendqisi2
 277 0076 012B     		cmp	r3, #1
 278 0078 21D1     		bne	.L12
  60:build/openmote-cc2538_armgcc/openapps/cwellknown/cwellknown.c ****       case COAP_CODE_REQ_GET:
  61:build/openmote-cc2538_armgcc/openapps/cwellknown/cwellknown.c ****          // reset packet payload
  62:build/openmote-cc2538_armgcc/openapps/cwellknown/cwellknown.c ****          msg->payload        = &(msg->packet[127]);
 279              		.loc 1 62 0
 280 007a FB68     		ldr	r3, [r7, #12]
 281 007c 03F23F12 		addw	r2, r3, #319
 282 0080 FB68     		ldr	r3, [r7, #12]
 283 0082 5A60     		str	r2, [r3, #4]
  63:build/openmote-cc2538_armgcc/openapps/cwellknown/cwellknown.c ****          msg->length         = 0;
 284              		.loc 1 63 0
 285 0084 FB68     		ldr	r3, [r7, #12]
 286 0086 0022     		movs	r2, #0
 287 0088 1A72     		strb	r2, [r3, #8]
  64:build/openmote-cc2538_armgcc/openapps/cwellknown/cwellknown.c ****          
  65:build/openmote-cc2538_armgcc/openapps/cwellknown/cwellknown.c ****          // have CoAP module write links to all resources
  66:build/openmote-cc2538_armgcc/openapps/cwellknown/cwellknown.c ****          opencoap_writeLinks(msg,COMPONENT_CWELLKNOWN);
 288              		.loc 1 66 0
 289 008a 2121     		movs	r1, #33
 290 008c F868     		ldr	r0, [r7, #12]
 291 008e FFF7FEFF 		bl	opencoap_writeLinks
  67:build/openmote-cc2538_armgcc/openapps/cwellknown/cwellknown.c ****          
  68:build/openmote-cc2538_armgcc/openapps/cwellknown/cwellknown.c ****          // add return option
  69:build/openmote-cc2538_armgcc/openapps/cwellknown/cwellknown.c ****          cwellknown_vars.medType = COAP_MEDTYPE_APPLINKFORMAT;
 292              		.loc 1 69 0
 293 0092 0F4B     		ldr	r3, .L13
 294 0094 2822     		movs	r2, #40
 295 0096 83F83820 		strb	r2, [r3, #56]
  70:build/openmote-cc2538_armgcc/openapps/cwellknown/cwellknown.c ****          coap_outgoingOptions[0].type = COAP_OPTION_NUM_CONTENTFORMAT;
 296              		.loc 1 70 0
 297 009a 3B68     		ldr	r3, [r7]
 298 009c 0C22     		movs	r2, #12
 299 009e 1A70     		strb	r2, [r3]
  71:build/openmote-cc2538_armgcc/openapps/cwellknown/cwellknown.c ****          coap_outgoingOptions[0].length = 1;
 300              		.loc 1 71 0
 301 00a0 3B68     		ldr	r3, [r7]
 302 00a2 0122     		movs	r2, #1
 303 00a4 5A70     		strb	r2, [r3, #1]
  72:build/openmote-cc2538_armgcc/openapps/cwellknown/cwellknown.c ****          coap_outgoingOptions[0].pValue = &cwellknown_vars.medType;
 304              		.loc 1 72 0
 305 00a6 3B68     		ldr	r3, [r7]
 306 00a8 0A4A     		ldr	r2, .L13+4
 307 00aa 5A60     		str	r2, [r3, #4]
  73:build/openmote-cc2538_armgcc/openapps/cwellknown/cwellknown.c ****          *coap_outgoingOptionsLen = 1;
 308              		.loc 1 73 0
 309 00ac 3B6A     		ldr	r3, [r7, #32]
 310 00ae 0122     		movs	r2, #1
 311 00b0 1A70     		strb	r2, [r3]
  74:build/openmote-cc2538_armgcc/openapps/cwellknown/cwellknown.c ****          
  75:build/openmote-cc2538_armgcc/openapps/cwellknown/cwellknown.c ****          // set the CoAP header
  76:build/openmote-cc2538_armgcc/openapps/cwellknown/cwellknown.c ****          coap_header->Code   = COAP_CODE_RESP_CONTENT;
 312              		.loc 1 76 0
 313 00b2 BB68     		ldr	r3, [r7, #8]
 314 00b4 4522     		movs	r2, #69
 315 00b6 DA70     		strb	r2, [r3, #3]
  77:build/openmote-cc2538_armgcc/openapps/cwellknown/cwellknown.c ****          
  78:build/openmote-cc2538_armgcc/openapps/cwellknown/cwellknown.c ****          outcome             = E_SUCCESS;
 316              		.loc 1 78 0
 317 00b8 0023     		movs	r3, #0
 318 00ba FB75     		strb	r3, [r7, #23]
  79:build/openmote-cc2538_armgcc/openapps/cwellknown/cwellknown.c ****          
  80:build/openmote-cc2538_armgcc/openapps/cwellknown/cwellknown.c ****          break;
 319              		.loc 1 80 0
 320 00bc 02E0     		b	.L10
 321              	.L12:
  81:build/openmote-cc2538_armgcc/openapps/cwellknown/cwellknown.c ****       default:
  82:build/openmote-cc2538_armgcc/openapps/cwellknown/cwellknown.c ****          outcome             = E_FAIL;
 322              		.loc 1 82 0
 323 00be 0123     		movs	r3, #1
 324 00c0 FB75     		strb	r3, [r7, #23]
  83:build/openmote-cc2538_armgcc/openapps/cwellknown/cwellknown.c ****          break;
 325              		.loc 1 83 0
 326 00c2 00BF     		nop
 327              	.L10:
  84:build/openmote-cc2538_armgcc/openapps/cwellknown/cwellknown.c ****    }
  85:build/openmote-cc2538_armgcc/openapps/cwellknown/cwellknown.c ****    
  86:build/openmote-cc2538_armgcc/openapps/cwellknown/cwellknown.c ****    return outcome;
 328              		.loc 1 86 0
 329 00c4 FB7D     		ldrb	r3, [r7, #23]	@ zero_extendqisi2
  87:build/openmote-cc2538_armgcc/openapps/cwellknown/cwellknown.c **** }
 330              		.loc 1 87 0
 331 00c6 1846     		mov	r0, r3
 332 00c8 1837     		adds	r7, r7, #24
 333              		.cfi_def_cfa_offset 8
 334 00ca BD46     		mov	sp, r7
 335              		.cfi_def_cfa_register 13
 336              		@ sp needed
 337 00cc 80BD     		pop	{r7, pc}
 338              	.L14:
 339 00ce 00BF     		.align	2
 340              	.L13:
 341 00d0 00000000 		.word	cwellknown_vars
 342 00d4 38000000 		.word	cwellknown_vars+56
 343              		.cfi_endproc
 344              	.LFE1:
 346              		.align	2
 347              		.global	cwellknown_sendDone
 348              		.thumb
 349              		.thumb_func
 351              	cwellknown_sendDone:
 352              	.LFB2:
  88:build/openmote-cc2538_armgcc/openapps/cwellknown/cwellknown.c **** 
  89:build/openmote-cc2538_armgcc/openapps/cwellknown/cwellknown.c **** void cwellknown_sendDone(OpenQueueEntry_t* msg, owerror_t error) {
 353              		.loc 1 89 0
 354              		.cfi_startproc
 355              		@ args = 0, pretend = 0, frame = 8
 356              		@ frame_needed = 1, uses_anonymous_args = 0
 357 00d8 80B5     		push	{r7, lr}
 358              		.cfi_def_cfa_offset 8
 359              		.cfi_offset 7, -8
 360              		.cfi_offset 14, -4
 361 00da 82B0     		sub	sp, sp, #8
 362              		.cfi_def_cfa_offset 16
 363 00dc 00AF     		add	r7, sp, #0
 364              		.cfi_def_cfa_register 7
 365 00de 7860     		str	r0, [r7, #4]
 366 00e0 0B46     		mov	r3, r1
 367 00e2 FB70     		strb	r3, [r7, #3]
  90:build/openmote-cc2538_armgcc/openapps/cwellknown/cwellknown.c ****    openqueue_freePacketBuffer(msg);
 368              		.loc 1 90 0
 369 00e4 7868     		ldr	r0, [r7, #4]
 370 00e6 FFF7FEFF 		bl	openqueue_freePacketBuffer
  91:build/openmote-cc2538_armgcc/openapps/cwellknown/cwellknown.c **** }
 371              		.loc 1 91 0
 372 00ea 00BF     		nop
 373 00ec 0837     		adds	r7, r7, #8
 374              		.cfi_def_cfa_offset 8
 375 00ee BD46     		mov	sp, r7
 376              		.cfi_def_cfa_register 13
 377              		@ sp needed
 378 00f0 80BD     		pop	{r7, pc}
 379              		.cfi_endproc
 380              	.LFE2:
 382              	.Letext0:
 383              		.file 2 "/usr/include/newlib/machine/_default_types.h"
 384              		.file 3 "/usr/include/newlib/sys/_stdint.h"
 385              		.file 4 "inc/opendefs.h"
 386              		.file 5 "openapps/opencoap/opencoap.h"
 387              		.file 6 "build/openmote-cc2538_armgcc/openapps/cwellknown/cwellknown.h"
 388              		.file 7 "bsp/boards/openmote-cc2538/board_info.h"
 389              		.file 8 "openstack/cross-layers/idmanager.h"