   1              		.syntax unified
   2              		.cpu cortex-m3
   3              		.fpu softvfp
   4              		.eabi_attribute 20, 1
   5              		.eabi_attribute 21, 1
   6              		.eabi_attribute 23, 3
   7              		.eabi_attribute 24, 1
   8              		.eabi_attribute 25, 1
   9              		.eabi_attribute 26, 1
  10              		.eabi_attribute 30, 6
  11              		.eabi_attribute 34, 1
  12              		.eabi_attribute 18, 4
  13              		.thumb
  14              		.syntax unified
  15              		.file	"cpu.c"
  16              		.text
  17              	.Ltext0:
  18              		.cfi_sections	.debug_frame
  19              		.align	2
  20              		.global	CPUcpsid
  21              		.thumb
  22              		.thumb_func
  24              	CPUcpsid:
  25              	.LFB0:
  26              		.file 1 "build/openmote-cc2538_armgcc/bsp/boards/openmote-cc2538/source/cpu.c"
   1:build/openmote-cc2538_armgcc/bsp/boards/openmote-cc2538/source/cpu.c **** /******************************************************************************
   2:build/openmote-cc2538_armgcc/bsp/boards/openmote-cc2538/source/cpu.c **** *  Filename:       cpu.c
   3:build/openmote-cc2538_armgcc/bsp/boards/openmote-cc2538/source/cpu.c **** *  Revised:        $Date: 2013-01-21 15:25:21 +0100 (Mon, 21 Jan 2013) $
   4:build/openmote-cc2538_armgcc/bsp/boards/openmote-cc2538/source/cpu.c **** *  Revision:       $Revision: 9178 $
   5:build/openmote-cc2538_armgcc/bsp/boards/openmote-cc2538/source/cpu.c **** *
   6:build/openmote-cc2538_armgcc/bsp/boards/openmote-cc2538/source/cpu.c **** *  Description:    Instruction wrappers for special CPU instructions needed by
   7:build/openmote-cc2538_armgcc/bsp/boards/openmote-cc2538/source/cpu.c **** *                  the drivers.
   8:build/openmote-cc2538_armgcc/bsp/boards/openmote-cc2538/source/cpu.c **** *
   9:build/openmote-cc2538_armgcc/bsp/boards/openmote-cc2538/source/cpu.c **** *  Copyright (C) 2012 Texas Instruments Incorporated - http://www.ti.com/
  10:build/openmote-cc2538_armgcc/bsp/boards/openmote-cc2538/source/cpu.c **** *
  11:build/openmote-cc2538_armgcc/bsp/boards/openmote-cc2538/source/cpu.c **** *
  12:build/openmote-cc2538_armgcc/bsp/boards/openmote-cc2538/source/cpu.c **** *  Redistribution and use in source and binary forms, with or without
  13:build/openmote-cc2538_armgcc/bsp/boards/openmote-cc2538/source/cpu.c **** *  modification, are permitted provided that the following conditions
  14:build/openmote-cc2538_armgcc/bsp/boards/openmote-cc2538/source/cpu.c **** *  are met:
  15:build/openmote-cc2538_armgcc/bsp/boards/openmote-cc2538/source/cpu.c **** *
  16:build/openmote-cc2538_armgcc/bsp/boards/openmote-cc2538/source/cpu.c **** *    Redistributions of source code must retain the above copyright
  17:build/openmote-cc2538_armgcc/bsp/boards/openmote-cc2538/source/cpu.c **** *    notice, this list of conditions and the following disclaimer.
  18:build/openmote-cc2538_armgcc/bsp/boards/openmote-cc2538/source/cpu.c **** *
  19:build/openmote-cc2538_armgcc/bsp/boards/openmote-cc2538/source/cpu.c **** *    Redistributions in binary form must reproduce the above copyright
  20:build/openmote-cc2538_armgcc/bsp/boards/openmote-cc2538/source/cpu.c **** *    notice, this list of conditions and the following disclaimer in the
  21:build/openmote-cc2538_armgcc/bsp/boards/openmote-cc2538/source/cpu.c **** *    documentation and/or other materials provided with the distribution.
  22:build/openmote-cc2538_armgcc/bsp/boards/openmote-cc2538/source/cpu.c **** *
  23:build/openmote-cc2538_armgcc/bsp/boards/openmote-cc2538/source/cpu.c **** *    Neither the name of Texas Instruments Incorporated nor the names of
  24:build/openmote-cc2538_armgcc/bsp/boards/openmote-cc2538/source/cpu.c **** *    its contributors may be used to endorse or promote products derived
  25:build/openmote-cc2538_armgcc/bsp/boards/openmote-cc2538/source/cpu.c **** *    from this software without specific prior written permission.
  26:build/openmote-cc2538_armgcc/bsp/boards/openmote-cc2538/source/cpu.c **** *
  27:build/openmote-cc2538_armgcc/bsp/boards/openmote-cc2538/source/cpu.c **** *  THIS SOFTWARE IS PROVIDED BY THE COPYRIGHT HOLDERS AND CONTRIBUTORS
  28:build/openmote-cc2538_armgcc/bsp/boards/openmote-cc2538/source/cpu.c **** *  "AS IS" AND ANY EXPRESS OR IMPLIED WARRANTIES, INCLUDING, BUT NOT
  29:build/openmote-cc2538_armgcc/bsp/boards/openmote-cc2538/source/cpu.c **** *  LIMITED TO, THE IMPLIED WARRANTIES OF MERCHANTABILITY AND FITNESS FOR
  30:build/openmote-cc2538_armgcc/bsp/boards/openmote-cc2538/source/cpu.c **** *  A PARTICULAR PURPOSE ARE DISCLAIMED. IN NO EVENT SHALL THE COPYRIGHT
  31:build/openmote-cc2538_armgcc/bsp/boards/openmote-cc2538/source/cpu.c **** *  OWNER OR CONTRIBUTORS BE LIABLE FOR ANY DIRECT, INDIRECT, INCIDENTAL,
  32:build/openmote-cc2538_armgcc/bsp/boards/openmote-cc2538/source/cpu.c **** *  SPECIAL, EXEMPLARY, OR CONSEQUENTIAL DAMAGES (INCLUDING, BUT NOT
  33:build/openmote-cc2538_armgcc/bsp/boards/openmote-cc2538/source/cpu.c **** *  LIMITED TO, PROCUREMENT OF SUBSTITUTE GOODS OR SERVICES; LOSS OF USE,
  34:build/openmote-cc2538_armgcc/bsp/boards/openmote-cc2538/source/cpu.c **** *  DATA, OR PROFITS; OR BUSINESS INTERRUPTION) HOWEVER CAUSED AND ON ANY
  35:build/openmote-cc2538_armgcc/bsp/boards/openmote-cc2538/source/cpu.c **** *  THEORY OF LIABILITY, WHETHER IN CONTRACT, STRICT LIABILITY, OR TORT
  36:build/openmote-cc2538_armgcc/bsp/boards/openmote-cc2538/source/cpu.c **** *  (INCLUDING NEGLIGENCE OR OTHERWISE) ARISING IN ANY WAY OUT OF THE USE
  37:build/openmote-cc2538_armgcc/bsp/boards/openmote-cc2538/source/cpu.c **** *  OF THIS SOFTWARE, EVEN IF ADVISED OF THE POSSIBILITY OF SUCH DAMAGE.
  38:build/openmote-cc2538_armgcc/bsp/boards/openmote-cc2538/source/cpu.c **** *
  39:build/openmote-cc2538_armgcc/bsp/boards/openmote-cc2538/source/cpu.c **** ******************************************************************************/
  40:build/openmote-cc2538_armgcc/bsp/boards/openmote-cc2538/source/cpu.c **** 
  41:build/openmote-cc2538_armgcc/bsp/boards/openmote-cc2538/source/cpu.c **** 
  42:build/openmote-cc2538_armgcc/bsp/boards/openmote-cc2538/source/cpu.c **** #include "cpu.h"
  43:build/openmote-cc2538_armgcc/bsp/boards/openmote-cc2538/source/cpu.c **** 
  44:build/openmote-cc2538_armgcc/bsp/boards/openmote-cc2538/source/cpu.c **** //*****************************************************************************
  45:build/openmote-cc2538_armgcc/bsp/boards/openmote-cc2538/source/cpu.c **** //
  46:build/openmote-cc2538_armgcc/bsp/boards/openmote-cc2538/source/cpu.c **** // Wrapper function for the CPSID instruction.  Returns the state of PRIMASK
  47:build/openmote-cc2538_armgcc/bsp/boards/openmote-cc2538/source/cpu.c **** // on entry.
  48:build/openmote-cc2538_armgcc/bsp/boards/openmote-cc2538/source/cpu.c **** //
  49:build/openmote-cc2538_armgcc/bsp/boards/openmote-cc2538/source/cpu.c **** //*****************************************************************************
  50:build/openmote-cc2538_armgcc/bsp/boards/openmote-cc2538/source/cpu.c **** #if defined(__GNUC__)
  51:build/openmote-cc2538_armgcc/bsp/boards/openmote-cc2538/source/cpu.c **** uint32_t __attribute__((naked))
  52:build/openmote-cc2538_armgcc/bsp/boards/openmote-cc2538/source/cpu.c **** CPUcpsid(void)
  53:build/openmote-cc2538_armgcc/bsp/boards/openmote-cc2538/source/cpu.c **** {
  27              		.loc 1 53 0
  28              		.cfi_startproc
  29              		@ Naked Function: prologue and epilogue provided by programmer.
  30              		@ args = 0, pretend = 0, frame = 0
  31              		@ frame_needed = 1, uses_anonymous_args = 0
  54:build/openmote-cc2538_armgcc/bsp/boards/openmote-cc2538/source/cpu.c ****     uint32_t ui32Ret;
  55:build/openmote-cc2538_armgcc/bsp/boards/openmote-cc2538/source/cpu.c **** 
  56:build/openmote-cc2538_armgcc/bsp/boards/openmote-cc2538/source/cpu.c ****     //
  57:build/openmote-cc2538_armgcc/bsp/boards/openmote-cc2538/source/cpu.c ****     // Read PRIMASK and disable interrupts.
  58:build/openmote-cc2538_armgcc/bsp/boards/openmote-cc2538/source/cpu.c ****     //
  59:build/openmote-cc2538_armgcc/bsp/boards/openmote-cc2538/source/cpu.c ****     __asm("    mrs     r0, PRIMASK\n"
  32              		.loc 1 59 0
  33              		.syntax unified
  34              	@ 59 "build/openmote-cc2538_armgcc/bsp/boards/openmote-cc2538/source/cpu.c" 1
  35 0000 EFF31080 		    mrs     r0, PRIMASK
  36 0004 72B6     	    cpsid   i
  37 0006 7047     	    bx      lr
  38              	
  39              	@ 0 "" 2
  40              		.thumb
  41              		.syntax unified
  42 0008 1C46     		mov	r4, r3
  60:build/openmote-cc2538_armgcc/bsp/boards/openmote-cc2538/source/cpu.c ****           "    cpsid   i\n"
  61:build/openmote-cc2538_armgcc/bsp/boards/openmote-cc2538/source/cpu.c ****           "    bx      lr\n"
  62:build/openmote-cc2538_armgcc/bsp/boards/openmote-cc2538/source/cpu.c ****           : "=r" (ui32Ret));
  63:build/openmote-cc2538_armgcc/bsp/boards/openmote-cc2538/source/cpu.c **** 
  64:build/openmote-cc2538_armgcc/bsp/boards/openmote-cc2538/source/cpu.c ****     //
  65:build/openmote-cc2538_armgcc/bsp/boards/openmote-cc2538/source/cpu.c ****     // The return is handled in the inline assembly, but the compiler will
  66:build/openmote-cc2538_armgcc/bsp/boards/openmote-cc2538/source/cpu.c ****     // still complain if there is not an explicit return here (despite the fact
  67:build/openmote-cc2538_armgcc/bsp/boards/openmote-cc2538/source/cpu.c ****     // that this does not result in any code being produced because of the
  68:build/openmote-cc2538_armgcc/bsp/boards/openmote-cc2538/source/cpu.c ****     // naked attribute).
  69:build/openmote-cc2538_armgcc/bsp/boards/openmote-cc2538/source/cpu.c ****     //
  70:build/openmote-cc2538_armgcc/bsp/boards/openmote-cc2538/source/cpu.c ****     return(ui32Ret);
  43              		.loc 1 70 0
  44 000a 2346     		mov	r3, r4
  71:build/openmote-cc2538_armgcc/bsp/boards/openmote-cc2538/source/cpu.c **** }
  45              		.loc 1 71 0
  46 000c 1846     		mov	r0, r3
  47              		.cfi_endproc
  48              	.LFE0:
  50 000e 00BF     		.align	2
  51              		.global	CPUprimask
  52              		.thumb
  53              		.thumb_func
  55              	CPUprimask:
  56              	.LFB1:
  72:build/openmote-cc2538_armgcc/bsp/boards/openmote-cc2538/source/cpu.c **** #endif
  73:build/openmote-cc2538_armgcc/bsp/boards/openmote-cc2538/source/cpu.c **** #if (__ICCARM__)
  74:build/openmote-cc2538_armgcc/bsp/boards/openmote-cc2538/source/cpu.c **** uint32_t
  75:build/openmote-cc2538_armgcc/bsp/boards/openmote-cc2538/source/cpu.c **** CPUcpsid(void)
  76:build/openmote-cc2538_armgcc/bsp/boards/openmote-cc2538/source/cpu.c **** {
  77:build/openmote-cc2538_armgcc/bsp/boards/openmote-cc2538/source/cpu.c ****     //
  78:build/openmote-cc2538_armgcc/bsp/boards/openmote-cc2538/source/cpu.c ****     // Read PRIMASK and disable interrupts.
  79:build/openmote-cc2538_armgcc/bsp/boards/openmote-cc2538/source/cpu.c ****     //
  80:build/openmote-cc2538_armgcc/bsp/boards/openmote-cc2538/source/cpu.c ****     __asm("    mrs     r0, PRIMASK\n"
  81:build/openmote-cc2538_armgcc/bsp/boards/openmote-cc2538/source/cpu.c ****           "    cpsid   i\n");
  82:build/openmote-cc2538_armgcc/bsp/boards/openmote-cc2538/source/cpu.c **** 
  83:build/openmote-cc2538_armgcc/bsp/boards/openmote-cc2538/source/cpu.c ****     //
  84:build/openmote-cc2538_armgcc/bsp/boards/openmote-cc2538/source/cpu.c ****     // "Warning[Pe940]: missing return statement at end of non-void function"
  85:build/openmote-cc2538_armgcc/bsp/boards/openmote-cc2538/source/cpu.c ****     // is suppressed here to avoid putting a "bx lr" in the inline assembly
  86:build/openmote-cc2538_armgcc/bsp/boards/openmote-cc2538/source/cpu.c ****     // above and a superfluous return statement here.
  87:build/openmote-cc2538_armgcc/bsp/boards/openmote-cc2538/source/cpu.c ****     //
  88:build/openmote-cc2538_armgcc/bsp/boards/openmote-cc2538/source/cpu.c **** #pragma diag_suppress=Pe940
  89:build/openmote-cc2538_armgcc/bsp/boards/openmote-cc2538/source/cpu.c **** }
  90:build/openmote-cc2538_armgcc/bsp/boards/openmote-cc2538/source/cpu.c **** #pragma diag_default=Pe940
  91:build/openmote-cc2538_armgcc/bsp/boards/openmote-cc2538/source/cpu.c **** #endif
  92:build/openmote-cc2538_armgcc/bsp/boards/openmote-cc2538/source/cpu.c **** #if defined(__KEIL__) || defined(__ARMCC_VERSION)
  93:build/openmote-cc2538_armgcc/bsp/boards/openmote-cc2538/source/cpu.c **** __asm uint32_t
  94:build/openmote-cc2538_armgcc/bsp/boards/openmote-cc2538/source/cpu.c **** CPUcpsid(void)
  95:build/openmote-cc2538_armgcc/bsp/boards/openmote-cc2538/source/cpu.c **** {
  96:build/openmote-cc2538_armgcc/bsp/boards/openmote-cc2538/source/cpu.c ****     //
  97:build/openmote-cc2538_armgcc/bsp/boards/openmote-cc2538/source/cpu.c ****     // Read PRIMASK and disable interrupts.
  98:build/openmote-cc2538_armgcc/bsp/boards/openmote-cc2538/source/cpu.c ****     //
  99:build/openmote-cc2538_armgcc/bsp/boards/openmote-cc2538/source/cpu.c ****     mrs     r0, PRIMASK;
 100:build/openmote-cc2538_armgcc/bsp/boards/openmote-cc2538/source/cpu.c ****     cpsid   i;
 101:build/openmote-cc2538_armgcc/bsp/boards/openmote-cc2538/source/cpu.c ****     bx      lr
 102:build/openmote-cc2538_armgcc/bsp/boards/openmote-cc2538/source/cpu.c **** }
 103:build/openmote-cc2538_armgcc/bsp/boards/openmote-cc2538/source/cpu.c **** #endif
 104:build/openmote-cc2538_armgcc/bsp/boards/openmote-cc2538/source/cpu.c **** #if defined(__TI_COMPILER_VERSION__)
 105:build/openmote-cc2538_armgcc/bsp/boards/openmote-cc2538/source/cpu.c **** uint32_t
 106:build/openmote-cc2538_armgcc/bsp/boards/openmote-cc2538/source/cpu.c **** CPUcpsid(void)
 107:build/openmote-cc2538_armgcc/bsp/boards/openmote-cc2538/source/cpu.c **** {
 108:build/openmote-cc2538_armgcc/bsp/boards/openmote-cc2538/source/cpu.c ****     //
 109:build/openmote-cc2538_armgcc/bsp/boards/openmote-cc2538/source/cpu.c ****     // Read PRIMASK and disable interrupts.
 110:build/openmote-cc2538_armgcc/bsp/boards/openmote-cc2538/source/cpu.c ****     //
 111:build/openmote-cc2538_armgcc/bsp/boards/openmote-cc2538/source/cpu.c ****     __asm("    mrs     r0, PRIMASK\n"
 112:build/openmote-cc2538_armgcc/bsp/boards/openmote-cc2538/source/cpu.c ****           "    cpsid   i\n"
 113:build/openmote-cc2538_armgcc/bsp/boards/openmote-cc2538/source/cpu.c ****           "    bx      lr\n");
 114:build/openmote-cc2538_armgcc/bsp/boards/openmote-cc2538/source/cpu.c **** 
 115:build/openmote-cc2538_armgcc/bsp/boards/openmote-cc2538/source/cpu.c ****     //
 116:build/openmote-cc2538_armgcc/bsp/boards/openmote-cc2538/source/cpu.c ****     // The following keeps the compiler happy, because it wants to see a
 117:build/openmote-cc2538_armgcc/bsp/boards/openmote-cc2538/source/cpu.c ****     // return value from this function.  It will generate code to return
 118:build/openmote-cc2538_armgcc/bsp/boards/openmote-cc2538/source/cpu.c ****     // a zero.  However, the real return is the "bx lr" above, so the
 119:build/openmote-cc2538_armgcc/bsp/boards/openmote-cc2538/source/cpu.c ****     // return(0) is never executed and the function returns with the value
 120:build/openmote-cc2538_armgcc/bsp/boards/openmote-cc2538/source/cpu.c ****     // you expect in R0.
 121:build/openmote-cc2538_armgcc/bsp/boards/openmote-cc2538/source/cpu.c ****     //
 122:build/openmote-cc2538_armgcc/bsp/boards/openmote-cc2538/source/cpu.c ****     return(0);
 123:build/openmote-cc2538_armgcc/bsp/boards/openmote-cc2538/source/cpu.c **** }
 124:build/openmote-cc2538_armgcc/bsp/boards/openmote-cc2538/source/cpu.c **** #endif
 125:build/openmote-cc2538_armgcc/bsp/boards/openmote-cc2538/source/cpu.c **** 
 126:build/openmote-cc2538_armgcc/bsp/boards/openmote-cc2538/source/cpu.c **** //*****************************************************************************
 127:build/openmote-cc2538_armgcc/bsp/boards/openmote-cc2538/source/cpu.c **** //
 128:build/openmote-cc2538_armgcc/bsp/boards/openmote-cc2538/source/cpu.c **** // Wrapper function returning the state of PRIMASK (indicating whether
 129:build/openmote-cc2538_armgcc/bsp/boards/openmote-cc2538/source/cpu.c **** // interrupts are enabled or disabled).
 130:build/openmote-cc2538_armgcc/bsp/boards/openmote-cc2538/source/cpu.c **** //
 131:build/openmote-cc2538_armgcc/bsp/boards/openmote-cc2538/source/cpu.c **** //*****************************************************************************
 132:build/openmote-cc2538_armgcc/bsp/boards/openmote-cc2538/source/cpu.c **** #if defined(__GNUC__)
 133:build/openmote-cc2538_armgcc/bsp/boards/openmote-cc2538/source/cpu.c **** uint32_t __attribute__((naked))
 134:build/openmote-cc2538_armgcc/bsp/boards/openmote-cc2538/source/cpu.c **** CPUprimask(void)
 135:build/openmote-cc2538_armgcc/bsp/boards/openmote-cc2538/source/cpu.c **** {
  57              		.loc 1 135 0
  58              		.cfi_startproc
  59              		@ Naked Function: prologue and epilogue provided by programmer.
  60              		@ args = 0, pretend = 0, frame = 0
  61              		@ frame_needed = 1, uses_anonymous_args = 0
 136:build/openmote-cc2538_armgcc/bsp/boards/openmote-cc2538/source/cpu.c ****     uint32_t ui32Ret;
 137:build/openmote-cc2538_armgcc/bsp/boards/openmote-cc2538/source/cpu.c **** 
 138:build/openmote-cc2538_armgcc/bsp/boards/openmote-cc2538/source/cpu.c ****     //
 139:build/openmote-cc2538_armgcc/bsp/boards/openmote-cc2538/source/cpu.c ****     // Read PRIMASK and disable interrupts.
 140:build/openmote-cc2538_armgcc/bsp/boards/openmote-cc2538/source/cpu.c ****     //
 141:build/openmote-cc2538_armgcc/bsp/boards/openmote-cc2538/source/cpu.c ****     __asm("    mrs     r0, PRIMASK\n"
  62              		.loc 1 141 0
  63              		.syntax unified
  64              	@ 141 "build/openmote-cc2538_armgcc/bsp/boards/openmote-cc2538/source/cpu.c" 1
  65 0010 EFF31080 		    mrs     r0, PRIMASK
  66 0014 7047     	    bx      lr
  67              	
  68              	@ 0 "" 2
  69              		.thumb
  70              		.syntax unified
  71 0016 1C46     		mov	r4, r3
 142:build/openmote-cc2538_armgcc/bsp/boards/openmote-cc2538/source/cpu.c ****           "    bx      lr\n"
 143:build/openmote-cc2538_armgcc/bsp/boards/openmote-cc2538/source/cpu.c ****           : "=r" (ui32Ret));
 144:build/openmote-cc2538_armgcc/bsp/boards/openmote-cc2538/source/cpu.c **** 
 145:build/openmote-cc2538_armgcc/bsp/boards/openmote-cc2538/source/cpu.c ****     //
 146:build/openmote-cc2538_armgcc/bsp/boards/openmote-cc2538/source/cpu.c ****     // The return is handled in the inline assembly, but the compiler will
 147:build/openmote-cc2538_armgcc/bsp/boards/openmote-cc2538/source/cpu.c ****     // still complain if there is not an explicit return here (despite the fact
 148:build/openmote-cc2538_armgcc/bsp/boards/openmote-cc2538/source/cpu.c ****     // that this does not result in any code being produced because of the
 149:build/openmote-cc2538_armgcc/bsp/boards/openmote-cc2538/source/cpu.c ****     // naked attribute).
 150:build/openmote-cc2538_armgcc/bsp/boards/openmote-cc2538/source/cpu.c ****     //
 151:build/openmote-cc2538_armgcc/bsp/boards/openmote-cc2538/source/cpu.c ****     return(ui32Ret);
  72              		.loc 1 151 0
  73 0018 2346     		mov	r3, r4
 152:build/openmote-cc2538_armgcc/bsp/boards/openmote-cc2538/source/cpu.c **** }
  74              		.loc 1 152 0
  75 001a 1846     		mov	r0, r3
  76              		.cfi_endproc
  77              	.LFE1:
  79              		.align	2
  80              		.global	CPUcpsie
  81              		.thumb
  82              		.thumb_func
  84              	CPUcpsie:
  85              	.LFB2:
 153:build/openmote-cc2538_armgcc/bsp/boards/openmote-cc2538/source/cpu.c **** #endif
 154:build/openmote-cc2538_armgcc/bsp/boards/openmote-cc2538/source/cpu.c **** #if (__ICCARM__)
 155:build/openmote-cc2538_armgcc/bsp/boards/openmote-cc2538/source/cpu.c **** uint32_t
 156:build/openmote-cc2538_armgcc/bsp/boards/openmote-cc2538/source/cpu.c **** CPUprimask(void)
 157:build/openmote-cc2538_armgcc/bsp/boards/openmote-cc2538/source/cpu.c **** {
 158:build/openmote-cc2538_armgcc/bsp/boards/openmote-cc2538/source/cpu.c ****     //
 159:build/openmote-cc2538_armgcc/bsp/boards/openmote-cc2538/source/cpu.c ****     // Read PRIMASK and disable interrupts.
 160:build/openmote-cc2538_armgcc/bsp/boards/openmote-cc2538/source/cpu.c ****     //
 161:build/openmote-cc2538_armgcc/bsp/boards/openmote-cc2538/source/cpu.c ****     __asm("    mrs     r0, PRIMASK\n");
 162:build/openmote-cc2538_armgcc/bsp/boards/openmote-cc2538/source/cpu.c **** 
 163:build/openmote-cc2538_armgcc/bsp/boards/openmote-cc2538/source/cpu.c ****     //
 164:build/openmote-cc2538_armgcc/bsp/boards/openmote-cc2538/source/cpu.c ****     // "Warning[Pe940]: missing return statement at end of non-void function"
 165:build/openmote-cc2538_armgcc/bsp/boards/openmote-cc2538/source/cpu.c ****     // is suppressed here to avoid putting a "bx lr" in the inline assembly
 166:build/openmote-cc2538_armgcc/bsp/boards/openmote-cc2538/source/cpu.c ****     // above and a superfluous return statement here.
 167:build/openmote-cc2538_armgcc/bsp/boards/openmote-cc2538/source/cpu.c ****     //
 168:build/openmote-cc2538_armgcc/bsp/boards/openmote-cc2538/source/cpu.c **** #pragma diag_suppress=Pe940
 169:build/openmote-cc2538_armgcc/bsp/boards/openmote-cc2538/source/cpu.c **** }
 170:build/openmote-cc2538_armgcc/bsp/boards/openmote-cc2538/source/cpu.c **** #pragma diag_default=Pe940
 171:build/openmote-cc2538_armgcc/bsp/boards/openmote-cc2538/source/cpu.c **** #endif
 172:build/openmote-cc2538_armgcc/bsp/boards/openmote-cc2538/source/cpu.c **** #if defined(__KEIL__) || defined(__ARMCC_VERSION)
 173:build/openmote-cc2538_armgcc/bsp/boards/openmote-cc2538/source/cpu.c **** __asm uint32_t
 174:build/openmote-cc2538_armgcc/bsp/boards/openmote-cc2538/source/cpu.c **** CPUprimask(void)
 175:build/openmote-cc2538_armgcc/bsp/boards/openmote-cc2538/source/cpu.c **** {
 176:build/openmote-cc2538_armgcc/bsp/boards/openmote-cc2538/source/cpu.c ****     //
 177:build/openmote-cc2538_armgcc/bsp/boards/openmote-cc2538/source/cpu.c ****     // Read PRIMASK and disable interrupts.
 178:build/openmote-cc2538_armgcc/bsp/boards/openmote-cc2538/source/cpu.c ****     //
 179:build/openmote-cc2538_armgcc/bsp/boards/openmote-cc2538/source/cpu.c ****     mrs     r0, PRIMASK;
 180:build/openmote-cc2538_armgcc/bsp/boards/openmote-cc2538/source/cpu.c ****     bx      lr
 181:build/openmote-cc2538_armgcc/bsp/boards/openmote-cc2538/source/cpu.c **** }
 182:build/openmote-cc2538_armgcc/bsp/boards/openmote-cc2538/source/cpu.c **** #endif
 183:build/openmote-cc2538_armgcc/bsp/boards/openmote-cc2538/source/cpu.c **** #if defined(__TI_COMPILER_VERSION__)
 184:build/openmote-cc2538_armgcc/bsp/boards/openmote-cc2538/source/cpu.c **** uint32_t
 185:build/openmote-cc2538_armgcc/bsp/boards/openmote-cc2538/source/cpu.c **** CPUprimask(void)
 186:build/openmote-cc2538_armgcc/bsp/boards/openmote-cc2538/source/cpu.c **** {
 187:build/openmote-cc2538_armgcc/bsp/boards/openmote-cc2538/source/cpu.c ****     //
 188:build/openmote-cc2538_armgcc/bsp/boards/openmote-cc2538/source/cpu.c ****     // Read PRIMASK and disable interrupts.
 189:build/openmote-cc2538_armgcc/bsp/boards/openmote-cc2538/source/cpu.c ****     //
 190:build/openmote-cc2538_armgcc/bsp/boards/openmote-cc2538/source/cpu.c ****     __asm("    mrs     r0, PRIMASK\n"
 191:build/openmote-cc2538_armgcc/bsp/boards/openmote-cc2538/source/cpu.c ****           "    bx      lr\n");
 192:build/openmote-cc2538_armgcc/bsp/boards/openmote-cc2538/source/cpu.c **** 
 193:build/openmote-cc2538_armgcc/bsp/boards/openmote-cc2538/source/cpu.c ****     //
 194:build/openmote-cc2538_armgcc/bsp/boards/openmote-cc2538/source/cpu.c ****     // The following keeps the compiler happy, because it wants to see a
 195:build/openmote-cc2538_armgcc/bsp/boards/openmote-cc2538/source/cpu.c ****     // return value from this function.  It will generate code to return
 196:build/openmote-cc2538_armgcc/bsp/boards/openmote-cc2538/source/cpu.c ****     // a zero.  However, the real return is the "bx lr" above, so the
 197:build/openmote-cc2538_armgcc/bsp/boards/openmote-cc2538/source/cpu.c ****     // return(0) is never executed and the function returns with the value
 198:build/openmote-cc2538_armgcc/bsp/boards/openmote-cc2538/source/cpu.c ****     // you expect in R0.
 199:build/openmote-cc2538_armgcc/bsp/boards/openmote-cc2538/source/cpu.c ****     //
 200:build/openmote-cc2538_armgcc/bsp/boards/openmote-cc2538/source/cpu.c ****     return(0);
 201:build/openmote-cc2538_armgcc/bsp/boards/openmote-cc2538/source/cpu.c **** }
 202:build/openmote-cc2538_armgcc/bsp/boards/openmote-cc2538/source/cpu.c **** #endif
 203:build/openmote-cc2538_armgcc/bsp/boards/openmote-cc2538/source/cpu.c **** 
 204:build/openmote-cc2538_armgcc/bsp/boards/openmote-cc2538/source/cpu.c **** //*****************************************************************************
 205:build/openmote-cc2538_armgcc/bsp/boards/openmote-cc2538/source/cpu.c **** //
 206:build/openmote-cc2538_armgcc/bsp/boards/openmote-cc2538/source/cpu.c **** // Wrapper function for the CPSIE instruction.  Returns the state of PRIMASK
 207:build/openmote-cc2538_armgcc/bsp/boards/openmote-cc2538/source/cpu.c **** // on entry.
 208:build/openmote-cc2538_armgcc/bsp/boards/openmote-cc2538/source/cpu.c **** //
 209:build/openmote-cc2538_armgcc/bsp/boards/openmote-cc2538/source/cpu.c **** //*****************************************************************************
 210:build/openmote-cc2538_armgcc/bsp/boards/openmote-cc2538/source/cpu.c **** #if defined(__GNUC__)
 211:build/openmote-cc2538_armgcc/bsp/boards/openmote-cc2538/source/cpu.c **** uint32_t __attribute__((naked))
 212:build/openmote-cc2538_armgcc/bsp/boards/openmote-cc2538/source/cpu.c **** CPUcpsie(void)
 213:build/openmote-cc2538_armgcc/bsp/boards/openmote-cc2538/source/cpu.c **** {
  86              		.loc 1 213 0
  87              		.cfi_startproc
  88              		@ Naked Function: prologue and epilogue provided by programmer.
  89              		@ args = 0, pretend = 0, frame = 0
  90              		@ frame_needed = 1, uses_anonymous_args = 0
 214:build/openmote-cc2538_armgcc/bsp/boards/openmote-cc2538/source/cpu.c ****     uint32_t ui32Ret;
 215:build/openmote-cc2538_armgcc/bsp/boards/openmote-cc2538/source/cpu.c **** 
 216:build/openmote-cc2538_armgcc/bsp/boards/openmote-cc2538/source/cpu.c ****     //
 217:build/openmote-cc2538_armgcc/bsp/boards/openmote-cc2538/source/cpu.c ****     // Read PRIMASK and enable interrupts.
 218:build/openmote-cc2538_armgcc/bsp/boards/openmote-cc2538/source/cpu.c ****     //
 219:build/openmote-cc2538_armgcc/bsp/boards/openmote-cc2538/source/cpu.c ****     __asm("    mrs     r0, PRIMASK\n"
  91              		.loc 1 219 0
  92              		.syntax unified
  93              	@ 219 "build/openmote-cc2538_armgcc/bsp/boards/openmote-cc2538/source/cpu.c" 1
  94 001c EFF31080 		    mrs     r0, PRIMASK
  95 0020 62B6     	    cpsie   i
  96 0022 7047     	    bx      lr
  97              	
  98              	@ 0 "" 2
  99              		.thumb
 100              		.syntax unified
 101 0024 1C46     		mov	r4, r3
 220:build/openmote-cc2538_armgcc/bsp/boards/openmote-cc2538/source/cpu.c ****           "    cpsie   i\n"
 221:build/openmote-cc2538_armgcc/bsp/boards/openmote-cc2538/source/cpu.c ****           "    bx      lr\n"
 222:build/openmote-cc2538_armgcc/bsp/boards/openmote-cc2538/source/cpu.c ****           : "=r" (ui32Ret));
 223:build/openmote-cc2538_armgcc/bsp/boards/openmote-cc2538/source/cpu.c **** 
 224:build/openmote-cc2538_armgcc/bsp/boards/openmote-cc2538/source/cpu.c ****     //
 225:build/openmote-cc2538_armgcc/bsp/boards/openmote-cc2538/source/cpu.c ****     // The return is handled in the inline assembly, but the compiler will
 226:build/openmote-cc2538_armgcc/bsp/boards/openmote-cc2538/source/cpu.c ****     // still complain if there is not an explicit return here (despite the fact
 227:build/openmote-cc2538_armgcc/bsp/boards/openmote-cc2538/source/cpu.c ****     // that this does not result in any code being produced because of the
 228:build/openmote-cc2538_armgcc/bsp/boards/openmote-cc2538/source/cpu.c ****     // naked attribute).
 229:build/openmote-cc2538_armgcc/bsp/boards/openmote-cc2538/source/cpu.c ****     //
 230:build/openmote-cc2538_armgcc/bsp/boards/openmote-cc2538/source/cpu.c ****     return(ui32Ret);
 102              		.loc 1 230 0
 103 0026 2346     		mov	r3, r4
 231:build/openmote-cc2538_armgcc/bsp/boards/openmote-cc2538/source/cpu.c **** }
 104              		.loc 1 231 0
 105 0028 1846     		mov	r0, r3
 106              		.cfi_endproc
 107              	.LFE2:
 109 002a 00BF     		.align	2
 110              		.global	CPUwfi
 111              		.thumb
 112              		.thumb_func
 114              	CPUwfi:
 115              	.LFB3:
 232:build/openmote-cc2538_armgcc/bsp/boards/openmote-cc2538/source/cpu.c **** #endif
 233:build/openmote-cc2538_armgcc/bsp/boards/openmote-cc2538/source/cpu.c **** #if (__ICCARM__)
 234:build/openmote-cc2538_armgcc/bsp/boards/openmote-cc2538/source/cpu.c **** uint32_t
 235:build/openmote-cc2538_armgcc/bsp/boards/openmote-cc2538/source/cpu.c **** CPUcpsie(void)
 236:build/openmote-cc2538_armgcc/bsp/boards/openmote-cc2538/source/cpu.c **** {
 237:build/openmote-cc2538_armgcc/bsp/boards/openmote-cc2538/source/cpu.c ****     //
 238:build/openmote-cc2538_armgcc/bsp/boards/openmote-cc2538/source/cpu.c ****     // Read PRIMASK and enable interrupts.
 239:build/openmote-cc2538_armgcc/bsp/boards/openmote-cc2538/source/cpu.c ****     //
 240:build/openmote-cc2538_armgcc/bsp/boards/openmote-cc2538/source/cpu.c ****     __asm("    mrs     r0, PRIMASK\n"
 241:build/openmote-cc2538_armgcc/bsp/boards/openmote-cc2538/source/cpu.c ****           "    cpsie   i\n");
 242:build/openmote-cc2538_armgcc/bsp/boards/openmote-cc2538/source/cpu.c **** 
 243:build/openmote-cc2538_armgcc/bsp/boards/openmote-cc2538/source/cpu.c ****     //
 244:build/openmote-cc2538_armgcc/bsp/boards/openmote-cc2538/source/cpu.c ****     // "Warning[Pe940]: missing return statement at end of non-void function"
 245:build/openmote-cc2538_armgcc/bsp/boards/openmote-cc2538/source/cpu.c ****     // is suppressed here to avoid putting a "bx lr" in the inline assembly
 246:build/openmote-cc2538_armgcc/bsp/boards/openmote-cc2538/source/cpu.c ****     // above and a superfluous return statement here.
 247:build/openmote-cc2538_armgcc/bsp/boards/openmote-cc2538/source/cpu.c ****     //
 248:build/openmote-cc2538_armgcc/bsp/boards/openmote-cc2538/source/cpu.c **** #pragma diag_suppress=Pe940
 249:build/openmote-cc2538_armgcc/bsp/boards/openmote-cc2538/source/cpu.c **** }
 250:build/openmote-cc2538_armgcc/bsp/boards/openmote-cc2538/source/cpu.c **** #pragma diag_default=Pe940
 251:build/openmote-cc2538_armgcc/bsp/boards/openmote-cc2538/source/cpu.c **** #endif
 252:build/openmote-cc2538_armgcc/bsp/boards/openmote-cc2538/source/cpu.c **** #if defined(__KEIL__) || defined(__ARMCC_VERSION)
 253:build/openmote-cc2538_armgcc/bsp/boards/openmote-cc2538/source/cpu.c **** __asm uint32_t
 254:build/openmote-cc2538_armgcc/bsp/boards/openmote-cc2538/source/cpu.c **** CPUcpsie(void)
 255:build/openmote-cc2538_armgcc/bsp/boards/openmote-cc2538/source/cpu.c **** {
 256:build/openmote-cc2538_armgcc/bsp/boards/openmote-cc2538/source/cpu.c ****     //
 257:build/openmote-cc2538_armgcc/bsp/boards/openmote-cc2538/source/cpu.c ****     // Read PRIMASK and enable interrupts.
 258:build/openmote-cc2538_armgcc/bsp/boards/openmote-cc2538/source/cpu.c ****     //
 259:build/openmote-cc2538_armgcc/bsp/boards/openmote-cc2538/source/cpu.c ****     mrs     r0, PRIMASK;
 260:build/openmote-cc2538_armgcc/bsp/boards/openmote-cc2538/source/cpu.c ****     cpsie   i;
 261:build/openmote-cc2538_armgcc/bsp/boards/openmote-cc2538/source/cpu.c ****     bx      lr
 262:build/openmote-cc2538_armgcc/bsp/boards/openmote-cc2538/source/cpu.c **** }
 263:build/openmote-cc2538_armgcc/bsp/boards/openmote-cc2538/source/cpu.c **** #endif
 264:build/openmote-cc2538_armgcc/bsp/boards/openmote-cc2538/source/cpu.c **** #if defined(__TI_COMPILER_VERSION__)
 265:build/openmote-cc2538_armgcc/bsp/boards/openmote-cc2538/source/cpu.c **** uint32_t
 266:build/openmote-cc2538_armgcc/bsp/boards/openmote-cc2538/source/cpu.c **** CPUcpsie(void)
 267:build/openmote-cc2538_armgcc/bsp/boards/openmote-cc2538/source/cpu.c **** {
 268:build/openmote-cc2538_armgcc/bsp/boards/openmote-cc2538/source/cpu.c ****     //
 269:build/openmote-cc2538_armgcc/bsp/boards/openmote-cc2538/source/cpu.c ****     // Read PRIMASK and enable interrupts.
 270:build/openmote-cc2538_armgcc/bsp/boards/openmote-cc2538/source/cpu.c ****     //
 271:build/openmote-cc2538_armgcc/bsp/boards/openmote-cc2538/source/cpu.c ****     __asm("    mrs     r0, PRIMASK\n"
 272:build/openmote-cc2538_armgcc/bsp/boards/openmote-cc2538/source/cpu.c ****           "    cpsie   i\n"
 273:build/openmote-cc2538_armgcc/bsp/boards/openmote-cc2538/source/cpu.c ****           "    bx      lr\n");
 274:build/openmote-cc2538_armgcc/bsp/boards/openmote-cc2538/source/cpu.c **** 
 275:build/openmote-cc2538_armgcc/bsp/boards/openmote-cc2538/source/cpu.c ****     //
 276:build/openmote-cc2538_armgcc/bsp/boards/openmote-cc2538/source/cpu.c ****     // The following keeps the compiler happy, because it wants to see a
 277:build/openmote-cc2538_armgcc/bsp/boards/openmote-cc2538/source/cpu.c ****     // return value from this function.  It will generate code to return
 278:build/openmote-cc2538_armgcc/bsp/boards/openmote-cc2538/source/cpu.c ****     // a zero.  However, the real return is the "bx lr" above, so the
 279:build/openmote-cc2538_armgcc/bsp/boards/openmote-cc2538/source/cpu.c ****     // return(0) is never executed and the function returns with the value
 280:build/openmote-cc2538_armgcc/bsp/boards/openmote-cc2538/source/cpu.c ****     // you expect in R0.
 281:build/openmote-cc2538_armgcc/bsp/boards/openmote-cc2538/source/cpu.c ****     //
 282:build/openmote-cc2538_armgcc/bsp/boards/openmote-cc2538/source/cpu.c ****     return(0);
 283:build/openmote-cc2538_armgcc/bsp/boards/openmote-cc2538/source/cpu.c **** }
 284:build/openmote-cc2538_armgcc/bsp/boards/openmote-cc2538/source/cpu.c **** #endif
 285:build/openmote-cc2538_armgcc/bsp/boards/openmote-cc2538/source/cpu.c **** 
 286:build/openmote-cc2538_armgcc/bsp/boards/openmote-cc2538/source/cpu.c **** //*****************************************************************************
 287:build/openmote-cc2538_armgcc/bsp/boards/openmote-cc2538/source/cpu.c **** //
 288:build/openmote-cc2538_armgcc/bsp/boards/openmote-cc2538/source/cpu.c **** // Wrapper function for the WFI instruction.
 289:build/openmote-cc2538_armgcc/bsp/boards/openmote-cc2538/source/cpu.c **** //
 290:build/openmote-cc2538_armgcc/bsp/boards/openmote-cc2538/source/cpu.c **** //*****************************************************************************
 291:build/openmote-cc2538_armgcc/bsp/boards/openmote-cc2538/source/cpu.c **** #if defined(__GNUC__)
 292:build/openmote-cc2538_armgcc/bsp/boards/openmote-cc2538/source/cpu.c **** void __attribute__((naked))
 293:build/openmote-cc2538_armgcc/bsp/boards/openmote-cc2538/source/cpu.c **** CPUwfi(void)
 294:build/openmote-cc2538_armgcc/bsp/boards/openmote-cc2538/source/cpu.c **** {
 116              		.loc 1 294 0
 117              		.cfi_startproc
 118              		@ Naked Function: prologue and epilogue provided by programmer.
 119              		@ args = 0, pretend = 0, frame = 0
 120              		@ frame_needed = 1, uses_anonymous_args = 0
 295:build/openmote-cc2538_armgcc/bsp/boards/openmote-cc2538/source/cpu.c ****     //
 296:build/openmote-cc2538_armgcc/bsp/boards/openmote-cc2538/source/cpu.c ****     // Wait for the next interrupt.
 297:build/openmote-cc2538_armgcc/bsp/boards/openmote-cc2538/source/cpu.c ****     //
 298:build/openmote-cc2538_armgcc/bsp/boards/openmote-cc2538/source/cpu.c ****     __asm("    wfi\n"
 121              		.loc 1 298 0
 122              		.syntax unified
 123              	@ 298 "build/openmote-cc2538_armgcc/bsp/boards/openmote-cc2538/source/cpu.c" 1
 124 002c 30BF     		    wfi
 125 002e 7047     	    bx      lr
 126              	
 127              	@ 0 "" 2
 299:build/openmote-cc2538_armgcc/bsp/boards/openmote-cc2538/source/cpu.c ****           "    bx      lr\n");
 300:build/openmote-cc2538_armgcc/bsp/boards/openmote-cc2538/source/cpu.c **** }
 128              		.loc 1 300 0
 129              		.thumb
 130              		.syntax unified
 131 0030 00BF     		nop
 132              		.cfi_endproc
 133              	.LFE3:
 135 0032 00BF     		.align	2
 136              		.global	CPUwfe
 137              		.thumb
 138              		.thumb_func
 140              	CPUwfe:
 141              	.LFB4:
 301:build/openmote-cc2538_armgcc/bsp/boards/openmote-cc2538/source/cpu.c **** #endif
 302:build/openmote-cc2538_armgcc/bsp/boards/openmote-cc2538/source/cpu.c **** #if (__ICCARM__)
 303:build/openmote-cc2538_armgcc/bsp/boards/openmote-cc2538/source/cpu.c **** void
 304:build/openmote-cc2538_armgcc/bsp/boards/openmote-cc2538/source/cpu.c **** CPUwfi(void)
 305:build/openmote-cc2538_armgcc/bsp/boards/openmote-cc2538/source/cpu.c **** {
 306:build/openmote-cc2538_armgcc/bsp/boards/openmote-cc2538/source/cpu.c ****     //
 307:build/openmote-cc2538_armgcc/bsp/boards/openmote-cc2538/source/cpu.c ****     // Wait for the next interrupt.
 308:build/openmote-cc2538_armgcc/bsp/boards/openmote-cc2538/source/cpu.c ****     //
 309:build/openmote-cc2538_armgcc/bsp/boards/openmote-cc2538/source/cpu.c ****     __asm("    wfi\n");
 310:build/openmote-cc2538_armgcc/bsp/boards/openmote-cc2538/source/cpu.c **** }
 311:build/openmote-cc2538_armgcc/bsp/boards/openmote-cc2538/source/cpu.c **** #endif
 312:build/openmote-cc2538_armgcc/bsp/boards/openmote-cc2538/source/cpu.c **** #if defined(__KEIL__) || defined(__ARMCC_VERSION)
 313:build/openmote-cc2538_armgcc/bsp/boards/openmote-cc2538/source/cpu.c **** __asm void
 314:build/openmote-cc2538_armgcc/bsp/boards/openmote-cc2538/source/cpu.c **** CPUwfi(void)
 315:build/openmote-cc2538_armgcc/bsp/boards/openmote-cc2538/source/cpu.c **** {
 316:build/openmote-cc2538_armgcc/bsp/boards/openmote-cc2538/source/cpu.c ****     //
 317:build/openmote-cc2538_armgcc/bsp/boards/openmote-cc2538/source/cpu.c ****     // Wait for the next interrupt.
 318:build/openmote-cc2538_armgcc/bsp/boards/openmote-cc2538/source/cpu.c ****     //
 319:build/openmote-cc2538_armgcc/bsp/boards/openmote-cc2538/source/cpu.c ****     wfi;
 320:build/openmote-cc2538_armgcc/bsp/boards/openmote-cc2538/source/cpu.c ****     bx      lr
 321:build/openmote-cc2538_armgcc/bsp/boards/openmote-cc2538/source/cpu.c **** }
 322:build/openmote-cc2538_armgcc/bsp/boards/openmote-cc2538/source/cpu.c **** #endif
 323:build/openmote-cc2538_armgcc/bsp/boards/openmote-cc2538/source/cpu.c **** #if defined(__TI_COMPILER_VERSION__)
 324:build/openmote-cc2538_armgcc/bsp/boards/openmote-cc2538/source/cpu.c **** void
 325:build/openmote-cc2538_armgcc/bsp/boards/openmote-cc2538/source/cpu.c **** CPUwfi(void)
 326:build/openmote-cc2538_armgcc/bsp/boards/openmote-cc2538/source/cpu.c **** {
 327:build/openmote-cc2538_armgcc/bsp/boards/openmote-cc2538/source/cpu.c ****     //
 328:build/openmote-cc2538_armgcc/bsp/boards/openmote-cc2538/source/cpu.c ****     // Wait for the next interrupt.
 329:build/openmote-cc2538_armgcc/bsp/boards/openmote-cc2538/source/cpu.c ****     //
 330:build/openmote-cc2538_armgcc/bsp/boards/openmote-cc2538/source/cpu.c ****     __asm("    wfi\n");
 331:build/openmote-cc2538_armgcc/bsp/boards/openmote-cc2538/source/cpu.c **** }
 332:build/openmote-cc2538_armgcc/bsp/boards/openmote-cc2538/source/cpu.c **** #endif
 333:build/openmote-cc2538_armgcc/bsp/boards/openmote-cc2538/source/cpu.c **** 
 334:build/openmote-cc2538_armgcc/bsp/boards/openmote-cc2538/source/cpu.c **** //*****************************************************************************
 335:build/openmote-cc2538_armgcc/bsp/boards/openmote-cc2538/source/cpu.c **** //
 336:build/openmote-cc2538_armgcc/bsp/boards/openmote-cc2538/source/cpu.c **** // Wrapper function for the WFE instruction.
 337:build/openmote-cc2538_armgcc/bsp/boards/openmote-cc2538/source/cpu.c **** //
 338:build/openmote-cc2538_armgcc/bsp/boards/openmote-cc2538/source/cpu.c **** //*****************************************************************************
 339:build/openmote-cc2538_armgcc/bsp/boards/openmote-cc2538/source/cpu.c **** #if defined(__GNUC__)
 340:build/openmote-cc2538_armgcc/bsp/boards/openmote-cc2538/source/cpu.c **** void __attribute__((naked))
 341:build/openmote-cc2538_armgcc/bsp/boards/openmote-cc2538/source/cpu.c **** CPUwfe(void)
 342:build/openmote-cc2538_armgcc/bsp/boards/openmote-cc2538/source/cpu.c **** {
 142              		.loc 1 342 0
 143              		.cfi_startproc
 144              		@ Naked Function: prologue and epilogue provided by programmer.
 145              		@ args = 0, pretend = 0, frame = 0
 146              		@ frame_needed = 1, uses_anonymous_args = 0
 343:build/openmote-cc2538_armgcc/bsp/boards/openmote-cc2538/source/cpu.c ****     //
 344:build/openmote-cc2538_armgcc/bsp/boards/openmote-cc2538/source/cpu.c ****     // Wait for the next event
 345:build/openmote-cc2538_armgcc/bsp/boards/openmote-cc2538/source/cpu.c ****     //
 346:build/openmote-cc2538_armgcc/bsp/boards/openmote-cc2538/source/cpu.c ****     __asm("    wfe\n"
 147              		.loc 1 346 0
 148              		.syntax unified
 149              	@ 346 "build/openmote-cc2538_armgcc/bsp/boards/openmote-cc2538/source/cpu.c" 1
 150 0034 20BF     		    wfe
 151 0036 7047     	    bx      lr
 152              	
 153              	@ 0 "" 2
 347:build/openmote-cc2538_armgcc/bsp/boards/openmote-cc2538/source/cpu.c ****           "    bx      lr\n");
 348:build/openmote-cc2538_armgcc/bsp/boards/openmote-cc2538/source/cpu.c **** }
 154              		.loc 1 348 0
 155              		.thumb
 156              		.syntax unified
 157 0038 00BF     		nop
 158              		.cfi_endproc
 159              	.LFE4:
 161 003a 00BF     		.align	2
 162              		.global	CPUsev
 163              		.thumb
 164              		.thumb_func
 166              	CPUsev:
 167              	.LFB5:
 349:build/openmote-cc2538_armgcc/bsp/boards/openmote-cc2538/source/cpu.c **** #endif
 350:build/openmote-cc2538_armgcc/bsp/boards/openmote-cc2538/source/cpu.c **** #if (__ICCARM__)
 351:build/openmote-cc2538_armgcc/bsp/boards/openmote-cc2538/source/cpu.c **** void
 352:build/openmote-cc2538_armgcc/bsp/boards/openmote-cc2538/source/cpu.c **** CPUwfe(void)
 353:build/openmote-cc2538_armgcc/bsp/boards/openmote-cc2538/source/cpu.c **** {
 354:build/openmote-cc2538_armgcc/bsp/boards/openmote-cc2538/source/cpu.c ****     //
 355:build/openmote-cc2538_armgcc/bsp/boards/openmote-cc2538/source/cpu.c ****     // Wait for the next event
 356:build/openmote-cc2538_armgcc/bsp/boards/openmote-cc2538/source/cpu.c ****     //
 357:build/openmote-cc2538_armgcc/bsp/boards/openmote-cc2538/source/cpu.c ****     __asm("    wfe\n");
 358:build/openmote-cc2538_armgcc/bsp/boards/openmote-cc2538/source/cpu.c **** }
 359:build/openmote-cc2538_armgcc/bsp/boards/openmote-cc2538/source/cpu.c **** #endif
 360:build/openmote-cc2538_armgcc/bsp/boards/openmote-cc2538/source/cpu.c **** #if defined(__KEIL__) || defined(__ARMCC_VERSION)
 361:build/openmote-cc2538_armgcc/bsp/boards/openmote-cc2538/source/cpu.c **** __asm void
 362:build/openmote-cc2538_armgcc/bsp/boards/openmote-cc2538/source/cpu.c **** CPUwfe(void)
 363:build/openmote-cc2538_armgcc/bsp/boards/openmote-cc2538/source/cpu.c **** {
 364:build/openmote-cc2538_armgcc/bsp/boards/openmote-cc2538/source/cpu.c ****     //
 365:build/openmote-cc2538_armgcc/bsp/boards/openmote-cc2538/source/cpu.c ****     // Wait for the next event
 366:build/openmote-cc2538_armgcc/bsp/boards/openmote-cc2538/source/cpu.c ****     //
 367:build/openmote-cc2538_armgcc/bsp/boards/openmote-cc2538/source/cpu.c ****     wfe;
 368:build/openmote-cc2538_armgcc/bsp/boards/openmote-cc2538/source/cpu.c ****     bx      lr
 369:build/openmote-cc2538_armgcc/bsp/boards/openmote-cc2538/source/cpu.c **** }
 370:build/openmote-cc2538_armgcc/bsp/boards/openmote-cc2538/source/cpu.c **** #endif
 371:build/openmote-cc2538_armgcc/bsp/boards/openmote-cc2538/source/cpu.c **** #if defined(__TI_COMPILER_VERSION__)
 372:build/openmote-cc2538_armgcc/bsp/boards/openmote-cc2538/source/cpu.c **** void
 373:build/openmote-cc2538_armgcc/bsp/boards/openmote-cc2538/source/cpu.c **** CPUwfe(void)
 374:build/openmote-cc2538_armgcc/bsp/boards/openmote-cc2538/source/cpu.c **** {
 375:build/openmote-cc2538_armgcc/bsp/boards/openmote-cc2538/source/cpu.c ****     //
 376:build/openmote-cc2538_armgcc/bsp/boards/openmote-cc2538/source/cpu.c ****     // Wait for the next event
 377:build/openmote-cc2538_armgcc/bsp/boards/openmote-cc2538/source/cpu.c ****     //
 378:build/openmote-cc2538_armgcc/bsp/boards/openmote-cc2538/source/cpu.c ****     __asm("    wfe\n");
 379:build/openmote-cc2538_armgcc/bsp/boards/openmote-cc2538/source/cpu.c **** }
 380:build/openmote-cc2538_armgcc/bsp/boards/openmote-cc2538/source/cpu.c **** #endif
 381:build/openmote-cc2538_armgcc/bsp/boards/openmote-cc2538/source/cpu.c **** 
 382:build/openmote-cc2538_armgcc/bsp/boards/openmote-cc2538/source/cpu.c **** //*****************************************************************************
 383:build/openmote-cc2538_armgcc/bsp/boards/openmote-cc2538/source/cpu.c **** //
 384:build/openmote-cc2538_armgcc/bsp/boards/openmote-cc2538/source/cpu.c **** // Wrapper function for the SEV instruction (Send event).
 385:build/openmote-cc2538_armgcc/bsp/boards/openmote-cc2538/source/cpu.c **** //
 386:build/openmote-cc2538_armgcc/bsp/boards/openmote-cc2538/source/cpu.c **** //*****************************************************************************
 387:build/openmote-cc2538_armgcc/bsp/boards/openmote-cc2538/source/cpu.c **** #if defined(__GNUC__)
 388:build/openmote-cc2538_armgcc/bsp/boards/openmote-cc2538/source/cpu.c **** void __attribute__((naked))
 389:build/openmote-cc2538_armgcc/bsp/boards/openmote-cc2538/source/cpu.c **** CPUsev(void)
 390:build/openmote-cc2538_armgcc/bsp/boards/openmote-cc2538/source/cpu.c **** {
 168              		.loc 1 390 0
 169              		.cfi_startproc
 170              		@ Naked Function: prologue and epilogue provided by programmer.
 171              		@ args = 0, pretend = 0, frame = 0
 172              		@ frame_needed = 1, uses_anonymous_args = 0
 391:build/openmote-cc2538_armgcc/bsp/boards/openmote-cc2538/source/cpu.c ****     //
 392:build/openmote-cc2538_armgcc/bsp/boards/openmote-cc2538/source/cpu.c ****     // Send event
 393:build/openmote-cc2538_armgcc/bsp/boards/openmote-cc2538/source/cpu.c ****     //
 394:build/openmote-cc2538_armgcc/bsp/boards/openmote-cc2538/source/cpu.c ****     __asm("    sev\n"
 173              		.loc 1 394 0
 174              		.syntax unified
 175              	@ 394 "build/openmote-cc2538_armgcc/bsp/boards/openmote-cc2538/source/cpu.c" 1
 176 003c 40BF     		    sev
 177 003e 7047     	    bx      lr
 178              	
 179              	@ 0 "" 2
 395:build/openmote-cc2538_armgcc/bsp/boards/openmote-cc2538/source/cpu.c ****           "    bx      lr\n");
 396:build/openmote-cc2538_armgcc/bsp/boards/openmote-cc2538/source/cpu.c **** }
 180              		.loc 1 396 0
 181              		.thumb
 182              		.syntax unified
 183 0040 00BF     		nop
 184              		.cfi_endproc
 185              	.LFE5:
 187 0042 00BF     		.align	2
 188              		.global	CPUbasepriSet
 189              		.thumb
 190              		.thumb_func
 192              	CPUbasepriSet:
 193              	.LFB6:
 397:build/openmote-cc2538_armgcc/bsp/boards/openmote-cc2538/source/cpu.c **** #endif
 398:build/openmote-cc2538_armgcc/bsp/boards/openmote-cc2538/source/cpu.c **** #if (__ICCARM__)
 399:build/openmote-cc2538_armgcc/bsp/boards/openmote-cc2538/source/cpu.c **** void
 400:build/openmote-cc2538_armgcc/bsp/boards/openmote-cc2538/source/cpu.c **** CPUsev(void)
 401:build/openmote-cc2538_armgcc/bsp/boards/openmote-cc2538/source/cpu.c **** {
 402:build/openmote-cc2538_armgcc/bsp/boards/openmote-cc2538/source/cpu.c ****     //
 403:build/openmote-cc2538_armgcc/bsp/boards/openmote-cc2538/source/cpu.c ****     // Send event
 404:build/openmote-cc2538_armgcc/bsp/boards/openmote-cc2538/source/cpu.c ****     //
 405:build/openmote-cc2538_armgcc/bsp/boards/openmote-cc2538/source/cpu.c ****     __asm("    sev\n");
 406:build/openmote-cc2538_armgcc/bsp/boards/openmote-cc2538/source/cpu.c **** }
 407:build/openmote-cc2538_armgcc/bsp/boards/openmote-cc2538/source/cpu.c **** #endif
 408:build/openmote-cc2538_armgcc/bsp/boards/openmote-cc2538/source/cpu.c **** #if defined(__KEIL__) || defined(__ARMCC_VERSION)
 409:build/openmote-cc2538_armgcc/bsp/boards/openmote-cc2538/source/cpu.c **** __asm void
 410:build/openmote-cc2538_armgcc/bsp/boards/openmote-cc2538/source/cpu.c **** CPUsev(void)
 411:build/openmote-cc2538_armgcc/bsp/boards/openmote-cc2538/source/cpu.c **** {
 412:build/openmote-cc2538_armgcc/bsp/boards/openmote-cc2538/source/cpu.c ****     //
 413:build/openmote-cc2538_armgcc/bsp/boards/openmote-cc2538/source/cpu.c ****     // Send event
 414:build/openmote-cc2538_armgcc/bsp/boards/openmote-cc2538/source/cpu.c ****     //
 415:build/openmote-cc2538_armgcc/bsp/boards/openmote-cc2538/source/cpu.c ****     sev;
 416:build/openmote-cc2538_armgcc/bsp/boards/openmote-cc2538/source/cpu.c ****     bx      lr
 417:build/openmote-cc2538_armgcc/bsp/boards/openmote-cc2538/source/cpu.c **** }
 418:build/openmote-cc2538_armgcc/bsp/boards/openmote-cc2538/source/cpu.c **** #endif
 419:build/openmote-cc2538_armgcc/bsp/boards/openmote-cc2538/source/cpu.c **** #if defined(__TI_COMPILER_VERSION__)
 420:build/openmote-cc2538_armgcc/bsp/boards/openmote-cc2538/source/cpu.c **** void
 421:build/openmote-cc2538_armgcc/bsp/boards/openmote-cc2538/source/cpu.c **** CPUsev(void)
 422:build/openmote-cc2538_armgcc/bsp/boards/openmote-cc2538/source/cpu.c **** {
 423:build/openmote-cc2538_armgcc/bsp/boards/openmote-cc2538/source/cpu.c ****     //
 424:build/openmote-cc2538_armgcc/bsp/boards/openmote-cc2538/source/cpu.c ****     // Send event
 425:build/openmote-cc2538_armgcc/bsp/boards/openmote-cc2538/source/cpu.c ****     //
 426:build/openmote-cc2538_armgcc/bsp/boards/openmote-cc2538/source/cpu.c ****     __asm("    sev\n");
 427:build/openmote-cc2538_armgcc/bsp/boards/openmote-cc2538/source/cpu.c **** }
 428:build/openmote-cc2538_armgcc/bsp/boards/openmote-cc2538/source/cpu.c **** #endif
 429:build/openmote-cc2538_armgcc/bsp/boards/openmote-cc2538/source/cpu.c **** 
 430:build/openmote-cc2538_armgcc/bsp/boards/openmote-cc2538/source/cpu.c **** //*****************************************************************************
 431:build/openmote-cc2538_armgcc/bsp/boards/openmote-cc2538/source/cpu.c **** //
 432:build/openmote-cc2538_armgcc/bsp/boards/openmote-cc2538/source/cpu.c **** // Wrapper function for writing the BASEPRI register.
 433:build/openmote-cc2538_armgcc/bsp/boards/openmote-cc2538/source/cpu.c **** //
 434:build/openmote-cc2538_armgcc/bsp/boards/openmote-cc2538/source/cpu.c **** //*****************************************************************************
 435:build/openmote-cc2538_armgcc/bsp/boards/openmote-cc2538/source/cpu.c **** #if defined(__GNUC__)
 436:build/openmote-cc2538_armgcc/bsp/boards/openmote-cc2538/source/cpu.c **** void __attribute__((naked))
 437:build/openmote-cc2538_armgcc/bsp/boards/openmote-cc2538/source/cpu.c **** CPUbasepriSet(uint32_t ui32NewBasepri)
 438:build/openmote-cc2538_armgcc/bsp/boards/openmote-cc2538/source/cpu.c **** {
 194              		.loc 1 438 0
 195              		.cfi_startproc
 196              		@ Naked Function: prologue and epilogue provided by programmer.
 197              		@ args = 0, pretend = 0, frame = 0
 198              		@ frame_needed = 1, uses_anonymous_args = 0
 439:build/openmote-cc2538_armgcc/bsp/boards/openmote-cc2538/source/cpu.c **** 
 440:build/openmote-cc2538_armgcc/bsp/boards/openmote-cc2538/source/cpu.c ****     //
 441:build/openmote-cc2538_armgcc/bsp/boards/openmote-cc2538/source/cpu.c ****     // Set the BASEPRI register
 442:build/openmote-cc2538_armgcc/bsp/boards/openmote-cc2538/source/cpu.c ****     //
 443:build/openmote-cc2538_armgcc/bsp/boards/openmote-cc2538/source/cpu.c ****     __asm("    msr     BASEPRI, r0\n"
 199              		.loc 1 443 0
 200              		.syntax unified
 201              	@ 443 "build/openmote-cc2538_armgcc/bsp/boards/openmote-cc2538/source/cpu.c" 1
 202 0044 80F31188 		    msr     BASEPRI, r0
 203 0048 7047     	    bx      lr
 204              	
 205              	@ 0 "" 2
 444:build/openmote-cc2538_armgcc/bsp/boards/openmote-cc2538/source/cpu.c ****           "    bx      lr\n");
 445:build/openmote-cc2538_armgcc/bsp/boards/openmote-cc2538/source/cpu.c **** }
 206              		.loc 1 445 0
 207              		.thumb
 208              		.syntax unified
 209 004a 00BF     		nop
 210              		.cfi_endproc
 211              	.LFE6:
 213              		.align	2
 214              		.global	CPUbasepriGet
 215              		.thumb
 216              		.thumb_func
 218              	CPUbasepriGet:
 219              	.LFB7:
 446:build/openmote-cc2538_armgcc/bsp/boards/openmote-cc2538/source/cpu.c **** #endif
 447:build/openmote-cc2538_armgcc/bsp/boards/openmote-cc2538/source/cpu.c **** #if (__ICCARM__)
 448:build/openmote-cc2538_armgcc/bsp/boards/openmote-cc2538/source/cpu.c **** void
 449:build/openmote-cc2538_armgcc/bsp/boards/openmote-cc2538/source/cpu.c **** CPUbasepriSet(uint32_t ui32NewBasepri)
 450:build/openmote-cc2538_armgcc/bsp/boards/openmote-cc2538/source/cpu.c **** {
 451:build/openmote-cc2538_armgcc/bsp/boards/openmote-cc2538/source/cpu.c ****     //
 452:build/openmote-cc2538_armgcc/bsp/boards/openmote-cc2538/source/cpu.c ****     // Set the BASEPRI register
 453:build/openmote-cc2538_armgcc/bsp/boards/openmote-cc2538/source/cpu.c ****     //
 454:build/openmote-cc2538_armgcc/bsp/boards/openmote-cc2538/source/cpu.c ****     __asm("    msr     BASEPRI, r0\n");
 455:build/openmote-cc2538_armgcc/bsp/boards/openmote-cc2538/source/cpu.c **** }
 456:build/openmote-cc2538_armgcc/bsp/boards/openmote-cc2538/source/cpu.c **** #endif
 457:build/openmote-cc2538_armgcc/bsp/boards/openmote-cc2538/source/cpu.c **** #if defined(__KEIL__) || defined(__ARMCC_VERSION)
 458:build/openmote-cc2538_armgcc/bsp/boards/openmote-cc2538/source/cpu.c **** __asm void
 459:build/openmote-cc2538_armgcc/bsp/boards/openmote-cc2538/source/cpu.c **** CPUbasepriSet(uint32_t ui32NewBasepri)
 460:build/openmote-cc2538_armgcc/bsp/boards/openmote-cc2538/source/cpu.c **** {
 461:build/openmote-cc2538_armgcc/bsp/boards/openmote-cc2538/source/cpu.c ****     //
 462:build/openmote-cc2538_armgcc/bsp/boards/openmote-cc2538/source/cpu.c ****     // Set the BASEPRI register
 463:build/openmote-cc2538_armgcc/bsp/boards/openmote-cc2538/source/cpu.c ****     //
 464:build/openmote-cc2538_armgcc/bsp/boards/openmote-cc2538/source/cpu.c ****     msr     BASEPRI, r0;
 465:build/openmote-cc2538_armgcc/bsp/boards/openmote-cc2538/source/cpu.c ****     bx      lr
 466:build/openmote-cc2538_armgcc/bsp/boards/openmote-cc2538/source/cpu.c **** }
 467:build/openmote-cc2538_armgcc/bsp/boards/openmote-cc2538/source/cpu.c **** #endif
 468:build/openmote-cc2538_armgcc/bsp/boards/openmote-cc2538/source/cpu.c **** #if defined(__TI_COMPILER_VERSION__)
 469:build/openmote-cc2538_armgcc/bsp/boards/openmote-cc2538/source/cpu.c **** void
 470:build/openmote-cc2538_armgcc/bsp/boards/openmote-cc2538/source/cpu.c **** CPUbasepriSet(uint32_t ui32NewBasepri)
 471:build/openmote-cc2538_armgcc/bsp/boards/openmote-cc2538/source/cpu.c **** {
 472:build/openmote-cc2538_armgcc/bsp/boards/openmote-cc2538/source/cpu.c ****     //
 473:build/openmote-cc2538_armgcc/bsp/boards/openmote-cc2538/source/cpu.c ****     // Set the BASEPRI register
 474:build/openmote-cc2538_armgcc/bsp/boards/openmote-cc2538/source/cpu.c ****     //
 475:build/openmote-cc2538_armgcc/bsp/boards/openmote-cc2538/source/cpu.c ****     __asm("    msr     BASEPRI, r0\n");
 476:build/openmote-cc2538_armgcc/bsp/boards/openmote-cc2538/source/cpu.c **** }
 477:build/openmote-cc2538_armgcc/bsp/boards/openmote-cc2538/source/cpu.c **** #endif
 478:build/openmote-cc2538_armgcc/bsp/boards/openmote-cc2538/source/cpu.c **** 
 479:build/openmote-cc2538_armgcc/bsp/boards/openmote-cc2538/source/cpu.c **** //*****************************************************************************
 480:build/openmote-cc2538_armgcc/bsp/boards/openmote-cc2538/source/cpu.c **** //
 481:build/openmote-cc2538_armgcc/bsp/boards/openmote-cc2538/source/cpu.c **** // Wrapper function for reading the BASEPRI register.
 482:build/openmote-cc2538_armgcc/bsp/boards/openmote-cc2538/source/cpu.c **** //
 483:build/openmote-cc2538_armgcc/bsp/boards/openmote-cc2538/source/cpu.c **** //*****************************************************************************
 484:build/openmote-cc2538_armgcc/bsp/boards/openmote-cc2538/source/cpu.c **** #if defined(__GNUC__)
 485:build/openmote-cc2538_armgcc/bsp/boards/openmote-cc2538/source/cpu.c **** uint32_t __attribute__((naked))
 486:build/openmote-cc2538_armgcc/bsp/boards/openmote-cc2538/source/cpu.c **** CPUbasepriGet(void)
 487:build/openmote-cc2538_armgcc/bsp/boards/openmote-cc2538/source/cpu.c **** {
 220              		.loc 1 487 0
 221              		.cfi_startproc
 222              		@ Naked Function: prologue and epilogue provided by programmer.
 223              		@ args = 0, pretend = 0, frame = 0
 224              		@ frame_needed = 1, uses_anonymous_args = 0
 488:build/openmote-cc2538_armgcc/bsp/boards/openmote-cc2538/source/cpu.c ****     uint32_t ui32Ret;
 489:build/openmote-cc2538_armgcc/bsp/boards/openmote-cc2538/source/cpu.c **** 
 490:build/openmote-cc2538_armgcc/bsp/boards/openmote-cc2538/source/cpu.c ****     //
 491:build/openmote-cc2538_armgcc/bsp/boards/openmote-cc2538/source/cpu.c ****     // Read BASEPRI
 492:build/openmote-cc2538_armgcc/bsp/boards/openmote-cc2538/source/cpu.c ****     //
 493:build/openmote-cc2538_armgcc/bsp/boards/openmote-cc2538/source/cpu.c ****     __asm("    mrs     r0, BASEPRI\n"
 225              		.loc 1 493 0
 226              		.syntax unified
 227              	@ 493 "build/openmote-cc2538_armgcc/bsp/boards/openmote-cc2538/source/cpu.c" 1
 228 004c EFF31180 		    mrs     r0, BASEPRI
 229 0050 7047     	    bx      lr
 230              	
 231              	@ 0 "" 2
 232              		.thumb
 233              		.syntax unified
 234 0052 1C46     		mov	r4, r3
 494:build/openmote-cc2538_armgcc/bsp/boards/openmote-cc2538/source/cpu.c ****           "    bx      lr\n"
 495:build/openmote-cc2538_armgcc/bsp/boards/openmote-cc2538/source/cpu.c ****           : "=r" (ui32Ret));
 496:build/openmote-cc2538_armgcc/bsp/boards/openmote-cc2538/source/cpu.c **** 
 497:build/openmote-cc2538_armgcc/bsp/boards/openmote-cc2538/source/cpu.c ****     //
 498:build/openmote-cc2538_armgcc/bsp/boards/openmote-cc2538/source/cpu.c ****     // The return is handled in the inline assembly, but the compiler will
 499:build/openmote-cc2538_armgcc/bsp/boards/openmote-cc2538/source/cpu.c ****     // still complain if there is not an explicit return here (despite the fact
 500:build/openmote-cc2538_armgcc/bsp/boards/openmote-cc2538/source/cpu.c ****     // that this does not result in any code being produced because of the
 501:build/openmote-cc2538_armgcc/bsp/boards/openmote-cc2538/source/cpu.c ****     // naked attribute).
 502:build/openmote-cc2538_armgcc/bsp/boards/openmote-cc2538/source/cpu.c ****     //
 503:build/openmote-cc2538_armgcc/bsp/boards/openmote-cc2538/source/cpu.c ****     return(ui32Ret);
 235              		.loc 1 503 0
 236 0054 2346     		mov	r3, r4
 504:build/openmote-cc2538_armgcc/bsp/boards/openmote-cc2538/source/cpu.c **** }
 237              		.loc 1 504 0
 238 0056 1846     		mov	r0, r3
 239              		.cfi_endproc
 240              	.LFE7:
 242              	.Letext0:
 243              		.file 2 "/usr/include/newlib/machine/_default_types.h"
 244              		.file 3 "/usr/include/newlib/sys/_stdint.h"