   1              		.syntax unified
   2              		.cpu cortex-m3
   3              		.fpu softvfp
   4              		.eabi_attribute 20, 1
   5              		.eabi_attribute 21, 1
   6              		.eabi_attribute 23, 3
   7              		.eabi_attribute 24, 1
   8              		.eabi_attribute 25, 1
   9              		.eabi_attribute 26, 1
  10              		.eabi_attribute 30, 6
  11              		.eabi_attribute 34, 1
  12              		.eabi_attribute 18, 4
  13              		.thumb
  14              		.syntax unified
  15              		.file	"openudp.c"
  16              		.text
  17              	.Ltext0:
  18              		.cfi_sections	.debug_frame
  19              		.section	.rodata
  20              		.align	2
  23              	rreg_uriquery:
  24 0000 683D7563 		.ascii	"h=ucb\000"
  24      6200
  25 0006 0000     		.align	2
  28              	infoBoardname:
  29 0008 43433235 		.ascii	"CC2538\000"
  29      333800
  30 000f 00       		.align	2
  33              	infouCName:
  34 0010 43433235 		.ascii	"CC2538\000"
  34      333800
  35 0017 00       		.align	2
  38              	infoRadioName:
  39 0018 43433235 		.ascii	"CC2538 SoC\000"
  39      33382053 
  39      6F4300
  40 0023 00       		.align	2
  43              	infoStackName:
  44 0024 4F70656E 		.ascii	"OpenWSN \000"
  44      57534E20 
  44      00
  45 002d 000000   		.align	2
  48              	ipAddr_ipsoRD:
  49 0030 26       		.byte	38
  50 0031 07       		.byte	7
  51 0032 F7       		.byte	-9
  52 0033 40       		.byte	64
  53 0034 00       		.byte	0
  54 0035 00       		.byte	0
  55 0036 00       		.byte	0
  56 0037 3F       		.byte	63
  57 0038 00       		.byte	0
  58 0039 00       		.byte	0
  59 003a 00       		.byte	0
  60 003b 00       		.byte	0
  61 003c 00       		.byte	0
  62 003d 00       		.byte	0
  63 003e 0E       		.byte	14
  64 003f 29       		.byte	41
  65              		.align	2
  68              	ipAddr_motesEecs:
  69 0040 20       		.byte	32
  70 0041 01       		.byte	1
  71 0042 04       		.byte	4
  72 0043 70       		.byte	112
  73 0044 00       		.byte	0
  74 0045 66       		.byte	102
  75 0046 00       		.byte	0
  76 0047 19       		.byte	25
  77 0048 00       		.byte	0
  78 0049 00       		.byte	0
  79 004a 00       		.byte	0
  80 004b 00       		.byte	0
  81 004c 00       		.byte	0
  82 004d 00       		.byte	0
  83 004e 00       		.byte	0
  84 004f 02       		.byte	2
  85              		.align	2
  88              	ipAddr_local:
  89 0050 26       		.byte	38
  90 0051 07       		.byte	7
  91 0052 F1       		.byte	-15
  92 0053 40       		.byte	64
  93 0054 04       		.byte	4
  94 0055 00       		.byte	0
  95 0056 10       		.byte	16
  96 0057 36       		.byte	54
  97 0058 4D       		.byte	77
  98 0059 CD       		.byte	-51
  99 005a AB       		.byte	-85
 100 005b 54       		.byte	84
 101 005c 81       		.byte	-127
 102 005d 99       		.byte	-103
 103 005e C1       		.byte	-63
 104 005f F7       		.byte	-9
 105              		.align	2
 108              	ipAddr_motedata:
 109 0060 20       		.byte	32
 110 0061 01       		.byte	1
 111 0062 04       		.byte	4
 112 0063 70       		.byte	112
 113 0064 00       		.byte	0
 114 0065 66       		.byte	102
 115 0066 00       		.byte	0
 116 0067 17       		.byte	23
 117 0068 00       		.byte	0
 118 0069 00       		.byte	0
 119 006a 00       		.byte	0
 120 006b 00       		.byte	0
 121 006c 00       		.byte	0
 122 006d 00       		.byte	0
 123 006e 00       		.byte	0
 124 006f 02       		.byte	2
 125              		.align	2
 128              	ipAddr_ringmaster:
 129 0070 BB       		.byte	-69
 130 0071 BB       		.byte	-69
 131 0072 00       		.byte	0
 132 0073 00       		.byte	0
 133 0074 00       		.byte	0
 134 0075 00       		.byte	0
 135 0076 00       		.byte	0
 136 0077 00       		.byte	0
 137 0078 00       		.byte	0
 138 0079 00       		.byte	0
 139 007a 00       		.byte	0
 140 007b 00       		.byte	0
 141 007c 00       		.byte	0
 142 007d 00       		.byte	0
 143 007e 00       		.byte	0
 144 007f 01       		.byte	1
 145              		.comm	openudp_vars,4,4
 146              		.text
 147              		.align	2
 148              		.global	openudp_init
 149              		.thumb
 150              		.thumb_func
 152              	openudp_init:
 153              	.LFB0:
 154              		.file 1 "build/openmote-cc2538_armgcc/openstack/04-TRAN/openudp.c"
   1:build/openmote-cc2538_armgcc/openstack/04-TRAN/openudp.c **** #include "opendefs.h"
   2:build/openmote-cc2538_armgcc/openstack/04-TRAN/openudp.c **** #include "openudp.h"
   3:build/openmote-cc2538_armgcc/openstack/04-TRAN/openudp.c **** #include "openserial.h"
   4:build/openmote-cc2538_armgcc/openstack/04-TRAN/openudp.c **** #include "packetfunctions.h"
   5:build/openmote-cc2538_armgcc/openstack/04-TRAN/openudp.c **** #include "forwarding.h"
   6:build/openmote-cc2538_armgcc/openstack/04-TRAN/openudp.c **** #include "openqueue.h"
   7:build/openmote-cc2538_armgcc/openstack/04-TRAN/openudp.c **** // applications
   8:build/openmote-cc2538_armgcc/openstack/04-TRAN/openudp.c **** #include "opencoap.h"
   9:build/openmote-cc2538_armgcc/openstack/04-TRAN/openudp.c **** #include "uecho.h"
  10:build/openmote-cc2538_armgcc/openstack/04-TRAN/openudp.c **** #include "uinject.h"
  11:build/openmote-cc2538_armgcc/openstack/04-TRAN/openudp.c **** #include "userialbridge.h"
  12:build/openmote-cc2538_armgcc/openstack/04-TRAN/openudp.c **** #include "rrt.h"
  13:build/openmote-cc2538_armgcc/openstack/04-TRAN/openudp.c **** 
  14:build/openmote-cc2538_armgcc/openstack/04-TRAN/openudp.c **** //=========================== variables =======================================
  15:build/openmote-cc2538_armgcc/openstack/04-TRAN/openudp.c **** 
  16:build/openmote-cc2538_armgcc/openstack/04-TRAN/openudp.c **** openudp_vars_t openudp_vars;
  17:build/openmote-cc2538_armgcc/openstack/04-TRAN/openudp.c **** 
  18:build/openmote-cc2538_armgcc/openstack/04-TRAN/openudp.c **** //=========================== prototypes ======================================
  19:build/openmote-cc2538_armgcc/openstack/04-TRAN/openudp.c **** 
  20:build/openmote-cc2538_armgcc/openstack/04-TRAN/openudp.c **** static void openudp_sendDone_default_handler(OpenQueueEntry_t* msg, owerror_t error);
  21:build/openmote-cc2538_armgcc/openstack/04-TRAN/openudp.c **** static void openudp_receive_default_handler(OpenQueueEntry_t* msg);
  22:build/openmote-cc2538_armgcc/openstack/04-TRAN/openudp.c **** 
  23:build/openmote-cc2538_armgcc/openstack/04-TRAN/openudp.c **** //=========================== public ==========================================
  24:build/openmote-cc2538_armgcc/openstack/04-TRAN/openudp.c **** 
  25:build/openmote-cc2538_armgcc/openstack/04-TRAN/openudp.c **** void openudp_init() {
 155              		.loc 1 25 0
 156              		.cfi_startproc
 157              		@ args = 0, pretend = 0, frame = 0
 158              		@ frame_needed = 1, uses_anonymous_args = 0
 159              		@ link register save eliminated.
 160 0000 80B4     		push	{r7}
 161              		.cfi_def_cfa_offset 4
 162              		.cfi_offset 7, -4
 163 0002 00AF     		add	r7, sp, #0
 164              		.cfi_def_cfa_register 7
  26:build/openmote-cc2538_armgcc/openstack/04-TRAN/openudp.c ****    // initialize the resource linked list
  27:build/openmote-cc2538_armgcc/openstack/04-TRAN/openudp.c ****    openudp_vars.resources = NULL;
 165              		.loc 1 27 0
 166 0004 034B     		ldr	r3, .L2
 167 0006 0022     		movs	r2, #0
 168 0008 1A60     		str	r2, [r3]
  28:build/openmote-cc2538_armgcc/openstack/04-TRAN/openudp.c **** }
 169              		.loc 1 28 0
 170 000a 00BF     		nop
 171 000c BD46     		mov	sp, r7
 172              		.cfi_def_cfa_register 13
 173              		@ sp needed
 174 000e 80BC     		pop	{r7}
 175              		.cfi_restore 7
 176              		.cfi_def_cfa_offset 0
 177 0010 7047     		bx	lr
 178              	.L3:
 179 0012 00BF     		.align	2
 180              	.L2:
 181 0014 00000000 		.word	openudp_vars
 182              		.cfi_endproc
 183              	.LFE0:
 185              		.align	2
 186              		.global	openudp_register
 187              		.thumb
 188              		.thumb_func
 190              	openudp_register:
 191              	.LFB1:
  29:build/openmote-cc2538_armgcc/openstack/04-TRAN/openudp.c **** 
  30:build/openmote-cc2538_armgcc/openstack/04-TRAN/openudp.c **** void openudp_register(udp_resource_desc_t* desc) {
 192              		.loc 1 30 0
 193              		.cfi_startproc
 194              		@ args = 0, pretend = 0, frame = 8
 195              		@ frame_needed = 1, uses_anonymous_args = 0
 196              		@ link register save eliminated.
 197 0018 80B4     		push	{r7}
 198              		.cfi_def_cfa_offset 4
 199              		.cfi_offset 7, -4
 200 001a 83B0     		sub	sp, sp, #12
 201              		.cfi_def_cfa_offset 16
 202 001c 00AF     		add	r7, sp, #0
 203              		.cfi_def_cfa_register 7
 204 001e 7860     		str	r0, [r7, #4]
  31:build/openmote-cc2538_armgcc/openstack/04-TRAN/openudp.c ****    // chain the new resource to head of resource list
  32:build/openmote-cc2538_armgcc/openstack/04-TRAN/openudp.c ****    desc->next = openudp_vars.resources;
 205              		.loc 1 32 0
 206 0020 054B     		ldr	r3, .L5
 207 0022 1A68     		ldr	r2, [r3]
 208 0024 7B68     		ldr	r3, [r7, #4]
 209 0026 DA60     		str	r2, [r3, #12]
  33:build/openmote-cc2538_armgcc/openstack/04-TRAN/openudp.c ****    openudp_vars.resources = desc;
 210              		.loc 1 33 0
 211 0028 034A     		ldr	r2, .L5
 212 002a 7B68     		ldr	r3, [r7, #4]
 213 002c 1360     		str	r3, [r2]
  34:build/openmote-cc2538_armgcc/openstack/04-TRAN/openudp.c **** }
 214              		.loc 1 34 0
 215 002e 00BF     		nop
 216 0030 0C37     		adds	r7, r7, #12
 217              		.cfi_def_cfa_offset 4
 218 0032 BD46     		mov	sp, r7
 219              		.cfi_def_cfa_register 13
 220              		@ sp needed
 221 0034 80BC     		pop	{r7}
 222              		.cfi_restore 7
 223              		.cfi_def_cfa_offset 0
 224 0036 7047     		bx	lr
 225              	.L6:
 226              		.align	2
 227              	.L5:
 228 0038 00000000 		.word	openudp_vars
 229              		.cfi_endproc
 230              	.LFE1:
 232              		.align	2
 233              		.global	openudp_send
 234              		.thumb
 235              		.thumb_func
 237              	openudp_send:
 238              	.LFB2:
  35:build/openmote-cc2538_armgcc/openstack/04-TRAN/openudp.c **** 
  36:build/openmote-cc2538_armgcc/openstack/04-TRAN/openudp.c **** owerror_t openudp_send(OpenQueueEntry_t* msg) {
 239              		.loc 1 36 0
 240              		.cfi_startproc
 241              		@ args = 0, pretend = 0, frame = 16
 242              		@ frame_needed = 1, uses_anonymous_args = 0
 243 003c 80B5     		push	{r7, lr}
 244              		.cfi_def_cfa_offset 8
 245              		.cfi_offset 7, -8
 246              		.cfi_offset 14, -4
 247 003e 84B0     		sub	sp, sp, #16
 248              		.cfi_def_cfa_offset 24
 249 0040 00AF     		add	r7, sp, #0
 250              		.cfi_def_cfa_register 7
 251 0042 7860     		str	r0, [r7, #4]
  37:build/openmote-cc2538_armgcc/openstack/04-TRAN/openudp.c ****     uint8_t* checksum_position;
  38:build/openmote-cc2538_armgcc/openstack/04-TRAN/openudp.c ****     msg->owner       = COMPONENT_OPENUDP;
 252              		.loc 1 38 0
 253 0044 7B68     		ldr	r3, [r7, #4]
 254 0046 1922     		movs	r2, #25
 255 0048 5A70     		strb	r2, [r3, #1]
  39:build/openmote-cc2538_armgcc/openstack/04-TRAN/openudp.c ****     msg->l4_protocol = IANA_UDP;
 256              		.loc 1 39 0
 257 004a 7B68     		ldr	r3, [r7, #4]
 258 004c 1122     		movs	r2, #17
 259 004e 9A73     		strb	r2, [r3, #14]
  40:build/openmote-cc2538_armgcc/openstack/04-TRAN/openudp.c ****     msg->l4_payload  = msg->payload;
 260              		.loc 1 40 0
 261 0050 7B68     		ldr	r3, [r7, #4]
 262 0052 5A68     		ldr	r2, [r3, #4]
 263 0054 7B68     		ldr	r3, [r7, #4]
 264 0056 5A61     		str	r2, [r3, #20]
  41:build/openmote-cc2538_armgcc/openstack/04-TRAN/openudp.c ****     msg->l4_length   = msg->length;
 265              		.loc 1 41 0
 266 0058 7B68     		ldr	r3, [r7, #4]
 267 005a 1A7A     		ldrb	r2, [r3, #8]	@ zero_extendqisi2
 268 005c 7B68     		ldr	r3, [r7, #4]
 269 005e 1A76     		strb	r2, [r3, #24]
  42:build/openmote-cc2538_armgcc/openstack/04-TRAN/openudp.c ****     
  43:build/openmote-cc2538_armgcc/openstack/04-TRAN/openudp.c ****     msg->l4_protocol_compressed = FALSE; // by default
 270              		.loc 1 43 0
 271 0060 7B68     		ldr	r3, [r7, #4]
 272 0062 0022     		movs	r2, #0
 273 0064 DA73     		strb	r2, [r3, #15]
  44:build/openmote-cc2538_armgcc/openstack/04-TRAN/openudp.c ****     uint8_t compType = NHC_UDP_PORTS_INLINE;
 274              		.loc 1 44 0
 275 0066 0023     		movs	r3, #0
 276 0068 FB73     		strb	r3, [r7, #15]
  45:build/openmote-cc2538_armgcc/openstack/04-TRAN/openudp.c **** 
  46:build/openmote-cc2538_armgcc/openstack/04-TRAN/openudp.c ****     //check if the header can be compressed.
  47:build/openmote-cc2538_armgcc/openstack/04-TRAN/openudp.c ****     if (msg->l4_destination_port>=0xf000 && msg->l4_destination_port<0xf100){
 277              		.loc 1 47 0
 278 006a 7B68     		ldr	r3, [r7, #4]
 279 006c 5B8A     		ldrh	r3, [r3, #18]
 280 006e B3F5704F 		cmp	r3, #61440
 281 0072 24D3     		bcc	.L8
 282              		.loc 1 47 0 is_stmt 0 discriminator 1
 283 0074 7B68     		ldr	r3, [r7, #4]
 284 0076 5B8A     		ldrh	r3, [r3, #18]
 285 0078 B3F5714F 		cmp	r3, #61696
 286 007c 1FD2     		bcs	.L8
  48:build/openmote-cc2538_armgcc/openstack/04-TRAN/openudp.c ****         // destination can be compressed 8 bit
  49:build/openmote-cc2538_armgcc/openstack/04-TRAN/openudp.c ****         msg->l4_protocol_compressed = TRUE;
 287              		.loc 1 49 0 is_stmt 1
 288 007e 7B68     		ldr	r3, [r7, #4]
 289 0080 0122     		movs	r2, #1
 290 0082 DA73     		strb	r2, [r3, #15]
  50:build/openmote-cc2538_armgcc/openstack/04-TRAN/openudp.c ****         compType = NHC_UDP_PORTS_16S_8D;
 291              		.loc 1 50 0
 292 0084 0123     		movs	r3, #1
 293 0086 FB73     		strb	r3, [r7, #15]
  51:build/openmote-cc2538_armgcc/openstack/04-TRAN/openudp.c ****         //check now if both can still be more compressed 4b each
  52:build/openmote-cc2538_armgcc/openstack/04-TRAN/openudp.c ****         if (
  53:build/openmote-cc2538_armgcc/openstack/04-TRAN/openudp.c ****             msg->l4_destination_port       >= 0xf0b0 &&
 294              		.loc 1 53 0
 295 0088 7B68     		ldr	r3, [r7, #4]
 296 008a 5B8A     		ldrh	r3, [r3, #18]
  52:build/openmote-cc2538_armgcc/openstack/04-TRAN/openudp.c ****             msg->l4_destination_port       >= 0xf0b0 &&
 297              		.loc 1 52 0
 298 008c 4FF2AF02 		movw	r2, #61615
 299 0090 9342     		cmp	r3, r2
 300 0092 24D9     		bls	.L20
  54:build/openmote-cc2538_armgcc/openstack/04-TRAN/openudp.c ****             msg->l4_destination_port       <= 0xf0bf &&
 301              		.loc 1 54 0
 302 0094 7B68     		ldr	r3, [r7, #4]
 303 0096 5B8A     		ldrh	r3, [r3, #18]
  53:build/openmote-cc2538_armgcc/openstack/04-TRAN/openudp.c ****             msg->l4_destination_port       <= 0xf0bf &&
 304              		.loc 1 53 0
 305 0098 4FF2BF02 		movw	r2, #61631
 306 009c 9342     		cmp	r3, r2
 307 009e 1ED8     		bhi	.L20
  55:build/openmote-cc2538_armgcc/openstack/04-TRAN/openudp.c ****             msg->l4_sourcePortORicmpv6Type >= 0xf0b0 &&
 308              		.loc 1 55 0
 309 00a0 7B68     		ldr	r3, [r7, #4]
 310 00a2 1B8A     		ldrh	r3, [r3, #16]
  54:build/openmote-cc2538_armgcc/openstack/04-TRAN/openudp.c ****             msg->l4_destination_port       <= 0xf0bf &&
 311              		.loc 1 54 0
 312 00a4 4FF2AF02 		movw	r2, #61615
 313 00a8 9342     		cmp	r3, r2
 314 00aa 18D9     		bls	.L20
  56:build/openmote-cc2538_armgcc/openstack/04-TRAN/openudp.c ****             msg->l4_sourcePortORicmpv6Type <= 0xf0bf
 315              		.loc 1 56 0
 316 00ac 7B68     		ldr	r3, [r7, #4]
 317 00ae 1B8A     		ldrh	r3, [r3, #16]
  55:build/openmote-cc2538_armgcc/openstack/04-TRAN/openudp.c ****             msg->l4_sourcePortORicmpv6Type >= 0xf0b0 &&
 318              		.loc 1 55 0
 319 00b0 4FF2BF02 		movw	r2, #61631
 320 00b4 9342     		cmp	r3, r2
 321 00b6 12D8     		bhi	.L20
  57:build/openmote-cc2538_armgcc/openstack/04-TRAN/openudp.c ****         ){
  58:build/openmote-cc2538_armgcc/openstack/04-TRAN/openudp.c ****             //can be fully compressed
  59:build/openmote-cc2538_armgcc/openstack/04-TRAN/openudp.c ****             compType = NHC_UDP_PORTS_4S_4D;
 322              		.loc 1 59 0
 323 00b8 0323     		movs	r3, #3
 324 00ba FB73     		strb	r3, [r7, #15]
  52:build/openmote-cc2538_armgcc/openstack/04-TRAN/openudp.c ****             msg->l4_destination_port       >= 0xf0b0 &&
 325              		.loc 1 52 0
 326 00bc 0FE0     		b	.L20
 327              	.L8:
  60:build/openmote-cc2538_armgcc/openstack/04-TRAN/openudp.c ****         }
  61:build/openmote-cc2538_armgcc/openstack/04-TRAN/openudp.c ****     } else {
  62:build/openmote-cc2538_armgcc/openstack/04-TRAN/openudp.c ****         //check source now
  63:build/openmote-cc2538_armgcc/openstack/04-TRAN/openudp.c ****         if (msg->l4_sourcePortORicmpv6Type>=0xf000 && msg->l4_sourcePortORicmpv6Type<0xf100){
 328              		.loc 1 63 0
 329 00be 7B68     		ldr	r3, [r7, #4]
 330 00c0 1B8A     		ldrh	r3, [r3, #16]
 331 00c2 B3F5704F 		cmp	r3, #61440
 332 00c6 0BD3     		bcc	.L10
 333              		.loc 1 63 0 is_stmt 0 discriminator 1
 334 00c8 7B68     		ldr	r3, [r7, #4]
 335 00ca 1B8A     		ldrh	r3, [r3, #16]
 336 00cc B3F5714F 		cmp	r3, #61696
 337 00d0 06D2     		bcs	.L10
  64:build/openmote-cc2538_armgcc/openstack/04-TRAN/openudp.c ****             //source can be compressed -> 8bit
  65:build/openmote-cc2538_armgcc/openstack/04-TRAN/openudp.c ****             msg->l4_protocol_compressed = TRUE;
 338              		.loc 1 65 0 is_stmt 1
 339 00d2 7B68     		ldr	r3, [r7, #4]
 340 00d4 0122     		movs	r2, #1
 341 00d6 DA73     		strb	r2, [r3, #15]
  66:build/openmote-cc2538_armgcc/openstack/04-TRAN/openudp.c ****             compType = NHC_UDP_PORTS_8S_16D;
 342              		.loc 1 66 0
 343 00d8 0223     		movs	r3, #2
 344 00da FB73     		strb	r3, [r7, #15]
 345 00dc 00E0     		b	.L10
 346              	.L20:
  52:build/openmote-cc2538_armgcc/openstack/04-TRAN/openudp.c ****             msg->l4_destination_port       >= 0xf0b0 &&
 347              		.loc 1 52 0
 348 00de 00BF     		nop
 349              	.L10:
  67:build/openmote-cc2538_armgcc/openstack/04-TRAN/openudp.c ****         }
  68:build/openmote-cc2538_armgcc/openstack/04-TRAN/openudp.c ****     }
  69:build/openmote-cc2538_armgcc/openstack/04-TRAN/openudp.c **** 
  70:build/openmote-cc2538_armgcc/openstack/04-TRAN/openudp.c ****     // fill in the header in the packet
  71:build/openmote-cc2538_armgcc/openstack/04-TRAN/openudp.c ****     if (msg->l4_protocol_compressed){
 350              		.loc 1 71 0
 351 00e0 7B68     		ldr	r3, [r7, #4]
 352 00e2 DB7B     		ldrb	r3, [r3, #15]	@ zero_extendqisi2
 353 00e4 002B     		cmp	r3, #0
 354 00e6 7CD0     		beq	.L11
  72:build/openmote-cc2538_armgcc/openstack/04-TRAN/openudp.c **** 
  73:build/openmote-cc2538_armgcc/openstack/04-TRAN/openudp.c ****         //add checksum space in the packet.
  74:build/openmote-cc2538_armgcc/openstack/04-TRAN/openudp.c ****         packetfunctions_reserveHeaderSize(msg,2);
 355              		.loc 1 74 0
 356 00e8 0221     		movs	r1, #2
 357 00ea 7868     		ldr	r0, [r7, #4]
 358 00ec FFF7FEFF 		bl	packetfunctions_reserveHeaderSize
  75:build/openmote-cc2538_armgcc/openstack/04-TRAN/openudp.c ****         //keep position and calculatre checksum at the end.
  76:build/openmote-cc2538_armgcc/openstack/04-TRAN/openudp.c ****         checksum_position = &msg->payload[0];
 359              		.loc 1 76 0
 360 00f0 7B68     		ldr	r3, [r7, #4]
 361 00f2 5B68     		ldr	r3, [r3, #4]
 362 00f4 BB60     		str	r3, [r7, #8]
  77:build/openmote-cc2538_armgcc/openstack/04-TRAN/openudp.c **** 
  78:build/openmote-cc2538_armgcc/openstack/04-TRAN/openudp.c ****         //length is always omitted
  79:build/openmote-cc2538_armgcc/openstack/04-TRAN/openudp.c ****         /*
  80:build/openmote-cc2538_armgcc/openstack/04-TRAN/openudp.c ****          RFC6282 -> The UDP Length field
  81:build/openmote-cc2538_armgcc/openstack/04-TRAN/openudp.c ****                    MUST always be elided and is inferred from lower layers using the
  82:build/openmote-cc2538_armgcc/openstack/04-TRAN/openudp.c ****                    6LoWPAN Fragmentation header or the IEEE 802.15.4 header.
  83:build/openmote-cc2538_armgcc/openstack/04-TRAN/openudp.c ****         */
  84:build/openmote-cc2538_armgcc/openstack/04-TRAN/openudp.c **** 
  85:build/openmote-cc2538_armgcc/openstack/04-TRAN/openudp.c ****         switch (compType) {
 363              		.loc 1 85 0
 364 00f6 FB7B     		ldrb	r3, [r7, #15]	@ zero_extendqisi2
 365 00f8 032B     		cmp	r3, #3
 366 00fa 6DD8     		bhi	.L12
 367 00fc 01A2     		adr	r2, .L14
 368 00fe 52F823F0 		ldr	pc, [r2, r3, lsl #2]
 369 0102 00BF     		.p2align 2
 370              	.L14:
 371 0104 D9010000 		.word	.L12+1
 372 0108 15010000 		.word	.L15+1
 373 010c 53010000 		.word	.L16+1
 374 0110 91010000 		.word	.L17+1
 375              		.p2align 1
 376              	.L15:
  86:build/openmote-cc2538_armgcc/openstack/04-TRAN/openudp.c ****             case NHC_UDP_PORTS_INLINE:
  87:build/openmote-cc2538_armgcc/openstack/04-TRAN/openudp.c ****                 // error this is not possible.
  88:build/openmote-cc2538_armgcc/openstack/04-TRAN/openudp.c ****                 break;
  89:build/openmote-cc2538_armgcc/openstack/04-TRAN/openudp.c ****             case NHC_UDP_PORTS_16S_8D:
  90:build/openmote-cc2538_armgcc/openstack/04-TRAN/openudp.c ****                 // dest port:   0xf0  +  8 bits in-line
  91:build/openmote-cc2538_armgcc/openstack/04-TRAN/openudp.c ****                 // source port:         16 bits in-line
  92:build/openmote-cc2538_armgcc/openstack/04-TRAN/openudp.c ****                 packetfunctions_reserveHeaderSize(msg,1);
 377              		.loc 1 92 0
 378 0114 0121     		movs	r1, #1
 379 0116 7868     		ldr	r0, [r7, #4]
 380 0118 FFF7FEFF 		bl	packetfunctions_reserveHeaderSize
  93:build/openmote-cc2538_armgcc/openstack/04-TRAN/openudp.c ****                 msg->payload[0] = (uint8_t) (msg->l4_destination_port & 0x00ff);
 381              		.loc 1 93 0
 382 011c 7B68     		ldr	r3, [r7, #4]
 383 011e 5B68     		ldr	r3, [r3, #4]
 384 0120 7A68     		ldr	r2, [r7, #4]
 385 0122 528A     		ldrh	r2, [r2, #18]
 386 0124 D2B2     		uxtb	r2, r2
 387 0126 1A70     		strb	r2, [r3]
  94:build/openmote-cc2538_armgcc/openstack/04-TRAN/openudp.c ****                 packetfunctions_reserveHeaderSize(msg,2);
 388              		.loc 1 94 0
 389 0128 0221     		movs	r1, #2
 390 012a 7868     		ldr	r0, [r7, #4]
 391 012c FFF7FEFF 		bl	packetfunctions_reserveHeaderSize
  95:build/openmote-cc2538_armgcc/openstack/04-TRAN/openudp.c ****                 packetfunctions_htons(msg->l4_sourcePortORicmpv6Type,&(msg->payload[0]));
 392              		.loc 1 95 0
 393 0130 7B68     		ldr	r3, [r7, #4]
 394 0132 1A8A     		ldrh	r2, [r3, #16]
 395 0134 7B68     		ldr	r3, [r7, #4]
 396 0136 5B68     		ldr	r3, [r3, #4]
 397 0138 1946     		mov	r1, r3
 398 013a 1046     		mov	r0, r2
 399 013c FFF7FEFF 		bl	packetfunctions_htons
  96:build/openmote-cc2538_armgcc/openstack/04-TRAN/openudp.c ****                 //write proper LOWPAN_NHC
  97:build/openmote-cc2538_armgcc/openstack/04-TRAN/openudp.c ****                 packetfunctions_reserveHeaderSize(msg,1);
 400              		.loc 1 97 0
 401 0140 0121     		movs	r1, #1
 402 0142 7868     		ldr	r0, [r7, #4]
 403 0144 FFF7FEFF 		bl	packetfunctions_reserveHeaderSize
  98:build/openmote-cc2538_armgcc/openstack/04-TRAN/openudp.c ****                 msg->payload[0] = NHC_UDP_ID|NHC_UDP_PORTS_16S_8D;
 404              		.loc 1 98 0
 405 0148 7B68     		ldr	r3, [r7, #4]
 406 014a 5B68     		ldr	r3, [r3, #4]
 407 014c F122     		movs	r2, #241
 408 014e 1A70     		strb	r2, [r3]
  99:build/openmote-cc2538_armgcc/openstack/04-TRAN/openudp.c ****                 break;
 409              		.loc 1 99 0
 410 0150 42E0     		b	.L12
 411              	.L16:
 100:build/openmote-cc2538_armgcc/openstack/04-TRAN/openudp.c ****             case NHC_UDP_PORTS_8S_16D:
 101:build/openmote-cc2538_armgcc/openstack/04-TRAN/openudp.c ****                 // dest port:   0xf0  + 16 bits in-line
 102:build/openmote-cc2538_armgcc/openstack/04-TRAN/openudp.c ****                 // source port: 0xf0  +  8 bits in-line
 103:build/openmote-cc2538_armgcc/openstack/04-TRAN/openudp.c ****                 packetfunctions_reserveHeaderSize(msg,2);
 412              		.loc 1 103 0
 413 0152 0221     		movs	r1, #2
 414 0154 7868     		ldr	r0, [r7, #4]
 415 0156 FFF7FEFF 		bl	packetfunctions_reserveHeaderSize
 104:build/openmote-cc2538_armgcc/openstack/04-TRAN/openudp.c ****                 packetfunctions_htons(msg->l4_destination_port,&(msg->payload[0]));
 416              		.loc 1 104 0
 417 015a 7B68     		ldr	r3, [r7, #4]
 418 015c 5A8A     		ldrh	r2, [r3, #18]
 419 015e 7B68     		ldr	r3, [r7, #4]
 420 0160 5B68     		ldr	r3, [r3, #4]
 421 0162 1946     		mov	r1, r3
 422 0164 1046     		mov	r0, r2
 423 0166 FFF7FEFF 		bl	packetfunctions_htons
 105:build/openmote-cc2538_armgcc/openstack/04-TRAN/openudp.c ****                 packetfunctions_reserveHeaderSize(msg,1);
 424              		.loc 1 105 0
 425 016a 0121     		movs	r1, #1
 426 016c 7868     		ldr	r0, [r7, #4]
 427 016e FFF7FEFF 		bl	packetfunctions_reserveHeaderSize
 106:build/openmote-cc2538_armgcc/openstack/04-TRAN/openudp.c ****                 msg->payload[0] = (uint8_t) (msg->l4_sourcePortORicmpv6Type & 0x00ff);
 428              		.loc 1 106 0
 429 0172 7B68     		ldr	r3, [r7, #4]
 430 0174 5B68     		ldr	r3, [r3, #4]
 431 0176 7A68     		ldr	r2, [r7, #4]
 432 0178 128A     		ldrh	r2, [r2, #16]
 433 017a D2B2     		uxtb	r2, r2
 434 017c 1A70     		strb	r2, [r3]
 107:build/openmote-cc2538_armgcc/openstack/04-TRAN/openudp.c ****                 //write proper LOWPAN_NHC
 108:build/openmote-cc2538_armgcc/openstack/04-TRAN/openudp.c ****                 packetfunctions_reserveHeaderSize(msg,1);
 435              		.loc 1 108 0
 436 017e 0121     		movs	r1, #1
 437 0180 7868     		ldr	r0, [r7, #4]
 438 0182 FFF7FEFF 		bl	packetfunctions_reserveHeaderSize
 109:build/openmote-cc2538_armgcc/openstack/04-TRAN/openudp.c ****                 msg->payload[0] = NHC_UDP_ID|NHC_UDP_PORTS_8S_16D;
 439              		.loc 1 109 0
 440 0186 7B68     		ldr	r3, [r7, #4]
 441 0188 5B68     		ldr	r3, [r3, #4]
 442 018a F222     		movs	r2, #242
 443 018c 1A70     		strb	r2, [r3]
 110:build/openmote-cc2538_armgcc/openstack/04-TRAN/openudp.c ****                 break;
 444              		.loc 1 110 0
 445 018e 23E0     		b	.L12
 446              	.L17:
 111:build/openmote-cc2538_armgcc/openstack/04-TRAN/openudp.c ****             case NHC_UDP_PORTS_4S_4D:
 112:build/openmote-cc2538_armgcc/openstack/04-TRAN/openudp.c ****                 // source port: 0xf0b +  4 bits in-line (high 4)
 113:build/openmote-cc2538_armgcc/openstack/04-TRAN/openudp.c ****                 // dest port:   0xf0b +  4 bits in-line  (low 4)
 114:build/openmote-cc2538_armgcc/openstack/04-TRAN/openudp.c ****                 packetfunctions_reserveHeaderSize(msg,1);
 447              		.loc 1 114 0
 448 0190 0121     		movs	r1, #1
 449 0192 7868     		ldr	r0, [r7, #4]
 450 0194 FFF7FEFF 		bl	packetfunctions_reserveHeaderSize
 115:build/openmote-cc2538_armgcc/openstack/04-TRAN/openudp.c ****                 msg->payload[0] = (msg->l4_sourcePortORicmpv6Type & 0x000f)<<4;
 451              		.loc 1 115 0
 452 0198 7B68     		ldr	r3, [r7, #4]
 453 019a 5B68     		ldr	r3, [r3, #4]
 454 019c 7A68     		ldr	r2, [r7, #4]
 455 019e 128A     		ldrh	r2, [r2, #16]
 456 01a0 1201     		lsls	r2, r2, #4
 457 01a2 D2B2     		uxtb	r2, r2
 458 01a4 1A70     		strb	r2, [r3]
 116:build/openmote-cc2538_armgcc/openstack/04-TRAN/openudp.c ****                 msg->payload[0] |= (msg->l4_destination_port & 0x000f);
 459              		.loc 1 116 0
 460 01a6 7B68     		ldr	r3, [r7, #4]
 461 01a8 5B68     		ldr	r3, [r3, #4]
 462 01aa 7A68     		ldr	r2, [r7, #4]
 463 01ac 5268     		ldr	r2, [r2, #4]
 464 01ae 1278     		ldrb	r2, [r2]	@ zero_extendqisi2
 465 01b0 51B2     		sxtb	r1, r2
 466 01b2 7A68     		ldr	r2, [r7, #4]
 467 01b4 528A     		ldrh	r2, [r2, #18]
 468 01b6 52B2     		sxtb	r2, r2
 469 01b8 02F00F02 		and	r2, r2, #15
 470 01bc 52B2     		sxtb	r2, r2
 471 01be 0A43     		orrs	r2, r2, r1
 472 01c0 52B2     		sxtb	r2, r2
 473 01c2 D2B2     		uxtb	r2, r2
 474 01c4 1A70     		strb	r2, [r3]
 117:build/openmote-cc2538_armgcc/openstack/04-TRAN/openudp.c ****                 //write proper LOWPAN_NHC
 118:build/openmote-cc2538_armgcc/openstack/04-TRAN/openudp.c ****                 packetfunctions_reserveHeaderSize(msg,1);
 475              		.loc 1 118 0
 476 01c6 0121     		movs	r1, #1
 477 01c8 7868     		ldr	r0, [r7, #4]
 478 01ca FFF7FEFF 		bl	packetfunctions_reserveHeaderSize
 119:build/openmote-cc2538_armgcc/openstack/04-TRAN/openudp.c ****                 msg->payload[0] = NHC_UDP_ID|NHC_UDP_PORTS_4S_4D;
 479              		.loc 1 119 0
 480 01ce 7B68     		ldr	r3, [r7, #4]
 481 01d0 5B68     		ldr	r3, [r3, #4]
 482 01d2 F322     		movs	r2, #243
 483 01d4 1A70     		strb	r2, [r3]
 120:build/openmote-cc2538_armgcc/openstack/04-TRAN/openudp.c ****                 break;
 484              		.loc 1 120 0
 485 01d6 00BF     		nop
 486              	.L12:
 121:build/openmote-cc2538_armgcc/openstack/04-TRAN/openudp.c ****         }
 122:build/openmote-cc2538_armgcc/openstack/04-TRAN/openudp.c **** 
 123:build/openmote-cc2538_armgcc/openstack/04-TRAN/openudp.c ****         //after filling the packet we calculate the checksum
 124:build/openmote-cc2538_armgcc/openstack/04-TRAN/openudp.c ****         packetfunctions_calculateChecksum(msg,checksum_position);
 487              		.loc 1 124 0
 488 01d8 B968     		ldr	r1, [r7, #8]
 489 01da 7868     		ldr	r0, [r7, #4]
 490 01dc FFF7FEFF 		bl	packetfunctions_calculateChecksum
 491 01e0 25E0     		b	.L18
 492              	.L11:
 125:build/openmote-cc2538_armgcc/openstack/04-TRAN/openudp.c **** 
 126:build/openmote-cc2538_armgcc/openstack/04-TRAN/openudp.c ****     } else{
 127:build/openmote-cc2538_armgcc/openstack/04-TRAN/openudp.c ****         packetfunctions_reserveHeaderSize(msg,sizeof(udp_ht));
 493              		.loc 1 127 0
 494 01e2 0821     		movs	r1, #8
 495 01e4 7868     		ldr	r0, [r7, #4]
 496 01e6 FFF7FEFF 		bl	packetfunctions_reserveHeaderSize
 128:build/openmote-cc2538_armgcc/openstack/04-TRAN/openudp.c ****         packetfunctions_htons(msg->l4_sourcePortORicmpv6Type,&(msg->payload[0]));
 497              		.loc 1 128 0
 498 01ea 7B68     		ldr	r3, [r7, #4]
 499 01ec 1A8A     		ldrh	r2, [r3, #16]
 500 01ee 7B68     		ldr	r3, [r7, #4]
 501 01f0 5B68     		ldr	r3, [r3, #4]
 502 01f2 1946     		mov	r1, r3
 503 01f4 1046     		mov	r0, r2
 504 01f6 FFF7FEFF 		bl	packetfunctions_htons
 129:build/openmote-cc2538_armgcc/openstack/04-TRAN/openudp.c ****         packetfunctions_htons(msg->l4_destination_port,&(msg->payload[2]));
 505              		.loc 1 129 0
 506 01fa 7B68     		ldr	r3, [r7, #4]
 507 01fc 5A8A     		ldrh	r2, [r3, #18]
 508 01fe 7B68     		ldr	r3, [r7, #4]
 509 0200 5B68     		ldr	r3, [r3, #4]
 510 0202 0233     		adds	r3, r3, #2
 511 0204 1946     		mov	r1, r3
 512 0206 1046     		mov	r0, r2
 513 0208 FFF7FEFF 		bl	packetfunctions_htons
 130:build/openmote-cc2538_armgcc/openstack/04-TRAN/openudp.c ****         //TODO check this as the lenght MUST be ommited.
 131:build/openmote-cc2538_armgcc/openstack/04-TRAN/openudp.c ****         packetfunctions_htons(msg->length,&(msg->payload[4]));
 514              		.loc 1 131 0
 515 020c 7B68     		ldr	r3, [r7, #4]
 516 020e 1B7A     		ldrb	r3, [r3, #8]	@ zero_extendqisi2
 517 0210 9AB2     		uxth	r2, r3
 518 0212 7B68     		ldr	r3, [r7, #4]
 519 0214 5B68     		ldr	r3, [r3, #4]
 520 0216 0433     		adds	r3, r3, #4
 521 0218 1946     		mov	r1, r3
 522 021a 1046     		mov	r0, r2
 523 021c FFF7FEFF 		bl	packetfunctions_htons
 132:build/openmote-cc2538_armgcc/openstack/04-TRAN/openudp.c ****         packetfunctions_calculateChecksum(msg,(uint8_t*)&(((udp_ht*)msg->payload)->checksum));
 524              		.loc 1 132 0
 525 0220 7B68     		ldr	r3, [r7, #4]
 526 0222 5B68     		ldr	r3, [r3, #4]
 527 0224 0633     		adds	r3, r3, #6
 528 0226 1946     		mov	r1, r3
 529 0228 7868     		ldr	r0, [r7, #4]
 530 022a FFF7FEFF 		bl	packetfunctions_calculateChecksum
 531              	.L18:
 133:build/openmote-cc2538_armgcc/openstack/04-TRAN/openudp.c ****     }
 134:build/openmote-cc2538_armgcc/openstack/04-TRAN/openudp.c ****     return forwarding_send(msg);
 532              		.loc 1 134 0
 533 022e 7868     		ldr	r0, [r7, #4]
 534 0230 FFF7FEFF 		bl	forwarding_send
 535 0234 0346     		mov	r3, r0
 135:build/openmote-cc2538_armgcc/openstack/04-TRAN/openudp.c **** }
 536              		.loc 1 135 0
 537 0236 1846     		mov	r0, r3
 538 0238 1037     		adds	r7, r7, #16
 539              		.cfi_def_cfa_offset 8
 540 023a BD46     		mov	sp, r7
 541              		.cfi_def_cfa_register 13
 542              		@ sp needed
 543 023c 80BD     		pop	{r7, pc}
 544              		.cfi_endproc
 545              	.LFE2:
 547 023e 00BF     		.align	2
 548              		.global	openudp_sendDone
 549              		.thumb
 550              		.thumb_func
 552              	openudp_sendDone:
 553              	.LFB3:
 136:build/openmote-cc2538_armgcc/openstack/04-TRAN/openudp.c **** 
 137:build/openmote-cc2538_armgcc/openstack/04-TRAN/openudp.c **** void openudp_sendDone(OpenQueueEntry_t* msg, owerror_t error) {
 554              		.loc 1 137 0
 555              		.cfi_startproc
 556              		@ args = 0, pretend = 0, frame = 16
 557              		@ frame_needed = 1, uses_anonymous_args = 0
 558 0240 80B5     		push	{r7, lr}
 559              		.cfi_def_cfa_offset 8
 560              		.cfi_offset 7, -8
 561              		.cfi_offset 14, -4
 562 0242 84B0     		sub	sp, sp, #16
 563              		.cfi_def_cfa_offset 24
 564 0244 00AF     		add	r7, sp, #0
 565              		.cfi_def_cfa_register 7
 566 0246 7860     		str	r0, [r7, #4]
 567 0248 0B46     		mov	r3, r1
 568 024a FB70     		strb	r3, [r7, #3]
 138:build/openmote-cc2538_armgcc/openstack/04-TRAN/openudp.c ****    udp_resource_desc_t* resource;
 139:build/openmote-cc2538_armgcc/openstack/04-TRAN/openudp.c ****    udp_callbackSendDone_cbt udp_send_done_callback_ptr = NULL;
 569              		.loc 1 139 0
 570 024c 0023     		movs	r3, #0
 571 024e BB60     		str	r3, [r7, #8]
 140:build/openmote-cc2538_armgcc/openstack/04-TRAN/openudp.c **** 
 141:build/openmote-cc2538_armgcc/openstack/04-TRAN/openudp.c ****    msg->owner = COMPONENT_OPENUDP;
 572              		.loc 1 141 0
 573 0250 7B68     		ldr	r3, [r7, #4]
 574 0252 1922     		movs	r2, #25
 575 0254 5A70     		strb	r2, [r3, #1]
 142:build/openmote-cc2538_armgcc/openstack/04-TRAN/openudp.c **** 
 143:build/openmote-cc2538_armgcc/openstack/04-TRAN/openudp.c ****    // iterate list of registered resources
 144:build/openmote-cc2538_armgcc/openstack/04-TRAN/openudp.c ****    resource = openudp_vars.resources;
 576              		.loc 1 144 0
 577 0256 184B     		ldr	r3, .L30
 578 0258 1B68     		ldr	r3, [r3]
 579 025a FB60     		str	r3, [r7, #12]
 145:build/openmote-cc2538_armgcc/openstack/04-TRAN/openudp.c ****    while (NULL != resource) {
 580              		.loc 1 145 0
 581 025c 12E0     		b	.L22
 582              	.L27:
 146:build/openmote-cc2538_armgcc/openstack/04-TRAN/openudp.c ****       if (resource->port == msg->l4_sourcePortORicmpv6Type) {
 583              		.loc 1 146 0
 584 025e FB68     		ldr	r3, [r7, #12]
 585 0260 1A88     		ldrh	r2, [r3]
 586 0262 7B68     		ldr	r3, [r7, #4]
 587 0264 1B8A     		ldrh	r3, [r3, #16]
 588 0266 9A42     		cmp	r2, r3
 589 0268 09D1     		bne	.L23
 147:build/openmote-cc2538_armgcc/openstack/04-TRAN/openudp.c ****          // there is a registration for this port, either forward the send completion or simply rel
 148:build/openmote-cc2538_armgcc/openstack/04-TRAN/openudp.c ****         udp_send_done_callback_ptr = (resource->callbackSendDone == NULL) ? openudp_sendDone_defaul
 590              		.loc 1 148 0
 591 026a FB68     		ldr	r3, [r7, #12]
 592 026c 9B68     		ldr	r3, [r3, #8]
 149:build/openmote-cc2538_armgcc/openstack/04-TRAN/openudp.c ****                                                                           : resource->callbackSendD
 593              		.loc 1 149 0
 594 026e 002B     		cmp	r3, #0
 595 0270 02D0     		beq	.L24
 596              		.loc 1 149 0 is_stmt 0 discriminator 1
 597 0272 FB68     		ldr	r3, [r7, #12]
 598 0274 9B68     		ldr	r3, [r3, #8]
 599 0276 00E0     		b	.L25
 600              	.L24:
 601              		.loc 1 149 0 discriminator 2
 602 0278 104B     		ldr	r3, .L30+4
 603              	.L25:
 148:build/openmote-cc2538_armgcc/openstack/04-TRAN/openudp.c ****                                                                           : resource->callbackSendD
 604              		.loc 1 148 0 is_stmt 1
 605 027a BB60     		str	r3, [r7, #8]
 150:build/openmote-cc2538_armgcc/openstack/04-TRAN/openudp.c ****          break;
 606              		.loc 1 150 0
 607 027c 05E0     		b	.L26
 608              	.L23:
 151:build/openmote-cc2538_armgcc/openstack/04-TRAN/openudp.c ****       }
 152:build/openmote-cc2538_armgcc/openstack/04-TRAN/openudp.c ****       resource = resource->next;
 609              		.loc 1 152 0
 610 027e FB68     		ldr	r3, [r7, #12]
 611 0280 DB68     		ldr	r3, [r3, #12]
 612 0282 FB60     		str	r3, [r7, #12]
 613              	.L22:
 145:build/openmote-cc2538_armgcc/openstack/04-TRAN/openudp.c ****       if (resource->port == msg->l4_sourcePortORicmpv6Type) {
 614              		.loc 1 145 0
 615 0284 FB68     		ldr	r3, [r7, #12]
 616 0286 002B     		cmp	r3, #0
 617 0288 E9D1     		bne	.L27
 618              	.L26:
 153:build/openmote-cc2538_armgcc/openstack/04-TRAN/openudp.c ****    }
 154:build/openmote-cc2538_armgcc/openstack/04-TRAN/openudp.c **** 
 155:build/openmote-cc2538_armgcc/openstack/04-TRAN/openudp.c ****    if (udp_send_done_callback_ptr == NULL) {
 619              		.loc 1 155 0
 620 028a BB68     		ldr	r3, [r7, #8]
 621 028c 002B     		cmp	r3, #0
 622 028e 0AD1     		bne	.L28
 156:build/openmote-cc2538_armgcc/openstack/04-TRAN/openudp.c ****       openserial_printError(COMPONENT_OPENUDP,ERR_UNSUPPORTED_PORT_NUMBER,
 157:build/openmote-cc2538_armgcc/openstack/04-TRAN/openudp.c ****                             (errorparameter_t)msg->l4_sourcePortORicmpv6Type,
 623              		.loc 1 157 0
 624 0290 7B68     		ldr	r3, [r7, #4]
 625 0292 1A8A     		ldrh	r2, [r3, #16]
 156:build/openmote-cc2538_armgcc/openstack/04-TRAN/openudp.c ****       openserial_printError(COMPONENT_OPENUDP,ERR_UNSUPPORTED_PORT_NUMBER,
 626              		.loc 1 156 0
 627 0294 0523     		movs	r3, #5
 628 0296 0921     		movs	r1, #9
 629 0298 1920     		movs	r0, #25
 630 029a FFF7FEFF 		bl	openserial_printError
 158:build/openmote-cc2538_armgcc/openstack/04-TRAN/openudp.c ****                             (errorparameter_t)5);
 159:build/openmote-cc2538_armgcc/openstack/04-TRAN/openudp.c ****       openqueue_freePacketBuffer(msg);
 631              		.loc 1 159 0
 632 029e 7868     		ldr	r0, [r7, #4]
 633 02a0 FFF7FEFF 		bl	openqueue_freePacketBuffer
 160:build/openmote-cc2538_armgcc/openstack/04-TRAN/openudp.c ****       return;
 634              		.loc 1 160 0
 635 02a4 04E0     		b	.L21
 636              	.L28:
 161:build/openmote-cc2538_armgcc/openstack/04-TRAN/openudp.c ****    }
 162:build/openmote-cc2538_armgcc/openstack/04-TRAN/openudp.c **** 
 163:build/openmote-cc2538_armgcc/openstack/04-TRAN/openudp.c ****    // handle send completion
 164:build/openmote-cc2538_armgcc/openstack/04-TRAN/openudp.c ****    udp_send_done_callback_ptr(msg, error);
 637              		.loc 1 164 0
 638 02a6 FA78     		ldrb	r2, [r7, #3]	@ zero_extendqisi2
 639 02a8 BB68     		ldr	r3, [r7, #8]
 640 02aa 1146     		mov	r1, r2
 641 02ac 7868     		ldr	r0, [r7, #4]
 642 02ae 9847     		blx	r3
 643              	.L21:
 165:build/openmote-cc2538_armgcc/openstack/04-TRAN/openudp.c **** }
 644              		.loc 1 165 0
 645 02b0 1037     		adds	r7, r7, #16
 646              		.cfi_def_cfa_offset 8
 647 02b2 BD46     		mov	sp, r7
 648              		.cfi_def_cfa_register 13
 649              		@ sp needed
 650 02b4 80BD     		pop	{r7, pc}
 651              	.L31:
 652 02b6 00BF     		.align	2
 653              	.L30:
 654 02b8 00000000 		.word	openudp_vars
 655 02bc 00000000 		.word	openudp_sendDone_default_handler
 656              		.cfi_endproc
 657              	.LFE3:
 659              		.align	2
 660              		.global	openudp_receive
 661              		.thumb
 662              		.thumb_func
 664              	openudp_receive:
 665              	.LFB4:
 166:build/openmote-cc2538_armgcc/openstack/04-TRAN/openudp.c **** 
 167:build/openmote-cc2538_armgcc/openstack/04-TRAN/openudp.c **** void openudp_receive(OpenQueueEntry_t* msg) {
 666              		.loc 1 167 0
 667              		.cfi_startproc
 668              		@ args = 0, pretend = 0, frame = 24
 669              		@ frame_needed = 1, uses_anonymous_args = 0
 670 02c0 80B5     		push	{r7, lr}
 671              		.cfi_def_cfa_offset 8
 672              		.cfi_offset 7, -8
 673              		.cfi_offset 14, -4
 674 02c2 86B0     		sub	sp, sp, #24
 675              		.cfi_def_cfa_offset 32
 676 02c4 00AF     		add	r7, sp, #0
 677              		.cfi_def_cfa_register 7
 678 02c6 7860     		str	r0, [r7, #4]
 168:build/openmote-cc2538_armgcc/openstack/04-TRAN/openudp.c ****    uint8_t temp_8b;
 169:build/openmote-cc2538_armgcc/openstack/04-TRAN/openudp.c ****    udp_resource_desc_t* resource;
 170:build/openmote-cc2538_armgcc/openstack/04-TRAN/openudp.c ****    udp_callbackReceive_cbt udp_receive_done_callback_ptr = NULL;
 679              		.loc 1 170 0
 680 02c8 0023     		movs	r3, #0
 681 02ca 3B61     		str	r3, [r7, #16]
 171:build/openmote-cc2538_armgcc/openstack/04-TRAN/openudp.c **** 
 172:build/openmote-cc2538_armgcc/openstack/04-TRAN/openudp.c ****    msg->owner = COMPONENT_OPENUDP;
 682              		.loc 1 172 0
 683 02cc 7B68     		ldr	r3, [r7, #4]
 684 02ce 1922     		movs	r2, #25
 685 02d0 5A70     		strb	r2, [r3, #1]
 173:build/openmote-cc2538_armgcc/openstack/04-TRAN/openudp.c **** 
 174:build/openmote-cc2538_armgcc/openstack/04-TRAN/openudp.c ****    if (msg->l4_protocol_compressed==TRUE) {
 686              		.loc 1 174 0
 687 02d2 7B68     		ldr	r3, [r7, #4]
 688 02d4 DB7B     		ldrb	r3, [r3, #15]	@ zero_extendqisi2
 689 02d6 002B     		cmp	r3, #0
 690 02d8 00F09A80 		beq	.L33
 175:build/openmote-cc2538_armgcc/openstack/04-TRAN/openudp.c ****       // get the UDP header encoding byte
 176:build/openmote-cc2538_armgcc/openstack/04-TRAN/openudp.c ****       temp_8b = *((uint8_t*)(msg->payload));
 691              		.loc 1 176 0
 692 02dc 7B68     		ldr	r3, [r7, #4]
 693 02de 5B68     		ldr	r3, [r3, #4]
 694 02e0 1B78     		ldrb	r3, [r3]
 695 02e2 FB73     		strb	r3, [r7, #15]
 177:build/openmote-cc2538_armgcc/openstack/04-TRAN/openudp.c ****       packetfunctions_tossHeader(msg,sizeof(temp_8b));
 696              		.loc 1 177 0
 697 02e4 0121     		movs	r1, #1
 698 02e6 7868     		ldr	r0, [r7, #4]
 699 02e8 FFF7FEFF 		bl	packetfunctions_tossHeader
 178:build/openmote-cc2538_armgcc/openstack/04-TRAN/openudp.c ****       switch (temp_8b & NHC_UDP_PORTS_MASK) {
 700              		.loc 1 178 0
 701 02ec FB7B     		ldrb	r3, [r7, #15]	@ zero_extendqisi2
 702 02ee 03F00303 		and	r3, r3, #3
 703 02f2 032B     		cmp	r3, #3
 704 02f4 00F2AF80 		bhi	.L40
 705 02f8 01A2     		adr	r2, .L36
 706 02fa 52F823F0 		ldr	pc, [r2, r3, lsl #2]
 707 02fe 00BF     		.p2align 2
 708              	.L36:
 709 0300 11030000 		.word	.L35+1
 710 0304 59030000 		.word	.L37+1
 711 0308 95030000 		.word	.L38+1
 712 030c D1030000 		.word	.L39+1
 713              		.p2align 1
 714              	.L35:
 179:build/openmote-cc2538_armgcc/openstack/04-TRAN/openudp.c ****          case NHC_UDP_PORTS_INLINE:
 180:build/openmote-cc2538_armgcc/openstack/04-TRAN/openudp.c ****             // source port:         16 bits in-line
 181:build/openmote-cc2538_armgcc/openstack/04-TRAN/openudp.c ****             // dest port:           16 bits in-line
 182:build/openmote-cc2538_armgcc/openstack/04-TRAN/openudp.c ****             msg->l4_sourcePortORicmpv6Type  = msg->payload[0]*256+msg->payload[1];
 715              		.loc 1 182 0
 716 0310 7B68     		ldr	r3, [r7, #4]
 717 0312 5B68     		ldr	r3, [r3, #4]
 718 0314 1B78     		ldrb	r3, [r3]	@ zero_extendqisi2
 719 0316 9BB2     		uxth	r3, r3
 720 0318 1B02     		lsls	r3, r3, #8
 721 031a 9AB2     		uxth	r2, r3
 722 031c 7B68     		ldr	r3, [r7, #4]
 723 031e 5B68     		ldr	r3, [r3, #4]
 724 0320 0133     		adds	r3, r3, #1
 725 0322 1B78     		ldrb	r3, [r3]	@ zero_extendqisi2
 726 0324 9BB2     		uxth	r3, r3
 727 0326 1344     		add	r3, r3, r2
 728 0328 9AB2     		uxth	r2, r3
 729 032a 7B68     		ldr	r3, [r7, #4]
 730 032c 1A82     		strh	r2, [r3, #16]	@ movhi
 183:build/openmote-cc2538_armgcc/openstack/04-TRAN/openudp.c ****             msg->l4_destination_port        = msg->payload[2]*256+msg->payload[3];
 731              		.loc 1 183 0
 732 032e 7B68     		ldr	r3, [r7, #4]
 733 0330 5B68     		ldr	r3, [r3, #4]
 734 0332 0233     		adds	r3, r3, #2
 735 0334 1B78     		ldrb	r3, [r3]	@ zero_extendqisi2
 736 0336 9BB2     		uxth	r3, r3
 737 0338 1B02     		lsls	r3, r3, #8
 738 033a 9AB2     		uxth	r2, r3
 739 033c 7B68     		ldr	r3, [r7, #4]
 740 033e 5B68     		ldr	r3, [r3, #4]
 741 0340 0333     		adds	r3, r3, #3
 742 0342 1B78     		ldrb	r3, [r3]	@ zero_extendqisi2
 743 0344 9BB2     		uxth	r3, r3
 744 0346 1344     		add	r3, r3, r2
 745 0348 9AB2     		uxth	r2, r3
 746 034a 7B68     		ldr	r3, [r7, #4]
 747 034c 5A82     		strh	r2, [r3, #18]	@ movhi
 184:build/openmote-cc2538_armgcc/openstack/04-TRAN/openudp.c ****             packetfunctions_tossHeader(msg,2+2);
 748              		.loc 1 184 0
 749 034e 0421     		movs	r1, #4
 750 0350 7868     		ldr	r0, [r7, #4]
 751 0352 FFF7FEFF 		bl	packetfunctions_tossHeader
 185:build/openmote-cc2538_armgcc/openstack/04-TRAN/openudp.c ****             break;
 752              		.loc 1 185 0
 753 0356 7EE0     		b	.L40
 754              	.L37:
 186:build/openmote-cc2538_armgcc/openstack/04-TRAN/openudp.c ****          case NHC_UDP_PORTS_16S_8D:
 187:build/openmote-cc2538_armgcc/openstack/04-TRAN/openudp.c ****             // source port:         16 bits in-line
 188:build/openmote-cc2538_armgcc/openstack/04-TRAN/openudp.c ****             // dest port:   0xf0  +  8 bits in-line
 189:build/openmote-cc2538_armgcc/openstack/04-TRAN/openudp.c ****             msg->l4_sourcePortORicmpv6Type  = msg->payload[0]*256+msg->payload[1];
 755              		.loc 1 189 0
 756 0358 7B68     		ldr	r3, [r7, #4]
 757 035a 5B68     		ldr	r3, [r3, #4]
 758 035c 1B78     		ldrb	r3, [r3]	@ zero_extendqisi2
 759 035e 9BB2     		uxth	r3, r3
 760 0360 1B02     		lsls	r3, r3, #8
 761 0362 9AB2     		uxth	r2, r3
 762 0364 7B68     		ldr	r3, [r7, #4]
 763 0366 5B68     		ldr	r3, [r3, #4]
 764 0368 0133     		adds	r3, r3, #1
 765 036a 1B78     		ldrb	r3, [r3]	@ zero_extendqisi2
 766 036c 9BB2     		uxth	r3, r3
 767 036e 1344     		add	r3, r3, r2
 768 0370 9AB2     		uxth	r2, r3
 769 0372 7B68     		ldr	r3, [r7, #4]
 770 0374 1A82     		strh	r2, [r3, #16]	@ movhi
 190:build/openmote-cc2538_armgcc/openstack/04-TRAN/openudp.c ****             msg->l4_destination_port        = 0xf000 +            msg->payload[2];
 771              		.loc 1 190 0
 772 0376 7B68     		ldr	r3, [r7, #4]
 773 0378 5B68     		ldr	r3, [r3, #4]
 774 037a 0233     		adds	r3, r3, #2
 775 037c 1B78     		ldrb	r3, [r3]	@ zero_extendqisi2
 776 037e 9BB2     		uxth	r3, r3
 777 0380 A3F58053 		sub	r3, r3, #4096
 778 0384 9AB2     		uxth	r2, r3
 779 0386 7B68     		ldr	r3, [r7, #4]
 780 0388 5A82     		strh	r2, [r3, #18]	@ movhi
 191:build/openmote-cc2538_armgcc/openstack/04-TRAN/openudp.c ****             packetfunctions_tossHeader(msg,2+1);
 781              		.loc 1 191 0
 782 038a 0321     		movs	r1, #3
 783 038c 7868     		ldr	r0, [r7, #4]
 784 038e FFF7FEFF 		bl	packetfunctions_tossHeader
 192:build/openmote-cc2538_armgcc/openstack/04-TRAN/openudp.c ****             break;
 785              		.loc 1 192 0
 786 0392 60E0     		b	.L40
 787              	.L38:
 193:build/openmote-cc2538_armgcc/openstack/04-TRAN/openudp.c ****          case NHC_UDP_PORTS_8S_16D:
 194:build/openmote-cc2538_armgcc/openstack/04-TRAN/openudp.c ****             // source port: 0xf0  +  8 bits in-line
 195:build/openmote-cc2538_armgcc/openstack/04-TRAN/openudp.c ****             // dest port:   0xf0  +  8 bits in-line
 196:build/openmote-cc2538_armgcc/openstack/04-TRAN/openudp.c ****             msg->l4_sourcePortORicmpv6Type  = 0xf000 +            msg->payload[0];
 788              		.loc 1 196 0
 789 0394 7B68     		ldr	r3, [r7, #4]
 790 0396 5B68     		ldr	r3, [r3, #4]
 791 0398 1B78     		ldrb	r3, [r3]	@ zero_extendqisi2
 792 039a 9BB2     		uxth	r3, r3
 793 039c A3F58053 		sub	r3, r3, #4096
 794 03a0 9AB2     		uxth	r2, r3
 795 03a2 7B68     		ldr	r3, [r7, #4]
 796 03a4 1A82     		strh	r2, [r3, #16]	@ movhi
 197:build/openmote-cc2538_armgcc/openstack/04-TRAN/openudp.c ****             msg->l4_destination_port        = msg->payload[1]*256+msg->payload[2];
 797              		.loc 1 197 0
 798 03a6 7B68     		ldr	r3, [r7, #4]
 799 03a8 5B68     		ldr	r3, [r3, #4]
 800 03aa 0133     		adds	r3, r3, #1
 801 03ac 1B78     		ldrb	r3, [r3]	@ zero_extendqisi2
 802 03ae 9BB2     		uxth	r3, r3
 803 03b0 1B02     		lsls	r3, r3, #8
 804 03b2 9AB2     		uxth	r2, r3
 805 03b4 7B68     		ldr	r3, [r7, #4]
 806 03b6 5B68     		ldr	r3, [r3, #4]
 807 03b8 0233     		adds	r3, r3, #2
 808 03ba 1B78     		ldrb	r3, [r3]	@ zero_extendqisi2
 809 03bc 9BB2     		uxth	r3, r3
 810 03be 1344     		add	r3, r3, r2
 811 03c0 9AB2     		uxth	r2, r3
 812 03c2 7B68     		ldr	r3, [r7, #4]
 813 03c4 5A82     		strh	r2, [r3, #18]	@ movhi
 198:build/openmote-cc2538_armgcc/openstack/04-TRAN/openudp.c ****             packetfunctions_tossHeader(msg,1+2);
 814              		.loc 1 198 0
 815 03c6 0321     		movs	r1, #3
 816 03c8 7868     		ldr	r0, [r7, #4]
 817 03ca FFF7FEFF 		bl	packetfunctions_tossHeader
 199:build/openmote-cc2538_armgcc/openstack/04-TRAN/openudp.c ****             break;
 818              		.loc 1 199 0
 819 03ce 42E0     		b	.L40
 820              	.L39:
 200:build/openmote-cc2538_armgcc/openstack/04-TRAN/openudp.c ****          case NHC_UDP_PORTS_4S_4D:
 201:build/openmote-cc2538_armgcc/openstack/04-TRAN/openudp.c ****             // source port: 0xf0b +  4 bits in-line
 202:build/openmote-cc2538_armgcc/openstack/04-TRAN/openudp.c ****             // dest port:   0xf0b +  4 bits in-line
 203:build/openmote-cc2538_armgcc/openstack/04-TRAN/openudp.c ****             msg->l4_sourcePortORicmpv6Type  = 0xf0b0 + ((msg->payload[0] >> 4) & 0x0f);
 821              		.loc 1 203 0
 822 03d0 7B68     		ldr	r3, [r7, #4]
 823 03d2 5B68     		ldr	r3, [r3, #4]
 824 03d4 1B78     		ldrb	r3, [r3]	@ zero_extendqisi2
 825 03d6 1B09     		lsrs	r3, r3, #4
 826 03d8 DBB2     		uxtb	r3, r3
 827 03da 9BB2     		uxth	r3, r3
 828 03dc 03F00F03 		and	r3, r3, #15
 829 03e0 9BB2     		uxth	r3, r3
 830 03e2 A3F57563 		sub	r3, r3, #3920
 831 03e6 9AB2     		uxth	r2, r3
 832 03e8 7B68     		ldr	r3, [r7, #4]
 833 03ea 1A82     		strh	r2, [r3, #16]	@ movhi
 204:build/openmote-cc2538_armgcc/openstack/04-TRAN/openudp.c ****             msg->l4_destination_port        = 0xf0b0 + ((msg->payload[0] >> 0) & 0x0f);
 834              		.loc 1 204 0
 835 03ec 7B68     		ldr	r3, [r7, #4]
 836 03ee 5B68     		ldr	r3, [r3, #4]
 837 03f0 1B78     		ldrb	r3, [r3]	@ zero_extendqisi2
 838 03f2 9BB2     		uxth	r3, r3
 839 03f4 03F00F03 		and	r3, r3, #15
 840 03f8 9BB2     		uxth	r3, r3
 841 03fa A3F57563 		sub	r3, r3, #3920
 842 03fe 9AB2     		uxth	r2, r3
 843 0400 7B68     		ldr	r3, [r7, #4]
 844 0402 5A82     		strh	r2, [r3, #18]	@ movhi
 205:build/openmote-cc2538_armgcc/openstack/04-TRAN/openudp.c ****             packetfunctions_tossHeader(msg,1);
 845              		.loc 1 205 0
 846 0404 0121     		movs	r1, #1
 847 0406 7868     		ldr	r0, [r7, #4]
 848 0408 FFF7FEFF 		bl	packetfunctions_tossHeader
 206:build/openmote-cc2538_armgcc/openstack/04-TRAN/openudp.c ****             break;
 849              		.loc 1 206 0
 850 040c 00BF     		nop
 851 040e 22E0     		b	.L40
 852              	.L33:
 207:build/openmote-cc2538_armgcc/openstack/04-TRAN/openudp.c ****       }
 208:build/openmote-cc2538_armgcc/openstack/04-TRAN/openudp.c ****    } else {
 209:build/openmote-cc2538_armgcc/openstack/04-TRAN/openudp.c ****       msg->l4_sourcePortORicmpv6Type  = msg->payload[0]*256+msg->payload[1];
 853              		.loc 1 209 0
 854 0410 7B68     		ldr	r3, [r7, #4]
 855 0412 5B68     		ldr	r3, [r3, #4]
 856 0414 1B78     		ldrb	r3, [r3]	@ zero_extendqisi2
 857 0416 9BB2     		uxth	r3, r3
 858 0418 1B02     		lsls	r3, r3, #8
 859 041a 9AB2     		uxth	r2, r3
 860 041c 7B68     		ldr	r3, [r7, #4]
 861 041e 5B68     		ldr	r3, [r3, #4]
 862 0420 0133     		adds	r3, r3, #1
 863 0422 1B78     		ldrb	r3, [r3]	@ zero_extendqisi2
 864 0424 9BB2     		uxth	r3, r3
 865 0426 1344     		add	r3, r3, r2
 866 0428 9AB2     		uxth	r2, r3
 867 042a 7B68     		ldr	r3, [r7, #4]
 868 042c 1A82     		strh	r2, [r3, #16]	@ movhi
 210:build/openmote-cc2538_armgcc/openstack/04-TRAN/openudp.c ****       msg->l4_destination_port        = msg->payload[2]*256+msg->payload[3];
 869              		.loc 1 210 0
 870 042e 7B68     		ldr	r3, [r7, #4]
 871 0430 5B68     		ldr	r3, [r3, #4]
 872 0432 0233     		adds	r3, r3, #2
 873 0434 1B78     		ldrb	r3, [r3]	@ zero_extendqisi2
 874 0436 9BB2     		uxth	r3, r3
 875 0438 1B02     		lsls	r3, r3, #8
 876 043a 9AB2     		uxth	r2, r3
 877 043c 7B68     		ldr	r3, [r7, #4]
 878 043e 5B68     		ldr	r3, [r3, #4]
 879 0440 0333     		adds	r3, r3, #3
 880 0442 1B78     		ldrb	r3, [r3]	@ zero_extendqisi2
 881 0444 9BB2     		uxth	r3, r3
 882 0446 1344     		add	r3, r3, r2
 883 0448 9AB2     		uxth	r2, r3
 884 044a 7B68     		ldr	r3, [r7, #4]
 885 044c 5A82     		strh	r2, [r3, #18]	@ movhi
 211:build/openmote-cc2538_armgcc/openstack/04-TRAN/openudp.c ****       packetfunctions_tossHeader(msg,sizeof(udp_ht));
 886              		.loc 1 211 0
 887 044e 0821     		movs	r1, #8
 888 0450 7868     		ldr	r0, [r7, #4]
 889 0452 FFF7FEFF 		bl	packetfunctions_tossHeader
 890              	.L40:
 212:build/openmote-cc2538_armgcc/openstack/04-TRAN/openudp.c ****    }
 213:build/openmote-cc2538_armgcc/openstack/04-TRAN/openudp.c ****    
 214:build/openmote-cc2538_armgcc/openstack/04-TRAN/openudp.c ****    // iterate list of registered resources
 215:build/openmote-cc2538_armgcc/openstack/04-TRAN/openudp.c ****    resource = openudp_vars.resources;
 891              		.loc 1 215 0
 892 0456 174B     		ldr	r3, .L50
 893 0458 1B68     		ldr	r3, [r3]
 894 045a 7B61     		str	r3, [r7, #20]
 216:build/openmote-cc2538_armgcc/openstack/04-TRAN/openudp.c ****    while (NULL != resource) {
 895              		.loc 1 216 0
 896 045c 12E0     		b	.L41
 897              	.L46:
 217:build/openmote-cc2538_armgcc/openstack/04-TRAN/openudp.c ****       if (resource->port == msg->l4_destination_port) {
 898              		.loc 1 217 0
 899 045e 7B69     		ldr	r3, [r7, #20]
 900 0460 1A88     		ldrh	r2, [r3]
 901 0462 7B68     		ldr	r3, [r7, #4]
 902 0464 5B8A     		ldrh	r3, [r3, #18]
 903 0466 9A42     		cmp	r2, r3
 904 0468 09D1     		bne	.L42
 218:build/openmote-cc2538_armgcc/openstack/04-TRAN/openudp.c ****         udp_receive_done_callback_ptr = (resource->callbackReceive == NULL) ? openudp_receive_defau
 905              		.loc 1 218 0
 906 046a 7B69     		ldr	r3, [r7, #20]
 907 046c 5B68     		ldr	r3, [r3, #4]
 219:build/openmote-cc2538_armgcc/openstack/04-TRAN/openudp.c ****                                                                             : resource->callbackRec
 908              		.loc 1 219 0
 909 046e 002B     		cmp	r3, #0
 910 0470 02D0     		beq	.L43
 911              		.loc 1 219 0 is_stmt 0 discriminator 1
 912 0472 7B69     		ldr	r3, [r7, #20]
 913 0474 5B68     		ldr	r3, [r3, #4]
 914 0476 00E0     		b	.L44
 915              	.L43:
 916              		.loc 1 219 0 discriminator 2
 917 0478 0F4B     		ldr	r3, .L50+4
 918              	.L44:
 218:build/openmote-cc2538_armgcc/openstack/04-TRAN/openudp.c ****         udp_receive_done_callback_ptr = (resource->callbackReceive == NULL) ? openudp_receive_defau
 919              		.loc 1 218 0 is_stmt 1
 920 047a 3B61     		str	r3, [r7, #16]
 220:build/openmote-cc2538_armgcc/openstack/04-TRAN/openudp.c ****          break;
 921              		.loc 1 220 0
 922 047c 05E0     		b	.L45
 923              	.L42:
 221:build/openmote-cc2538_armgcc/openstack/04-TRAN/openudp.c ****       }
 222:build/openmote-cc2538_armgcc/openstack/04-TRAN/openudp.c ****       resource = resource->next;
 924              		.loc 1 222 0
 925 047e 7B69     		ldr	r3, [r7, #20]
 926 0480 DB68     		ldr	r3, [r3, #12]
 927 0482 7B61     		str	r3, [r7, #20]
 928              	.L41:
 216:build/openmote-cc2538_armgcc/openstack/04-TRAN/openudp.c ****       if (resource->port == msg->l4_destination_port) {
 929              		.loc 1 216 0
 930 0484 7B69     		ldr	r3, [r7, #20]
 931 0486 002B     		cmp	r3, #0
 932 0488 E9D1     		bne	.L46
 933              	.L45:
 223:build/openmote-cc2538_armgcc/openstack/04-TRAN/openudp.c ****    }
 224:build/openmote-cc2538_armgcc/openstack/04-TRAN/openudp.c **** 
 225:build/openmote-cc2538_armgcc/openstack/04-TRAN/openudp.c ****    if (udp_receive_done_callback_ptr == NULL) {
 934              		.loc 1 225 0
 935 048a 3B69     		ldr	r3, [r7, #16]
 936 048c 002B     		cmp	r3, #0
 937 048e 0AD1     		bne	.L47
 226:build/openmote-cc2538_armgcc/openstack/04-TRAN/openudp.c ****       openserial_printError(COMPONENT_OPENUDP,ERR_UNSUPPORTED_PORT_NUMBER,
 227:build/openmote-cc2538_armgcc/openstack/04-TRAN/openudp.c ****                             (errorparameter_t)msg->l4_destination_port,
 938              		.loc 1 227 0
 939 0490 7B68     		ldr	r3, [r7, #4]
 940 0492 5A8A     		ldrh	r2, [r3, #18]
 226:build/openmote-cc2538_armgcc/openstack/04-TRAN/openudp.c ****       openserial_printError(COMPONENT_OPENUDP,ERR_UNSUPPORTED_PORT_NUMBER,
 941              		.loc 1 226 0
 942 0494 0623     		movs	r3, #6
 943 0496 0921     		movs	r1, #9
 944 0498 1920     		movs	r0, #25
 945 049a FFF7FEFF 		bl	openserial_printError
 228:build/openmote-cc2538_armgcc/openstack/04-TRAN/openudp.c ****                             (errorparameter_t)6);
 229:build/openmote-cc2538_armgcc/openstack/04-TRAN/openudp.c ****       openqueue_freePacketBuffer(msg);
 946              		.loc 1 229 0
 947 049e 7868     		ldr	r0, [r7, #4]
 948 04a0 FFF7FEFF 		bl	openqueue_freePacketBuffer
 230:build/openmote-cc2538_armgcc/openstack/04-TRAN/openudp.c ****    } else {
 231:build/openmote-cc2538_armgcc/openstack/04-TRAN/openudp.c ****       // forward message to resource
 232:build/openmote-cc2538_armgcc/openstack/04-TRAN/openudp.c ****       udp_receive_done_callback_ptr(msg);  
 233:build/openmote-cc2538_armgcc/openstack/04-TRAN/openudp.c ****    }
 234:build/openmote-cc2538_armgcc/openstack/04-TRAN/openudp.c **** }
 949              		.loc 1 234 0
 950 04a4 02E0     		b	.L49
 951              	.L47:
 232:build/openmote-cc2538_armgcc/openstack/04-TRAN/openudp.c ****    }
 952              		.loc 1 232 0
 953 04a6 3B69     		ldr	r3, [r7, #16]
 954 04a8 7868     		ldr	r0, [r7, #4]
 955 04aa 9847     		blx	r3
 956              	.L49:
 957              		.loc 1 234 0
 958 04ac 00BF     		nop
 959 04ae 1837     		adds	r7, r7, #24
 960              		.cfi_def_cfa_offset 8
 961 04b0 BD46     		mov	sp, r7
 962              		.cfi_def_cfa_register 13
 963              		@ sp needed
 964 04b2 80BD     		pop	{r7, pc}
 965              	.L51:
 966              		.align	2
 967              	.L50:
 968 04b4 00000000 		.word	openudp_vars
 969 04b8 00000000 		.word	openudp_receive_default_handler
 970              		.cfi_endproc
 971              	.LFE4:
 973              		.align	2
 974              		.global	openudp_debugPrint
 975              		.thumb
 976              		.thumb_func
 978              	openudp_debugPrint:
 979              	.LFB5:
 235:build/openmote-cc2538_armgcc/openstack/04-TRAN/openudp.c **** 
 236:build/openmote-cc2538_armgcc/openstack/04-TRAN/openudp.c **** bool openudp_debugPrint() {
 980              		.loc 1 236 0
 981              		.cfi_startproc
 982              		@ args = 0, pretend = 0, frame = 0
 983              		@ frame_needed = 1, uses_anonymous_args = 0
 984              		@ link register save eliminated.
 985 04bc 80B4     		push	{r7}
 986              		.cfi_def_cfa_offset 4
 987              		.cfi_offset 7, -4
 988 04be 00AF     		add	r7, sp, #0
 989              		.cfi_def_cfa_register 7
 237:build/openmote-cc2538_armgcc/openstack/04-TRAN/openudp.c ****    return FALSE;
 990              		.loc 1 237 0
 991 04c0 0023     		movs	r3, #0
 238:build/openmote-cc2538_armgcc/openstack/04-TRAN/openudp.c **** }
 992              		.loc 1 238 0
 993 04c2 1846     		mov	r0, r3
 994 04c4 BD46     		mov	sp, r7
 995              		.cfi_def_cfa_register 13
 996              		@ sp needed
 997 04c6 80BC     		pop	{r7}
 998              		.cfi_restore 7
 999              		.cfi_def_cfa_offset 0
 1000 04c8 7047     		bx	lr
 1001              		.cfi_endproc
 1002              	.LFE5:
 1004 04ca 00BF     		.align	2
 1005              		.thumb
 1006              		.thumb_func
 1008              	openudp_sendDone_default_handler:
 1009              	.LFB6:
 239:build/openmote-cc2538_armgcc/openstack/04-TRAN/openudp.c **** 
 240:build/openmote-cc2538_armgcc/openstack/04-TRAN/openudp.c **** //=========================== private =========================================
 241:build/openmote-cc2538_armgcc/openstack/04-TRAN/openudp.c **** 
 242:build/openmote-cc2538_armgcc/openstack/04-TRAN/openudp.c **** static void openudp_sendDone_default_handler(OpenQueueEntry_t* msg, owerror_t error) {
 1010              		.loc 1 242 0
 1011              		.cfi_startproc
 1012              		@ args = 0, pretend = 0, frame = 8
 1013              		@ frame_needed = 1, uses_anonymous_args = 0
 1014 04cc 80B5     		push	{r7, lr}
 1015              		.cfi_def_cfa_offset 8
 1016              		.cfi_offset 7, -8
 1017              		.cfi_offset 14, -4
 1018 04ce 82B0     		sub	sp, sp, #8
 1019              		.cfi_def_cfa_offset 16
 1020 04d0 00AF     		add	r7, sp, #0
 1021              		.cfi_def_cfa_register 7
 1022 04d2 7860     		str	r0, [r7, #4]
 1023 04d4 0B46     		mov	r3, r1
 1024 04d6 FB70     		strb	r3, [r7, #3]
 243:build/openmote-cc2538_armgcc/openstack/04-TRAN/openudp.c ****    openqueue_freePacketBuffer(msg);
 1025              		.loc 1 243 0
 1026 04d8 7868     		ldr	r0, [r7, #4]
 1027 04da FFF7FEFF 		bl	openqueue_freePacketBuffer
 244:build/openmote-cc2538_armgcc/openstack/04-TRAN/openudp.c **** }
 1028              		.loc 1 244 0
 1029 04de 00BF     		nop
 1030 04e0 0837     		adds	r7, r7, #8
 1031              		.cfi_def_cfa_offset 8
 1032 04e2 BD46     		mov	sp, r7
 1033              		.cfi_def_cfa_register 13
 1034              		@ sp needed
 1035 04e4 80BD     		pop	{r7, pc}
 1036              		.cfi_endproc
 1037              	.LFE6:
 1039 04e6 00BF     		.align	2
 1040              		.thumb
 1041              		.thumb_func
 1043              	openudp_receive_default_handler:
 1044              	.LFB7:
 245:build/openmote-cc2538_armgcc/openstack/04-TRAN/openudp.c **** 
 246:build/openmote-cc2538_armgcc/openstack/04-TRAN/openudp.c **** static void openudp_receive_default_handler(OpenQueueEntry_t* msg) {
 1045              		.loc 1 246 0
 1046              		.cfi_startproc
 1047              		@ args = 0, pretend = 0, frame = 8
 1048              		@ frame_needed = 1, uses_anonymous_args = 0
 1049 04e8 80B5     		push	{r7, lr}
 1050              		.cfi_def_cfa_offset 8
 1051              		.cfi_offset 7, -8
 1052              		.cfi_offset 14, -4
 1053 04ea 82B0     		sub	sp, sp, #8
 1054              		.cfi_def_cfa_offset 16
 1055 04ec 00AF     		add	r7, sp, #0
 1056              		.cfi_def_cfa_register 7
 1057 04ee 7860     		str	r0, [r7, #4]
 247:build/openmote-cc2538_armgcc/openstack/04-TRAN/openudp.c ****    openqueue_freePacketBuffer(msg);
 1058              		.loc 1 247 0
 1059 04f0 7868     		ldr	r0, [r7, #4]
 1060 04f2 FFF7FEFF 		bl	openqueue_freePacketBuffer
 248:build/openmote-cc2538_armgcc/openstack/04-TRAN/openudp.c **** }
 1061              		.loc 1 248 0
 1062 04f6 00BF     		nop
 1063 04f8 0837     		adds	r7, r7, #8
 1064              		.cfi_def_cfa_offset 8
 1065 04fa BD46     		mov	sp, r7
 1066              		.cfi_def_cfa_register 13
 1067              		@ sp needed
 1068 04fc 80BD     		pop	{r7, pc}
 1069              		.cfi_endproc
 1070              	.LFE7:
 1072              	.Letext0:
 1073              		.file 2 "/usr/include/newlib/machine/_default_types.h"
 1074              		.file 3 "/usr/include/newlib/sys/_stdint.h"
 1075              		.file 4 "inc/opendefs.h"
 1076              		.file 5 "build/openmote-cc2538_armgcc/openstack/04-TRAN/openudp.h"
 1077              		.file 6 "openstack/03a-IPHC/iphc.h"
 1078              		.file 7 "bsp/boards/openmote-cc2538/board_info.h"
 1079              		.file 8 "openapps/opencoap/opencoap.h"