   1              		.syntax unified
   2              		.cpu cortex-m3
   3              		.fpu softvfp
   4              		.eabi_attribute 20, 1
   5              		.eabi_attribute 21, 1
   6              		.eabi_attribute 23, 3
   7              		.eabi_attribute 24, 1
   8              		.eabi_attribute 25, 1
   9              		.eabi_attribute 26, 1
  10              		.eabi_attribute 30, 6
  11              		.eabi_attribute 34, 1
  12              		.eabi_attribute 18, 4
  13              		.thumb
  14              		.syntax unified
  15              		.file	"msf.c"
  16              		.text
  17              	.Ltext0:
  18              		.cfi_sections	.debug_frame
  19              		.section	.rodata
  20              		.align	2
  23              	rreg_uriquery:
  24 0000 683D7563 		.ascii	"h=ucb\000"
  24      6200
  25 0006 0000     		.align	2
  28              	infoBoardname:
  29 0008 43433235 		.ascii	"CC2538\000"
  29      333800
  30 000f 00       		.align	2
  33              	infouCName:
  34 0010 43433235 		.ascii	"CC2538\000"
  34      333800
  35 0017 00       		.align	2
  38              	infoRadioName:
  39 0018 43433235 		.ascii	"CC2538 SoC\000"
  39      33382053 
  39      6F4300
  40 0023 00       		.align	2
  43              	infoStackName:
  44 0024 4F70656E 		.ascii	"OpenWSN \000"
  44      57534E20 
  44      00
  45 002d 000000   		.align	2
  48              	all_routers_multicast:
  49 0030 FF       		.byte	-1
  50 0031 02       		.byte	2
  51 0032 00       		.byte	0
  52 0033 00       		.byte	0
  53 0034 00       		.byte	0
  54 0035 00       		.byte	0
  55 0036 00       		.byte	0
  56 0037 00       		.byte	0
  57 0038 00       		.byte	0
  58 0039 00       		.byte	0
  59 003a 00       		.byte	0
  60 003b 00       		.byte	0
  61 003c 00       		.byte	0
  62 003d 00       		.byte	0
  63 003e 00       		.byte	0
  64 003f 1A       		.byte	26
  65              		.align	2
  68              	linklocalprefix:
  69 0040 FE       		.byte	-2
  70 0041 80       		.byte	-128
  71 0042 00       		.byte	0
  72 0043 00       		.byte	0
  73 0044 00       		.byte	0
  74 0045 00       		.byte	0
  75 0046 00       		.byte	0
  76 0047 00       		.byte	0
  77              		.align	2
  80              	chTemplate_default:
  81 0048 05       		.byte	5
  82 0049 06       		.byte	6
  83 004a 0C       		.byte	12
  84 004b 07       		.byte	7
  85 004c 0F       		.byte	15
  86 004d 04       		.byte	4
  87 004e 0E       		.byte	14
  88 004f 0B       		.byte	11
  89 0050 08       		.byte	8
  90 0051 00       		.byte	0
  91 0052 01       		.byte	1
  92 0053 02       		.byte	2
  93 0054 0D       		.byte	13
  94 0055 03       		.byte	3
  95 0056 09       		.byte	9
  96 0057 0A       		.byte	10
  97              		.align	2
 100              	ebIEsBytestream:
 101 0058 1A       		.byte	26
 102 0059 88       		.byte	-120
 103 005a 06       		.byte	6
 104 005b 1A       		.byte	26
 105 005c 00       		.byte	0
 106 005d 00       		.byte	0
 107 005e 00       		.byte	0
 108 005f 00       		.byte	0
 109 0060 00       		.byte	0
 110 0061 00       		.byte	0
 111 0062 01       		.byte	1
 112 0063 1C       		.byte	28
 113 0064 00       		.byte	0
 114 0065 01       		.byte	1
 115 0066 C8       		.byte	-56
 116 0067 00       		.byte	0
 117 0068 0A       		.byte	10
 118 0069 1B       		.byte	27
 119 006a 01       		.byte	1
 120 006b 00       		.byte	0
 121 006c 17       		.byte	23
 122 006d 00       		.byte	0
 123 006e 01       		.byte	1
 124 006f 00       		.byte	0
 125 0070 00       		.byte	0
 126 0071 00       		.byte	0
 127 0072 00       		.byte	0
 128 0073 0F       		.byte	15
 129              		.comm	msf_vars,8,4
 130              		.text
 131              		.align	2
 132              		.global	msf_init
 133              		.thumb
 134              		.thumb_func
 136              	msf_init:
 137              	.LFB0:
 138              		.file 1 "build/openmote-cc2538_armgcc/openstack/02b-MAChigh/msf.c"
   1:build/openmote-cc2538_armgcc/openstack/02b-MAChigh/msf.c **** #include "opendefs.h"
   2:build/openmote-cc2538_armgcc/openstack/02b-MAChigh/msf.c **** #include "msf.h"
   3:build/openmote-cc2538_armgcc/openstack/02b-MAChigh/msf.c **** #include "neighbors.h"
   4:build/openmote-cc2538_armgcc/openstack/02b-MAChigh/msf.c **** #include "sixtop.h"
   5:build/openmote-cc2538_armgcc/openstack/02b-MAChigh/msf.c **** #include "scheduler.h"
   6:build/openmote-cc2538_armgcc/openstack/02b-MAChigh/msf.c **** #include "schedule.h"
   7:build/openmote-cc2538_armgcc/openstack/02b-MAChigh/msf.c **** #include "openapps.h"
   8:build/openmote-cc2538_armgcc/openstack/02b-MAChigh/msf.c **** #include "openrandom.h"
   9:build/openmote-cc2538_armgcc/openstack/02b-MAChigh/msf.c **** #include "idmanager.h"
  10:build/openmote-cc2538_armgcc/openstack/02b-MAChigh/msf.c **** #include "icmpv6rpl.h"
  11:build/openmote-cc2538_armgcc/openstack/02b-MAChigh/msf.c **** #include "IEEE802154E.h"
  12:build/openmote-cc2538_armgcc/openstack/02b-MAChigh/msf.c **** 
  13:build/openmote-cc2538_armgcc/openstack/02b-MAChigh/msf.c **** //=========================== definition =====================================
  14:build/openmote-cc2538_armgcc/openstack/02b-MAChigh/msf.c **** 
  15:build/openmote-cc2538_armgcc/openstack/02b-MAChigh/msf.c **** //=========================== variables =======================================
  16:build/openmote-cc2538_armgcc/openstack/02b-MAChigh/msf.c **** 
  17:build/openmote-cc2538_armgcc/openstack/02b-MAChigh/msf.c **** msf_vars_t msf_vars;
  18:build/openmote-cc2538_armgcc/openstack/02b-MAChigh/msf.c **** 
  19:build/openmote-cc2538_armgcc/openstack/02b-MAChigh/msf.c **** //=========================== prototypes ======================================
  20:build/openmote-cc2538_armgcc/openstack/02b-MAChigh/msf.c **** 
  21:build/openmote-cc2538_armgcc/openstack/02b-MAChigh/msf.c **** // sixtop callback 
  22:build/openmote-cc2538_armgcc/openstack/02b-MAChigh/msf.c **** uint16_t msf_getMetadata(void);
  23:build/openmote-cc2538_armgcc/openstack/02b-MAChigh/msf.c **** metadata_t msf_translateMetadata(void);
  24:build/openmote-cc2538_armgcc/openstack/02b-MAChigh/msf.c **** void msf_handleRCError(uint8_t code, open_addr_t* address);
  25:build/openmote-cc2538_armgcc/openstack/02b-MAChigh/msf.c **** 
  26:build/openmote-cc2538_armgcc/openstack/02b-MAChigh/msf.c **** void msf_timer_housekeeping_cb(opentimers_id_t id);
  27:build/openmote-cc2538_armgcc/openstack/02b-MAChigh/msf.c **** void msf_timer_housekeeping_task(void);
  28:build/openmote-cc2538_armgcc/openstack/02b-MAChigh/msf.c **** 
  29:build/openmote-cc2538_armgcc/openstack/02b-MAChigh/msf.c **** void msf_timer_waitretry_cb(opentimers_id_t id);
  30:build/openmote-cc2538_armgcc/openstack/02b-MAChigh/msf.c **** 
  31:build/openmote-cc2538_armgcc/openstack/02b-MAChigh/msf.c **** void msf_timer_clear_task(void);
  32:build/openmote-cc2538_armgcc/openstack/02b-MAChigh/msf.c **** // msf private
  33:build/openmote-cc2538_armgcc/openstack/02b-MAChigh/msf.c **** void msf_trigger6pAdd(void);
  34:build/openmote-cc2538_armgcc/openstack/02b-MAChigh/msf.c **** void msf_trigger6pDelete(void);
  35:build/openmote-cc2538_armgcc/openstack/02b-MAChigh/msf.c **** void msf_housekeeping(void);
  36:build/openmote-cc2538_armgcc/openstack/02b-MAChigh/msf.c **** 
  37:build/openmote-cc2538_armgcc/openstack/02b-MAChigh/msf.c **** //=========================== public ==========================================
  38:build/openmote-cc2538_armgcc/openstack/02b-MAChigh/msf.c **** 
  39:build/openmote-cc2538_armgcc/openstack/02b-MAChigh/msf.c **** void msf_init(void) {
 139              		.loc 1 39 0
 140              		.cfi_startproc
 141              		@ args = 0, pretend = 0, frame = 0
 142              		@ frame_needed = 1, uses_anonymous_args = 0
 143 0000 90B5     		push	{r4, r7, lr}
 144              		.cfi_def_cfa_offset 12
 145              		.cfi_offset 4, -12
 146              		.cfi_offset 7, -8
 147              		.cfi_offset 14, -4
 148 0002 83B0     		sub	sp, sp, #12
 149              		.cfi_def_cfa_offset 24
 150 0004 02AF     		add	r7, sp, #8
 151              		.cfi_def_cfa 7, 16
  40:build/openmote-cc2538_armgcc/openstack/02b-MAChigh/msf.c ****     memset(&msf_vars,0,sizeof(msf_vars_t));
 152              		.loc 1 40 0
 153 0006 0822     		movs	r2, #8
 154 0008 0021     		movs	r1, #0
 155 000a 1648     		ldr	r0, .L2
 156 000c FFF7FEFF 		bl	memset
  41:build/openmote-cc2538_armgcc/openstack/02b-MAChigh/msf.c ****     msf_vars.numAppPacketsPerSlotFrame = 0;
 157              		.loc 1 41 0
 158 0010 144B     		ldr	r3, .L2
 159 0012 0022     		movs	r2, #0
 160 0014 1A70     		strb	r2, [r3]
  42:build/openmote-cc2538_armgcc/openstack/02b-MAChigh/msf.c ****     sixtop_setSFcallback(
 161              		.loc 1 42 0
 162 0016 144B     		ldr	r3, .L2+4
 163 0018 144A     		ldr	r2, .L2+8
 164 001a 1549     		ldr	r1, .L2+12
 165 001c 1548     		ldr	r0, .L2+16
 166 001e FFF7FEFF 		bl	sixtop_setSFcallback
  43:build/openmote-cc2538_armgcc/openstack/02b-MAChigh/msf.c ****         (sixtop_sf_getsfid)msf_getsfid,
  44:build/openmote-cc2538_armgcc/openstack/02b-MAChigh/msf.c ****         (sixtop_sf_getmetadata)msf_getMetadata,
  45:build/openmote-cc2538_armgcc/openstack/02b-MAChigh/msf.c ****         (sixtop_sf_translatemetadata)msf_translateMetadata,
  46:build/openmote-cc2538_armgcc/openstack/02b-MAChigh/msf.c ****         (sixtop_sf_handle_callback)msf_handleRCError
  47:build/openmote-cc2538_armgcc/openstack/02b-MAChigh/msf.c ****     );
  48:build/openmote-cc2538_armgcc/openstack/02b-MAChigh/msf.c ****     msf_vars.housekeepingTimerId = opentimers_create();
 167              		.loc 1 48 0
 168 0022 FFF7FEFF 		bl	opentimers_create
 169 0026 0346     		mov	r3, r0
 170 0028 1A46     		mov	r2, r3
 171 002a 0E4B     		ldr	r3, .L2
 172 002c 1A71     		strb	r2, [r3, #4]
  49:build/openmote-cc2538_armgcc/openstack/02b-MAChigh/msf.c ****     opentimers_scheduleIn(
 173              		.loc 1 49 0
 174 002e 0D4B     		ldr	r3, .L2
 175 0030 1C79     		ldrb	r4, [r3, #4]	@ zero_extendqisi2
  50:build/openmote-cc2538_armgcc/openstack/02b-MAChigh/msf.c ****         msf_vars.housekeepingTimerId,
  51:build/openmote-cc2538_armgcc/openstack/02b-MAChigh/msf.c ****         872 +(openrandom_get16b()&0xff),
 176              		.loc 1 51 0
 177 0032 FFF7FEFF 		bl	openrandom_get16b
 178 0036 0346     		mov	r3, r0
 179 0038 DBB2     		uxtb	r3, r3
 180 003a 03F55A73 		add	r3, r3, #872
  49:build/openmote-cc2538_armgcc/openstack/02b-MAChigh/msf.c ****     opentimers_scheduleIn(
 181              		.loc 1 49 0
 182 003e 1946     		mov	r1, r3
 183 0040 0D4B     		ldr	r3, .L2+20
 184 0042 0093     		str	r3, [sp]
 185 0044 0123     		movs	r3, #1
 186 0046 0022     		movs	r2, #0
 187 0048 2046     		mov	r0, r4
 188 004a FFF7FEFF 		bl	opentimers_scheduleIn
  52:build/openmote-cc2538_armgcc/openstack/02b-MAChigh/msf.c ****         TIME_MS,
  53:build/openmote-cc2538_armgcc/openstack/02b-MAChigh/msf.c ****         TIMER_ONESHOT,
  54:build/openmote-cc2538_armgcc/openstack/02b-MAChigh/msf.c ****         msf_timer_housekeeping_cb
  55:build/openmote-cc2538_armgcc/openstack/02b-MAChigh/msf.c ****     );
  56:build/openmote-cc2538_armgcc/openstack/02b-MAChigh/msf.c ****     msf_vars.waitretryTimerId    = opentimers_create();
 189              		.loc 1 56 0
 190 004e FFF7FEFF 		bl	opentimers_create
 191 0052 0346     		mov	r3, r0
 192 0054 1A46     		mov	r2, r3
 193 0056 034B     		ldr	r3, .L2
 194 0058 9A71     		strb	r2, [r3, #6]
  57:build/openmote-cc2538_armgcc/openstack/02b-MAChigh/msf.c **** }
 195              		.loc 1 57 0
 196 005a 00BF     		nop
 197 005c 0437     		adds	r7, r7, #4
 198              		.cfi_def_cfa_offset 12
 199 005e BD46     		mov	sp, r7
 200              		.cfi_def_cfa_register 13
 201              		@ sp needed
 202 0060 90BD     		pop	{r4, r7, pc}
 203              	.L3:
 204 0062 00BF     		.align	2
 205              	.L2:
 206 0064 00000000 		.word	msf_vars
 207 0068 00000000 		.word	msf_handleRCError
 208 006c 00000000 		.word	msf_translateMetadata
 209 0070 00000000 		.word	msf_getMetadata
 210 0074 00000000 		.word	msf_getsfid
 211 0078 00000000 		.word	msf_timer_housekeeping_cb
 212              		.cfi_endproc
 213              	.LFE0:
 215              		.align	2
 216              		.global	msf_updateCellsPassed
 217              		.thumb
 218              		.thumb_func
 220              	msf_updateCellsPassed:
 221              	.LFB1:
  58:build/openmote-cc2538_armgcc/openstack/02b-MAChigh/msf.c **** 
  59:build/openmote-cc2538_armgcc/openstack/02b-MAChigh/msf.c **** // called by schedule
  60:build/openmote-cc2538_armgcc/openstack/02b-MAChigh/msf.c **** void    msf_updateCellsPassed(open_addr_t* neighbor){
 222              		.loc 1 60 0
 223              		.cfi_startproc
 224              		@ args = 0, pretend = 0, frame = 8
 225              		@ frame_needed = 1, uses_anonymous_args = 0
 226 007c 80B5     		push	{r7, lr}
 227              		.cfi_def_cfa_offset 8
 228              		.cfi_offset 7, -8
 229              		.cfi_offset 14, -4
 230 007e 82B0     		sub	sp, sp, #8
 231              		.cfi_def_cfa_offset 16
 232 0080 00AF     		add	r7, sp, #0
 233              		.cfi_def_cfa_register 7
 234 0082 7860     		str	r0, [r7, #4]
  61:build/openmote-cc2538_armgcc/openstack/02b-MAChigh/msf.c ****   
  62:build/openmote-cc2538_armgcc/openstack/02b-MAChigh/msf.c ****     if (icmpv6rpl_isPreferredParent(neighbor)==FALSE){
 235              		.loc 1 62 0
 236 0084 7868     		ldr	r0, [r7, #4]
 237 0086 FFF7FEFF 		bl	icmpv6rpl_isPreferredParent
 238 008a 0346     		mov	r3, r0
 239 008c 83F00103 		eor	r3, r3, #1
 240 0090 DBB2     		uxtb	r3, r3
 241 0092 002B     		cmp	r3, #0
 242 0094 1CD1     		bne	.L9
  63:build/openmote-cc2538_armgcc/openstack/02b-MAChigh/msf.c ****         return;
  64:build/openmote-cc2538_armgcc/openstack/02b-MAChigh/msf.c ****     }
  65:build/openmote-cc2538_armgcc/openstack/02b-MAChigh/msf.c ****   
  66:build/openmote-cc2538_armgcc/openstack/02b-MAChigh/msf.c ****     msf_vars.numCellsPassed++;
 243              		.loc 1 66 0
 244 0096 104B     		ldr	r3, .L10
 245 0098 9B78     		ldrb	r3, [r3, #2]	@ zero_extendqisi2
 246 009a 0133     		adds	r3, r3, #1
 247 009c DAB2     		uxtb	r2, r3
 248 009e 0E4B     		ldr	r3, .L10
 249 00a0 9A70     		strb	r2, [r3, #2]
  67:build/openmote-cc2538_armgcc/openstack/02b-MAChigh/msf.c ****     if (msf_vars.numCellsPassed == MAX_NUMCELLS){
 250              		.loc 1 67 0
 251 00a2 0D4B     		ldr	r3, .L10
 252 00a4 9B78     		ldrb	r3, [r3, #2]	@ zero_extendqisi2
 253 00a6 102B     		cmp	r3, #16
 254 00a8 13D1     		bne	.L4
  68:build/openmote-cc2538_armgcc/openstack/02b-MAChigh/msf.c ****         if (msf_vars.numCellsUsed > LIM_NUMCELLSUSED_HIGH){
 255              		.loc 1 68 0
 256 00aa 0B4B     		ldr	r3, .L10
 257 00ac DB78     		ldrb	r3, [r3, #3]	@ zero_extendqisi2
 258 00ae 0C2B     		cmp	r3, #12
 259 00b0 01D9     		bls	.L7
  69:build/openmote-cc2538_armgcc/openstack/02b-MAChigh/msf.c ****             msf_trigger6pAdd();
 260              		.loc 1 69 0
 261 00b2 FFF7FEFF 		bl	msf_trigger6pAdd
 262              	.L7:
  70:build/openmote-cc2538_armgcc/openstack/02b-MAChigh/msf.c ****         }
  71:build/openmote-cc2538_armgcc/openstack/02b-MAChigh/msf.c ****         if (msf_vars.numCellsUsed < LIM_NUMCELLSUSED_LOW){
 263              		.loc 1 71 0
 264 00b6 084B     		ldr	r3, .L10
 265 00b8 DB78     		ldrb	r3, [r3, #3]	@ zero_extendqisi2
 266 00ba 032B     		cmp	r3, #3
 267 00bc 01D8     		bhi	.L8
  72:build/openmote-cc2538_armgcc/openstack/02b-MAChigh/msf.c ****             msf_trigger6pDelete();
 268              		.loc 1 72 0
 269 00be FFF7FEFF 		bl	msf_trigger6pDelete
 270              	.L8:
  73:build/openmote-cc2538_armgcc/openstack/02b-MAChigh/msf.c ****         }
  74:build/openmote-cc2538_armgcc/openstack/02b-MAChigh/msf.c ****         msf_vars.numCellsPassed = 0;
 271              		.loc 1 74 0
 272 00c2 054B     		ldr	r3, .L10
 273 00c4 0022     		movs	r2, #0
 274 00c6 9A70     		strb	r2, [r3, #2]
  75:build/openmote-cc2538_armgcc/openstack/02b-MAChigh/msf.c ****         msf_vars.numCellsUsed   = 0;
 275              		.loc 1 75 0
 276 00c8 034B     		ldr	r3, .L10
 277 00ca 0022     		movs	r2, #0
 278 00cc DA70     		strb	r2, [r3, #3]
 279 00ce 00E0     		b	.L4
 280              	.L9:
  63:build/openmote-cc2538_armgcc/openstack/02b-MAChigh/msf.c ****     }
 281              		.loc 1 63 0
 282 00d0 00BF     		nop
 283              	.L4:
  76:build/openmote-cc2538_armgcc/openstack/02b-MAChigh/msf.c ****     }
  77:build/openmote-cc2538_armgcc/openstack/02b-MAChigh/msf.c **** }
 284              		.loc 1 77 0
 285 00d2 0837     		adds	r7, r7, #8
 286              		.cfi_def_cfa_offset 8
 287 00d4 BD46     		mov	sp, r7
 288              		.cfi_def_cfa_register 13
 289              		@ sp needed
 290 00d6 80BD     		pop	{r7, pc}
 291              	.L11:
 292              		.align	2
 293              	.L10:
 294 00d8 00000000 		.word	msf_vars
 295              		.cfi_endproc
 296              	.LFE1:
 298              		.align	2
 299              		.global	msf_updateCellsUsed
 300              		.thumb
 301              		.thumb_func
 303              	msf_updateCellsUsed:
 304              	.LFB2:
  78:build/openmote-cc2538_armgcc/openstack/02b-MAChigh/msf.c **** 
  79:build/openmote-cc2538_armgcc/openstack/02b-MAChigh/msf.c **** void    msf_updateCellsUsed(open_addr_t* neighbor){
 305              		.loc 1 79 0
 306              		.cfi_startproc
 307              		@ args = 0, pretend = 0, frame = 8
 308              		@ frame_needed = 1, uses_anonymous_args = 0
 309 00dc 80B5     		push	{r7, lr}
 310              		.cfi_def_cfa_offset 8
 311              		.cfi_offset 7, -8
 312              		.cfi_offset 14, -4
 313 00de 82B0     		sub	sp, sp, #8
 314              		.cfi_def_cfa_offset 16
 315 00e0 00AF     		add	r7, sp, #0
 316              		.cfi_def_cfa_register 7
 317 00e2 7860     		str	r0, [r7, #4]
  80:build/openmote-cc2538_armgcc/openstack/02b-MAChigh/msf.c ****   
  81:build/openmote-cc2538_armgcc/openstack/02b-MAChigh/msf.c ****     if (icmpv6rpl_isPreferredParent(neighbor)==FALSE){
 318              		.loc 1 81 0
 319 00e4 7868     		ldr	r0, [r7, #4]
 320 00e6 FFF7FEFF 		bl	icmpv6rpl_isPreferredParent
 321 00ea 0346     		mov	r3, r0
 322 00ec 83F00103 		eor	r3, r3, #1
 323 00f0 DBB2     		uxtb	r3, r3
 324 00f2 002B     		cmp	r3, #0
 325 00f4 06D1     		bne	.L15
  82:build/openmote-cc2538_armgcc/openstack/02b-MAChigh/msf.c ****         return;
  83:build/openmote-cc2538_armgcc/openstack/02b-MAChigh/msf.c ****     }
  84:build/openmote-cc2538_armgcc/openstack/02b-MAChigh/msf.c ****     
  85:build/openmote-cc2538_armgcc/openstack/02b-MAChigh/msf.c ****     msf_vars.numCellsUsed++;
 326              		.loc 1 85 0
 327 00f6 054B     		ldr	r3, .L16
 328 00f8 DB78     		ldrb	r3, [r3, #3]	@ zero_extendqisi2
 329 00fa 0133     		adds	r3, r3, #1
 330 00fc DAB2     		uxtb	r2, r3
 331 00fe 034B     		ldr	r3, .L16
 332 0100 DA70     		strb	r2, [r3, #3]
 333 0102 00E0     		b	.L12
 334              	.L15:
  82:build/openmote-cc2538_armgcc/openstack/02b-MAChigh/msf.c ****         return;
 335              		.loc 1 82 0
 336 0104 00BF     		nop
 337              	.L12:
  86:build/openmote-cc2538_armgcc/openstack/02b-MAChigh/msf.c **** }
 338              		.loc 1 86 0
 339 0106 0837     		adds	r7, r7, #8
 340              		.cfi_def_cfa_offset 8
 341 0108 BD46     		mov	sp, r7
 342              		.cfi_def_cfa_register 13
 343              		@ sp needed
 344 010a 80BD     		pop	{r7, pc}
 345              	.L17:
 346              		.align	2
 347              	.L16:
 348 010c 00000000 		.word	msf_vars
 349              		.cfi_endproc
 350              	.LFE2:
 352              		.align	2
 353              		.global	msf_trigger6pClear
 354              		.thumb
 355              		.thumb_func
 357              	msf_trigger6pClear:
 358              	.LFB3:
  87:build/openmote-cc2538_armgcc/openstack/02b-MAChigh/msf.c **** 
  88:build/openmote-cc2538_armgcc/openstack/02b-MAChigh/msf.c **** void    msf_trigger6pClear(open_addr_t* neighbor){
 359              		.loc 1 88 0
 360              		.cfi_startproc
 361              		@ args = 0, pretend = 0, frame = 8
 362              		@ frame_needed = 1, uses_anonymous_args = 0
 363 0110 80B5     		push	{r7, lr}
 364              		.cfi_def_cfa_offset 8
 365              		.cfi_offset 7, -8
 366              		.cfi_offset 14, -4
 367 0112 88B0     		sub	sp, sp, #32
 368              		.cfi_def_cfa_offset 40
 369 0114 06AF     		add	r7, sp, #24
 370              		.cfi_def_cfa 7, 16
 371 0116 7860     		str	r0, [r7, #4]
  89:build/openmote-cc2538_armgcc/openstack/02b-MAChigh/msf.c ****         
  90:build/openmote-cc2538_armgcc/openstack/02b-MAChigh/msf.c ****     if (schedule_hasDedicatedCellToNeighbor(neighbor)>0){
 372              		.loc 1 90 0
 373 0118 7868     		ldr	r0, [r7, #4]
 374 011a FFF7FEFF 		bl	schedule_hasDedicatedCellToNeighbor
 375 011e 0346     		mov	r3, r0
 376 0120 002B     		cmp	r3, #0
 377 0122 0FDD     		ble	.L20
  91:build/openmote-cc2538_armgcc/openstack/02b-MAChigh/msf.c ****         sixtop_request(
 378              		.loc 1 91 0
 379 0124 0023     		movs	r3, #0
 380 0126 0493     		str	r3, [sp, #16]
 381 0128 0023     		movs	r3, #0
 382 012a 0393     		str	r3, [sp, #12]
 383 012c 0023     		movs	r3, #0
 384 012e 0293     		str	r3, [sp, #8]
 385 0130 0023     		movs	r3, #0
 386 0132 0193     		str	r3, [sp, #4]
 387 0134 0023     		movs	r3, #0
 388 0136 0093     		str	r3, [sp]
 389 0138 0723     		movs	r3, #7
 390 013a 0122     		movs	r2, #1
 391 013c 7968     		ldr	r1, [r7, #4]
 392 013e 0620     		movs	r0, #6
 393 0140 FFF7FEFF 		bl	sixtop_request
 394              	.L20:
  92:build/openmote-cc2538_armgcc/openstack/02b-MAChigh/msf.c ****             IANA_6TOP_CMD_CLEAR,                // code
  93:build/openmote-cc2538_armgcc/openstack/02b-MAChigh/msf.c ****             neighbor,                           // neighbor
  94:build/openmote-cc2538_armgcc/openstack/02b-MAChigh/msf.c ****             NUMCELLS_MSF,                       // number cells
  95:build/openmote-cc2538_armgcc/openstack/02b-MAChigh/msf.c ****             CELLOPTIONS_MSF,                    // cellOptions
  96:build/openmote-cc2538_armgcc/openstack/02b-MAChigh/msf.c ****             NULL,                               // celllist to add (not used)
  97:build/openmote-cc2538_armgcc/openstack/02b-MAChigh/msf.c ****             NULL,                               // celllist to delete (not used)
  98:build/openmote-cc2538_armgcc/openstack/02b-MAChigh/msf.c ****             IANA_6TISCH_SFID_MSF,               // sfid
  99:build/openmote-cc2538_armgcc/openstack/02b-MAChigh/msf.c ****             0,                                  // list command offset (not used)
 100:build/openmote-cc2538_armgcc/openstack/02b-MAChigh/msf.c ****             0                                   // list command maximum celllist (not used)
 101:build/openmote-cc2538_armgcc/openstack/02b-MAChigh/msf.c ****         );
 102:build/openmote-cc2538_armgcc/openstack/02b-MAChigh/msf.c ****     }
 103:build/openmote-cc2538_armgcc/openstack/02b-MAChigh/msf.c **** }
 395              		.loc 1 103 0
 396 0144 00BF     		nop
 397 0146 0837     		adds	r7, r7, #8
 398              		.cfi_def_cfa_offset 8
 399 0148 BD46     		mov	sp, r7
 400              		.cfi_def_cfa_register 13
 401              		@ sp needed
 402 014a 80BD     		pop	{r7, pc}
 403              		.cfi_endproc
 404              	.LFE3:
 406              		.align	2
 407              		.global	msf_getsfid
 408              		.thumb
 409              		.thumb_func
 411              	msf_getsfid:
 412              	.LFB4:
 104:build/openmote-cc2538_armgcc/openstack/02b-MAChigh/msf.c **** //=========================== callback =========================================
 105:build/openmote-cc2538_armgcc/openstack/02b-MAChigh/msf.c **** 
 106:build/openmote-cc2538_armgcc/openstack/02b-MAChigh/msf.c **** uint8_t msf_getsfid(void){
 413              		.loc 1 106 0
 414              		.cfi_startproc
 415              		@ args = 0, pretend = 0, frame = 0
 416              		@ frame_needed = 1, uses_anonymous_args = 0
 417              		@ link register save eliminated.
 418 014c 80B4     		push	{r7}
 419              		.cfi_def_cfa_offset 4
 420              		.cfi_offset 7, -4
 421 014e 00AF     		add	r7, sp, #0
 422              		.cfi_def_cfa_register 7
 107:build/openmote-cc2538_armgcc/openstack/02b-MAChigh/msf.c ****     return IANA_6TISCH_SFID_MSF;
 423              		.loc 1 107 0
 424 0150 0023     		movs	r3, #0
 108:build/openmote-cc2538_armgcc/openstack/02b-MAChigh/msf.c **** }
 425              		.loc 1 108 0
 426 0152 1846     		mov	r0, r3
 427 0154 BD46     		mov	sp, r7
 428              		.cfi_def_cfa_register 13
 429              		@ sp needed
 430 0156 80BC     		pop	{r7}
 431              		.cfi_restore 7
 432              		.cfi_def_cfa_offset 0
 433 0158 7047     		bx	lr
 434              		.cfi_endproc
 435              	.LFE4:
 437 015a 00BF     		.align	2
 438              		.global	msf_getMetadata
 439              		.thumb
 440              		.thumb_func
 442              	msf_getMetadata:
 443              	.LFB5:
 109:build/openmote-cc2538_armgcc/openstack/02b-MAChigh/msf.c **** 
 110:build/openmote-cc2538_armgcc/openstack/02b-MAChigh/msf.c **** uint16_t msf_getMetadata(void){
 444              		.loc 1 110 0
 445              		.cfi_startproc
 446              		@ args = 0, pretend = 0, frame = 0
 447              		@ frame_needed = 1, uses_anonymous_args = 0
 448              		@ link register save eliminated.
 449 015c 80B4     		push	{r7}
 450              		.cfi_def_cfa_offset 4
 451              		.cfi_offset 7, -4
 452 015e 00AF     		add	r7, sp, #0
 453              		.cfi_def_cfa_register 7
 111:build/openmote-cc2538_armgcc/openstack/02b-MAChigh/msf.c ****     return SCHEDULE_MINIMAL_6TISCH_DEFAULT_SLOTFRAME_HANDLE;
 454              		.loc 1 111 0
 455 0160 0023     		movs	r3, #0
 112:build/openmote-cc2538_armgcc/openstack/02b-MAChigh/msf.c **** }
 456              		.loc 1 112 0
 457 0162 1846     		mov	r0, r3
 458 0164 BD46     		mov	sp, r7
 459              		.cfi_def_cfa_register 13
 460              		@ sp needed
 461 0166 80BC     		pop	{r7}
 462              		.cfi_restore 7
 463              		.cfi_def_cfa_offset 0
 464 0168 7047     		bx	lr
 465              		.cfi_endproc
 466              	.LFE5:
 468 016a 00BF     		.align	2
 469              		.global	msf_translateMetadata
 470              		.thumb
 471              		.thumb_func
 473              	msf_translateMetadata:
 474              	.LFB6:
 113:build/openmote-cc2538_armgcc/openstack/02b-MAChigh/msf.c **** 
 114:build/openmote-cc2538_armgcc/openstack/02b-MAChigh/msf.c **** metadata_t msf_translateMetadata(void){
 475              		.loc 1 114 0
 476              		.cfi_startproc
 477              		@ args = 0, pretend = 0, frame = 0
 478              		@ frame_needed = 1, uses_anonymous_args = 0
 479              		@ link register save eliminated.
 480 016c 80B4     		push	{r7}
 481              		.cfi_def_cfa_offset 4
 482              		.cfi_offset 7, -4
 483 016e 00AF     		add	r7, sp, #0
 484              		.cfi_def_cfa_register 7
 115:build/openmote-cc2538_armgcc/openstack/02b-MAChigh/msf.c ****     return METADATA_TYPE_FRAMEID;
 485              		.loc 1 115 0
 486 0170 0023     		movs	r3, #0
 116:build/openmote-cc2538_armgcc/openstack/02b-MAChigh/msf.c **** }
 487              		.loc 1 116 0
 488 0172 1846     		mov	r0, r3
 489 0174 BD46     		mov	sp, r7
 490              		.cfi_def_cfa_register 13
 491              		@ sp needed
 492 0176 80BC     		pop	{r7}
 493              		.cfi_restore 7
 494              		.cfi_def_cfa_offset 0
 495 0178 7047     		bx	lr
 496              		.cfi_endproc
 497              	.LFE6:
 499 017a 00BF     		.align	2
 500              		.global	msf_handleRCError
 501              		.thumb
 502              		.thumb_func
 504              	msf_handleRCError:
 505              	.LFB7:
 117:build/openmote-cc2538_armgcc/openstack/02b-MAChigh/msf.c **** 
 118:build/openmote-cc2538_armgcc/openstack/02b-MAChigh/msf.c **** void msf_handleRCError(uint8_t code, open_addr_t* address){
 506              		.loc 1 118 0
 507              		.cfi_startproc
 508              		@ args = 0, pretend = 0, frame = 16
 509              		@ frame_needed = 1, uses_anonymous_args = 0
 510 017c 80B5     		push	{r7, lr}
 511              		.cfi_def_cfa_offset 8
 512              		.cfi_offset 7, -8
 513              		.cfi_offset 14, -4
 514 017e 86B0     		sub	sp, sp, #24
 515              		.cfi_def_cfa_offset 32
 516 0180 02AF     		add	r7, sp, #8
 517              		.cfi_def_cfa 7, 24
 518 0182 0346     		mov	r3, r0
 519 0184 3960     		str	r1, [r7]
 520 0186 FB71     		strb	r3, [r7, #7]
 119:build/openmote-cc2538_armgcc/openstack/02b-MAChigh/msf.c ****     uint16_t waitDuration;
 120:build/openmote-cc2538_armgcc/openstack/02b-MAChigh/msf.c ****     
 121:build/openmote-cc2538_armgcc/openstack/02b-MAChigh/msf.c ****     if (
 521              		.loc 1 121 0
 522 0188 FB79     		ldrb	r3, [r7, #7]	@ zero_extendqisi2
 523 018a 032B     		cmp	r3, #3
 524 018c 05D0     		beq	.L28
 122:build/openmote-cc2538_armgcc/openstack/02b-MAChigh/msf.c ****         code==IANA_6TOP_RC_RESET        ||
 525              		.loc 1 122 0
 526 018e FB79     		ldrb	r3, [r7, #7]	@ zero_extendqisi2
 527 0190 092B     		cmp	r3, #9
 528 0192 02D0     		beq	.L28
 123:build/openmote-cc2538_armgcc/openstack/02b-MAChigh/msf.c ****         code==IANA_6TOP_RC_LOCKED       ||
 529              		.loc 1 123 0
 530 0194 FB79     		ldrb	r3, [r7, #7]	@ zero_extendqisi2
 531 0196 082B     		cmp	r3, #8
 532 0198 1CD1     		bne	.L33
 533              	.L28:
 124:build/openmote-cc2538_armgcc/openstack/02b-MAChigh/msf.c ****         code==IANA_6TOP_RC_BUSY
 125:build/openmote-cc2538_armgcc/openstack/02b-MAChigh/msf.c ****     ){
 126:build/openmote-cc2538_armgcc/openstack/02b-MAChigh/msf.c ****         // waitretry
 127:build/openmote-cc2538_armgcc/openstack/02b-MAChigh/msf.c ****         msf_vars.waitretry = TRUE;
 534              		.loc 1 127 0
 535 019a 184B     		ldr	r3, .L35
 536 019c 0122     		movs	r2, #1
 537 019e DA71     		strb	r2, [r3, #7]
 128:build/openmote-cc2538_armgcc/openstack/02b-MAChigh/msf.c ****         waitDuration = WAITDURATION_MIN+openrandom_get16b()%WAITDURATION_RANDOM_RANGE;
 538              		.loc 1 128 0
 539 01a0 FFF7FEFF 		bl	openrandom_get16b
 540 01a4 0346     		mov	r3, r0
 541 01a6 164A     		ldr	r2, .L35+4
 542 01a8 A2FB0312 		umull	r1, r2, r2, r3
 543 01ac 520B     		lsrs	r2, r2, #13
 544 01ae 47F23051 		movw	r1, #30000
 545 01b2 01FB02F2 		mul	r2, r1, r2
 546 01b6 9B1A     		subs	r3, r3, r2
 547 01b8 9BB2     		uxth	r3, r3
 548 01ba 03F5EA43 		add	r3, r3, #29952
 549 01be 3033     		adds	r3, r3, #48
 550 01c0 FB81     		strh	r3, [r7, #14]	@ movhi
 129:build/openmote-cc2538_armgcc/openstack/02b-MAChigh/msf.c ****         opentimers_scheduleIn(
 551              		.loc 1 129 0
 552 01c2 0E4B     		ldr	r3, .L35
 553 01c4 9879     		ldrb	r0, [r3, #6]	@ zero_extendqisi2
 554 01c6 F989     		ldrh	r1, [r7, #14]
 555 01c8 0E4B     		ldr	r3, .L35+8
 556 01ca 0093     		str	r3, [sp]
 557 01cc 0123     		movs	r3, #1
 558 01ce 0022     		movs	r2, #0
 559 01d0 FFF7FEFF 		bl	opentimers_scheduleIn
 560              	.L33:
 130:build/openmote-cc2538_armgcc/openstack/02b-MAChigh/msf.c ****             msf_vars.waitretryTimerId,
 131:build/openmote-cc2538_armgcc/openstack/02b-MAChigh/msf.c ****             waitDuration,
 132:build/openmote-cc2538_armgcc/openstack/02b-MAChigh/msf.c ****             TIME_MS,
 133:build/openmote-cc2538_armgcc/openstack/02b-MAChigh/msf.c ****             TIMER_ONESHOT,
 134:build/openmote-cc2538_armgcc/openstack/02b-MAChigh/msf.c ****             msf_timer_waitretry_cb
 135:build/openmote-cc2538_armgcc/openstack/02b-MAChigh/msf.c ****         );
 136:build/openmote-cc2538_armgcc/openstack/02b-MAChigh/msf.c ****     }
 137:build/openmote-cc2538_armgcc/openstack/02b-MAChigh/msf.c ****     
 138:build/openmote-cc2538_armgcc/openstack/02b-MAChigh/msf.c ****     if (
 139:build/openmote-cc2538_armgcc/openstack/02b-MAChigh/msf.c ****         code==IANA_6TOP_RC_ERROR        ||
 140:build/openmote-cc2538_armgcc/openstack/02b-MAChigh/msf.c ****         code==IANA_6TOP_RC_VER_ERR      ||
 141:build/openmote-cc2538_armgcc/openstack/02b-MAChigh/msf.c ****         code==IANA_6TOP_RC_SFID_ERR
 142:build/openmote-cc2538_armgcc/openstack/02b-MAChigh/msf.c ****     ){
 143:build/openmote-cc2538_armgcc/openstack/02b-MAChigh/msf.c ****         // quarantine
 144:build/openmote-cc2538_armgcc/openstack/02b-MAChigh/msf.c ****     }
 145:build/openmote-cc2538_armgcc/openstack/02b-MAChigh/msf.c ****     
 146:build/openmote-cc2538_armgcc/openstack/02b-MAChigh/msf.c ****     if (
 561              		.loc 1 146 0
 562 01d4 FB79     		ldrb	r3, [r7, #7]	@ zero_extendqisi2
 563 01d6 062B     		cmp	r3, #6
 564 01d8 02D0     		beq	.L30
 147:build/openmote-cc2538_armgcc/openstack/02b-MAChigh/msf.c ****         code==IANA_6TOP_RC_SEQNUM_ERR   ||
 565              		.loc 1 147 0
 566 01da FB79     		ldrb	r3, [r7, #7]	@ zero_extendqisi2
 567 01dc 072B     		cmp	r3, #7
 568 01de 03D1     		bne	.L31
 569              	.L30:
 148:build/openmote-cc2538_armgcc/openstack/02b-MAChigh/msf.c ****         code==IANA_6TOP_RC_CELLLIST_ERR
 149:build/openmote-cc2538_armgcc/openstack/02b-MAChigh/msf.c ****     ){
 150:build/openmote-cc2538_armgcc/openstack/02b-MAChigh/msf.c ****         // clear
 151:build/openmote-cc2538_armgcc/openstack/02b-MAChigh/msf.c ****         scheduler_push_task(msf_timer_clear_task,TASKPRIO_MSF);
 570              		.loc 1 151 0
 571 01e0 0821     		movs	r1, #8
 572 01e2 0948     		ldr	r0, .L35+12
 573 01e4 FFF7FEFF 		bl	scheduler_push_task
 574              	.L31:
 152:build/openmote-cc2538_armgcc/openstack/02b-MAChigh/msf.c ****     }
 153:build/openmote-cc2538_armgcc/openstack/02b-MAChigh/msf.c ****     
 154:build/openmote-cc2538_armgcc/openstack/02b-MAChigh/msf.c ****     if (code==IANA_6TOP_RC_NORES){
 575              		.loc 1 154 0
 576 01e8 FB79     		ldrb	r3, [r7, #7]	@ zero_extendqisi2
 577 01ea 0A2B     		cmp	r3, #10
 578 01ec 02D1     		bne	.L34
 155:build/openmote-cc2538_armgcc/openstack/02b-MAChigh/msf.c ****         // mark neighbor f6NORES
 156:build/openmote-cc2538_armgcc/openstack/02b-MAChigh/msf.c ****         neighbors_setNeighborNoResource(address);
 579              		.loc 1 156 0
 580 01ee 3868     		ldr	r0, [r7]
 581 01f0 FFF7FEFF 		bl	neighbors_setNeighborNoResource
 582              	.L34:
 157:build/openmote-cc2538_armgcc/openstack/02b-MAChigh/msf.c ****     }
 158:build/openmote-cc2538_armgcc/openstack/02b-MAChigh/msf.c **** }
 583              		.loc 1 158 0
 584 01f4 00BF     		nop
 585 01f6 1037     		adds	r7, r7, #16
 586              		.cfi_def_cfa_offset 8
 587 01f8 BD46     		mov	sp, r7
 588              		.cfi_def_cfa_register 13
 589              		@ sp needed
 590 01fa 80BD     		pop	{r7, pc}
 591              	.L36:
 592              		.align	2
 593              	.L35:
 594 01fc 00000000 		.word	msf_vars
 595 0200 73B2E745 		.word	1172812403
 596 0204 00000000 		.word	msf_timer_waitretry_cb
 597 0208 00000000 		.word	msf_timer_clear_task
 598              		.cfi_endproc
 599              	.LFE7:
 601              		.align	2
 602              		.global	msf_timer_waitretry_cb
 603              		.thumb
 604              		.thumb_func
 606              	msf_timer_waitretry_cb:
 607              	.LFB8:
 159:build/openmote-cc2538_armgcc/openstack/02b-MAChigh/msf.c **** 
 160:build/openmote-cc2538_armgcc/openstack/02b-MAChigh/msf.c **** void msf_timer_waitretry_cb(opentimers_id_t id){
 608              		.loc 1 160 0
 609              		.cfi_startproc
 610              		@ args = 0, pretend = 0, frame = 8
 611              		@ frame_needed = 1, uses_anonymous_args = 0
 612              		@ link register save eliminated.
 613 020c 80B4     		push	{r7}
 614              		.cfi_def_cfa_offset 4
 615              		.cfi_offset 7, -4
 616 020e 83B0     		sub	sp, sp, #12
 617              		.cfi_def_cfa_offset 16
 618 0210 00AF     		add	r7, sp, #0
 619              		.cfi_def_cfa_register 7
 620 0212 0346     		mov	r3, r0
 621 0214 FB71     		strb	r3, [r7, #7]
 161:build/openmote-cc2538_armgcc/openstack/02b-MAChigh/msf.c ****     msf_vars.waitretry = FALSE;
 622              		.loc 1 161 0
 623 0216 044B     		ldr	r3, .L38
 624 0218 0022     		movs	r2, #0
 625 021a DA71     		strb	r2, [r3, #7]
 162:build/openmote-cc2538_armgcc/openstack/02b-MAChigh/msf.c **** }
 626              		.loc 1 162 0
 627 021c 00BF     		nop
 628 021e 0C37     		adds	r7, r7, #12
 629              		.cfi_def_cfa_offset 4
 630 0220 BD46     		mov	sp, r7
 631              		.cfi_def_cfa_register 13
 632              		@ sp needed
 633 0222 80BC     		pop	{r7}
 634              		.cfi_restore 7
 635              		.cfi_def_cfa_offset 0
 636 0224 7047     		bx	lr
 637              	.L39:
 638 0226 00BF     		.align	2
 639              	.L38:
 640 0228 00000000 		.word	msf_vars
 641              		.cfi_endproc
 642              	.LFE8:
 644              		.align	2
 645              		.global	msf_timer_housekeeping_cb
 646              		.thumb
 647              		.thumb_func
 649              	msf_timer_housekeeping_cb:
 650              	.LFB9:
 163:build/openmote-cc2538_armgcc/openstack/02b-MAChigh/msf.c **** 
 164:build/openmote-cc2538_armgcc/openstack/02b-MAChigh/msf.c **** void msf_timer_housekeeping_cb(opentimers_id_t id){
 651              		.loc 1 164 0
 652              		.cfi_startproc
 653              		@ args = 0, pretend = 0, frame = 8
 654              		@ frame_needed = 1, uses_anonymous_args = 0
 655 022c 90B5     		push	{r4, r7, lr}
 656              		.cfi_def_cfa_offset 12
 657              		.cfi_offset 4, -12
 658              		.cfi_offset 7, -8
 659              		.cfi_offset 14, -4
 660 022e 85B0     		sub	sp, sp, #20
 661              		.cfi_def_cfa_offset 32
 662 0230 02AF     		add	r7, sp, #8
 663              		.cfi_def_cfa 7, 24
 664 0232 0346     		mov	r3, r0
 665 0234 FB71     		strb	r3, [r7, #7]
 165:build/openmote-cc2538_armgcc/openstack/02b-MAChigh/msf.c ****     scheduler_push_task(msf_timer_housekeeping_task,TASKPRIO_MSF);
 666              		.loc 1 165 0
 667 0236 0821     		movs	r1, #8
 668 0238 0B48     		ldr	r0, .L41
 669 023a FFF7FEFF 		bl	scheduler_push_task
 166:build/openmote-cc2538_armgcc/openstack/02b-MAChigh/msf.c ****     // update the period
 167:build/openmote-cc2538_armgcc/openstack/02b-MAChigh/msf.c ****     opentimers_scheduleIn(
 670              		.loc 1 167 0
 671 023e 0B4B     		ldr	r3, .L41+4
 672 0240 1C79     		ldrb	r4, [r3, #4]	@ zero_extendqisi2
 168:build/openmote-cc2538_armgcc/openstack/02b-MAChigh/msf.c ****         msf_vars.housekeepingTimerId,
 169:build/openmote-cc2538_armgcc/openstack/02b-MAChigh/msf.c ****         872 +(openrandom_get16b()&0xff),
 673              		.loc 1 169 0
 674 0242 FFF7FEFF 		bl	openrandom_get16b
 675 0246 0346     		mov	r3, r0
 676 0248 DBB2     		uxtb	r3, r3
 677 024a 03F55A73 		add	r3, r3, #872
 167:build/openmote-cc2538_armgcc/openstack/02b-MAChigh/msf.c ****         msf_vars.housekeepingTimerId,
 678              		.loc 1 167 0
 679 024e 1946     		mov	r1, r3
 680 0250 074B     		ldr	r3, .L41+8
 681 0252 0093     		str	r3, [sp]
 682 0254 0123     		movs	r3, #1
 683 0256 0022     		movs	r2, #0
 684 0258 2046     		mov	r0, r4
 685 025a FFF7FEFF 		bl	opentimers_scheduleIn
 170:build/openmote-cc2538_armgcc/openstack/02b-MAChigh/msf.c ****         TIME_MS,
 171:build/openmote-cc2538_armgcc/openstack/02b-MAChigh/msf.c ****         TIMER_ONESHOT,
 172:build/openmote-cc2538_armgcc/openstack/02b-MAChigh/msf.c ****         msf_timer_housekeeping_cb
 173:build/openmote-cc2538_armgcc/openstack/02b-MAChigh/msf.c ****     );
 174:build/openmote-cc2538_armgcc/openstack/02b-MAChigh/msf.c **** }
 686              		.loc 1 174 0
 687 025e 00BF     		nop
 688 0260 0C37     		adds	r7, r7, #12
 689              		.cfi_def_cfa_offset 12
 690 0262 BD46     		mov	sp, r7
 691              		.cfi_def_cfa_register 13
 692              		@ sp needed
 693 0264 90BD     		pop	{r4, r7, pc}
 694              	.L42:
 695 0266 00BF     		.align	2
 696              	.L41:
 697 0268 00000000 		.word	msf_timer_housekeeping_task
 698 026c 00000000 		.word	msf_vars
 699 0270 00000000 		.word	msf_timer_housekeeping_cb
 700              		.cfi_endproc
 701              	.LFE9:
 703              		.align	2
 704              		.global	msf_timer_housekeeping_task
 705              		.thumb
 706              		.thumb_func
 708              	msf_timer_housekeeping_task:
 709              	.LFB10:
 175:build/openmote-cc2538_armgcc/openstack/02b-MAChigh/msf.c ****                         
 176:build/openmote-cc2538_armgcc/openstack/02b-MAChigh/msf.c **** void msf_timer_housekeeping_task(void){
 710              		.loc 1 176 0
 711              		.cfi_startproc
 712              		@ args = 0, pretend = 0, frame = 0
 713              		@ frame_needed = 1, uses_anonymous_args = 0
 714 0274 98B5     		push	{r3, r4, r7, lr}
 715              		.cfi_def_cfa_offset 16
 716              		.cfi_offset 3, -16
 717              		.cfi_offset 4, -12
 718              		.cfi_offset 7, -8
 719              		.cfi_offset 14, -4
 720 0276 00AF     		add	r7, sp, #0
 721              		.cfi_def_cfa_register 7
 177:build/openmote-cc2538_armgcc/openstack/02b-MAChigh/msf.c ****     msf_vars.housekeepingTimerCounter = (msf_vars.housekeepingTimerCounter+1)%HOUSEKEEPING_PERIOD;
 722              		.loc 1 177 0
 723 0278 0D4B     		ldr	r3, .L47
 724 027a 5B79     		ldrb	r3, [r3, #5]	@ zero_extendqisi2
 725 027c 5A1C     		adds	r2, r3, #1
 726 027e 0D4B     		ldr	r3, .L47+4
 727 0280 82FB0334 		smull	r3, r4, r2, r3
 728 0284 1319     		adds	r3, r2, r4
 729 0286 5911     		asrs	r1, r3, #5
 730 0288 D317     		asrs	r3, r2, #31
 731 028a C91A     		subs	r1, r1, r3
 732 028c 0B46     		mov	r3, r1
 733 028e 1B01     		lsls	r3, r3, #4
 734 0290 5B1A     		subs	r3, r3, r1
 735 0292 9B00     		lsls	r3, r3, #2
 736 0294 D11A     		subs	r1, r2, r3
 737 0296 CAB2     		uxtb	r2, r1
 738 0298 054B     		ldr	r3, .L47
 739 029a 5A71     		strb	r2, [r3, #5]
 178:build/openmote-cc2538_armgcc/openstack/02b-MAChigh/msf.c ****     switch (msf_vars.housekeepingTimerCounter) {
 740              		.loc 1 178 0
 741 029c 044B     		ldr	r3, .L47
 742 029e 5B79     		ldrb	r3, [r3, #5]	@ zero_extendqisi2
 743 02a0 002B     		cmp	r3, #0
 744 02a2 00D0     		beq	.L45
 179:build/openmote-cc2538_armgcc/openstack/02b-MAChigh/msf.c ****     case 0:
 180:build/openmote-cc2538_armgcc/openstack/02b-MAChigh/msf.c ****         msf_housekeeping();
 181:build/openmote-cc2538_armgcc/openstack/02b-MAChigh/msf.c ****         break;
 182:build/openmote-cc2538_armgcc/openstack/02b-MAChigh/msf.c ****     default:
 183:build/openmote-cc2538_armgcc/openstack/02b-MAChigh/msf.c ****         break;
 745              		.loc 1 183 0
 746 02a4 02E0     		b	.L46
 747              	.L45:
 180:build/openmote-cc2538_armgcc/openstack/02b-MAChigh/msf.c ****         break;
 748              		.loc 1 180 0
 749 02a6 FFF7FEFF 		bl	msf_housekeeping
 181:build/openmote-cc2538_armgcc/openstack/02b-MAChigh/msf.c ****     default:
 750              		.loc 1 181 0
 751 02aa 00BF     		nop
 752              	.L46:
 184:build/openmote-cc2538_armgcc/openstack/02b-MAChigh/msf.c ****     }
 185:build/openmote-cc2538_armgcc/openstack/02b-MAChigh/msf.c **** }
 753              		.loc 1 185 0
 754 02ac 00BF     		nop
 755 02ae 98BD     		pop	{r3, r4, r7, pc}
 756              	.L48:
 757              		.align	2
 758              	.L47:
 759 02b0 00000000 		.word	msf_vars
 760 02b4 89888888 		.word	-2004318071
 761              		.cfi_endproc
 762              	.LFE10:
 764              		.align	2
 765              		.global	msf_timer_clear_task
 766              		.thumb
 767              		.thumb_func
 769              	msf_timer_clear_task:
 770              	.LFB11:
 186:build/openmote-cc2538_armgcc/openstack/02b-MAChigh/msf.c **** 
 187:build/openmote-cc2538_armgcc/openstack/02b-MAChigh/msf.c **** void msf_timer_clear_task(void){
 771              		.loc 1 187 0
 772              		.cfi_startproc
 773              		@ args = 0, pretend = 0, frame = 24
 774              		@ frame_needed = 1, uses_anonymous_args = 0
 775 02b8 80B5     		push	{r7, lr}
 776              		.cfi_def_cfa_offset 8
 777              		.cfi_offset 7, -8
 778              		.cfi_offset 14, -4
 779 02ba 8CB0     		sub	sp, sp, #48
 780              		.cfi_def_cfa_offset 56
 781 02bc 06AF     		add	r7, sp, #24
 782              		.cfi_def_cfa 7, 32
 188:build/openmote-cc2538_armgcc/openstack/02b-MAChigh/msf.c ****     open_addr_t    neighbor;
 189:build/openmote-cc2538_armgcc/openstack/02b-MAChigh/msf.c ****     bool           foundNeighbor;
 190:build/openmote-cc2538_armgcc/openstack/02b-MAChigh/msf.c ****     
 191:build/openmote-cc2538_armgcc/openstack/02b-MAChigh/msf.c ****     // get preferred parent
 192:build/openmote-cc2538_armgcc/openstack/02b-MAChigh/msf.c ****     foundNeighbor = icmpv6rpl_getPreferredParentEui64(&neighbor);
 783              		.loc 1 192 0
 784 02be 3B1D     		adds	r3, r7, #4
 785 02c0 1846     		mov	r0, r3
 786 02c2 FFF7FEFF 		bl	icmpv6rpl_getPreferredParentEui64
 787 02c6 0346     		mov	r3, r0
 788 02c8 FB75     		strb	r3, [r7, #23]
 193:build/openmote-cc2538_armgcc/openstack/02b-MAChigh/msf.c ****     if (foundNeighbor==FALSE) {
 789              		.loc 1 193 0
 790 02ca FB7D     		ldrb	r3, [r7, #23]
 791 02cc 83F00103 		eor	r3, r3, #1
 792 02d0 DBB2     		uxtb	r3, r3
 793 02d2 002B     		cmp	r3, #0
 794 02d4 10D1     		bne	.L52
 194:build/openmote-cc2538_armgcc/openstack/02b-MAChigh/msf.c ****         return;
 195:build/openmote-cc2538_armgcc/openstack/02b-MAChigh/msf.c ****     }
 196:build/openmote-cc2538_armgcc/openstack/02b-MAChigh/msf.c ****     
 197:build/openmote-cc2538_armgcc/openstack/02b-MAChigh/msf.c ****     sixtop_request(
 795              		.loc 1 197 0
 796 02d6 391D     		adds	r1, r7, #4
 797 02d8 0023     		movs	r3, #0
 798 02da 0493     		str	r3, [sp, #16]
 799 02dc 0023     		movs	r3, #0
 800 02de 0393     		str	r3, [sp, #12]
 801 02e0 0023     		movs	r3, #0
 802 02e2 0293     		str	r3, [sp, #8]
 803 02e4 0023     		movs	r3, #0
 804 02e6 0193     		str	r3, [sp, #4]
 805 02e8 0023     		movs	r3, #0
 806 02ea 0093     		str	r3, [sp]
 807 02ec 0723     		movs	r3, #7
 808 02ee 0122     		movs	r2, #1
 809 02f0 0620     		movs	r0, #6
 810 02f2 FFF7FEFF 		bl	sixtop_request
 811 02f6 00E0     		b	.L49
 812              	.L52:
 194:build/openmote-cc2538_armgcc/openstack/02b-MAChigh/msf.c ****         return;
 813              		.loc 1 194 0
 814 02f8 00BF     		nop
 815              	.L49:
 198:build/openmote-cc2538_armgcc/openstack/02b-MAChigh/msf.c ****         IANA_6TOP_CMD_CLEAR,                // code
 199:build/openmote-cc2538_armgcc/openstack/02b-MAChigh/msf.c ****         &neighbor,                          // neighbor
 200:build/openmote-cc2538_armgcc/openstack/02b-MAChigh/msf.c ****         NUMCELLS_MSF,                       // number cells
 201:build/openmote-cc2538_armgcc/openstack/02b-MAChigh/msf.c ****         CELLOPTIONS_MSF,                    // cellOptions
 202:build/openmote-cc2538_armgcc/openstack/02b-MAChigh/msf.c ****         NULL,                               // celllist to add (not used)
 203:build/openmote-cc2538_armgcc/openstack/02b-MAChigh/msf.c ****         NULL,                               // celllist to delete (not used)
 204:build/openmote-cc2538_armgcc/openstack/02b-MAChigh/msf.c ****         IANA_6TISCH_SFID_MSF,               // sfid
 205:build/openmote-cc2538_armgcc/openstack/02b-MAChigh/msf.c ****         0,                                  // list command offset (not used)
 206:build/openmote-cc2538_armgcc/openstack/02b-MAChigh/msf.c ****         0                                   // list command maximum celllist (not used)
 207:build/openmote-cc2538_armgcc/openstack/02b-MAChigh/msf.c ****     );
 208:build/openmote-cc2538_armgcc/openstack/02b-MAChigh/msf.c **** }
 816              		.loc 1 208 0
 817 02fa 1837     		adds	r7, r7, #24
 818              		.cfi_def_cfa_offset 8
 819 02fc BD46     		mov	sp, r7
 820              		.cfi_def_cfa_register 13
 821              		@ sp needed
 822 02fe 80BD     		pop	{r7, pc}
 823              		.cfi_endproc
 824              	.LFE11:
 826              		.align	2
 827              		.global	msf_trigger6pAdd
 828              		.thumb
 829              		.thumb_func
 831              	msf_trigger6pAdd:
 832              	.LFB12:
 209:build/openmote-cc2538_armgcc/openstack/02b-MAChigh/msf.c **** 
 210:build/openmote-cc2538_armgcc/openstack/02b-MAChigh/msf.c **** //=========================== private =========================================
 211:build/openmote-cc2538_armgcc/openstack/02b-MAChigh/msf.c **** 
 212:build/openmote-cc2538_armgcc/openstack/02b-MAChigh/msf.c **** void msf_trigger6pAdd(void){
 833              		.loc 1 212 0
 834              		.cfi_startproc
 835              		@ args = 0, pretend = 0, frame = 48
 836              		@ frame_needed = 1, uses_anonymous_args = 0
 837 0300 80B5     		push	{r7, lr}
 838              		.cfi_def_cfa_offset 8
 839              		.cfi_offset 7, -8
 840              		.cfi_offset 14, -4
 841 0302 92B0     		sub	sp, sp, #72
 842              		.cfi_def_cfa_offset 80
 843 0304 06AF     		add	r7, sp, #24
 844              		.cfi_def_cfa 7, 56
 213:build/openmote-cc2538_armgcc/openstack/02b-MAChigh/msf.c ****     open_addr_t    neighbor;
 214:build/openmote-cc2538_armgcc/openstack/02b-MAChigh/msf.c ****     bool           foundNeighbor;
 215:build/openmote-cc2538_armgcc/openstack/02b-MAChigh/msf.c ****     cellInfo_ht    celllist_add[CELLLIST_MAX_LEN];
 216:build/openmote-cc2538_armgcc/openstack/02b-MAChigh/msf.c ****     
 217:build/openmote-cc2538_armgcc/openstack/02b-MAChigh/msf.c ****     if (ieee154e_isSynch()==FALSE) {
 845              		.loc 1 217 0
 846 0306 FFF7FEFF 		bl	ieee154e_isSynch
 847 030a 0346     		mov	r3, r0
 848 030c 83F00103 		eor	r3, r3, #1
 849 0310 DBB2     		uxtb	r3, r3
 850 0312 002B     		cmp	r3, #0
 851 0314 2FD1     		bne	.L60
 218:build/openmote-cc2538_armgcc/openstack/02b-MAChigh/msf.c ****         return;
 219:build/openmote-cc2538_armgcc/openstack/02b-MAChigh/msf.c ****     }
 220:build/openmote-cc2538_armgcc/openstack/02b-MAChigh/msf.c ****     
 221:build/openmote-cc2538_armgcc/openstack/02b-MAChigh/msf.c ****     if (msf_vars.waitretry){
 852              		.loc 1 221 0
 853 0316 1D4B     		ldr	r3, .L64
 854 0318 DB79     		ldrb	r3, [r3, #7]	@ zero_extendqisi2
 855 031a 002B     		cmp	r3, #0
 856 031c 2DD1     		bne	.L61
 222:build/openmote-cc2538_armgcc/openstack/02b-MAChigh/msf.c ****         return;
 223:build/openmote-cc2538_armgcc/openstack/02b-MAChigh/msf.c ****     }
 224:build/openmote-cc2538_armgcc/openstack/02b-MAChigh/msf.c ****     
 225:build/openmote-cc2538_armgcc/openstack/02b-MAChigh/msf.c ****     // get preferred parent
 226:build/openmote-cc2538_armgcc/openstack/02b-MAChigh/msf.c ****     foundNeighbor = icmpv6rpl_getPreferredParentEui64(&neighbor);
 857              		.loc 1 226 0
 858 031e 07F11C03 		add	r3, r7, #28
 859 0322 1846     		mov	r0, r3
 860 0324 FFF7FEFF 		bl	icmpv6rpl_getPreferredParentEui64
 861 0328 0346     		mov	r3, r0
 862 032a 87F82F30 		strb	r3, [r7, #47]
 227:build/openmote-cc2538_armgcc/openstack/02b-MAChigh/msf.c ****     if (foundNeighbor==FALSE) {
 863              		.loc 1 227 0
 864 032e 97F82F30 		ldrb	r3, [r7, #47]
 865 0332 83F00103 		eor	r3, r3, #1
 866 0336 DBB2     		uxtb	r3, r3
 867 0338 002B     		cmp	r3, #0
 868 033a 20D1     		bne	.L62
 228:build/openmote-cc2538_armgcc/openstack/02b-MAChigh/msf.c ****         return;
 229:build/openmote-cc2538_armgcc/openstack/02b-MAChigh/msf.c ****     }
 230:build/openmote-cc2538_armgcc/openstack/02b-MAChigh/msf.c ****     
 231:build/openmote-cc2538_armgcc/openstack/02b-MAChigh/msf.c ****     if (msf_candidateAddCellList(celllist_add,NUMCELLS_MSF)==FALSE){
 869              		.loc 1 231 0
 870 033c 3B46     		mov	r3, r7
 871 033e 0121     		movs	r1, #1
 872 0340 1846     		mov	r0, r3
 873 0342 FFF7FEFF 		bl	msf_candidateAddCellList
 874 0346 0346     		mov	r3, r0
 875 0348 83F00103 		eor	r3, r3, #1
 876 034c DBB2     		uxtb	r3, r3
 877 034e 002B     		cmp	r3, #0
 878 0350 17D1     		bne	.L63
 232:build/openmote-cc2538_armgcc/openstack/02b-MAChigh/msf.c ****         // failed to get cell list to add
 233:build/openmote-cc2538_armgcc/openstack/02b-MAChigh/msf.c ****         return;
 234:build/openmote-cc2538_armgcc/openstack/02b-MAChigh/msf.c ****     }
 235:build/openmote-cc2538_armgcc/openstack/02b-MAChigh/msf.c ****     
 236:build/openmote-cc2538_armgcc/openstack/02b-MAChigh/msf.c ****     sixtop_request(
 879              		.loc 1 236 0
 880 0352 07F11C01 		add	r1, r7, #28
 881 0356 0023     		movs	r3, #0
 882 0358 0493     		str	r3, [sp, #16]
 883 035a 0023     		movs	r3, #0
 884 035c 0393     		str	r3, [sp, #12]
 885 035e 0023     		movs	r3, #0
 886 0360 0293     		str	r3, [sp, #8]
 887 0362 0023     		movs	r3, #0
 888 0364 0193     		str	r3, [sp, #4]
 889 0366 3B46     		mov	r3, r7
 890 0368 0093     		str	r3, [sp]
 891 036a 0723     		movs	r3, #7
 892 036c 0122     		movs	r2, #1
 893 036e 0120     		movs	r0, #1
 894 0370 FFF7FEFF 		bl	sixtop_request
 895 0374 06E0     		b	.L53
 896              	.L60:
 218:build/openmote-cc2538_armgcc/openstack/02b-MAChigh/msf.c ****     }
 897              		.loc 1 218 0
 898 0376 00BF     		nop
 899 0378 04E0     		b	.L53
 900              	.L61:
 222:build/openmote-cc2538_armgcc/openstack/02b-MAChigh/msf.c ****     }
 901              		.loc 1 222 0
 902 037a 00BF     		nop
 903 037c 02E0     		b	.L53
 904              	.L62:
 228:build/openmote-cc2538_armgcc/openstack/02b-MAChigh/msf.c ****     }
 905              		.loc 1 228 0
 906 037e 00BF     		nop
 907 0380 00E0     		b	.L53
 908              	.L63:
 233:build/openmote-cc2538_armgcc/openstack/02b-MAChigh/msf.c ****     }
 909              		.loc 1 233 0
 910 0382 00BF     		nop
 911              	.L53:
 237:build/openmote-cc2538_armgcc/openstack/02b-MAChigh/msf.c ****         IANA_6TOP_CMD_ADD,                  // code
 238:build/openmote-cc2538_armgcc/openstack/02b-MAChigh/msf.c ****         &neighbor,                          // neighbor
 239:build/openmote-cc2538_armgcc/openstack/02b-MAChigh/msf.c ****         NUMCELLS_MSF,                       // number cells
 240:build/openmote-cc2538_armgcc/openstack/02b-MAChigh/msf.c ****         CELLOPTIONS_MSF,                    // cellOptions
 241:build/openmote-cc2538_armgcc/openstack/02b-MAChigh/msf.c ****         celllist_add,                       // celllist to add
 242:build/openmote-cc2538_armgcc/openstack/02b-MAChigh/msf.c ****         NULL,                               // celllist to delete (not used)
 243:build/openmote-cc2538_armgcc/openstack/02b-MAChigh/msf.c ****         IANA_6TISCH_SFID_MSF,               // sfid
 244:build/openmote-cc2538_armgcc/openstack/02b-MAChigh/msf.c ****         0,                                  // list command offset (not used)
 245:build/openmote-cc2538_armgcc/openstack/02b-MAChigh/msf.c ****         0                                   // list command maximum celllist (not used)
 246:build/openmote-cc2538_armgcc/openstack/02b-MAChigh/msf.c ****     );
 247:build/openmote-cc2538_armgcc/openstack/02b-MAChigh/msf.c **** }
 912              		.loc 1 247 0
 913 0384 3037     		adds	r7, r7, #48
 914              		.cfi_def_cfa_offset 8
 915 0386 BD46     		mov	sp, r7
 916              		.cfi_def_cfa_register 13
 917              		@ sp needed
 918 0388 80BD     		pop	{r7, pc}
 919              	.L65:
 920 038a 00BF     		.align	2
 921              	.L64:
 922 038c 00000000 		.word	msf_vars
 923              		.cfi_endproc
 924              	.LFE12:
 926              		.align	2
 927              		.global	msf_trigger6pDelete
 928              		.thumb
 929              		.thumb_func
 931              	msf_trigger6pDelete:
 932              	.LFB13:
 248:build/openmote-cc2538_armgcc/openstack/02b-MAChigh/msf.c **** 
 249:build/openmote-cc2538_armgcc/openstack/02b-MAChigh/msf.c **** void msf_trigger6pDelete(void){
 933              		.loc 1 249 0
 934              		.cfi_startproc
 935              		@ args = 0, pretend = 0, frame = 48
 936              		@ frame_needed = 1, uses_anonymous_args = 0
 937 0390 80B5     		push	{r7, lr}
 938              		.cfi_def_cfa_offset 8
 939              		.cfi_offset 7, -8
 940              		.cfi_offset 14, -4
 941 0392 92B0     		sub	sp, sp, #72
 942              		.cfi_def_cfa_offset 80
 943 0394 06AF     		add	r7, sp, #24
 944              		.cfi_def_cfa 7, 56
 250:build/openmote-cc2538_armgcc/openstack/02b-MAChigh/msf.c ****     open_addr_t    neighbor;
 251:build/openmote-cc2538_armgcc/openstack/02b-MAChigh/msf.c ****     bool           foundNeighbor;
 252:build/openmote-cc2538_armgcc/openstack/02b-MAChigh/msf.c ****     cellInfo_ht    celllist_delete[CELLLIST_MAX_LEN];
 253:build/openmote-cc2538_armgcc/openstack/02b-MAChigh/msf.c ****     
 254:build/openmote-cc2538_armgcc/openstack/02b-MAChigh/msf.c ****     if (ieee154e_isSynch()==FALSE) {
 945              		.loc 1 254 0
 946 0396 FFF7FEFF 		bl	ieee154e_isSynch
 947 039a 0346     		mov	r3, r0
 948 039c 83F00103 		eor	r3, r3, #1
 949 03a0 DBB2     		uxtb	r3, r3
 950 03a2 002B     		cmp	r3, #0
 951 03a4 39D1     		bne	.L74
 255:build/openmote-cc2538_armgcc/openstack/02b-MAChigh/msf.c ****         return;
 256:build/openmote-cc2538_armgcc/openstack/02b-MAChigh/msf.c ****     }
 257:build/openmote-cc2538_armgcc/openstack/02b-MAChigh/msf.c ****     
 258:build/openmote-cc2538_armgcc/openstack/02b-MAChigh/msf.c ****     if (msf_vars.waitretry){
 952              		.loc 1 258 0
 953 03a6 234B     		ldr	r3, .L79
 954 03a8 DB79     		ldrb	r3, [r3, #7]	@ zero_extendqisi2
 955 03aa 002B     		cmp	r3, #0
 956 03ac 37D1     		bne	.L75
 259:build/openmote-cc2538_armgcc/openstack/02b-MAChigh/msf.c ****         return;
 260:build/openmote-cc2538_armgcc/openstack/02b-MAChigh/msf.c ****     }
 261:build/openmote-cc2538_armgcc/openstack/02b-MAChigh/msf.c ****     
 262:build/openmote-cc2538_armgcc/openstack/02b-MAChigh/msf.c ****     // get preferred parent
 263:build/openmote-cc2538_armgcc/openstack/02b-MAChigh/msf.c ****     foundNeighbor = icmpv6rpl_getPreferredParentEui64(&neighbor);
 957              		.loc 1 263 0
 958 03ae 07F11C03 		add	r3, r7, #28
 959 03b2 1846     		mov	r0, r3
 960 03b4 FFF7FEFF 		bl	icmpv6rpl_getPreferredParentEui64
 961 03b8 0346     		mov	r3, r0
 962 03ba 87F82F30 		strb	r3, [r7, #47]
 264:build/openmote-cc2538_armgcc/openstack/02b-MAChigh/msf.c ****     if (foundNeighbor==FALSE) {
 963              		.loc 1 264 0
 964 03be 97F82F30 		ldrb	r3, [r7, #47]
 965 03c2 83F00103 		eor	r3, r3, #1
 966 03c6 DBB2     		uxtb	r3, r3
 967 03c8 002B     		cmp	r3, #0
 968 03ca 2AD1     		bne	.L76
 265:build/openmote-cc2538_armgcc/openstack/02b-MAChigh/msf.c ****         return;
 266:build/openmote-cc2538_armgcc/openstack/02b-MAChigh/msf.c ****     }
 267:build/openmote-cc2538_armgcc/openstack/02b-MAChigh/msf.c ****     
 268:build/openmote-cc2538_armgcc/openstack/02b-MAChigh/msf.c ****     if (schedule_getNumberOfDedicatedCells(&neighbor)<=1){
 969              		.loc 1 268 0
 970 03cc 07F11C03 		add	r3, r7, #28
 971 03d0 1846     		mov	r0, r3
 972 03d2 FFF7FEFF 		bl	schedule_getNumberOfDedicatedCells
 973 03d6 0346     		mov	r3, r0
 974 03d8 012B     		cmp	r3, #1
 975 03da 24D9     		bls	.L77
 269:build/openmote-cc2538_armgcc/openstack/02b-MAChigh/msf.c ****         // at least one dedicated cell presents
 270:build/openmote-cc2538_armgcc/openstack/02b-MAChigh/msf.c ****         return;
 271:build/openmote-cc2538_armgcc/openstack/02b-MAChigh/msf.c ****     }
 272:build/openmote-cc2538_armgcc/openstack/02b-MAChigh/msf.c ****     
 273:build/openmote-cc2538_armgcc/openstack/02b-MAChigh/msf.c ****     if (msf_candidateRemoveCellList(celllist_delete,&neighbor,NUMCELLS_MSF)==FALSE){
 976              		.loc 1 273 0
 977 03dc 07F11C01 		add	r1, r7, #28
 978 03e0 3B46     		mov	r3, r7
 979 03e2 0122     		movs	r2, #1
 980 03e4 1846     		mov	r0, r3
 981 03e6 FFF7FEFF 		bl	msf_candidateRemoveCellList
 982 03ea 0346     		mov	r3, r0
 983 03ec 83F00103 		eor	r3, r3, #1
 984 03f0 DBB2     		uxtb	r3, r3
 985 03f2 002B     		cmp	r3, #0
 986 03f4 19D1     		bne	.L78
 274:build/openmote-cc2538_armgcc/openstack/02b-MAChigh/msf.c ****         // failed to get cell list to delete
 275:build/openmote-cc2538_armgcc/openstack/02b-MAChigh/msf.c ****         return;
 276:build/openmote-cc2538_armgcc/openstack/02b-MAChigh/msf.c ****     }
 277:build/openmote-cc2538_armgcc/openstack/02b-MAChigh/msf.c ****     sixtop_request(
 987              		.loc 1 277 0
 988 03f6 07F11C01 		add	r1, r7, #28
 989 03fa 0023     		movs	r3, #0
 990 03fc 0493     		str	r3, [sp, #16]
 991 03fe 0023     		movs	r3, #0
 992 0400 0393     		str	r3, [sp, #12]
 993 0402 0023     		movs	r3, #0
 994 0404 0293     		str	r3, [sp, #8]
 995 0406 3B46     		mov	r3, r7
 996 0408 0193     		str	r3, [sp, #4]
 997 040a 0023     		movs	r3, #0
 998 040c 0093     		str	r3, [sp]
 999 040e 0723     		movs	r3, #7
 1000 0410 0122     		movs	r2, #1
 1001 0412 0220     		movs	r0, #2
 1002 0414 FFF7FEFF 		bl	sixtop_request
 1003 0418 08E0     		b	.L66
 1004              	.L74:
 255:build/openmote-cc2538_armgcc/openstack/02b-MAChigh/msf.c ****     }
 1005              		.loc 1 255 0
 1006 041a 00BF     		nop
 1007 041c 06E0     		b	.L66
 1008              	.L75:
 259:build/openmote-cc2538_armgcc/openstack/02b-MAChigh/msf.c ****     }
 1009              		.loc 1 259 0
 1010 041e 00BF     		nop
 1011 0420 04E0     		b	.L66
 1012              	.L76:
 265:build/openmote-cc2538_armgcc/openstack/02b-MAChigh/msf.c ****     }
 1013              		.loc 1 265 0
 1014 0422 00BF     		nop
 1015 0424 02E0     		b	.L66
 1016              	.L77:
 270:build/openmote-cc2538_armgcc/openstack/02b-MAChigh/msf.c ****     }
 1017              		.loc 1 270 0
 1018 0426 00BF     		nop
 1019 0428 00E0     		b	.L66
 1020              	.L78:
 275:build/openmote-cc2538_armgcc/openstack/02b-MAChigh/msf.c ****     }
 1021              		.loc 1 275 0
 1022 042a 00BF     		nop
 1023              	.L66:
 278:build/openmote-cc2538_armgcc/openstack/02b-MAChigh/msf.c ****         IANA_6TOP_CMD_DELETE,   // code
 279:build/openmote-cc2538_armgcc/openstack/02b-MAChigh/msf.c ****         &neighbor,              // neighbor
 280:build/openmote-cc2538_armgcc/openstack/02b-MAChigh/msf.c ****         NUMCELLS_MSF,           // number cells
 281:build/openmote-cc2538_armgcc/openstack/02b-MAChigh/msf.c ****         CELLOPTIONS_MSF,        // cellOptions
 282:build/openmote-cc2538_armgcc/openstack/02b-MAChigh/msf.c ****         NULL,                   // celllist to add (not used)
 283:build/openmote-cc2538_armgcc/openstack/02b-MAChigh/msf.c ****         celllist_delete,        // celllist to delete
 284:build/openmote-cc2538_armgcc/openstack/02b-MAChigh/msf.c ****         IANA_6TISCH_SFID_MSF,   // sfid
 285:build/openmote-cc2538_armgcc/openstack/02b-MAChigh/msf.c ****         0,                      // list command offset (not used)
 286:build/openmote-cc2538_armgcc/openstack/02b-MAChigh/msf.c ****         0                       // list command maximum celllist (not used)
 287:build/openmote-cc2538_armgcc/openstack/02b-MAChigh/msf.c ****     );
 288:build/openmote-cc2538_armgcc/openstack/02b-MAChigh/msf.c **** }
 1024              		.loc 1 288 0
 1025 042c 3037     		adds	r7, r7, #48
 1026              		.cfi_def_cfa_offset 8
 1027 042e BD46     		mov	sp, r7
 1028              		.cfi_def_cfa_register 13
 1029              		@ sp needed
 1030 0430 80BD     		pop	{r7, pc}
 1031              	.L80:
 1032 0432 00BF     		.align	2
 1033              	.L79:
 1034 0434 00000000 		.word	msf_vars
 1035              		.cfi_endproc
 1036              	.LFE13:
 1038              		.align	2
 1039              		.global	msf_appPktPeriod
 1040              		.thumb
 1041              		.thumb_func
 1043              	msf_appPktPeriod:
 1044              	.LFB14:
 289:build/openmote-cc2538_armgcc/openstack/02b-MAChigh/msf.c **** 
 290:build/openmote-cc2538_armgcc/openstack/02b-MAChigh/msf.c **** void msf_appPktPeriod(uint8_t numAppPacketsPerSlotFrame){
 1045              		.loc 1 290 0
 1046              		.cfi_startproc
 1047              		@ args = 0, pretend = 0, frame = 8
 1048              		@ frame_needed = 1, uses_anonymous_args = 0
 1049              		@ link register save eliminated.
 1050 0438 80B4     		push	{r7}
 1051              		.cfi_def_cfa_offset 4
 1052              		.cfi_offset 7, -4
 1053 043a 83B0     		sub	sp, sp, #12
 1054              		.cfi_def_cfa_offset 16
 1055 043c 00AF     		add	r7, sp, #0
 1056              		.cfi_def_cfa_register 7
 1057 043e 0346     		mov	r3, r0
 1058 0440 FB71     		strb	r3, [r7, #7]
 291:build/openmote-cc2538_armgcc/openstack/02b-MAChigh/msf.c ****     msf_vars.numAppPacketsPerSlotFrame = numAppPacketsPerSlotFrame;
 1059              		.loc 1 291 0
 1060 0442 044A     		ldr	r2, .L82
 1061 0444 FB79     		ldrb	r3, [r7, #7]
 1062 0446 1370     		strb	r3, [r2]
 292:build/openmote-cc2538_armgcc/openstack/02b-MAChigh/msf.c **** }
 1063              		.loc 1 292 0
 1064 0448 00BF     		nop
 1065 044a 0C37     		adds	r7, r7, #12
 1066              		.cfi_def_cfa_offset 4
 1067 044c BD46     		mov	sp, r7
 1068              		.cfi_def_cfa_register 13
 1069              		@ sp needed
 1070 044e 80BC     		pop	{r7}
 1071              		.cfi_restore 7
 1072              		.cfi_def_cfa_offset 0
 1073 0450 7047     		bx	lr
 1074              	.L83:
 1075 0452 00BF     		.align	2
 1076              	.L82:
 1077 0454 00000000 		.word	msf_vars
 1078              		.cfi_endproc
 1079              	.LFE14:
 1081              		.align	2
 1082              		.global	msf_candidateAddCellList
 1083              		.thumb
 1084              		.thumb_func
 1086              	msf_candidateAddCellList:
 1087              	.LFB15:
 293:build/openmote-cc2538_armgcc/openstack/02b-MAChigh/msf.c **** 
 294:build/openmote-cc2538_armgcc/openstack/02b-MAChigh/msf.c **** bool msf_candidateAddCellList(
 295:build/openmote-cc2538_armgcc/openstack/02b-MAChigh/msf.c ****       cellInfo_ht* cellList,
 296:build/openmote-cc2538_armgcc/openstack/02b-MAChigh/msf.c ****       uint8_t      requiredCells
 297:build/openmote-cc2538_armgcc/openstack/02b-MAChigh/msf.c ****    ){
 1088              		.loc 1 297 0
 1089              		.cfi_startproc
 1090              		@ args = 0, pretend = 0, frame = 16
 1091              		@ frame_needed = 1, uses_anonymous_args = 0
 1092 0458 90B5     		push	{r4, r7, lr}
 1093              		.cfi_def_cfa_offset 12
 1094              		.cfi_offset 4, -12
 1095              		.cfi_offset 7, -8
 1096              		.cfi_offset 14, -4
 1097 045a 85B0     		sub	sp, sp, #20
 1098              		.cfi_def_cfa_offset 32
 1099 045c 00AF     		add	r7, sp, #0
 1100              		.cfi_def_cfa_register 7
 1101 045e 7860     		str	r0, [r7, #4]
 1102 0460 0B46     		mov	r3, r1
 1103 0462 FB70     		strb	r3, [r7, #3]
 298:build/openmote-cc2538_armgcc/openstack/02b-MAChigh/msf.c ****     uint8_t i;
 299:build/openmote-cc2538_armgcc/openstack/02b-MAChigh/msf.c ****     frameLength_t slotoffset;
 300:build/openmote-cc2538_armgcc/openstack/02b-MAChigh/msf.c ****     uint8_t numCandCells;
 301:build/openmote-cc2538_armgcc/openstack/02b-MAChigh/msf.c ****     
 302:build/openmote-cc2538_armgcc/openstack/02b-MAChigh/msf.c ****     memset(cellList,0,CELLLIST_MAX_LEN*sizeof(cellInfo_ht));
 1104              		.loc 1 302 0
 1105 0464 1922     		movs	r2, #25
 1106 0466 0021     		movs	r1, #0
 1107 0468 7868     		ldr	r0, [r7, #4]
 1108 046a FFF7FEFF 		bl	memset
 303:build/openmote-cc2538_armgcc/openstack/02b-MAChigh/msf.c ****     numCandCells=0;
 1109              		.loc 1 303 0
 1110 046e 0023     		movs	r3, #0
 1111 0470 BB73     		strb	r3, [r7, #14]
 304:build/openmote-cc2538_armgcc/openstack/02b-MAChigh/msf.c ****     for(i=0;i<CELLLIST_MAX_LEN;i++){
 1112              		.loc 1 304 0
 1113 0472 0023     		movs	r3, #0
 1114 0474 FB73     		strb	r3, [r7, #15]
 1115 0476 38E0     		b	.L85
 1116              	.L87:
 305:build/openmote-cc2538_armgcc/openstack/02b-MAChigh/msf.c ****         slotoffset = openrandom_get16b()%schedule_getFrameLength();
 1117              		.loc 1 305 0
 1118 0478 FFF7FEFF 		bl	openrandom_get16b
 1119 047c 0346     		mov	r3, r0
 1120 047e 1C46     		mov	r4, r3
 1121 0480 FFF7FEFF 		bl	schedule_getFrameLength
 1122 0484 0346     		mov	r3, r0
 1123 0486 B4FBF3F2 		udiv	r2, r4, r3
 1124 048a 03FB02F3 		mul	r3, r3, r2
 1125 048e E31A     		subs	r3, r4, r3
 1126 0490 BB81     		strh	r3, [r7, #12]	@ movhi
 306:build/openmote-cc2538_armgcc/openstack/02b-MAChigh/msf.c ****         if(schedule_isSlotOffsetAvailable(slotoffset)==TRUE){
 1127              		.loc 1 306 0
 1128 0492 BB89     		ldrh	r3, [r7, #12]
 1129 0494 1846     		mov	r0, r3
 1130 0496 FFF7FEFF 		bl	schedule_isSlotOffsetAvailable
 1131 049a 0346     		mov	r3, r0
 1132 049c 002B     		cmp	r3, #0
 1133 049e 21D0     		beq	.L86
 307:build/openmote-cc2538_armgcc/openstack/02b-MAChigh/msf.c ****             cellList[numCandCells].slotoffset       = slotoffset;
 1134              		.loc 1 307 0
 1135 04a0 BA7B     		ldrb	r2, [r7, #14]	@ zero_extendqisi2
 1136 04a2 1346     		mov	r3, r2
 1137 04a4 9B00     		lsls	r3, r3, #2
 1138 04a6 1344     		add	r3, r3, r2
 1139 04a8 7A68     		ldr	r2, [r7, #4]
 1140 04aa 1344     		add	r3, r3, r2
 1141 04ac BA89     		ldrh	r2, [r7, #12]	@ movhi
 1142 04ae A3F80120 		strh	r2, [r3, #1]	@ unaligned
 308:build/openmote-cc2538_armgcc/openstack/02b-MAChigh/msf.c ****             cellList[numCandCells].channeloffset    = openrandom_get16b()&0x0F;
 1143              		.loc 1 308 0
 1144 04b2 BA7B     		ldrb	r2, [r7, #14]	@ zero_extendqisi2
 1145 04b4 1346     		mov	r3, r2
 1146 04b6 9B00     		lsls	r3, r3, #2
 1147 04b8 1344     		add	r3, r3, r2
 1148 04ba 7A68     		ldr	r2, [r7, #4]
 1149 04bc D418     		adds	r4, r2, r3
 1150 04be FFF7FEFF 		bl	openrandom_get16b
 1151 04c2 0346     		mov	r3, r0
 1152 04c4 03F00F03 		and	r3, r3, #15
 1153 04c8 9BB2     		uxth	r3, r3
 1154 04ca A4F80330 		strh	r3, [r4, #3]	@ unaligned
 309:build/openmote-cc2538_armgcc/openstack/02b-MAChigh/msf.c ****             cellList[numCandCells].isUsed           = TRUE;
 1155              		.loc 1 309 0
 1156 04ce BA7B     		ldrb	r2, [r7, #14]	@ zero_extendqisi2
 1157 04d0 1346     		mov	r3, r2
 1158 04d2 9B00     		lsls	r3, r3, #2
 1159 04d4 1344     		add	r3, r3, r2
 1160 04d6 7A68     		ldr	r2, [r7, #4]
 1161 04d8 1344     		add	r3, r3, r2
 1162 04da 0122     		movs	r2, #1
 1163 04dc 1A70     		strb	r2, [r3]
 310:build/openmote-cc2538_armgcc/openstack/02b-MAChigh/msf.c ****             numCandCells++;
 1164              		.loc 1 310 0
 1165 04de BB7B     		ldrb	r3, [r7, #14]	@ zero_extendqisi2
 1166 04e0 0133     		adds	r3, r3, #1
 1167 04e2 BB73     		strb	r3, [r7, #14]
 1168              	.L86:
 304:build/openmote-cc2538_armgcc/openstack/02b-MAChigh/msf.c ****         slotoffset = openrandom_get16b()%schedule_getFrameLength();
 1169              		.loc 1 304 0 discriminator 2
 1170 04e4 FB7B     		ldrb	r3, [r7, #15]	@ zero_extendqisi2
 1171 04e6 0133     		adds	r3, r3, #1
 1172 04e8 FB73     		strb	r3, [r7, #15]
 1173              	.L85:
 304:build/openmote-cc2538_armgcc/openstack/02b-MAChigh/msf.c ****         slotoffset = openrandom_get16b()%schedule_getFrameLength();
 1174              		.loc 1 304 0 is_stmt 0 discriminator 1
 1175 04ea FB7B     		ldrb	r3, [r7, #15]	@ zero_extendqisi2
 1176 04ec 042B     		cmp	r3, #4
 1177 04ee C3D9     		bls	.L87
 311:build/openmote-cc2538_armgcc/openstack/02b-MAChigh/msf.c ****         }
 312:build/openmote-cc2538_armgcc/openstack/02b-MAChigh/msf.c ****     }
 313:build/openmote-cc2538_armgcc/openstack/02b-MAChigh/msf.c ****    
 314:build/openmote-cc2538_armgcc/openstack/02b-MAChigh/msf.c ****     if (numCandCells<requiredCells || requiredCells==0) {
 1178              		.loc 1 314 0 is_stmt 1
 1179 04f0 BA7B     		ldrb	r2, [r7, #14]	@ zero_extendqisi2
 1180 04f2 FB78     		ldrb	r3, [r7, #3]	@ zero_extendqisi2
 1181 04f4 9A42     		cmp	r2, r3
 1182 04f6 02D3     		bcc	.L88
 1183              		.loc 1 314 0 is_stmt 0 discriminator 1
 1184 04f8 FB78     		ldrb	r3, [r7, #3]	@ zero_extendqisi2
 1185 04fa 002B     		cmp	r3, #0
 1186 04fc 01D1     		bne	.L89
 1187              	.L88:
 315:build/openmote-cc2538_armgcc/openstack/02b-MAChigh/msf.c ****         return FALSE;
 1188              		.loc 1 315 0 is_stmt 1
 1189 04fe 0023     		movs	r3, #0
 1190 0500 00E0     		b	.L90
 1191              	.L89:
 316:build/openmote-cc2538_armgcc/openstack/02b-MAChigh/msf.c ****     } else {
 317:build/openmote-cc2538_armgcc/openstack/02b-MAChigh/msf.c ****         return TRUE;
 1192              		.loc 1 317 0
 1193 0502 0123     		movs	r3, #1
 1194              	.L90:
 318:build/openmote-cc2538_armgcc/openstack/02b-MAChigh/msf.c ****     }
 319:build/openmote-cc2538_armgcc/openstack/02b-MAChigh/msf.c **** }
 1195              		.loc 1 319 0
 1196 0504 1846     		mov	r0, r3
 1197 0506 1437     		adds	r7, r7, #20
 1198              		.cfi_def_cfa_offset 12
 1199 0508 BD46     		mov	sp, r7
 1200              		.cfi_def_cfa_register 13
 1201              		@ sp needed
 1202 050a 90BD     		pop	{r4, r7, pc}
 1203              		.cfi_endproc
 1204              	.LFE15:
 1206              		.align	2
 1207              		.global	msf_candidateRemoveCellList
 1208              		.thumb
 1209              		.thumb_func
 1211              	msf_candidateRemoveCellList:
 1212              	.LFB16:
 320:build/openmote-cc2538_armgcc/openstack/02b-MAChigh/msf.c **** 
 321:build/openmote-cc2538_armgcc/openstack/02b-MAChigh/msf.c **** bool msf_candidateRemoveCellList(
 322:build/openmote-cc2538_armgcc/openstack/02b-MAChigh/msf.c ****       cellInfo_ht* cellList,
 323:build/openmote-cc2538_armgcc/openstack/02b-MAChigh/msf.c ****       open_addr_t* neighbor,
 324:build/openmote-cc2538_armgcc/openstack/02b-MAChigh/msf.c ****       uint8_t      requiredCells
 325:build/openmote-cc2538_armgcc/openstack/02b-MAChigh/msf.c ****    ){
 1213              		.loc 1 325 0
 1214              		.cfi_startproc
 1215              		@ args = 0, pretend = 0, frame = 32
 1216              		@ frame_needed = 1, uses_anonymous_args = 0
 1217 050c 90B5     		push	{r4, r7, lr}
 1218              		.cfi_def_cfa_offset 12
 1219              		.cfi_offset 4, -12
 1220              		.cfi_offset 7, -8
 1221              		.cfi_offset 14, -4
 1222 050e 89B0     		sub	sp, sp, #36
 1223              		.cfi_def_cfa_offset 48
 1224 0510 00AF     		add	r7, sp, #0
 1225              		.cfi_def_cfa_register 7
 1226 0512 F860     		str	r0, [r7, #12]
 1227 0514 B960     		str	r1, [r7, #8]
 1228 0516 1346     		mov	r3, r2
 1229 0518 FB71     		strb	r3, [r7, #7]
 326:build/openmote-cc2538_armgcc/openstack/02b-MAChigh/msf.c ****    uint8_t              i;
 327:build/openmote-cc2538_armgcc/openstack/02b-MAChigh/msf.c ****    uint8_t              numCandCells;
 328:build/openmote-cc2538_armgcc/openstack/02b-MAChigh/msf.c ****    slotinfo_element_t   info;
 329:build/openmote-cc2538_armgcc/openstack/02b-MAChigh/msf.c ****    
 330:build/openmote-cc2538_armgcc/openstack/02b-MAChigh/msf.c ****    memset(cellList,0,CELLLIST_MAX_LEN*sizeof(cellInfo_ht));
 1230              		.loc 1 330 0
 1231 051a 1922     		movs	r2, #25
 1232 051c 0021     		movs	r1, #0
 1233 051e F868     		ldr	r0, [r7, #12]
 1234 0520 FFF7FEFF 		bl	memset
 331:build/openmote-cc2538_armgcc/openstack/02b-MAChigh/msf.c ****    numCandCells    = 0;
 1235              		.loc 1 331 0
 1236 0524 0023     		movs	r3, #0
 1237 0526 BB77     		strb	r3, [r7, #30]
 332:build/openmote-cc2538_armgcc/openstack/02b-MAChigh/msf.c ****    for(i=0;i<schedule_getFrameLength();i++){
 1238              		.loc 1 332 0
 1239 0528 0023     		movs	r3, #0
 1240 052a FB77     		strb	r3, [r7, #31]
 1241 052c 2FE0     		b	.L92
 1242              	.L95:
 333:build/openmote-cc2538_armgcc/openstack/02b-MAChigh/msf.c ****       schedule_getSlotInfo(i,neighbor,&info);
 1243              		.loc 1 333 0
 1244 052e FB7F     		ldrb	r3, [r7, #31]	@ zero_extendqisi2
 1245 0530 9BB2     		uxth	r3, r3
 1246 0532 07F11002 		add	r2, r7, #16
 1247 0536 B968     		ldr	r1, [r7, #8]
 1248 0538 1846     		mov	r0, r3
 1249 053a FFF7FEFF 		bl	schedule_getSlotInfo
 334:build/openmote-cc2538_armgcc/openstack/02b-MAChigh/msf.c ****       if(info.link_type == CELLTYPE_TX){
 1250              		.loc 1 334 0
 1251 053e 3B7E     		ldrb	r3, [r7, #24]	@ zero_extendqisi2
 1252 0540 012B     		cmp	r3, #1
 1253 0542 21D1     		bne	.L93
 335:build/openmote-cc2538_armgcc/openstack/02b-MAChigh/msf.c ****          cellList[numCandCells].slotoffset       = i;
 1254              		.loc 1 335 0
 1255 0544 BA7F     		ldrb	r2, [r7, #30]	@ zero_extendqisi2
 1256 0546 1346     		mov	r3, r2
 1257 0548 9B00     		lsls	r3, r3, #2
 1258 054a 1344     		add	r3, r3, r2
 1259 054c FA68     		ldr	r2, [r7, #12]
 1260 054e 1344     		add	r3, r3, r2
 1261 0550 FA7F     		ldrb	r2, [r7, #31]	@ zero_extendqisi2
 1262 0552 92B2     		uxth	r2, r2
 1263 0554 A3F80120 		strh	r2, [r3, #1]	@ unaligned
 336:build/openmote-cc2538_armgcc/openstack/02b-MAChigh/msf.c ****          cellList[numCandCells].channeloffset    = info.channelOffset;
 1264              		.loc 1 336 0
 1265 0558 BA7F     		ldrb	r2, [r7, #30]	@ zero_extendqisi2
 1266 055a 1346     		mov	r3, r2
 1267 055c 9B00     		lsls	r3, r3, #2
 1268 055e 1344     		add	r3, r3, r2
 1269 0560 FA68     		ldr	r2, [r7, #12]
 1270 0562 1344     		add	r3, r3, r2
 1271 0564 3A7F     		ldrb	r2, [r7, #28]	@ zero_extendqisi2
 1272 0566 92B2     		uxth	r2, r2
 1273 0568 A3F80320 		strh	r2, [r3, #3]	@ unaligned
 337:build/openmote-cc2538_armgcc/openstack/02b-MAChigh/msf.c ****          cellList[numCandCells].isUsed           = TRUE;
 1274              		.loc 1 337 0
 1275 056c BA7F     		ldrb	r2, [r7, #30]	@ zero_extendqisi2
 1276 056e 1346     		mov	r3, r2
 1277 0570 9B00     		lsls	r3, r3, #2
 1278 0572 1344     		add	r3, r3, r2
 1279 0574 FA68     		ldr	r2, [r7, #12]
 1280 0576 1344     		add	r3, r3, r2
 1281 0578 0122     		movs	r2, #1
 1282 057a 1A70     		strb	r2, [r3]
 338:build/openmote-cc2538_armgcc/openstack/02b-MAChigh/msf.c ****          numCandCells++;
 1283              		.loc 1 338 0
 1284 057c BB7F     		ldrb	r3, [r7, #30]	@ zero_extendqisi2
 1285 057e 0133     		adds	r3, r3, #1
 1286 0580 BB77     		strb	r3, [r7, #30]
 339:build/openmote-cc2538_armgcc/openstack/02b-MAChigh/msf.c ****          if (numCandCells==CELLLIST_MAX_LEN){
 1287              		.loc 1 339 0
 1288 0582 BB7F     		ldrb	r3, [r7, #30]	@ zero_extendqisi2
 1289 0584 052B     		cmp	r3, #5
 1290 0586 0AD0     		beq	.L99
 1291              	.L93:
 332:build/openmote-cc2538_armgcc/openstack/02b-MAChigh/msf.c ****       schedule_getSlotInfo(i,neighbor,&info);
 1292              		.loc 1 332 0 discriminator 2
 1293 0588 FB7F     		ldrb	r3, [r7, #31]	@ zero_extendqisi2
 1294 058a 0133     		adds	r3, r3, #1
 1295 058c FB77     		strb	r3, [r7, #31]
 1296              	.L92:
 332:build/openmote-cc2538_armgcc/openstack/02b-MAChigh/msf.c ****       schedule_getSlotInfo(i,neighbor,&info);
 1297              		.loc 1 332 0 is_stmt 0 discriminator 1
 1298 058e FB7F     		ldrb	r3, [r7, #31]	@ zero_extendqisi2
 1299 0590 9CB2     		uxth	r4, r3
 1300 0592 FFF7FEFF 		bl	schedule_getFrameLength
 1301 0596 0346     		mov	r3, r0
 1302 0598 9C42     		cmp	r4, r3
 1303 059a C8D3     		bcc	.L95
 1304 059c 00E0     		b	.L94
 1305              	.L99:
 340:build/openmote-cc2538_armgcc/openstack/02b-MAChigh/msf.c ****             break;
 1306              		.loc 1 340 0 is_stmt 1
 1307 059e 00BF     		nop
 1308              	.L94:
 341:build/openmote-cc2538_armgcc/openstack/02b-MAChigh/msf.c ****          }
 342:build/openmote-cc2538_armgcc/openstack/02b-MAChigh/msf.c ****       }
 343:build/openmote-cc2538_armgcc/openstack/02b-MAChigh/msf.c ****    }
 344:build/openmote-cc2538_armgcc/openstack/02b-MAChigh/msf.c ****    
 345:build/openmote-cc2538_armgcc/openstack/02b-MAChigh/msf.c ****    if(numCandCells<requiredCells){
 1309              		.loc 1 345 0
 1310 05a0 BA7F     		ldrb	r2, [r7, #30]	@ zero_extendqisi2
 1311 05a2 FB79     		ldrb	r3, [r7, #7]	@ zero_extendqisi2
 1312 05a4 9A42     		cmp	r2, r3
 1313 05a6 01D2     		bcs	.L96
 346:build/openmote-cc2538_armgcc/openstack/02b-MAChigh/msf.c ****       return FALSE;
 1314              		.loc 1 346 0
 1315 05a8 0023     		movs	r3, #0
 1316 05aa 00E0     		b	.L98
 1317              	.L96:
 347:build/openmote-cc2538_armgcc/openstack/02b-MAChigh/msf.c ****    }else{
 348:build/openmote-cc2538_armgcc/openstack/02b-MAChigh/msf.c ****       return TRUE;
 1318              		.loc 1 348 0
 1319 05ac 0123     		movs	r3, #1
 1320              	.L98:
 349:build/openmote-cc2538_armgcc/openstack/02b-MAChigh/msf.c ****    }
 350:build/openmote-cc2538_armgcc/openstack/02b-MAChigh/msf.c **** }
 1321              		.loc 1 350 0 discriminator 1
 1322 05ae 1846     		mov	r0, r3
 1323 05b0 2437     		adds	r7, r7, #36
 1324              		.cfi_def_cfa_offset 12
 1325 05b2 BD46     		mov	sp, r7
 1326              		.cfi_def_cfa_register 13
 1327              		@ sp needed
 1328 05b4 90BD     		pop	{r4, r7, pc}
 1329              		.cfi_endproc
 1330              	.LFE16:
 1332 05b6 00BF     		.align	2
 1333              		.global	msf_housekeeping
 1334              		.thumb
 1335              		.thumb_func
 1337              	msf_housekeeping:
 1338              	.LFB17:
 351:build/openmote-cc2538_armgcc/openstack/02b-MAChigh/msf.c **** 
 352:build/openmote-cc2538_armgcc/openstack/02b-MAChigh/msf.c **** void msf_housekeeping(void){
 1339              		.loc 1 352 0
 1340              		.cfi_startproc
 1341              		@ args = 0, pretend = 0, frame = 80
 1342              		@ frame_needed = 1, uses_anonymous_args = 0
 1343 05b8 80B5     		push	{r7, lr}
 1344              		.cfi_def_cfa_offset 8
 1345              		.cfi_offset 7, -8
 1346              		.cfi_offset 14, -4
 1347 05ba 9AB0     		sub	sp, sp, #104
 1348              		.cfi_def_cfa_offset 112
 1349 05bc 06AF     		add	r7, sp, #24
 1350              		.cfi_def_cfa 7, 88
 353:build/openmote-cc2538_armgcc/openstack/02b-MAChigh/msf.c ****     
 354:build/openmote-cc2538_armgcc/openstack/02b-MAChigh/msf.c ****     open_addr_t    parentNeighbor;
 355:build/openmote-cc2538_armgcc/openstack/02b-MAChigh/msf.c ****     bool           foundNeighbor;
 356:build/openmote-cc2538_armgcc/openstack/02b-MAChigh/msf.c ****     cellInfo_ht    celllist_add[CELLLIST_MAX_LEN];
 357:build/openmote-cc2538_armgcc/openstack/02b-MAChigh/msf.c ****     cellInfo_ht    celllist_delete[CELLLIST_MAX_LEN];
 358:build/openmote-cc2538_armgcc/openstack/02b-MAChigh/msf.c ****     
 359:build/openmote-cc2538_armgcc/openstack/02b-MAChigh/msf.c ****     if (ieee154e_isSynch()==FALSE) {
 1351              		.loc 1 359 0
 1352 05be FFF7FEFF 		bl	ieee154e_isSynch
 1353 05c2 0346     		mov	r3, r0
 1354 05c4 83F00103 		eor	r3, r3, #1
 1355 05c8 DBB2     		uxtb	r3, r3
 1356 05ca 002B     		cmp	r3, #0
 1357 05cc 57D1     		bne	.L110
 360:build/openmote-cc2538_armgcc/openstack/02b-MAChigh/msf.c ****         return;
 361:build/openmote-cc2538_armgcc/openstack/02b-MAChigh/msf.c ****     }
 362:build/openmote-cc2538_armgcc/openstack/02b-MAChigh/msf.c ****     
 363:build/openmote-cc2538_armgcc/openstack/02b-MAChigh/msf.c ****     foundNeighbor = icmpv6rpl_getPreferredParentEui64(&parentNeighbor);
 1358              		.loc 1 363 0
 1359 05ce 07F13C03 		add	r3, r7, #60
 1360 05d2 1846     		mov	r0, r3
 1361 05d4 FFF7FEFF 		bl	icmpv6rpl_getPreferredParentEui64
 1362 05d8 0346     		mov	r3, r0
 1363 05da 87F84F30 		strb	r3, [r7, #79]
 364:build/openmote-cc2538_armgcc/openstack/02b-MAChigh/msf.c ****     if (foundNeighbor==FALSE) {
 1364              		.loc 1 364 0
 1365 05de 97F84F30 		ldrb	r3, [r7, #79]
 1366 05e2 83F00103 		eor	r3, r3, #1
 1367 05e6 DBB2     		uxtb	r3, r3
 1368 05e8 002B     		cmp	r3, #0
 1369 05ea 4AD1     		bne	.L111
 365:build/openmote-cc2538_armgcc/openstack/02b-MAChigh/msf.c ****         return;
 366:build/openmote-cc2538_armgcc/openstack/02b-MAChigh/msf.c ****     }
 367:build/openmote-cc2538_armgcc/openstack/02b-MAChigh/msf.c ****     if (schedule_getNumberOfDedicatedCells(&parentNeighbor)==0){
 1370              		.loc 1 367 0
 1371 05ec 07F13C03 		add	r3, r7, #60
 1372 05f0 1846     		mov	r0, r3
 1373 05f2 FFF7FEFF 		bl	schedule_getNumberOfDedicatedCells
 1374 05f6 0346     		mov	r3, r0
 1375 05f8 002B     		cmp	r3, #0
 1376 05fa 02D1     		bne	.L104
 368:build/openmote-cc2538_armgcc/openstack/02b-MAChigh/msf.c ****         msf_trigger6pAdd();
 1377              		.loc 1 368 0
 1378 05fc FFF7FEFF 		bl	msf_trigger6pAdd
 369:build/openmote-cc2538_armgcc/openstack/02b-MAChigh/msf.c ****         return;
 1379              		.loc 1 369 0
 1380 0600 46E0     		b	.L100
 1381              	.L104:
 370:build/openmote-cc2538_armgcc/openstack/02b-MAChigh/msf.c ****     }
 371:build/openmote-cc2538_armgcc/openstack/02b-MAChigh/msf.c ****     
 372:build/openmote-cc2538_armgcc/openstack/02b-MAChigh/msf.c ****     if (msf_vars.waitretry){
 1382              		.loc 1 372 0
 1383 0602 254B     		ldr	r3, .L115
 1384 0604 DB79     		ldrb	r3, [r3, #7]	@ zero_extendqisi2
 1385 0606 002B     		cmp	r3, #0
 1386 0608 3DD1     		bne	.L112
 373:build/openmote-cc2538_armgcc/openstack/02b-MAChigh/msf.c ****         return;
 374:build/openmote-cc2538_armgcc/openstack/02b-MAChigh/msf.c ****     }
 375:build/openmote-cc2538_armgcc/openstack/02b-MAChigh/msf.c ****     
 376:build/openmote-cc2538_armgcc/openstack/02b-MAChigh/msf.c ****     if (schedule_isNumTxWrapped(&parentNeighbor)==FALSE){
 1387              		.loc 1 376 0
 1388 060a 07F13C03 		add	r3, r7, #60
 1389 060e 1846     		mov	r0, r3
 1390 0610 FFF7FEFF 		bl	schedule_isNumTxWrapped
 1391 0614 0346     		mov	r3, r0
 1392 0616 83F00103 		eor	r3, r3, #1
 1393 061a DBB2     		uxtb	r3, r3
 1394 061c 002B     		cmp	r3, #0
 1395 061e 34D1     		bne	.L113
 377:build/openmote-cc2538_armgcc/openstack/02b-MAChigh/msf.c ****         return;
 378:build/openmote-cc2538_armgcc/openstack/02b-MAChigh/msf.c ****     }
 379:build/openmote-cc2538_armgcc/openstack/02b-MAChigh/msf.c ****     
 380:build/openmote-cc2538_armgcc/openstack/02b-MAChigh/msf.c ****     memset(celllist_delete, 0, CELLLIST_MAX_LEN*sizeof(cellInfo_ht));
 1396              		.loc 1 380 0
 1397 0620 3B1D     		adds	r3, r7, #4
 1398 0622 1922     		movs	r2, #25
 1399 0624 0021     		movs	r1, #0
 1400 0626 1846     		mov	r0, r3
 1401 0628 FFF7FEFF 		bl	memset
 381:build/openmote-cc2538_armgcc/openstack/02b-MAChigh/msf.c ****     if (schedule_getCellsToBeRelocated(&parentNeighbor, celllist_delete)){
 1402              		.loc 1 381 0
 1403 062c 3A1D     		adds	r2, r7, #4
 1404 062e 07F13C03 		add	r3, r7, #60
 1405 0632 1146     		mov	r1, r2
 1406 0634 1846     		mov	r0, r3
 1407 0636 FFF7FEFF 		bl	schedule_getCellsToBeRelocated
 1408 063a 0346     		mov	r3, r0
 1409 063c 002B     		cmp	r3, #0
 1410 063e 27D0     		beq	.L100
 382:build/openmote-cc2538_armgcc/openstack/02b-MAChigh/msf.c ****         if (msf_candidateAddCellList(celllist_add,NUMCELLS_MSF)==FALSE){
 1411              		.loc 1 382 0
 1412 0640 07F12003 		add	r3, r7, #32
 1413 0644 0121     		movs	r1, #1
 1414 0646 1846     		mov	r0, r3
 1415 0648 FFF7FEFF 		bl	msf_candidateAddCellList
 1416 064c 0346     		mov	r3, r0
 1417 064e 83F00103 		eor	r3, r3, #1
 1418 0652 DBB2     		uxtb	r3, r3
 1419 0654 002B     		cmp	r3, #0
 1420 0656 1AD1     		bne	.L114
 383:build/openmote-cc2538_armgcc/openstack/02b-MAChigh/msf.c ****             // failed to get cell list to add
 384:build/openmote-cc2538_armgcc/openstack/02b-MAChigh/msf.c ****             return;
 385:build/openmote-cc2538_armgcc/openstack/02b-MAChigh/msf.c ****         }
 386:build/openmote-cc2538_armgcc/openstack/02b-MAChigh/msf.c ****         sixtop_request(
 1421              		.loc 1 386 0
 1422 0658 07F13C01 		add	r1, r7, #60
 1423 065c 0023     		movs	r3, #0
 1424 065e 0493     		str	r3, [sp, #16]
 1425 0660 0023     		movs	r3, #0
 1426 0662 0393     		str	r3, [sp, #12]
 1427 0664 0023     		movs	r3, #0
 1428 0666 0293     		str	r3, [sp, #8]
 1429 0668 3B1D     		adds	r3, r7, #4
 1430 066a 0193     		str	r3, [sp, #4]
 1431 066c 07F12003 		add	r3, r7, #32
 1432 0670 0093     		str	r3, [sp]
 1433 0672 0723     		movs	r3, #7
 1434 0674 0122     		movs	r2, #1
 1435 0676 0320     		movs	r0, #3
 1436 0678 FFF7FEFF 		bl	sixtop_request
 1437 067c 08E0     		b	.L100
 1438              	.L110:
 360:build/openmote-cc2538_armgcc/openstack/02b-MAChigh/msf.c ****     }
 1439              		.loc 1 360 0
 1440 067e 00BF     		nop
 1441 0680 06E0     		b	.L100
 1442              	.L111:
 365:build/openmote-cc2538_armgcc/openstack/02b-MAChigh/msf.c ****     }
 1443              		.loc 1 365 0
 1444 0682 00BF     		nop
 1445 0684 04E0     		b	.L100
 1446              	.L112:
 373:build/openmote-cc2538_armgcc/openstack/02b-MAChigh/msf.c ****     }
 1447              		.loc 1 373 0
 1448 0686 00BF     		nop
 1449 0688 02E0     		b	.L100
 1450              	.L113:
 377:build/openmote-cc2538_armgcc/openstack/02b-MAChigh/msf.c ****     }
 1451              		.loc 1 377 0
 1452 068a 00BF     		nop
 1453 068c 00E0     		b	.L100
 1454              	.L114:
 384:build/openmote-cc2538_armgcc/openstack/02b-MAChigh/msf.c ****         }
 1455              		.loc 1 384 0
 1456 068e 00BF     		nop
 1457              	.L100:
 387:build/openmote-cc2538_armgcc/openstack/02b-MAChigh/msf.c ****             IANA_6TOP_CMD_RELOCATE,   // code
 388:build/openmote-cc2538_armgcc/openstack/02b-MAChigh/msf.c ****             &parentNeighbor,          // neighbor
 389:build/openmote-cc2538_armgcc/openstack/02b-MAChigh/msf.c ****             NUMCELLS_MSF,             // number cells
 390:build/openmote-cc2538_armgcc/openstack/02b-MAChigh/msf.c ****             CELLOPTIONS_MSF,          // cellOptions
 391:build/openmote-cc2538_armgcc/openstack/02b-MAChigh/msf.c ****             celllist_add,             // celllist to add
 392:build/openmote-cc2538_armgcc/openstack/02b-MAChigh/msf.c ****             celllist_delete,          // celllist to delete
 393:build/openmote-cc2538_armgcc/openstack/02b-MAChigh/msf.c ****             IANA_6TISCH_SFID_MSF,     // sfid
 394:build/openmote-cc2538_armgcc/openstack/02b-MAChigh/msf.c ****             0,                        // list command offset (not used)
 395:build/openmote-cc2538_armgcc/openstack/02b-MAChigh/msf.c ****             0                         // list command maximum celllist (not used)
 396:build/openmote-cc2538_armgcc/openstack/02b-MAChigh/msf.c ****         );
 397:build/openmote-cc2538_armgcc/openstack/02b-MAChigh/msf.c ****     }
 398:build/openmote-cc2538_armgcc/openstack/02b-MAChigh/msf.c **** }
 1458              		.loc 1 398 0
 1459 0690 5037     		adds	r7, r7, #80
 1460              		.cfi_def_cfa_offset 8
 1461 0692 BD46     		mov	sp, r7
 1462              		.cfi_def_cfa_register 13
 1463              		@ sp needed
 1464 0694 80BD     		pop	{r7, pc}
 1465              	.L116:
 1466 0696 00BF     		.align	2
 1467              	.L115:
 1468 0698 00000000 		.word	msf_vars
 1469              		.cfi_endproc
 1470              	.LFE17:
 1472              	.Letext0:
 1473              		.file 2 "/usr/include/newlib/machine/_default_types.h"
 1474              		.file 3 "/usr/include/newlib/sys/_stdint.h"
 1475              		.file 4 "inc/opendefs.h"
 1476              		.file 5 "drivers/common/opentimers.h"
 1477              		.file 6 "build/openmote-cc2538_armgcc/openstack/02b-MAChigh/msf.h"
 1478              		.file 7 "build/openmote-cc2538_armgcc/openstack/02b-MAChigh/sixtop.h"
 1479              		.file 8 "kernel/scheduler.h"
 1480              		.file 9 "build/openmote-cc2538_armgcc/openstack/02b-MAChigh/schedule.h"
 1481              		.file 10 "bsp/boards/openmote-cc2538/board_info.h"
 1482              		.file 11 "openstack/03b-IPv6/icmpv6rpl.h"
 1483              		.file 12 "openstack/cross-layers/idmanager.h"
 1484              		.file 13 "openstack/02a-MAClow/IEEE802154E.h"