   1              		.syntax unified
   2              		.cpu cortex-m3
   3              		.fpu softvfp
   4              		.eabi_attribute 20, 1
   5              		.eabi_attribute 21, 1
   6              		.eabi_attribute 23, 3
   7              		.eabi_attribute 24, 1
   8              		.eabi_attribute 25, 1
   9              		.eabi_attribute 26, 1
  10              		.eabi_attribute 30, 6
  11              		.eabi_attribute 34, 1
  12              		.eabi_attribute 18, 4
  13              		.thumb
  14              		.syntax unified
  15              		.file	"sixtop.c"
  16              		.text
  17              	.Ltext0:
  18              		.cfi_sections	.debug_frame
  19              		.section	.rodata
  20              		.align	2
  23              	rreg_uriquery:
  24 0000 683D7563 		.ascii	"h=ucb\000"
  24      6200
  25 0006 0000     		.align	2
  28              	infoBoardname:
  29 0008 43433235 		.ascii	"CC2538\000"
  29      333800
  30 000f 00       		.align	2
  33              	infouCName:
  34 0010 43433235 		.ascii	"CC2538\000"
  34      333800
  35 0017 00       		.align	2
  38              	infoRadioName:
  39 0018 43433235 		.ascii	"CC2538 SoC\000"
  39      33382053 
  39      6F4300
  40 0023 00       		.align	2
  43              	infoStackName:
  44 0024 4F70656E 		.ascii	"OpenWSN \000"
  44      57534E20 
  44      00
  45 002d 000000   		.align	2
  48              	all_routers_multicast:
  49 0030 FF       		.byte	-1
  50 0031 02       		.byte	2
  51 0032 00       		.byte	0
  52 0033 00       		.byte	0
  53 0034 00       		.byte	0
  54 0035 00       		.byte	0
  55 0036 00       		.byte	0
  56 0037 00       		.byte	0
  57 0038 00       		.byte	0
  58 0039 00       		.byte	0
  59 003a 00       		.byte	0
  60 003b 00       		.byte	0
  61 003c 00       		.byte	0
  62 003d 00       		.byte	0
  63 003e 00       		.byte	0
  64 003f 1A       		.byte	26
  65              		.align	2
  68              	chTemplate_default:
  69 0040 05       		.byte	5
  70 0041 06       		.byte	6
  71 0042 0C       		.byte	12
  72 0043 07       		.byte	7
  73 0044 0F       		.byte	15
  74 0045 04       		.byte	4
  75 0046 0E       		.byte	14
  76 0047 0B       		.byte	11
  77 0048 08       		.byte	8
  78 0049 00       		.byte	0
  79 004a 01       		.byte	1
  80 004b 02       		.byte	2
  81 004c 0D       		.byte	13
  82 004d 03       		.byte	3
  83 004e 09       		.byte	9
  84 004f 0A       		.byte	10
  85              		.align	2
  88              	ebIEsBytestream:
  89 0050 1A       		.byte	26
  90 0051 88       		.byte	-120
  91 0052 06       		.byte	6
  92 0053 1A       		.byte	26
  93 0054 00       		.byte	0
  94 0055 00       		.byte	0
  95 0056 00       		.byte	0
  96 0057 00       		.byte	0
  97 0058 00       		.byte	0
  98 0059 00       		.byte	0
  99 005a 01       		.byte	1
 100 005b 1C       		.byte	28
 101 005c 00       		.byte	0
 102 005d 01       		.byte	1
 103 005e C8       		.byte	-56
 104 005f 00       		.byte	0
 105 0060 0A       		.byte	10
 106 0061 1B       		.byte	27
 107 0062 01       		.byte	1
 108 0063 00       		.byte	0
 109 0064 17       		.byte	23
 110 0065 00       		.byte	0
 111 0066 01       		.byte	1
 112 0067 00       		.byte	0
 113 0068 00       		.byte	0
 114 0069 00       		.byte	0
 115 006a 00       		.byte	0
 116 006b 0F       		.byte	15
 117              		.align	2
 120              	linklocalprefix:
 121 006c FE       		.byte	-2
 122 006d 80       		.byte	-128
 123 006e 00       		.byte	0
 124 006f 00       		.byte	0
 125 0070 00       		.byte	0
 126 0071 00       		.byte	0
 127 0072 00       		.byte	0
 128 0073 00       		.byte	0
 129              		.align	2
 132              	ipAddr_ipsoRD:
 133 0074 26       		.byte	38
 134 0075 07       		.byte	7
 135 0076 F7       		.byte	-9
 136 0077 40       		.byte	64
 137 0078 00       		.byte	0
 138 0079 00       		.byte	0
 139 007a 00       		.byte	0
 140 007b 3F       		.byte	63
 141 007c 00       		.byte	0
 142 007d 00       		.byte	0
 143 007e 00       		.byte	0
 144 007f 00       		.byte	0
 145 0080 00       		.byte	0
 146 0081 00       		.byte	0
 147 0082 0E       		.byte	14
 148 0083 29       		.byte	41
 149              		.align	2
 152              	ipAddr_motesEecs:
 153 0084 20       		.byte	32
 154 0085 01       		.byte	1
 155 0086 04       		.byte	4
 156 0087 70       		.byte	112
 157 0088 00       		.byte	0
 158 0089 66       		.byte	102
 159 008a 00       		.byte	0
 160 008b 19       		.byte	25
 161 008c 00       		.byte	0
 162 008d 00       		.byte	0
 163 008e 00       		.byte	0
 164 008f 00       		.byte	0
 165 0090 00       		.byte	0
 166 0091 00       		.byte	0
 167 0092 00       		.byte	0
 168 0093 02       		.byte	2
 169              		.align	2
 172              	ipAddr_local:
 173 0094 26       		.byte	38
 174 0095 07       		.byte	7
 175 0096 F1       		.byte	-15
 176 0097 40       		.byte	64
 177 0098 04       		.byte	4
 178 0099 00       		.byte	0
 179 009a 10       		.byte	16
 180 009b 36       		.byte	54
 181 009c 4D       		.byte	77
 182 009d CD       		.byte	-51
 183 009e AB       		.byte	-85
 184 009f 54       		.byte	84
 185 00a0 81       		.byte	-127
 186 00a1 99       		.byte	-103
 187 00a2 C1       		.byte	-63
 188 00a3 F7       		.byte	-9
 189              		.align	2
 192              	ipAddr_motedata:
 193 00a4 20       		.byte	32
 194 00a5 01       		.byte	1
 195 00a6 04       		.byte	4
 196 00a7 70       		.byte	112
 197 00a8 00       		.byte	0
 198 00a9 66       		.byte	102
 199 00aa 00       		.byte	0
 200 00ab 17       		.byte	23
 201 00ac 00       		.byte	0
 202 00ad 00       		.byte	0
 203 00ae 00       		.byte	0
 204 00af 00       		.byte	0
 205 00b0 00       		.byte	0
 206 00b1 00       		.byte	0
 207 00b2 00       		.byte	0
 208 00b3 02       		.byte	2
 209              		.align	2
 212              	ipAddr_ringmaster:
 213 00b4 BB       		.byte	-69
 214 00b5 BB       		.byte	-69
 215 00b6 00       		.byte	0
 216 00b7 00       		.byte	0
 217 00b8 00       		.byte	0
 218 00b9 00       		.byte	0
 219 00ba 00       		.byte	0
 220 00bb 00       		.byte	0
 221 00bc 00       		.byte	0
 222 00bd 00       		.byte	0
 223 00be 00       		.byte	0
 224 00bf 00       		.byte	0
 225 00c0 00       		.byte	0
 226 00c1 00       		.byte	0
 227 00c2 00       		.byte	0
 228 00c3 01       		.byte	1
 229              		.comm	sixtop_vars,80,4
 230              		.text
 231              		.align	2
 232              		.global	sixtop_init
 233              		.thumb
 234              		.thumb_func
 236              	sixtop_init:
 237              	.LFB0:
 238              		.file 1 "build/openmote-cc2538_armgcc/openstack/02b-MAChigh/sixtop.c"
   1:build/openmote-cc2538_armgcc/openstack/02b-MAChigh/sixtop.c **** #include "opendefs.h"
   2:build/openmote-cc2538_armgcc/openstack/02b-MAChigh/sixtop.c **** #include "sixtop.h"
   3:build/openmote-cc2538_armgcc/openstack/02b-MAChigh/sixtop.c **** #include "openserial.h"
   4:build/openmote-cc2538_armgcc/openstack/02b-MAChigh/sixtop.c **** #include "openqueue.h"
   5:build/openmote-cc2538_armgcc/openstack/02b-MAChigh/sixtop.c **** #include "neighbors.h"
   6:build/openmote-cc2538_armgcc/openstack/02b-MAChigh/sixtop.c **** #include "IEEE802154E.h"
   7:build/openmote-cc2538_armgcc/openstack/02b-MAChigh/sixtop.c **** #include "iphc.h"
   8:build/openmote-cc2538_armgcc/openstack/02b-MAChigh/sixtop.c **** #include "packetfunctions.h"
   9:build/openmote-cc2538_armgcc/openstack/02b-MAChigh/sixtop.c **** #include "openrandom.h"
  10:build/openmote-cc2538_armgcc/openstack/02b-MAChigh/sixtop.c **** #include "scheduler.h"
  11:build/openmote-cc2538_armgcc/openstack/02b-MAChigh/sixtop.c **** #include "opentimers.h"
  12:build/openmote-cc2538_armgcc/openstack/02b-MAChigh/sixtop.c **** #include "debugpins.h"
  13:build/openmote-cc2538_armgcc/openstack/02b-MAChigh/sixtop.c **** #include "leds.h"
  14:build/openmote-cc2538_armgcc/openstack/02b-MAChigh/sixtop.c **** #include "IEEE802154.h"
  15:build/openmote-cc2538_armgcc/openstack/02b-MAChigh/sixtop.c **** #include "IEEE802154_security.h"
  16:build/openmote-cc2538_armgcc/openstack/02b-MAChigh/sixtop.c **** #include "idmanager.h"
  17:build/openmote-cc2538_armgcc/openstack/02b-MAChigh/sixtop.c **** #include "schedule.h"
  18:build/openmote-cc2538_armgcc/openstack/02b-MAChigh/sixtop.c **** #include "whisper.h"
  19:build/openmote-cc2538_armgcc/openstack/02b-MAChigh/sixtop.c **** 
  20:build/openmote-cc2538_armgcc/openstack/02b-MAChigh/sixtop.c **** //=========================== define ==========================================
  21:build/openmote-cc2538_armgcc/openstack/02b-MAChigh/sixtop.c **** 
  22:build/openmote-cc2538_armgcc/openstack/02b-MAChigh/sixtop.c **** // in seconds: sixtop maintaince is called every 30 seconds
  23:build/openmote-cc2538_armgcc/openstack/02b-MAChigh/sixtop.c **** #define MAINTENANCE_PERIOD        30
  24:build/openmote-cc2538_armgcc/openstack/02b-MAChigh/sixtop.c **** 
  25:build/openmote-cc2538_armgcc/openstack/02b-MAChigh/sixtop.c **** //=========================== variables =======================================
  26:build/openmote-cc2538_armgcc/openstack/02b-MAChigh/sixtop.c **** 
  27:build/openmote-cc2538_armgcc/openstack/02b-MAChigh/sixtop.c **** sixtop_vars_t sixtop_vars;
  28:build/openmote-cc2538_armgcc/openstack/02b-MAChigh/sixtop.c **** 
  29:build/openmote-cc2538_armgcc/openstack/02b-MAChigh/sixtop.c **** //=========================== prototypes ======================================
  30:build/openmote-cc2538_armgcc/openstack/02b-MAChigh/sixtop.c **** 
  31:build/openmote-cc2538_armgcc/openstack/02b-MAChigh/sixtop.c **** // send internal
  32:build/openmote-cc2538_armgcc/openstack/02b-MAChigh/sixtop.c **** owerror_t     sixtop_send_internal(
  33:build/openmote-cc2538_armgcc/openstack/02b-MAChigh/sixtop.c ****    OpenQueueEntry_t*    msg,
  34:build/openmote-cc2538_armgcc/openstack/02b-MAChigh/sixtop.c ****    bool                 payloadIEPresent
  35:build/openmote-cc2538_armgcc/openstack/02b-MAChigh/sixtop.c **** );
  36:build/openmote-cc2538_armgcc/openstack/02b-MAChigh/sixtop.c **** 
  37:build/openmote-cc2538_armgcc/openstack/02b-MAChigh/sixtop.c **** // timer interrupt callbacks
  38:build/openmote-cc2538_armgcc/openstack/02b-MAChigh/sixtop.c **** void          sixtop_maintenance_timer_cb(opentimers_id_t id);
  39:build/openmote-cc2538_armgcc/openstack/02b-MAChigh/sixtop.c **** void          sixtop_timeout_timer_cb(opentimers_id_t id);
  40:build/openmote-cc2538_armgcc/openstack/02b-MAChigh/sixtop.c **** void          sixtop_sendingEb_timer_cb(opentimers_id_t id);
  41:build/openmote-cc2538_armgcc/openstack/02b-MAChigh/sixtop.c **** 
  42:build/openmote-cc2538_armgcc/openstack/02b-MAChigh/sixtop.c **** //=== EB/KA task
  43:build/openmote-cc2538_armgcc/openstack/02b-MAChigh/sixtop.c **** 
  44:build/openmote-cc2538_armgcc/openstack/02b-MAChigh/sixtop.c **** void          timer_sixtop_sendEb_fired(void);
  45:build/openmote-cc2538_armgcc/openstack/02b-MAChigh/sixtop.c **** void          timer_sixtop_management_fired(void);
  46:build/openmote-cc2538_armgcc/openstack/02b-MAChigh/sixtop.c **** void          sixtop_sendEB(void);
  47:build/openmote-cc2538_armgcc/openstack/02b-MAChigh/sixtop.c **** void          sixtop_sendKA(void);
  48:build/openmote-cc2538_armgcc/openstack/02b-MAChigh/sixtop.c **** 
  49:build/openmote-cc2538_armgcc/openstack/02b-MAChigh/sixtop.c **** //=== six2six task
  50:build/openmote-cc2538_armgcc/openstack/02b-MAChigh/sixtop.c **** 
  51:build/openmote-cc2538_armgcc/openstack/02b-MAChigh/sixtop.c **** void          timer_sixtop_six2six_timeout_fired(void);
  52:build/openmote-cc2538_armgcc/openstack/02b-MAChigh/sixtop.c **** void          sixtop_six2six_sendDone(
  53:build/openmote-cc2538_armgcc/openstack/02b-MAChigh/sixtop.c ****    OpenQueueEntry_t*    msg,
  54:build/openmote-cc2538_armgcc/openstack/02b-MAChigh/sixtop.c ****    owerror_t            error
  55:build/openmote-cc2538_armgcc/openstack/02b-MAChigh/sixtop.c **** );
  56:build/openmote-cc2538_armgcc/openstack/02b-MAChigh/sixtop.c **** bool          sixtop_processIEs(
  57:build/openmote-cc2538_armgcc/openstack/02b-MAChigh/sixtop.c ****    OpenQueueEntry_t*    pkt,
  58:build/openmote-cc2538_armgcc/openstack/02b-MAChigh/sixtop.c ****    uint16_t*            lenIE
  59:build/openmote-cc2538_armgcc/openstack/02b-MAChigh/sixtop.c **** );
  60:build/openmote-cc2538_armgcc/openstack/02b-MAChigh/sixtop.c **** void sixtop_six2six_notifyReceive(
  61:build/openmote-cc2538_armgcc/openstack/02b-MAChigh/sixtop.c ****    uint8_t              version, 
  62:build/openmote-cc2538_armgcc/openstack/02b-MAChigh/sixtop.c ****    uint8_t              type,
  63:build/openmote-cc2538_armgcc/openstack/02b-MAChigh/sixtop.c ****    uint8_t              code, 
  64:build/openmote-cc2538_armgcc/openstack/02b-MAChigh/sixtop.c ****    uint8_t              sfId,
  65:build/openmote-cc2538_armgcc/openstack/02b-MAChigh/sixtop.c ****    uint8_t              seqNum,
  66:build/openmote-cc2538_armgcc/openstack/02b-MAChigh/sixtop.c ****    uint8_t              ptr,
  67:build/openmote-cc2538_armgcc/openstack/02b-MAChigh/sixtop.c ****    uint8_t              length,
  68:build/openmote-cc2538_armgcc/openstack/02b-MAChigh/sixtop.c ****    OpenQueueEntry_t*    pkt
  69:build/openmote-cc2538_armgcc/openstack/02b-MAChigh/sixtop.c **** );
  70:build/openmote-cc2538_armgcc/openstack/02b-MAChigh/sixtop.c **** 
  71:build/openmote-cc2538_armgcc/openstack/02b-MAChigh/sixtop.c **** //=== helper functions
  72:build/openmote-cc2538_armgcc/openstack/02b-MAChigh/sixtop.c **** 
  73:build/openmote-cc2538_armgcc/openstack/02b-MAChigh/sixtop.c **** bool          sixtop_addCells(
  74:build/openmote-cc2538_armgcc/openstack/02b-MAChigh/sixtop.c ****    uint8_t              slotframeID,
  75:build/openmote-cc2538_armgcc/openstack/02b-MAChigh/sixtop.c ****    cellInfo_ht*         cellList,
  76:build/openmote-cc2538_armgcc/openstack/02b-MAChigh/sixtop.c ****    open_addr_t*         previousHop,
  77:build/openmote-cc2538_armgcc/openstack/02b-MAChigh/sixtop.c ****    uint8_t              cellOptions
  78:build/openmote-cc2538_armgcc/openstack/02b-MAChigh/sixtop.c **** );
  79:build/openmote-cc2538_armgcc/openstack/02b-MAChigh/sixtop.c **** bool          sixtop_removeCells(
  80:build/openmote-cc2538_armgcc/openstack/02b-MAChigh/sixtop.c ****    uint8_t              slotframeID,
  81:build/openmote-cc2538_armgcc/openstack/02b-MAChigh/sixtop.c ****    cellInfo_ht*         cellList,
  82:build/openmote-cc2538_armgcc/openstack/02b-MAChigh/sixtop.c ****    open_addr_t*         previousHop,
  83:build/openmote-cc2538_armgcc/openstack/02b-MAChigh/sixtop.c ****    uint8_t              cellOptions
  84:build/openmote-cc2538_armgcc/openstack/02b-MAChigh/sixtop.c **** );
  85:build/openmote-cc2538_armgcc/openstack/02b-MAChigh/sixtop.c **** bool          sixtop_areAvailableCellsToBeScheduled(
  86:build/openmote-cc2538_armgcc/openstack/02b-MAChigh/sixtop.c ****     uint8_t              frameID, 
  87:build/openmote-cc2538_armgcc/openstack/02b-MAChigh/sixtop.c ****     uint8_t              numOfCells, 
  88:build/openmote-cc2538_armgcc/openstack/02b-MAChigh/sixtop.c ****     cellInfo_ht*         cellList
  89:build/openmote-cc2538_armgcc/openstack/02b-MAChigh/sixtop.c **** );
  90:build/openmote-cc2538_armgcc/openstack/02b-MAChigh/sixtop.c **** bool sixtop_areAvailableCellsToBeRemoved(      
  91:build/openmote-cc2538_armgcc/openstack/02b-MAChigh/sixtop.c ****     uint8_t      frameID, 
  92:build/openmote-cc2538_armgcc/openstack/02b-MAChigh/sixtop.c ****     uint8_t      numOfCells, 
  93:build/openmote-cc2538_armgcc/openstack/02b-MAChigh/sixtop.c ****     cellInfo_ht* cellList,
  94:build/openmote-cc2538_armgcc/openstack/02b-MAChigh/sixtop.c ****     open_addr_t* neighbor,
  95:build/openmote-cc2538_armgcc/openstack/02b-MAChigh/sixtop.c ****     uint8_t      cellOptions
  96:build/openmote-cc2538_armgcc/openstack/02b-MAChigh/sixtop.c **** );
  97:build/openmote-cc2538_armgcc/openstack/02b-MAChigh/sixtop.c **** 
  98:build/openmote-cc2538_armgcc/openstack/02b-MAChigh/sixtop.c **** //=========================== public ==========================================
  99:build/openmote-cc2538_armgcc/openstack/02b-MAChigh/sixtop.c **** 
 100:build/openmote-cc2538_armgcc/openstack/02b-MAChigh/sixtop.c **** void sixtop_init() {
 239              		.loc 1 100 0
 240              		.cfi_startproc
 241              		@ args = 0, pretend = 0, frame = 0
 242              		@ frame_needed = 1, uses_anonymous_args = 0
 243 0000 80B5     		push	{r7, lr}
 244              		.cfi_def_cfa_offset 8
 245              		.cfi_offset 7, -8
 246              		.cfi_offset 14, -4
 247 0002 82B0     		sub	sp, sp, #8
 248              		.cfi_def_cfa_offset 16
 249 0004 02AF     		add	r7, sp, #8
 250              		.cfi_def_cfa 7, 8
 101:build/openmote-cc2538_armgcc/openstack/02b-MAChigh/sixtop.c ****     
 102:build/openmote-cc2538_armgcc/openstack/02b-MAChigh/sixtop.c ****     sixtop_vars.periodMaintenance  = 872 +(openrandom_get16b()&0xff);
 251              		.loc 1 102 0
 252 0006 FFF7FEFF 		bl	openrandom_get16b
 253 000a 0346     		mov	r3, r0
 254 000c DBB2     		uxtb	r3, r3
 255 000e 9BB2     		uxth	r3, r3
 256 0010 03F55A73 		add	r3, r3, #872
 257 0014 9AB2     		uxth	r2, r3
 258 0016 274B     		ldr	r3, .L2
 259 0018 1A80     		strh	r2, [r3]	@ movhi
 103:build/openmote-cc2538_armgcc/openstack/02b-MAChigh/sixtop.c ****     sixtop_vars.busySendingKA      = FALSE;
 260              		.loc 1 103 0
 261 001a 264B     		ldr	r3, .L2
 262 001c 0022     		movs	r2, #0
 263 001e 9A70     		strb	r2, [r3, #2]
 104:build/openmote-cc2538_armgcc/openstack/02b-MAChigh/sixtop.c ****     sixtop_vars.busySendingEB      = FALSE;
 264              		.loc 1 104 0
 265 0020 244B     		ldr	r3, .L2
 266 0022 0022     		movs	r2, #0
 267 0024 DA70     		strb	r2, [r3, #3]
 105:build/openmote-cc2538_armgcc/openstack/02b-MAChigh/sixtop.c ****     sixtop_vars.dsn                = 0;
 268              		.loc 1 105 0
 269 0026 234B     		ldr	r3, .L2
 270 0028 0022     		movs	r2, #0
 271 002a 1A71     		strb	r2, [r3, #4]
 106:build/openmote-cc2538_armgcc/openstack/02b-MAChigh/sixtop.c ****     sixtop_vars.mgtTaskCounter     = 0;
 272              		.loc 1 106 0
 273 002c 214B     		ldr	r3, .L2
 274 002e 0022     		movs	r2, #0
 275 0030 5A71     		strb	r2, [r3, #5]
 107:build/openmote-cc2538_armgcc/openstack/02b-MAChigh/sixtop.c ****     sixtop_vars.kaPeriod           = MAXKAPERIOD;
 276              		.loc 1 107 0
 277 0032 204B     		ldr	r3, .L2
 278 0034 4FF47A72 		mov	r2, #1000
 279 0038 5A81     		strh	r2, [r3, #10]	@ movhi
 108:build/openmote-cc2538_armgcc/openstack/02b-MAChigh/sixtop.c ****     sixtop_vars.ebPeriod           = EB_PORTION*(neighbors_getNumNeighbors()+1);
 280              		.loc 1 108 0
 281 003a FFF7FEFF 		bl	neighbors_getNumNeighbors
 282 003e 0346     		mov	r3, r0
 283 0040 0133     		adds	r3, r3, #1
 284 0042 9BB2     		uxth	r3, r3
 285 0044 1A46     		mov	r2, r3	@ movhi
 286 0046 5200     		lsls	r2, r2, #1
 287 0048 1344     		add	r3, r3, r2
 288 004a 5B00     		lsls	r3, r3, #1
 289 004c 9AB2     		uxth	r2, r3
 290 004e 194B     		ldr	r3, .L2
 291 0050 9A81     		strh	r2, [r3, #12]	@ movhi
 109:build/openmote-cc2538_armgcc/openstack/02b-MAChigh/sixtop.c ****     sixtop_vars.isResponseEnabled  = TRUE;
 292              		.loc 1 109 0
 293 0052 184B     		ldr	r3, .L2
 294 0054 0122     		movs	r2, #1
 295 0056 1A74     		strb	r2, [r3, #16]
 110:build/openmote-cc2538_armgcc/openstack/02b-MAChigh/sixtop.c ****     sixtop_vars.six2six_state      = SIX_STATE_IDLE;
 296              		.loc 1 110 0
 297 0058 164B     		ldr	r3, .L2
 298 005a 0022     		movs	r2, #0
 299 005c 9A73     		strb	r2, [r3, #14]
 111:build/openmote-cc2538_armgcc/openstack/02b-MAChigh/sixtop.c ****     
 112:build/openmote-cc2538_armgcc/openstack/02b-MAChigh/sixtop.c ****     sixtop_vars.ebSendingTimerId   = opentimers_create();
 300              		.loc 1 112 0
 301 005e FFF7FEFF 		bl	opentimers_create
 302 0062 0346     		mov	r3, r0
 303 0064 1A46     		mov	r2, r3
 304 0066 134B     		ldr	r3, .L2
 305 0068 DA71     		strb	r2, [r3, #7]
 113:build/openmote-cc2538_armgcc/openstack/02b-MAChigh/sixtop.c ****     opentimers_scheduleIn(
 306              		.loc 1 113 0
 307 006a 124B     		ldr	r3, .L2
 308 006c D879     		ldrb	r0, [r3, #7]	@ zero_extendqisi2
 114:build/openmote-cc2538_armgcc/openstack/02b-MAChigh/sixtop.c ****         sixtop_vars.ebSendingTimerId,
 115:build/openmote-cc2538_armgcc/openstack/02b-MAChigh/sixtop.c ****         sixtop_vars.periodMaintenance,
 309              		.loc 1 115 0
 310 006e 114B     		ldr	r3, .L2
 311 0070 1B88     		ldrh	r3, [r3]
 113:build/openmote-cc2538_armgcc/openstack/02b-MAChigh/sixtop.c ****     opentimers_scheduleIn(
 312              		.loc 1 113 0
 313 0072 1946     		mov	r1, r3
 314 0074 104B     		ldr	r3, .L2+4
 315 0076 0093     		str	r3, [sp]
 316 0078 0123     		movs	r3, #1
 317 007a 0022     		movs	r2, #0
 318 007c FFF7FEFF 		bl	opentimers_scheduleIn
 116:build/openmote-cc2538_armgcc/openstack/02b-MAChigh/sixtop.c ****         TIME_MS,
 117:build/openmote-cc2538_armgcc/openstack/02b-MAChigh/sixtop.c ****         TIMER_ONESHOT,
 118:build/openmote-cc2538_armgcc/openstack/02b-MAChigh/sixtop.c ****         sixtop_sendingEb_timer_cb
 119:build/openmote-cc2538_armgcc/openstack/02b-MAChigh/sixtop.c ****     );
 120:build/openmote-cc2538_armgcc/openstack/02b-MAChigh/sixtop.c ****     
 121:build/openmote-cc2538_armgcc/openstack/02b-MAChigh/sixtop.c ****     sixtop_vars.maintenanceTimerId   = opentimers_create();
 319              		.loc 1 121 0
 320 0080 FFF7FEFF 		bl	opentimers_create
 321 0084 0346     		mov	r3, r0
 322 0086 1A46     		mov	r2, r3
 323 0088 0A4B     		ldr	r3, .L2
 324 008a 1A72     		strb	r2, [r3, #8]
 122:build/openmote-cc2538_armgcc/openstack/02b-MAChigh/sixtop.c ****     opentimers_scheduleIn(
 325              		.loc 1 122 0
 326 008c 094B     		ldr	r3, .L2
 327 008e 187A     		ldrb	r0, [r3, #8]	@ zero_extendqisi2
 123:build/openmote-cc2538_armgcc/openstack/02b-MAChigh/sixtop.c ****         sixtop_vars.maintenanceTimerId,
 124:build/openmote-cc2538_armgcc/openstack/02b-MAChigh/sixtop.c ****         sixtop_vars.periodMaintenance,
 328              		.loc 1 124 0
 329 0090 084B     		ldr	r3, .L2
 330 0092 1B88     		ldrh	r3, [r3]
 122:build/openmote-cc2538_armgcc/openstack/02b-MAChigh/sixtop.c ****     opentimers_scheduleIn(
 331              		.loc 1 122 0
 332 0094 1946     		mov	r1, r3
 333 0096 094B     		ldr	r3, .L2+8
 334 0098 0093     		str	r3, [sp]
 335 009a 0023     		movs	r3, #0
 336 009c 0022     		movs	r2, #0
 337 009e FFF7FEFF 		bl	opentimers_scheduleIn
 125:build/openmote-cc2538_armgcc/openstack/02b-MAChigh/sixtop.c ****         TIME_MS,
 126:build/openmote-cc2538_armgcc/openstack/02b-MAChigh/sixtop.c ****         TIMER_PERIODIC,
 127:build/openmote-cc2538_armgcc/openstack/02b-MAChigh/sixtop.c ****         sixtop_maintenance_timer_cb
 128:build/openmote-cc2538_armgcc/openstack/02b-MAChigh/sixtop.c ****     );
 129:build/openmote-cc2538_armgcc/openstack/02b-MAChigh/sixtop.c ****     
 130:build/openmote-cc2538_armgcc/openstack/02b-MAChigh/sixtop.c ****     sixtop_vars.timeoutTimerId      =  opentimers_create();
 338              		.loc 1 130 0
 339 00a2 FFF7FEFF 		bl	opentimers_create
 340 00a6 0346     		mov	r3, r0
 341 00a8 1A46     		mov	r2, r3
 342 00aa 024B     		ldr	r3, .L2
 343 00ac 5A72     		strb	r2, [r3, #9]
 131:build/openmote-cc2538_armgcc/openstack/02b-MAChigh/sixtop.c **** }
 344              		.loc 1 131 0
 345 00ae 00BF     		nop
 346 00b0 BD46     		mov	sp, r7
 347              		.cfi_def_cfa_register 13
 348              		@ sp needed
 349 00b2 80BD     		pop	{r7, pc}
 350              	.L3:
 351              		.align	2
 352              	.L2:
 353 00b4 00000000 		.word	sixtop_vars
 354 00b8 00000000 		.word	sixtop_sendingEb_timer_cb
 355 00bc 00000000 		.word	sixtop_maintenance_timer_cb
 356              		.cfi_endproc
 357              	.LFE0:
 359              		.align	2
 360              		.global	sixtop_setKaPeriod
 361              		.thumb
 362              		.thumb_func
 364              	sixtop_setKaPeriod:
 365              	.LFB1:
 132:build/openmote-cc2538_armgcc/openstack/02b-MAChigh/sixtop.c **** 
 133:build/openmote-cc2538_armgcc/openstack/02b-MAChigh/sixtop.c **** void sixtop_setKaPeriod(uint16_t kaPeriod) {
 366              		.loc 1 133 0
 367              		.cfi_startproc
 368              		@ args = 0, pretend = 0, frame = 8
 369              		@ frame_needed = 1, uses_anonymous_args = 0
 370              		@ link register save eliminated.
 371 00c0 80B4     		push	{r7}
 372              		.cfi_def_cfa_offset 4
 373              		.cfi_offset 7, -4
 374 00c2 83B0     		sub	sp, sp, #12
 375              		.cfi_def_cfa_offset 16
 376 00c4 00AF     		add	r7, sp, #0
 377              		.cfi_def_cfa_register 7
 378 00c6 0346     		mov	r3, r0
 379 00c8 FB80     		strh	r3, [r7, #6]	@ movhi
 134:build/openmote-cc2538_armgcc/openstack/02b-MAChigh/sixtop.c ****     if(kaPeriod > MAXKAPERIOD) {
 380              		.loc 1 134 0
 381 00ca FB88     		ldrh	r3, [r7, #6]
 382 00cc B3F57A7F 		cmp	r3, #1000
 383 00d0 04D9     		bls	.L5
 135:build/openmote-cc2538_armgcc/openstack/02b-MAChigh/sixtop.c ****         sixtop_vars.kaPeriod = MAXKAPERIOD;
 384              		.loc 1 135 0
 385 00d2 064B     		ldr	r3, .L8
 386 00d4 4FF47A72 		mov	r2, #1000
 387 00d8 5A81     		strh	r2, [r3, #10]	@ movhi
 136:build/openmote-cc2538_armgcc/openstack/02b-MAChigh/sixtop.c ****     } else {
 137:build/openmote-cc2538_armgcc/openstack/02b-MAChigh/sixtop.c ****         sixtop_vars.kaPeriod = kaPeriod;
 138:build/openmote-cc2538_armgcc/openstack/02b-MAChigh/sixtop.c ****     } 
 139:build/openmote-cc2538_armgcc/openstack/02b-MAChigh/sixtop.c **** }
 388              		.loc 1 139 0
 389 00da 02E0     		b	.L7
 390              	.L5:
 137:build/openmote-cc2538_armgcc/openstack/02b-MAChigh/sixtop.c ****     } 
 391              		.loc 1 137 0
 392 00dc 034A     		ldr	r2, .L8
 393 00de FB88     		ldrh	r3, [r7, #6]	@ movhi
 394 00e0 5381     		strh	r3, [r2, #10]	@ movhi
 395              	.L7:
 396              		.loc 1 139 0
 397 00e2 00BF     		nop
 398 00e4 0C37     		adds	r7, r7, #12
 399              		.cfi_def_cfa_offset 4
 400 00e6 BD46     		mov	sp, r7
 401              		.cfi_def_cfa_register 13
 402              		@ sp needed
 403 00e8 80BC     		pop	{r7}
 404              		.cfi_restore 7
 405              		.cfi_def_cfa_offset 0
 406 00ea 7047     		bx	lr
 407              	.L9:
 408              		.align	2
 409              	.L8:
 410 00ec 00000000 		.word	sixtop_vars
 411              		.cfi_endproc
 412              	.LFE1:
 414              		.align	2
 415              		.global	sixtop_setEBPeriod
 416              		.thumb
 417              		.thumb_func
 419              	sixtop_setEBPeriod:
 420              	.LFB2:
 140:build/openmote-cc2538_armgcc/openstack/02b-MAChigh/sixtop.c **** 
 141:build/openmote-cc2538_armgcc/openstack/02b-MAChigh/sixtop.c **** void sixtop_setEBPeriod(uint8_t ebPeriod) {
 421              		.loc 1 141 0
 422              		.cfi_startproc
 423              		@ args = 0, pretend = 0, frame = 8
 424              		@ frame_needed = 1, uses_anonymous_args = 0
 425              		@ link register save eliminated.
 426 00f0 80B4     		push	{r7}
 427              		.cfi_def_cfa_offset 4
 428              		.cfi_offset 7, -4
 429 00f2 83B0     		sub	sp, sp, #12
 430              		.cfi_def_cfa_offset 16
 431 00f4 00AF     		add	r7, sp, #0
 432              		.cfi_def_cfa_register 7
 433 00f6 0346     		mov	r3, r0
 434 00f8 FB71     		strb	r3, [r7, #7]
 142:build/openmote-cc2538_armgcc/openstack/02b-MAChigh/sixtop.c ****     if(ebPeriod != 0) {
 435              		.loc 1 142 0
 436 00fa FB79     		ldrb	r3, [r7, #7]	@ zero_extendqisi2
 437 00fc 002B     		cmp	r3, #0
 438 00fe 03D0     		beq	.L12
 143:build/openmote-cc2538_armgcc/openstack/02b-MAChigh/sixtop.c ****         // convert parameter to miliseconds
 144:build/openmote-cc2538_armgcc/openstack/02b-MAChigh/sixtop.c ****         sixtop_vars.ebPeriod = ebPeriod;
 439              		.loc 1 144 0
 440 0100 FB79     		ldrb	r3, [r7, #7]	@ zero_extendqisi2
 441 0102 9AB2     		uxth	r2, r3
 442 0104 034B     		ldr	r3, .L13
 443 0106 9A81     		strh	r2, [r3, #12]	@ movhi
 444              	.L12:
 145:build/openmote-cc2538_armgcc/openstack/02b-MAChigh/sixtop.c ****     }
 146:build/openmote-cc2538_armgcc/openstack/02b-MAChigh/sixtop.c **** }
 445              		.loc 1 146 0
 446 0108 00BF     		nop
 447 010a 0C37     		adds	r7, r7, #12
 448              		.cfi_def_cfa_offset 4
 449 010c BD46     		mov	sp, r7
 450              		.cfi_def_cfa_register 13
 451              		@ sp needed
 452 010e 80BC     		pop	{r7}
 453              		.cfi_restore 7
 454              		.cfi_def_cfa_offset 0
 455 0110 7047     		bx	lr
 456              	.L14:
 457 0112 00BF     		.align	2
 458              	.L13:
 459 0114 00000000 		.word	sixtop_vars
 460              		.cfi_endproc
 461              	.LFE2:
 463              		.align	2
 464              		.global	sixtop_setSFcallback
 465              		.thumb
 466              		.thumb_func
 468              	sixtop_setSFcallback:
 469              	.LFB3:
 147:build/openmote-cc2538_armgcc/openstack/02b-MAChigh/sixtop.c **** 
 148:build/openmote-cc2538_armgcc/openstack/02b-MAChigh/sixtop.c **** void  sixtop_setSFcallback(
 149:build/openmote-cc2538_armgcc/openstack/02b-MAChigh/sixtop.c ****     sixtop_sf_getsfid           cb0,
 150:build/openmote-cc2538_armgcc/openstack/02b-MAChigh/sixtop.c ****     sixtop_sf_getmetadata       cb1, 
 151:build/openmote-cc2538_armgcc/openstack/02b-MAChigh/sixtop.c ****     sixtop_sf_translatemetadata cb2, 
 152:build/openmote-cc2538_armgcc/openstack/02b-MAChigh/sixtop.c ****     sixtop_sf_handle_callback   cb3
 153:build/openmote-cc2538_armgcc/openstack/02b-MAChigh/sixtop.c **** ){
 470              		.loc 1 153 0
 471              		.cfi_startproc
 472              		@ args = 0, pretend = 0, frame = 16
 473              		@ frame_needed = 1, uses_anonymous_args = 0
 474              		@ link register save eliminated.
 475 0118 80B4     		push	{r7}
 476              		.cfi_def_cfa_offset 4
 477              		.cfi_offset 7, -4
 478 011a 85B0     		sub	sp, sp, #20
 479              		.cfi_def_cfa_offset 24
 480 011c 00AF     		add	r7, sp, #0
 481              		.cfi_def_cfa_register 7
 482 011e F860     		str	r0, [r7, #12]
 483 0120 B960     		str	r1, [r7, #8]
 484 0122 7A60     		str	r2, [r7, #4]
 485 0124 3B60     		str	r3, [r7]
 154:build/openmote-cc2538_armgcc/openstack/02b-MAChigh/sixtop.c ****    sixtop_vars.cb_sf_getsfid            = cb0;
 486              		.loc 1 154 0
 487 0126 084A     		ldr	r2, .L16
 488 0128 FB68     		ldr	r3, [r7, #12]
 489 012a D362     		str	r3, [r2, #44]
 155:build/openmote-cc2538_armgcc/openstack/02b-MAChigh/sixtop.c ****    sixtop_vars.cb_sf_getMetadata        = cb1;
 490              		.loc 1 155 0
 491 012c 064A     		ldr	r2, .L16
 492 012e BB68     		ldr	r3, [r7, #8]
 493 0130 1363     		str	r3, [r2, #48]
 156:build/openmote-cc2538_armgcc/openstack/02b-MAChigh/sixtop.c ****    sixtop_vars.cb_sf_translateMetadata  = cb2;
 494              		.loc 1 156 0
 495 0132 054A     		ldr	r2, .L16
 496 0134 7B68     		ldr	r3, [r7, #4]
 497 0136 5363     		str	r3, [r2, #52]
 157:build/openmote-cc2538_armgcc/openstack/02b-MAChigh/sixtop.c ****    sixtop_vars.cb_sf_handleRCError      = cb3;
 498              		.loc 1 157 0
 499 0138 034A     		ldr	r2, .L16
 500 013a 3B68     		ldr	r3, [r7]
 501 013c 9363     		str	r3, [r2, #56]
 158:build/openmote-cc2538_armgcc/openstack/02b-MAChigh/sixtop.c **** }
 502              		.loc 1 158 0
 503 013e 00BF     		nop
 504 0140 1437     		adds	r7, r7, #20
 505              		.cfi_def_cfa_offset 4
 506 0142 BD46     		mov	sp, r7
 507              		.cfi_def_cfa_register 13
 508              		@ sp needed
 509 0144 80BC     		pop	{r7}
 510              		.cfi_restore 7
 511              		.cfi_def_cfa_offset 0
 512 0146 7047     		bx	lr
 513              	.L17:
 514              		.align	2
 515              	.L16:
 516 0148 00000000 		.word	sixtop_vars
 517              		.cfi_endproc
 518              	.LFE3:
 520              		.align	2
 521              		.global	sixtop_request
 522              		.thumb
 523              		.thumb_func
 525              	sixtop_request:
 526              	.LFB4:
 159:build/openmote-cc2538_armgcc/openstack/02b-MAChigh/sixtop.c **** 
 160:build/openmote-cc2538_armgcc/openstack/02b-MAChigh/sixtop.c **** //======= scheduling
 161:build/openmote-cc2538_armgcc/openstack/02b-MAChigh/sixtop.c **** 
 162:build/openmote-cc2538_armgcc/openstack/02b-MAChigh/sixtop.c **** owerror_t sixtop_request(
 163:build/openmote-cc2538_armgcc/openstack/02b-MAChigh/sixtop.c ****     uint8_t      code, 
 164:build/openmote-cc2538_armgcc/openstack/02b-MAChigh/sixtop.c ****     open_addr_t* neighbor, 
 165:build/openmote-cc2538_armgcc/openstack/02b-MAChigh/sixtop.c ****     uint8_t      numCells, 
 166:build/openmote-cc2538_armgcc/openstack/02b-MAChigh/sixtop.c ****     uint8_t      cellOptions, 
 167:build/openmote-cc2538_armgcc/openstack/02b-MAChigh/sixtop.c ****     cellInfo_ht* celllist_toBeAdded,
 168:build/openmote-cc2538_armgcc/openstack/02b-MAChigh/sixtop.c ****     cellInfo_ht* celllist_toBeDeleted,
 169:build/openmote-cc2538_armgcc/openstack/02b-MAChigh/sixtop.c ****     uint8_t      sfid,
 170:build/openmote-cc2538_armgcc/openstack/02b-MAChigh/sixtop.c ****     uint16_t     listingOffset,
 171:build/openmote-cc2538_armgcc/openstack/02b-MAChigh/sixtop.c ****     uint16_t     listingMaxNumCells
 172:build/openmote-cc2538_armgcc/openstack/02b-MAChigh/sixtop.c ****     ){
 527              		.loc 1 172 0
 528              		.cfi_startproc
 529              		@ args = 20, pretend = 0, frame = 24
 530              		@ frame_needed = 1, uses_anonymous_args = 0
 531 014c B0B5     		push	{r4, r5, r7, lr}
 532              		.cfi_def_cfa_offset 16
 533              		.cfi_offset 4, -16
 534              		.cfi_offset 5, -12
 535              		.cfi_offset 7, -8
 536              		.cfi_offset 14, -4
 537 014e 86B0     		sub	sp, sp, #24
 538              		.cfi_def_cfa_offset 40
 539 0150 00AF     		add	r7, sp, #0
 540              		.cfi_def_cfa_register 7
 541 0152 3960     		str	r1, [r7]
 542 0154 1146     		mov	r1, r2
 543 0156 1A46     		mov	r2, r3
 544 0158 0346     		mov	r3, r0
 545 015a FB71     		strb	r3, [r7, #7]
 546 015c 0B46     		mov	r3, r1
 547 015e BB71     		strb	r3, [r7, #6]
 548 0160 1346     		mov	r3, r2
 549 0162 7B71     		strb	r3, [r7, #5]
 173:build/openmote-cc2538_armgcc/openstack/02b-MAChigh/sixtop.c ****     OpenQueueEntry_t* pkt;
 174:build/openmote-cc2538_armgcc/openstack/02b-MAChigh/sixtop.c ****     uint8_t           i;
 175:build/openmote-cc2538_armgcc/openstack/02b-MAChigh/sixtop.c ****     uint8_t           len;
 176:build/openmote-cc2538_armgcc/openstack/02b-MAChigh/sixtop.c ****     uint16_t          length_groupid_type;
 177:build/openmote-cc2538_armgcc/openstack/02b-MAChigh/sixtop.c ****     uint8_t           sequenceNumber;
 178:build/openmote-cc2538_armgcc/openstack/02b-MAChigh/sixtop.c ****     owerror_t         outcome;
 179:build/openmote-cc2538_armgcc/openstack/02b-MAChigh/sixtop.c ****    
 180:build/openmote-cc2538_armgcc/openstack/02b-MAChigh/sixtop.c ****     //printf("I am node %d, sixtop_request!! \n",idmanager_getMyID(ADDR_64B)->addr_64b[7]);
 181:build/openmote-cc2538_armgcc/openstack/02b-MAChigh/sixtop.c **** 
 182:build/openmote-cc2538_armgcc/openstack/02b-MAChigh/sixtop.c ****     // filter parameters: handler, status and neighbor
 183:build/openmote-cc2538_armgcc/openstack/02b-MAChigh/sixtop.c ****     if(
 184:build/openmote-cc2538_armgcc/openstack/02b-MAChigh/sixtop.c ****         sixtop_vars.six2six_state != SIX_STATE_IDLE   ||
 550              		.loc 1 184 0
 551 0164 A24B     		ldr	r3, .L60
 552 0166 9B7B     		ldrb	r3, [r3, #14]	@ zero_extendqisi2
 183:build/openmote-cc2538_armgcc/openstack/02b-MAChigh/sixtop.c ****         sixtop_vars.six2six_state != SIX_STATE_IDLE   ||
 553              		.loc 1 183 0
 554 0168 002B     		cmp	r3, #0
 555 016a 02D1     		bne	.L19
 556              		.loc 1 184 0
 557 016c 3B68     		ldr	r3, [r7]
 558 016e 002B     		cmp	r3, #0
 559 0170 01D1     		bne	.L20
 560              	.L19:
 185:build/openmote-cc2538_armgcc/openstack/02b-MAChigh/sixtop.c ****         neighbor                  == NULL
 186:build/openmote-cc2538_armgcc/openstack/02b-MAChigh/sixtop.c ****     ){
 187:build/openmote-cc2538_armgcc/openstack/02b-MAChigh/sixtop.c ****     	//printf("I am node %d, I want some cells but I am busy \n",idmanager_getMyID(ADDR_64B)->addr_
 188:build/openmote-cc2538_armgcc/openstack/02b-MAChigh/sixtop.c ****         // neighbor can't be none or previous transcation doesn't finishe yet
 189:build/openmote-cc2538_armgcc/openstack/02b-MAChigh/sixtop.c ****         return E_FAIL;
 561              		.loc 1 189 0
 562 0172 0123     		movs	r3, #1
 563 0174 67E2     		b	.L21
 564              	.L20:
 190:build/openmote-cc2538_armgcc/openstack/02b-MAChigh/sixtop.c ****     }
 191:build/openmote-cc2538_armgcc/openstack/02b-MAChigh/sixtop.c **** 
 192:build/openmote-cc2538_armgcc/openstack/02b-MAChigh/sixtop.c ****     // get a free packet buffer
 193:build/openmote-cc2538_armgcc/openstack/02b-MAChigh/sixtop.c ****     pkt = openqueue_getFreePacketBuffer(COMPONENT_SIXTOP_RES);
 565              		.loc 1 193 0
 566 0176 0F20     		movs	r0, #15
 567 0178 FFF7FEFF 		bl	openqueue_getFreePacketBuffer
 568 017c 3861     		str	r0, [r7, #16]
 194:build/openmote-cc2538_armgcc/openstack/02b-MAChigh/sixtop.c ****     if (pkt==NULL) {
 569              		.loc 1 194 0
 570 017e 3B69     		ldr	r3, [r7, #16]
 571 0180 002B     		cmp	r3, #0
 572 0182 07D1     		bne	.L22
 195:build/openmote-cc2538_armgcc/openstack/02b-MAChigh/sixtop.c ****         openserial_printError(
 573              		.loc 1 195 0
 574 0184 0023     		movs	r3, #0
 575 0186 0022     		movs	r2, #0
 576 0188 2C21     		movs	r1, #44
 577 018a 0F20     		movs	r0, #15
 578 018c FFF7FEFF 		bl	openserial_printError
 196:build/openmote-cc2538_armgcc/openstack/02b-MAChigh/sixtop.c ****             COMPONENT_SIXTOP_RES,
 197:build/openmote-cc2538_armgcc/openstack/02b-MAChigh/sixtop.c ****             ERR_NO_FREE_PACKET_BUFFER,
 198:build/openmote-cc2538_armgcc/openstack/02b-MAChigh/sixtop.c ****             (errorparameter_t)0,
 199:build/openmote-cc2538_armgcc/openstack/02b-MAChigh/sixtop.c ****             (errorparameter_t)0
 200:build/openmote-cc2538_armgcc/openstack/02b-MAChigh/sixtop.c ****         );
 201:build/openmote-cc2538_armgcc/openstack/02b-MAChigh/sixtop.c ****         return E_FAIL;
 579              		.loc 1 201 0
 580 0190 0123     		movs	r3, #1
 581 0192 58E2     		b	.L21
 582              	.L22:
 202:build/openmote-cc2538_armgcc/openstack/02b-MAChigh/sixtop.c ****     }
 203:build/openmote-cc2538_armgcc/openstack/02b-MAChigh/sixtop.c **** 
 204:build/openmote-cc2538_armgcc/openstack/02b-MAChigh/sixtop.c ****     //printf("%d \n",code);
 205:build/openmote-cc2538_armgcc/openstack/02b-MAChigh/sixtop.c ****     //printf("I am node %d, I want send REQUEST type %d \n",idmanager_getMyID(ADDR_64B)->addr_64b[7
 206:build/openmote-cc2538_armgcc/openstack/02b-MAChigh/sixtop.c **** 
 207:build/openmote-cc2538_armgcc/openstack/02b-MAChigh/sixtop.c ****     // take ownership
 208:build/openmote-cc2538_armgcc/openstack/02b-MAChigh/sixtop.c ****     pkt->creator = COMPONENT_SIXTOP_RES;
 583              		.loc 1 208 0
 584 0194 3B69     		ldr	r3, [r7, #16]
 585 0196 0F22     		movs	r2, #15
 586 0198 1A70     		strb	r2, [r3]
 209:build/openmote-cc2538_armgcc/openstack/02b-MAChigh/sixtop.c ****     pkt->owner   = COMPONENT_SIXTOP_RES;
 587              		.loc 1 209 0
 588 019a 3B69     		ldr	r3, [r7, #16]
 589 019c 0F22     		movs	r2, #15
 590 019e 5A70     		strb	r2, [r3, #1]
 210:build/openmote-cc2538_armgcc/openstack/02b-MAChigh/sixtop.c ****    
 211:build/openmote-cc2538_armgcc/openstack/02b-MAChigh/sixtop.c ****     memcpy(&(pkt->l2_nextORpreviousHop),neighbor,sizeof(open_addr_t));
 591              		.loc 1 211 0
 592 01a0 3B69     		ldr	r3, [r7, #16]
 593 01a2 3C33     		adds	r3, r3, #60
 594 01a4 1122     		movs	r2, #17
 595 01a6 3968     		ldr	r1, [r7]
 596 01a8 1846     		mov	r0, r3
 597 01aa FFF7FEFF 		bl	memcpy
 212:build/openmote-cc2538_armgcc/openstack/02b-MAChigh/sixtop.c ****     if (celllist_toBeDeleted != NULL){
 598              		.loc 1 212 0
 599 01ae FB6A     		ldr	r3, [r7, #44]
 600 01b0 002B     		cmp	r3, #0
 601 01b2 10D0     		beq	.L23
 213:build/openmote-cc2538_armgcc/openstack/02b-MAChigh/sixtop.c ****         memcpy(sixtop_vars.celllist_toDelete,celllist_toBeDeleted,CELLLIST_MAX_LEN*sizeof(cellInfo_
 602              		.loc 1 213 0
 603 01b4 8E4B     		ldr	r3, .L60
 604 01b6 FA6A     		ldr	r2, [r7, #44]
 605 01b8 1233     		adds	r3, r3, #18
 606 01ba 1068     		ldr	r0, [r2]	@ unaligned
 607 01bc 5168     		ldr	r1, [r2, #4]	@ unaligned
 608 01be 9568     		ldr	r5, [r2, #8]	@ unaligned
 609 01c0 D468     		ldr	r4, [r2, #12]	@ unaligned
 610 01c2 1860     		str	r0, [r3]	@ unaligned
 611 01c4 5960     		str	r1, [r3, #4]	@ unaligned
 612 01c6 9D60     		str	r5, [r3, #8]	@ unaligned
 613 01c8 DC60     		str	r4, [r3, #12]	@ unaligned
 614 01ca 1069     		ldr	r0, [r2, #16]	@ unaligned
 615 01cc 5169     		ldr	r1, [r2, #20]	@ unaligned
 616 01ce 1861     		str	r0, [r3, #16]	@ unaligned
 617 01d0 5961     		str	r1, [r3, #20]	@ unaligned
 618 01d2 127E     		ldrb	r2, [r2, #24]
 619 01d4 1A76     		strb	r2, [r3, #24]
 620              	.L23:
 214:build/openmote-cc2538_armgcc/openstack/02b-MAChigh/sixtop.c ****     }
 215:build/openmote-cc2538_armgcc/openstack/02b-MAChigh/sixtop.c ****     sixtop_vars.cellOptions = cellOptions;
 621              		.loc 1 215 0
 622 01d6 864A     		ldr	r2, .L60
 623 01d8 7B79     		ldrb	r3, [r7, #5]
 624 01da 5374     		strb	r3, [r2, #17]
 216:build/openmote-cc2538_armgcc/openstack/02b-MAChigh/sixtop.c ****     
 217:build/openmote-cc2538_armgcc/openstack/02b-MAChigh/sixtop.c ****     len  = 0;
 625              		.loc 1 217 0
 626 01dc 0023     		movs	r3, #0
 627 01de BB75     		strb	r3, [r7, #22]
 218:build/openmote-cc2538_armgcc/openstack/02b-MAChigh/sixtop.c ****     if (
 628              		.loc 1 218 0
 629 01e0 FB79     		ldrb	r3, [r7, #7]	@ zero_extendqisi2
 630 01e2 012B     		cmp	r3, #1
 631 01e4 06D0     		beq	.L24
 219:build/openmote-cc2538_armgcc/openstack/02b-MAChigh/sixtop.c ****         code == IANA_6TOP_CMD_ADD      || 
 632              		.loc 1 219 0
 633 01e6 FB79     		ldrb	r3, [r7, #7]	@ zero_extendqisi2
 634 01e8 022B     		cmp	r3, #2
 635 01ea 03D0     		beq	.L24
 220:build/openmote-cc2538_armgcc/openstack/02b-MAChigh/sixtop.c ****         code == IANA_6TOP_CMD_DELETE   || 
 636              		.loc 1 220 0
 637 01ec FB79     		ldrb	r3, [r7, #7]	@ zero_extendqisi2
 638 01ee 032B     		cmp	r3, #3
 639 01f0 40F0BF80 		bne	.L25
 640              	.L24:
 221:build/openmote-cc2538_armgcc/openstack/02b-MAChigh/sixtop.c ****         code == IANA_6TOP_CMD_RELOCATE
 222:build/openmote-cc2538_armgcc/openstack/02b-MAChigh/sixtop.c ****     ){
 223:build/openmote-cc2538_armgcc/openstack/02b-MAChigh/sixtop.c ****         // append 6p celllists
 224:build/openmote-cc2538_armgcc/openstack/02b-MAChigh/sixtop.c ****         if (code == IANA_6TOP_CMD_ADD || code == IANA_6TOP_CMD_RELOCATE){
 641              		.loc 1 224 0
 642 01f4 FB79     		ldrb	r3, [r7, #7]	@ zero_extendqisi2
 643 01f6 012B     		cmp	r3, #1
 644 01f8 02D0     		beq	.L26
 645              		.loc 1 224 0 is_stmt 0 discriminator 1
 646 01fa FB79     		ldrb	r3, [r7, #7]	@ zero_extendqisi2
 647 01fc 032B     		cmp	r3, #3
 648 01fe 53D1     		bne	.L27
 649              	.L26:
 225:build/openmote-cc2538_armgcc/openstack/02b-MAChigh/sixtop.c ****             for(i=0;i<CELLLIST_MAX_LEN;i++) {
 650              		.loc 1 225 0 is_stmt 1
 651 0200 0023     		movs	r3, #0
 652 0202 FB75     		strb	r3, [r7, #23]
 653 0204 4DE0     		b	.L28
 654              	.L30:
 226:build/openmote-cc2538_armgcc/openstack/02b-MAChigh/sixtop.c ****                 if(celllist_toBeAdded[i].isUsed){
 655              		.loc 1 226 0
 656 0206 FA7D     		ldrb	r2, [r7, #23]	@ zero_extendqisi2
 657 0208 1346     		mov	r3, r2
 658 020a 9B00     		lsls	r3, r3, #2
 659 020c 1344     		add	r3, r3, r2
 660 020e BA6A     		ldr	r2, [r7, #40]
 661 0210 1344     		add	r3, r3, r2
 662 0212 1B78     		ldrb	r3, [r3]	@ zero_extendqisi2
 663 0214 002B     		cmp	r3, #0
 664 0216 41D0     		beq	.L29
 227:build/openmote-cc2538_armgcc/openstack/02b-MAChigh/sixtop.c ****                     packetfunctions_reserveHeaderSize(pkt,4); 
 665              		.loc 1 227 0
 666 0218 0421     		movs	r1, #4
 667 021a 3869     		ldr	r0, [r7, #16]
 668 021c FFF7FEFF 		bl	packetfunctions_reserveHeaderSize
 228:build/openmote-cc2538_armgcc/openstack/02b-MAChigh/sixtop.c ****                     pkt->payload[0] = (uint8_t)(celllist_toBeAdded[i].slotoffset         & 0x00FF);
 669              		.loc 1 228 0
 670 0220 3B69     		ldr	r3, [r7, #16]
 671 0222 5968     		ldr	r1, [r3, #4]
 672 0224 FA7D     		ldrb	r2, [r7, #23]	@ zero_extendqisi2
 673 0226 1346     		mov	r3, r2
 674 0228 9B00     		lsls	r3, r3, #2
 675 022a 1344     		add	r3, r3, r2
 676 022c BA6A     		ldr	r2, [r7, #40]
 677 022e 1344     		add	r3, r3, r2
 678 0230 B3F80130 		ldrh	r3, [r3, #1]	@ unaligned
 679 0234 9BB2     		uxth	r3, r3
 680 0236 DBB2     		uxtb	r3, r3
 681 0238 0B70     		strb	r3, [r1]
 229:build/openmote-cc2538_armgcc/openstack/02b-MAChigh/sixtop.c ****                     pkt->payload[1] = (uint8_t)((celllist_toBeAdded[i].slotoffset        & 0xFF00)>
 682              		.loc 1 229 0
 683 023a 3B69     		ldr	r3, [r7, #16]
 684 023c 5B68     		ldr	r3, [r3, #4]
 685 023e 591C     		adds	r1, r3, #1
 686 0240 FA7D     		ldrb	r2, [r7, #23]	@ zero_extendqisi2
 687 0242 1346     		mov	r3, r2
 688 0244 9B00     		lsls	r3, r3, #2
 689 0246 1344     		add	r3, r3, r2
 690 0248 BA6A     		ldr	r2, [r7, #40]
 691 024a 1344     		add	r3, r3, r2
 692 024c B3F80130 		ldrh	r3, [r3, #1]	@ unaligned
 693 0250 9BB2     		uxth	r3, r3
 694 0252 1B0A     		lsrs	r3, r3, #8
 695 0254 9BB2     		uxth	r3, r3
 696 0256 DBB2     		uxtb	r3, r3
 697 0258 0B70     		strb	r3, [r1]
 230:build/openmote-cc2538_armgcc/openstack/02b-MAChigh/sixtop.c ****                     pkt->payload[2] = (uint8_t)(celllist_toBeAdded[i].channeloffset      & 0x00FF);
 698              		.loc 1 230 0
 699 025a 3B69     		ldr	r3, [r7, #16]
 700 025c 5B68     		ldr	r3, [r3, #4]
 701 025e 991C     		adds	r1, r3, #2
 702 0260 FA7D     		ldrb	r2, [r7, #23]	@ zero_extendqisi2
 703 0262 1346     		mov	r3, r2
 704 0264 9B00     		lsls	r3, r3, #2
 705 0266 1344     		add	r3, r3, r2
 706 0268 BA6A     		ldr	r2, [r7, #40]
 707 026a 1344     		add	r3, r3, r2
 708 026c B3F80330 		ldrh	r3, [r3, #3]	@ unaligned
 709 0270 9BB2     		uxth	r3, r3
 710 0272 DBB2     		uxtb	r3, r3
 711 0274 0B70     		strb	r3, [r1]
 231:build/openmote-cc2538_armgcc/openstack/02b-MAChigh/sixtop.c ****                     pkt->payload[3] = (uint8_t)((celllist_toBeAdded[i].channeloffset     & 0xFF00)>
 712              		.loc 1 231 0
 713 0276 3B69     		ldr	r3, [r7, #16]
 714 0278 5B68     		ldr	r3, [r3, #4]
 715 027a D91C     		adds	r1, r3, #3
 716 027c FA7D     		ldrb	r2, [r7, #23]	@ zero_extendqisi2
 717 027e 1346     		mov	r3, r2
 718 0280 9B00     		lsls	r3, r3, #2
 719 0282 1344     		add	r3, r3, r2
 720 0284 BA6A     		ldr	r2, [r7, #40]
 721 0286 1344     		add	r3, r3, r2
 722 0288 B3F80330 		ldrh	r3, [r3, #3]	@ unaligned
 723 028c 9BB2     		uxth	r3, r3
 724 028e 1B0A     		lsrs	r3, r3, #8
 725 0290 9BB2     		uxth	r3, r3
 726 0292 DBB2     		uxtb	r3, r3
 727 0294 0B70     		strb	r3, [r1]
 232:build/openmote-cc2538_armgcc/openstack/02b-MAChigh/sixtop.c ****                     len += 4;
 728              		.loc 1 232 0
 729 0296 BB7D     		ldrb	r3, [r7, #22]
 730 0298 0433     		adds	r3, r3, #4
 731 029a BB75     		strb	r3, [r7, #22]
 732              	.L29:
 225:build/openmote-cc2538_armgcc/openstack/02b-MAChigh/sixtop.c ****                 if(celllist_toBeAdded[i].isUsed){
 733              		.loc 1 225 0 discriminator 2
 734 029c FB7D     		ldrb	r3, [r7, #23]	@ zero_extendqisi2
 735 029e 0133     		adds	r3, r3, #1
 736 02a0 FB75     		strb	r3, [r7, #23]
 737              	.L28:
 225:build/openmote-cc2538_armgcc/openstack/02b-MAChigh/sixtop.c ****                 if(celllist_toBeAdded[i].isUsed){
 738              		.loc 1 225 0 is_stmt 0 discriminator 1
 739 02a2 FB7D     		ldrb	r3, [r7, #23]	@ zero_extendqisi2
 740 02a4 042B     		cmp	r3, #4
 741 02a6 AED9     		bls	.L30
 742              	.L27:
 233:build/openmote-cc2538_armgcc/openstack/02b-MAChigh/sixtop.c ****                 }
 234:build/openmote-cc2538_armgcc/openstack/02b-MAChigh/sixtop.c ****             }
 235:build/openmote-cc2538_armgcc/openstack/02b-MAChigh/sixtop.c ****         }
 236:build/openmote-cc2538_armgcc/openstack/02b-MAChigh/sixtop.c ****         if (code == IANA_6TOP_CMD_DELETE || code == IANA_6TOP_CMD_RELOCATE){
 743              		.loc 1 236 0 is_stmt 1
 744 02a8 FB79     		ldrb	r3, [r7, #7]	@ zero_extendqisi2
 745 02aa 022B     		cmp	r3, #2
 746 02ac 02D0     		beq	.L31
 747              		.loc 1 236 0 is_stmt 0 discriminator 1
 748 02ae FB79     		ldrb	r3, [r7, #7]	@ zero_extendqisi2
 749 02b0 032B     		cmp	r3, #3
 750 02b2 53D1     		bne	.L32
 751              	.L31:
 237:build/openmote-cc2538_armgcc/openstack/02b-MAChigh/sixtop.c ****             for(i=0;i<CELLLIST_MAX_LEN;i++) {
 752              		.loc 1 237 0 is_stmt 1
 753 02b4 0023     		movs	r3, #0
 754 02b6 FB75     		strb	r3, [r7, #23]
 755 02b8 4DE0     		b	.L33
 756              	.L35:
 238:build/openmote-cc2538_armgcc/openstack/02b-MAChigh/sixtop.c ****                 if(celllist_toBeDeleted[i].isUsed){
 757              		.loc 1 238 0
 758 02ba FA7D     		ldrb	r2, [r7, #23]	@ zero_extendqisi2
 759 02bc 1346     		mov	r3, r2
 760 02be 9B00     		lsls	r3, r3, #2
 761 02c0 1344     		add	r3, r3, r2
 762 02c2 FA6A     		ldr	r2, [r7, #44]
 763 02c4 1344     		add	r3, r3, r2
 764 02c6 1B78     		ldrb	r3, [r3]	@ zero_extendqisi2
 765 02c8 002B     		cmp	r3, #0
 766 02ca 41D0     		beq	.L34
 239:build/openmote-cc2538_armgcc/openstack/02b-MAChigh/sixtop.c ****                     packetfunctions_reserveHeaderSize(pkt,4); 
 767              		.loc 1 239 0
 768 02cc 0421     		movs	r1, #4
 769 02ce 3869     		ldr	r0, [r7, #16]
 770 02d0 FFF7FEFF 		bl	packetfunctions_reserveHeaderSize
 240:build/openmote-cc2538_armgcc/openstack/02b-MAChigh/sixtop.c ****                     pkt->payload[0] = (uint8_t)(celllist_toBeDeleted[i].slotoffset       & 0x00FF);
 771              		.loc 1 240 0
 772 02d4 3B69     		ldr	r3, [r7, #16]
 773 02d6 5968     		ldr	r1, [r3, #4]
 774 02d8 FA7D     		ldrb	r2, [r7, #23]	@ zero_extendqisi2
 775 02da 1346     		mov	r3, r2
 776 02dc 9B00     		lsls	r3, r3, #2
 777 02de 1344     		add	r3, r3, r2
 778 02e0 FA6A     		ldr	r2, [r7, #44]
 779 02e2 1344     		add	r3, r3, r2
 780 02e4 B3F80130 		ldrh	r3, [r3, #1]	@ unaligned
 781 02e8 9BB2     		uxth	r3, r3
 782 02ea DBB2     		uxtb	r3, r3
 783 02ec 0B70     		strb	r3, [r1]
 241:build/openmote-cc2538_armgcc/openstack/02b-MAChigh/sixtop.c ****                     pkt->payload[1] = (uint8_t)((celllist_toBeDeleted[i].slotoffset      & 0xFF00)>
 784              		.loc 1 241 0
 785 02ee 3B69     		ldr	r3, [r7, #16]
 786 02f0 5B68     		ldr	r3, [r3, #4]
 787 02f2 591C     		adds	r1, r3, #1
 788 02f4 FA7D     		ldrb	r2, [r7, #23]	@ zero_extendqisi2
 789 02f6 1346     		mov	r3, r2
 790 02f8 9B00     		lsls	r3, r3, #2
 791 02fa 1344     		add	r3, r3, r2
 792 02fc FA6A     		ldr	r2, [r7, #44]
 793 02fe 1344     		add	r3, r3, r2
 794 0300 B3F80130 		ldrh	r3, [r3, #1]	@ unaligned
 795 0304 9BB2     		uxth	r3, r3
 796 0306 1B0A     		lsrs	r3, r3, #8
 797 0308 9BB2     		uxth	r3, r3
 798 030a DBB2     		uxtb	r3, r3
 799 030c 0B70     		strb	r3, [r1]
 242:build/openmote-cc2538_armgcc/openstack/02b-MAChigh/sixtop.c ****                     pkt->payload[2] = (uint8_t)(celllist_toBeDeleted[i].channeloffset    & 0x00FF);
 800              		.loc 1 242 0
 801 030e 3B69     		ldr	r3, [r7, #16]
 802 0310 5B68     		ldr	r3, [r3, #4]
 803 0312 991C     		adds	r1, r3, #2
 804 0314 FA7D     		ldrb	r2, [r7, #23]	@ zero_extendqisi2
 805 0316 1346     		mov	r3, r2
 806 0318 9B00     		lsls	r3, r3, #2
 807 031a 1344     		add	r3, r3, r2
 808 031c FA6A     		ldr	r2, [r7, #44]
 809 031e 1344     		add	r3, r3, r2
 810 0320 B3F80330 		ldrh	r3, [r3, #3]	@ unaligned
 811 0324 9BB2     		uxth	r3, r3
 812 0326 DBB2     		uxtb	r3, r3
 813 0328 0B70     		strb	r3, [r1]
 243:build/openmote-cc2538_armgcc/openstack/02b-MAChigh/sixtop.c ****                     pkt->payload[3] = (uint8_t)((celllist_toBeDeleted[i].channeloffset   & 0xFF00)>
 814              		.loc 1 243 0
 815 032a 3B69     		ldr	r3, [r7, #16]
 816 032c 5B68     		ldr	r3, [r3, #4]
 817 032e D91C     		adds	r1, r3, #3
 818 0330 FA7D     		ldrb	r2, [r7, #23]	@ zero_extendqisi2
 819 0332 1346     		mov	r3, r2
 820 0334 9B00     		lsls	r3, r3, #2
 821 0336 1344     		add	r3, r3, r2
 822 0338 FA6A     		ldr	r2, [r7, #44]
 823 033a 1344     		add	r3, r3, r2
 824 033c B3F80330 		ldrh	r3, [r3, #3]	@ unaligned
 825 0340 9BB2     		uxth	r3, r3
 826 0342 1B0A     		lsrs	r3, r3, #8
 827 0344 9BB2     		uxth	r3, r3
 828 0346 DBB2     		uxtb	r3, r3
 829 0348 0B70     		strb	r3, [r1]
 244:build/openmote-cc2538_armgcc/openstack/02b-MAChigh/sixtop.c ****                     len += 4;
 830              		.loc 1 244 0
 831 034a BB7D     		ldrb	r3, [r7, #22]
 832 034c 0433     		adds	r3, r3, #4
 833 034e BB75     		strb	r3, [r7, #22]
 834              	.L34:
 237:build/openmote-cc2538_armgcc/openstack/02b-MAChigh/sixtop.c ****                 if(celllist_toBeDeleted[i].isUsed){
 835              		.loc 1 237 0 discriminator 2
 836 0350 FB7D     		ldrb	r3, [r7, #23]	@ zero_extendqisi2
 837 0352 0133     		adds	r3, r3, #1
 838 0354 FB75     		strb	r3, [r7, #23]
 839              	.L33:
 237:build/openmote-cc2538_armgcc/openstack/02b-MAChigh/sixtop.c ****                 if(celllist_toBeDeleted[i].isUsed){
 840              		.loc 1 237 0 is_stmt 0 discriminator 1
 841 0356 FB7D     		ldrb	r3, [r7, #23]	@ zero_extendqisi2
 842 0358 042B     		cmp	r3, #4
 843 035a AED9     		bls	.L35
 844              	.L32:
 245:build/openmote-cc2538_armgcc/openstack/02b-MAChigh/sixtop.c ****                 }
 246:build/openmote-cc2538_armgcc/openstack/02b-MAChigh/sixtop.c ****             }
 247:build/openmote-cc2538_armgcc/openstack/02b-MAChigh/sixtop.c ****         }
 248:build/openmote-cc2538_armgcc/openstack/02b-MAChigh/sixtop.c ****         // append 6p numberCells
 249:build/openmote-cc2538_armgcc/openstack/02b-MAChigh/sixtop.c ****         packetfunctions_reserveHeaderSize(pkt,sizeof(uint8_t));
 845              		.loc 1 249 0 is_stmt 1
 846 035c 0121     		movs	r1, #1
 847 035e 3869     		ldr	r0, [r7, #16]
 848 0360 FFF7FEFF 		bl	packetfunctions_reserveHeaderSize
 250:build/openmote-cc2538_armgcc/openstack/02b-MAChigh/sixtop.c ****         *((uint8_t*)(pkt->payload)) = numCells;
 849              		.loc 1 250 0
 850 0364 3B69     		ldr	r3, [r7, #16]
 851 0366 5B68     		ldr	r3, [r3, #4]
 852 0368 BA79     		ldrb	r2, [r7, #6]
 853 036a 1A70     		strb	r2, [r3]
 251:build/openmote-cc2538_armgcc/openstack/02b-MAChigh/sixtop.c ****         len += 1;
 854              		.loc 1 251 0
 855 036c BB7D     		ldrb	r3, [r7, #22]
 856 036e 0133     		adds	r3, r3, #1
 857 0370 BB75     		strb	r3, [r7, #22]
 858              	.L25:
 252:build/openmote-cc2538_armgcc/openstack/02b-MAChigh/sixtop.c ****     }
 253:build/openmote-cc2538_armgcc/openstack/02b-MAChigh/sixtop.c ****     
 254:build/openmote-cc2538_armgcc/openstack/02b-MAChigh/sixtop.c ****     if (code == IANA_6TOP_CMD_LIST){
 859              		.loc 1 254 0
 860 0372 FB79     		ldrb	r3, [r7, #7]	@ zero_extendqisi2
 861 0374 052B     		cmp	r3, #5
 862 0376 2CD1     		bne	.L36
 255:build/openmote-cc2538_armgcc/openstack/02b-MAChigh/sixtop.c ****         // append 6p max number of cells
 256:build/openmote-cc2538_armgcc/openstack/02b-MAChigh/sixtop.c ****         packetfunctions_reserveHeaderSize(pkt,sizeof(uint16_t));
 863              		.loc 1 256 0
 864 0378 0221     		movs	r1, #2
 865 037a 3869     		ldr	r0, [r7, #16]
 866 037c FFF7FEFF 		bl	packetfunctions_reserveHeaderSize
 257:build/openmote-cc2538_armgcc/openstack/02b-MAChigh/sixtop.c ****         *((uint8_t*)(pkt->payload))   = (uint8_t)(listingMaxNumCells & 0x00FF);
 867              		.loc 1 257 0
 868 0380 3B69     		ldr	r3, [r7, #16]
 869 0382 5B68     		ldr	r3, [r3, #4]
 870 0384 3A8F     		ldrh	r2, [r7, #56]	@ movhi
 871 0386 D2B2     		uxtb	r2, r2
 872 0388 1A70     		strb	r2, [r3]
 258:build/openmote-cc2538_armgcc/openstack/02b-MAChigh/sixtop.c ****         *((uint8_t*)(pkt->payload+1)) = (uint8_t)(listingMaxNumCells & 0xFF00)>>8;
 873              		.loc 1 258 0
 874 038a 3B69     		ldr	r3, [r7, #16]
 875 038c 5B68     		ldr	r3, [r3, #4]
 876 038e 0133     		adds	r3, r3, #1
 877 0390 0022     		movs	r2, #0
 878 0392 1A70     		strb	r2, [r3]
 259:build/openmote-cc2538_armgcc/openstack/02b-MAChigh/sixtop.c ****         len +=2;
 879              		.loc 1 259 0
 880 0394 BB7D     		ldrb	r3, [r7, #22]
 881 0396 0233     		adds	r3, r3, #2
 882 0398 BB75     		strb	r3, [r7, #22]
 260:build/openmote-cc2538_armgcc/openstack/02b-MAChigh/sixtop.c ****         // append 6p listing offset
 261:build/openmote-cc2538_armgcc/openstack/02b-MAChigh/sixtop.c ****         packetfunctions_reserveHeaderSize(pkt,sizeof(uint16_t));
 883              		.loc 1 261 0
 884 039a 0221     		movs	r1, #2
 885 039c 3869     		ldr	r0, [r7, #16]
 886 039e FFF7FEFF 		bl	packetfunctions_reserveHeaderSize
 262:build/openmote-cc2538_armgcc/openstack/02b-MAChigh/sixtop.c ****         *((uint8_t*)(pkt->payload))   = (uint8_t)(listingOffset & 0x00FF);
 887              		.loc 1 262 0
 888 03a2 3B69     		ldr	r3, [r7, #16]
 889 03a4 5B68     		ldr	r3, [r3, #4]
 890 03a6 BA8E     		ldrh	r2, [r7, #52]	@ movhi
 891 03a8 D2B2     		uxtb	r2, r2
 892 03aa 1A70     		strb	r2, [r3]
 263:build/openmote-cc2538_armgcc/openstack/02b-MAChigh/sixtop.c ****         *((uint8_t*)(pkt->payload+1)) = (uint8_t)(listingOffset & 0xFF00)>>8;
 893              		.loc 1 263 0
 894 03ac 3B69     		ldr	r3, [r7, #16]
 895 03ae 5B68     		ldr	r3, [r3, #4]
 896 03b0 0133     		adds	r3, r3, #1
 897 03b2 0022     		movs	r2, #0
 898 03b4 1A70     		strb	r2, [r3]
 264:build/openmote-cc2538_armgcc/openstack/02b-MAChigh/sixtop.c ****         len += 2;
 899              		.loc 1 264 0
 900 03b6 BB7D     		ldrb	r3, [r7, #22]
 901 03b8 0233     		adds	r3, r3, #2
 902 03ba BB75     		strb	r3, [r7, #22]
 265:build/openmote-cc2538_armgcc/openstack/02b-MAChigh/sixtop.c ****         // append 6p Reserved field
 266:build/openmote-cc2538_armgcc/openstack/02b-MAChigh/sixtop.c ****         packetfunctions_reserveHeaderSize(pkt,sizeof(uint8_t));
 903              		.loc 1 266 0
 904 03bc 0121     		movs	r1, #1
 905 03be 3869     		ldr	r0, [r7, #16]
 906 03c0 FFF7FEFF 		bl	packetfunctions_reserveHeaderSize
 267:build/openmote-cc2538_armgcc/openstack/02b-MAChigh/sixtop.c ****         *((uint8_t*)(pkt->payload)) = 0;
 907              		.loc 1 267 0
 908 03c4 3B69     		ldr	r3, [r7, #16]
 909 03c6 5B68     		ldr	r3, [r3, #4]
 910 03c8 0022     		movs	r2, #0
 911 03ca 1A70     		strb	r2, [r3]
 268:build/openmote-cc2538_armgcc/openstack/02b-MAChigh/sixtop.c ****         len += 1;
 912              		.loc 1 268 0
 913 03cc BB7D     		ldrb	r3, [r7, #22]
 914 03ce 0133     		adds	r3, r3, #1
 915 03d0 BB75     		strb	r3, [r7, #22]
 916              	.L36:
 269:build/openmote-cc2538_armgcc/openstack/02b-MAChigh/sixtop.c ****     }
 270:build/openmote-cc2538_armgcc/openstack/02b-MAChigh/sixtop.c ****     
 271:build/openmote-cc2538_armgcc/openstack/02b-MAChigh/sixtop.c ****     if (code != IANA_6TOP_CMD_CLEAR){
 917              		.loc 1 271 0
 918 03d2 FB79     		ldrb	r3, [r7, #7]	@ zero_extendqisi2
 919 03d4 062B     		cmp	r3, #6
 920 03d6 0DD0     		beq	.L37
 272:build/openmote-cc2538_armgcc/openstack/02b-MAChigh/sixtop.c ****         // append 6p celloptions
 273:build/openmote-cc2538_armgcc/openstack/02b-MAChigh/sixtop.c ****         packetfunctions_reserveHeaderSize(pkt,sizeof(uint8_t));
 921              		.loc 1 273 0
 922 03d8 0121     		movs	r1, #1
 923 03da 3869     		ldr	r0, [r7, #16]
 924 03dc FFF7FEFF 		bl	packetfunctions_reserveHeaderSize
 274:build/openmote-cc2538_armgcc/openstack/02b-MAChigh/sixtop.c ****         *((uint8_t*)(pkt->payload)) = cellOptions;
 925              		.loc 1 274 0
 926 03e0 3B69     		ldr	r3, [r7, #16]
 927 03e2 5B68     		ldr	r3, [r3, #4]
 928 03e4 7A79     		ldrb	r2, [r7, #5]
 929 03e6 1A70     		strb	r2, [r3]
 275:build/openmote-cc2538_armgcc/openstack/02b-MAChigh/sixtop.c ****         len+=1;
 930              		.loc 1 275 0
 931 03e8 BB7D     		ldrb	r3, [r7, #22]
 932 03ea 0133     		adds	r3, r3, #1
 933 03ec BB75     		strb	r3, [r7, #22]
 934 03ee 0DE0     		b	.L38
 935              	.L61:
 936              		.align	2
 937              	.L60:
 938 03f0 00000000 		.word	sixtop_vars
 939              	.L37:
 276:build/openmote-cc2538_armgcc/openstack/02b-MAChigh/sixtop.c ****     } else {
 277:build/openmote-cc2538_armgcc/openstack/02b-MAChigh/sixtop.c ****         // record the neighbor in case no response  for clear
 278:build/openmote-cc2538_armgcc/openstack/02b-MAChigh/sixtop.c ****         memcpy(&sixtop_vars.neighborToClearCells,neighbor,sizeof(open_addr_t));
 940              		.loc 1 278 0
 941 03f4 964B     		ldr	r3, .L62
 942 03f6 3A68     		ldr	r2, [r7]
 943 03f8 03F13C04 		add	r4, r3, #60
 944 03fc 1546     		mov	r5, r2
 945 03fe 2868     		ldr	r0, [r5]	@ unaligned
 946 0400 6968     		ldr	r1, [r5, #4]	@ unaligned
 947 0402 AA68     		ldr	r2, [r5, #8]	@ unaligned
 948 0404 EB68     		ldr	r3, [r5, #12]	@ unaligned
 949 0406 0FC4     		stmia	r4!, {r0, r1, r2, r3}
 950 0408 2B7C     		ldrb	r3, [r5, #16]
 951 040a 2370     		strb	r3, [r4]
 952              	.L38:
 279:build/openmote-cc2538_armgcc/openstack/02b-MAChigh/sixtop.c ****     }
 280:build/openmote-cc2538_armgcc/openstack/02b-MAChigh/sixtop.c ****     
 281:build/openmote-cc2538_armgcc/openstack/02b-MAChigh/sixtop.c ****     // append 6p metadata
 282:build/openmote-cc2538_armgcc/openstack/02b-MAChigh/sixtop.c ****     packetfunctions_reserveHeaderSize(pkt,sizeof(uint16_t));
 953              		.loc 1 282 0
 954 040c 0221     		movs	r1, #2
 955 040e 3869     		ldr	r0, [r7, #16]
 956 0410 FFF7FEFF 		bl	packetfunctions_reserveHeaderSize
 283:build/openmote-cc2538_armgcc/openstack/02b-MAChigh/sixtop.c ****     pkt->payload[0] = (uint8_t)( sixtop_vars.cb_sf_getMetadata() & 0x00FF);
 957              		.loc 1 283 0
 958 0414 3B69     		ldr	r3, [r7, #16]
 959 0416 5C68     		ldr	r4, [r3, #4]
 960 0418 8D4B     		ldr	r3, .L62
 961 041a 1B6B     		ldr	r3, [r3, #48]
 962 041c 9847     		blx	r3
 963 041e 0346     		mov	r3, r0
 964 0420 DBB2     		uxtb	r3, r3
 965 0422 2370     		strb	r3, [r4]
 284:build/openmote-cc2538_armgcc/openstack/02b-MAChigh/sixtop.c ****     pkt->payload[1] = (uint8_t)((sixtop_vars.cb_sf_getMetadata() & 0xFF00)>>8);
 966              		.loc 1 284 0
 967 0424 3B69     		ldr	r3, [r7, #16]
 968 0426 5B68     		ldr	r3, [r3, #4]
 969 0428 5C1C     		adds	r4, r3, #1
 970 042a 894B     		ldr	r3, .L62
 971 042c 1B6B     		ldr	r3, [r3, #48]
 972 042e 9847     		blx	r3
 973 0430 0346     		mov	r3, r0
 974 0432 03F47F43 		and	r3, r3, #65280
 975 0436 1B12     		asrs	r3, r3, #8
 976 0438 DBB2     		uxtb	r3, r3
 977 043a 2370     		strb	r3, [r4]
 285:build/openmote-cc2538_armgcc/openstack/02b-MAChigh/sixtop.c ****     len += 2;
 978              		.loc 1 285 0
 979 043c BB7D     		ldrb	r3, [r7, #22]
 980 043e 0233     		adds	r3, r3, #2
 981 0440 BB75     		strb	r3, [r7, #22]
 286:build/openmote-cc2538_armgcc/openstack/02b-MAChigh/sixtop.c ****    
 287:build/openmote-cc2538_armgcc/openstack/02b-MAChigh/sixtop.c **** //    // append 6p Seqnum and schedule Generation
 288:build/openmote-cc2538_armgcc/openstack/02b-MAChigh/sixtop.c **** //    packetfunctions_reserveHeaderSize(pkt,sizeof(uint8_t));
 289:build/openmote-cc2538_armgcc/openstack/02b-MAChigh/sixtop.c **** //    sequenceNumber              = neighbors_getSequenceNumber(neighbor);
 290:build/openmote-cc2538_armgcc/openstack/02b-MAChigh/sixtop.c **** //    *((uint8_t*)(pkt->payload)) = sequenceNumber;
 291:build/openmote-cc2538_armgcc/openstack/02b-MAChigh/sixtop.c **** //    len += 1;
 292:build/openmote-cc2538_armgcc/openstack/02b-MAChigh/sixtop.c **** 
 293:build/openmote-cc2538_armgcc/openstack/02b-MAChigh/sixtop.c **** 
 294:build/openmote-cc2538_armgcc/openstack/02b-MAChigh/sixtop.c ****     if (sfid == 5){
 982              		.loc 1 294 0
 983 0442 97F83030 		ldrb	r3, [r7, #48]	@ zero_extendqisi2
 984 0446 052B     		cmp	r3, #5
 985 0448 44D1     		bne	.L39
 295:build/openmote-cc2538_armgcc/openstack/02b-MAChigh/sixtop.c ****         // append 6p Seqnum and schedule Generation
 296:build/openmote-cc2538_armgcc/openstack/02b-MAChigh/sixtop.c ****         packetfunctions_reserveHeaderSize(pkt,sizeof(uint8_t));
 986              		.loc 1 296 0
 987 044a 0121     		movs	r1, #1
 988 044c 3869     		ldr	r0, [r7, #16]
 989 044e FFF7FEFF 		bl	packetfunctions_reserveHeaderSize
 297:build/openmote-cc2538_armgcc/openstack/02b-MAChigh/sixtop.c ****         sequenceNumber              = 0;
 990              		.loc 1 297 0
 991 0452 0023     		movs	r3, #0
 992 0454 7B75     		strb	r3, [r7, #21]
 298:build/openmote-cc2538_armgcc/openstack/02b-MAChigh/sixtop.c ****     	sfid=0;
 993              		.loc 1 298 0
 994 0456 0023     		movs	r3, #0
 995 0458 87F83030 		strb	r3, [r7, #48]
 299:build/openmote-cc2538_armgcc/openstack/02b-MAChigh/sixtop.c ****     	pkt->isSixtopFake=TRUE;
 996              		.loc 1 299 0
 997 045c 3B69     		ldr	r3, [r7, #16]
 998 045e 0122     		movs	r2, #1
 999 0460 83F84221 		strb	r2, [r3, #322]
 300:build/openmote-cc2538_armgcc/openstack/02b-MAChigh/sixtop.c ****     	//printf("I am node %d, sending 6P REQUEST to %d with FAKE option \n", idmanager_getMyID(ADDR_
 301:build/openmote-cc2538_armgcc/openstack/02b-MAChigh/sixtop.c **** 
 302:build/openmote-cc2538_armgcc/openstack/02b-MAChigh/sixtop.c ****     	if (neighbor->addr_64b[7] == whisper_getTargetParentNew()){
 1000              		.loc 1 302 0
 1001 0464 3B68     		ldr	r3, [r7]
 1002 0466 1C7A     		ldrb	r4, [r3, #8]	@ zero_extendqisi2
 1003 0468 FFF7FEFF 		bl	whisper_getTargetParentNew
 1004 046c 0346     		mov	r3, r0
 1005 046e 9C42     		cmp	r4, r3
 1006 0470 06D1     		bne	.L40
 303:build/openmote-cc2538_armgcc/openstack/02b-MAChigh/sixtop.c ****     		//this is the first 6P message
 304:build/openmote-cc2538_armgcc/openstack/02b-MAChigh/sixtop.c **** 
 305:build/openmote-cc2538_armgcc/openstack/02b-MAChigh/sixtop.c ****             //printf("A I am node %d, sending FAKE 6P REQUEST to %d with seq num %d and fake source
 306:build/openmote-cc2538_armgcc/openstack/02b-MAChigh/sixtop.c ****             //sequenceNumber = sequenceNumber+1;
 307:build/openmote-cc2538_armgcc/openstack/02b-MAChigh/sixtop.c ****     	    *((uint8_t*)(pkt->payload)) = sequenceNumber;
 1007              		.loc 1 307 0
 1008 0472 3B69     		ldr	r3, [r7, #16]
 1009 0474 5B68     		ldr	r3, [r3, #4]
 1010 0476 7A7D     		ldrb	r2, [r7, #21]
 1011 0478 1A70     		strb	r2, [r3]
 308:build/openmote-cc2538_armgcc/openstack/02b-MAChigh/sixtop.c ****     	    len += 1;
 1012              		.loc 1 308 0
 1013 047a BB7D     		ldrb	r3, [r7, #22]
 1014 047c 0133     		adds	r3, r3, #1
 1015 047e BB75     		strb	r3, [r7, #22]
 1016              	.L40:
 309:build/openmote-cc2538_armgcc/openstack/02b-MAChigh/sixtop.c **** 
 310:build/openmote-cc2538_armgcc/openstack/02b-MAChigh/sixtop.c ****     	}if (neighbor->addr_64b[7] == whisper_getTargetChildren()){
 1017              		.loc 1 310 0
 1018 0480 3B68     		ldr	r3, [r7]
 1019 0482 1C7A     		ldrb	r4, [r3, #8]	@ zero_extendqisi2
 1020 0484 FFF7FEFF 		bl	whisper_getTargetChildren
 1021 0488 0346     		mov	r3, r0
 1022 048a 9C42     		cmp	r4, r3
 1023 048c 10D1     		bne	.L41
 311:build/openmote-cc2538_armgcc/openstack/02b-MAChigh/sixtop.c ****     		//this is the first 6P message
 312:build/openmote-cc2538_armgcc/openstack/02b-MAChigh/sixtop.c ****     		if (code != IANA_6TOP_CMD_CLEAR){
 1024              		.loc 1 312 0
 1025 048e FB79     		ldrb	r3, [r7, #7]	@ zero_extendqisi2
 1026 0490 062B     		cmp	r3, #6
 1027 0492 03D0     		beq	.L42
 313:build/openmote-cc2538_armgcc/openstack/02b-MAChigh/sixtop.c ****     			sequenceNumber = sequenceNumber+1;
 1028              		.loc 1 313 0
 1029 0494 7B7D     		ldrb	r3, [r7, #21]
 1030 0496 0133     		adds	r3, r3, #1
 1031 0498 7B75     		strb	r3, [r7, #21]
 1032 049a 02E0     		b	.L43
 1033              	.L42:
 314:build/openmote-cc2538_armgcc/openstack/02b-MAChigh/sixtop.c ****     		}else{
 315:build/openmote-cc2538_armgcc/openstack/02b-MAChigh/sixtop.c ****     			//we use a wrong seq num on purpose
 316:build/openmote-cc2538_armgcc/openstack/02b-MAChigh/sixtop.c ****     			//sequenceNumber = sequenceNumber+2;
 317:build/openmote-cc2538_armgcc/openstack/02b-MAChigh/sixtop.c **** 
 318:build/openmote-cc2538_armgcc/openstack/02b-MAChigh/sixtop.c ****     			//this is the second clear message
 319:build/openmote-cc2538_armgcc/openstack/02b-MAChigh/sixtop.c ****     			sequenceNumber = sequenceNumber+2;
 1034              		.loc 1 319 0
 1035 049c 7B7D     		ldrb	r3, [r7, #21]
 1036 049e 0233     		adds	r3, r3, #2
 1037 04a0 7B75     		strb	r3, [r7, #21]
 1038              	.L43:
 320:build/openmote-cc2538_armgcc/openstack/02b-MAChigh/sixtop.c **** 
 321:build/openmote-cc2538_armgcc/openstack/02b-MAChigh/sixtop.c ****     		}
 322:build/openmote-cc2538_armgcc/openstack/02b-MAChigh/sixtop.c ****     		//printf("B I am node %d, sending FAKE 6P REQUEST to %d with seq num %d and fake source addre
 323:build/openmote-cc2538_armgcc/openstack/02b-MAChigh/sixtop.c ****             //printf("I am node %d, sending FAKE 6P REQUEST to %d with incremented seq num %d and f
 324:build/openmote-cc2538_armgcc/openstack/02b-MAChigh/sixtop.c ****     	    *((uint8_t*)(pkt->payload)) = sequenceNumber;
 1039              		.loc 1 324 0
 1040 04a2 3B69     		ldr	r3, [r7, #16]
 1041 04a4 5B68     		ldr	r3, [r3, #4]
 1042 04a6 7A7D     		ldrb	r2, [r7, #21]
 1043 04a8 1A70     		strb	r2, [r3]
 325:build/openmote-cc2538_armgcc/openstack/02b-MAChigh/sixtop.c ****     	    len += 1;
 1044              		.loc 1 325 0
 1045 04aa BB7D     		ldrb	r3, [r7, #22]
 1046 04ac 0133     		adds	r3, r3, #1
 1047 04ae BB75     		strb	r3, [r7, #22]
 1048              	.L41:
 326:build/openmote-cc2538_armgcc/openstack/02b-MAChigh/sixtop.c **** 
 327:build/openmote-cc2538_armgcc/openstack/02b-MAChigh/sixtop.c ****     	}if (neighbor->addr_64b[7] == whisper_getTargetParentOld()){
 1049              		.loc 1 327 0
 1050 04b0 3B68     		ldr	r3, [r7]
 1051 04b2 1C7A     		ldrb	r4, [r3, #8]	@ zero_extendqisi2
 1052 04b4 FFF7FEFF 		bl	whisper_getTargetParentOld
 1053 04b8 0346     		mov	r3, r0
 1054 04ba 9C42     		cmp	r4, r3
 1055 04bc 1ED1     		bne	.L45
 328:build/openmote-cc2538_armgcc/openstack/02b-MAChigh/sixtop.c ****     		//this is the first 6P message, clearing
 329:build/openmote-cc2538_armgcc/openstack/02b-MAChigh/sixtop.c ****     		sequenceNumber = sequenceNumber+1;
 1056              		.loc 1 329 0
 1057 04be 7B7D     		ldrb	r3, [r7, #21]
 1058 04c0 0133     		adds	r3, r3, #1
 1059 04c2 7B75     		strb	r3, [r7, #21]
 330:build/openmote-cc2538_armgcc/openstack/02b-MAChigh/sixtop.c ****             //printf("A I am node %d, sending FAKE 6P REQUEST to %d with seq num %d and fake source
 331:build/openmote-cc2538_armgcc/openstack/02b-MAChigh/sixtop.c ****             //sequenceNumber = sequenceNumber+1;
 332:build/openmote-cc2538_armgcc/openstack/02b-MAChigh/sixtop.c ****     	    *((uint8_t*)(pkt->payload)) = sequenceNumber;
 1060              		.loc 1 332 0
 1061 04c4 3B69     		ldr	r3, [r7, #16]
 1062 04c6 5B68     		ldr	r3, [r3, #4]
 1063 04c8 7A7D     		ldrb	r2, [r7, #21]
 1064 04ca 1A70     		strb	r2, [r3]
 333:build/openmote-cc2538_armgcc/openstack/02b-MAChigh/sixtop.c ****     	    len += 1;
 1065              		.loc 1 333 0
 1066 04cc BB7D     		ldrb	r3, [r7, #22]
 1067 04ce 0133     		adds	r3, r3, #1
 1068 04d0 BB75     		strb	r3, [r7, #22]
 1069 04d2 13E0     		b	.L45
 1070              	.L39:
 334:build/openmote-cc2538_armgcc/openstack/02b-MAChigh/sixtop.c **** 
 335:build/openmote-cc2538_armgcc/openstack/02b-MAChigh/sixtop.c **** 
 336:build/openmote-cc2538_armgcc/openstack/02b-MAChigh/sixtop.c ****     	}
 337:build/openmote-cc2538_armgcc/openstack/02b-MAChigh/sixtop.c ****     }else{
 338:build/openmote-cc2538_armgcc/openstack/02b-MAChigh/sixtop.c ****     	pkt->isSixtopFake=FALSE;
 1071              		.loc 1 338 0
 1072 04d4 3B69     		ldr	r3, [r7, #16]
 1073 04d6 0022     		movs	r2, #0
 1074 04d8 83F84221 		strb	r2, [r3, #322]
 339:build/openmote-cc2538_armgcc/openstack/02b-MAChigh/sixtop.c ****     	//printf("I am node %d, sending 6P REQUEST to %d withOut FAKE option \n", idmanager_getMyID(AD
 340:build/openmote-cc2538_armgcc/openstack/02b-MAChigh/sixtop.c ****         // append 6p Seqnum and schedule Generation
 341:build/openmote-cc2538_armgcc/openstack/02b-MAChigh/sixtop.c ****         packetfunctions_reserveHeaderSize(pkt,sizeof(uint8_t));
 1075              		.loc 1 341 0
 1076 04dc 0121     		movs	r1, #1
 1077 04de 3869     		ldr	r0, [r7, #16]
 1078 04e0 FFF7FEFF 		bl	packetfunctions_reserveHeaderSize
 342:build/openmote-cc2538_armgcc/openstack/02b-MAChigh/sixtop.c ****         sequenceNumber              = neighbors_getSequenceNumber(neighbor);
 1079              		.loc 1 342 0
 1080 04e4 3868     		ldr	r0, [r7]
 1081 04e6 FFF7FEFF 		bl	neighbors_getSequenceNumber
 1082 04ea 0346     		mov	r3, r0
 1083 04ec 7B75     		strb	r3, [r7, #21]
 343:build/openmote-cc2538_armgcc/openstack/02b-MAChigh/sixtop.c ****         *((uint8_t*)(pkt->payload)) = sequenceNumber;
 1084              		.loc 1 343 0
 1085 04ee 3B69     		ldr	r3, [r7, #16]
 1086 04f0 5B68     		ldr	r3, [r3, #4]
 1087 04f2 7A7D     		ldrb	r2, [r7, #21]
 1088 04f4 1A70     		strb	r2, [r3]
 344:build/openmote-cc2538_armgcc/openstack/02b-MAChigh/sixtop.c ****         len += 1;
 1089              		.loc 1 344 0
 1090 04f6 BB7D     		ldrb	r3, [r7, #22]
 1091 04f8 0133     		adds	r3, r3, #1
 1092 04fa BB75     		strb	r3, [r7, #22]
 1093              	.L45:
 345:build/openmote-cc2538_armgcc/openstack/02b-MAChigh/sixtop.c ****     }
 346:build/openmote-cc2538_armgcc/openstack/02b-MAChigh/sixtop.c **** 
 347:build/openmote-cc2538_armgcc/openstack/02b-MAChigh/sixtop.c **** 
 348:build/openmote-cc2538_armgcc/openstack/02b-MAChigh/sixtop.c **** 
 349:build/openmote-cc2538_armgcc/openstack/02b-MAChigh/sixtop.c **** 
 350:build/openmote-cc2538_armgcc/openstack/02b-MAChigh/sixtop.c **** 
 351:build/openmote-cc2538_armgcc/openstack/02b-MAChigh/sixtop.c ****     
 352:build/openmote-cc2538_armgcc/openstack/02b-MAChigh/sixtop.c ****     // append 6p sfid
 353:build/openmote-cc2538_armgcc/openstack/02b-MAChigh/sixtop.c ****     packetfunctions_reserveHeaderSize(pkt,sizeof(uint8_t));
 1094              		.loc 1 353 0
 1095 04fc 0121     		movs	r1, #1
 1096 04fe 3869     		ldr	r0, [r7, #16]
 1097 0500 FFF7FEFF 		bl	packetfunctions_reserveHeaderSize
 354:build/openmote-cc2538_armgcc/openstack/02b-MAChigh/sixtop.c ****     *((uint8_t*)(pkt->payload)) = sfid;
 1098              		.loc 1 354 0
 1099 0504 3B69     		ldr	r3, [r7, #16]
 1100 0506 5B68     		ldr	r3, [r3, #4]
 1101 0508 97F83020 		ldrb	r2, [r7, #48]
 1102 050c 1A70     		strb	r2, [r3]
 355:build/openmote-cc2538_armgcc/openstack/02b-MAChigh/sixtop.c ****     len += 1;
 1103              		.loc 1 355 0
 1104 050e BB7D     		ldrb	r3, [r7, #22]
 1105 0510 0133     		adds	r3, r3, #1
 1106 0512 BB75     		strb	r3, [r7, #22]
 356:build/openmote-cc2538_armgcc/openstack/02b-MAChigh/sixtop.c ****       
 357:build/openmote-cc2538_armgcc/openstack/02b-MAChigh/sixtop.c ****     // append 6p code
 358:build/openmote-cc2538_armgcc/openstack/02b-MAChigh/sixtop.c ****     packetfunctions_reserveHeaderSize(pkt,sizeof(uint8_t));
 1107              		.loc 1 358 0
 1108 0514 0121     		movs	r1, #1
 1109 0516 3869     		ldr	r0, [r7, #16]
 1110 0518 FFF7FEFF 		bl	packetfunctions_reserveHeaderSize
 359:build/openmote-cc2538_armgcc/openstack/02b-MAChigh/sixtop.c ****     *((uint8_t*)(pkt->payload)) = code;
 1111              		.loc 1 359 0
 1112 051c 3B69     		ldr	r3, [r7, #16]
 1113 051e 5B68     		ldr	r3, [r3, #4]
 1114 0520 FA79     		ldrb	r2, [r7, #7]
 1115 0522 1A70     		strb	r2, [r3]
 360:build/openmote-cc2538_armgcc/openstack/02b-MAChigh/sixtop.c ****     // record the code to determine the action after 6p senddone
 361:build/openmote-cc2538_armgcc/openstack/02b-MAChigh/sixtop.c ****     pkt->l2_sixtop_command      = code;
 1116              		.loc 1 361 0
 1117 0524 3B69     		ldr	r3, [r7, #16]
 1118 0526 FA79     		ldrb	r2, [r7, #7]
 1119 0528 83F89120 		strb	r2, [r3, #145]
 362:build/openmote-cc2538_armgcc/openstack/02b-MAChigh/sixtop.c ****     len += 1;
 1120              		.loc 1 362 0
 1121 052c BB7D     		ldrb	r3, [r7, #22]
 1122 052e 0133     		adds	r3, r3, #1
 1123 0530 BB75     		strb	r3, [r7, #22]
 363:build/openmote-cc2538_armgcc/openstack/02b-MAChigh/sixtop.c ****     
 364:build/openmote-cc2538_armgcc/openstack/02b-MAChigh/sixtop.c ****     // append 6p version, T(type) and  R(reserved)
 365:build/openmote-cc2538_armgcc/openstack/02b-MAChigh/sixtop.c ****     packetfunctions_reserveHeaderSize(pkt,sizeof(uint8_t));
 1124              		.loc 1 365 0
 1125 0532 0121     		movs	r1, #1
 1126 0534 3869     		ldr	r0, [r7, #16]
 1127 0536 FFF7FEFF 		bl	packetfunctions_reserveHeaderSize
 366:build/openmote-cc2538_armgcc/openstack/02b-MAChigh/sixtop.c ****     *((uint8_t*)(pkt->payload)) = IANA_6TOP_6P_VERSION | IANA_6TOP_TYPE_REQUEST;
 1128              		.loc 1 366 0
 1129 053a 3B69     		ldr	r3, [r7, #16]
 1130 053c 5B68     		ldr	r3, [r3, #4]
 1131 053e 0022     		movs	r2, #0
 1132 0540 1A70     		strb	r2, [r3]
 367:build/openmote-cc2538_armgcc/openstack/02b-MAChigh/sixtop.c ****     len += 1;
 1133              		.loc 1 367 0
 1134 0542 BB7D     		ldrb	r3, [r7, #22]
 1135 0544 0133     		adds	r3, r3, #1
 1136 0546 BB75     		strb	r3, [r7, #22]
 368:build/openmote-cc2538_armgcc/openstack/02b-MAChigh/sixtop.c ****     
 369:build/openmote-cc2538_armgcc/openstack/02b-MAChigh/sixtop.c ****     // append 6p subtype id
 370:build/openmote-cc2538_armgcc/openstack/02b-MAChigh/sixtop.c ****     packetfunctions_reserveHeaderSize(pkt,sizeof(uint8_t));
 1137              		.loc 1 370 0
 1138 0548 0121     		movs	r1, #1
 1139 054a 3869     		ldr	r0, [r7, #16]
 1140 054c FFF7FEFF 		bl	packetfunctions_reserveHeaderSize
 371:build/openmote-cc2538_armgcc/openstack/02b-MAChigh/sixtop.c ****     *((uint8_t*)(pkt->payload)) = IANA_6TOP_SUBIE_ID;
 1141              		.loc 1 371 0
 1142 0550 3B69     		ldr	r3, [r7, #16]
 1143 0552 5B68     		ldr	r3, [r3, #4]
 1144 0554 C922     		movs	r2, #201
 1145 0556 1A70     		strb	r2, [r3]
 372:build/openmote-cc2538_armgcc/openstack/02b-MAChigh/sixtop.c ****     len += 1;
 1146              		.loc 1 372 0
 1147 0558 BB7D     		ldrb	r3, [r7, #22]
 1148 055a 0133     		adds	r3, r3, #1
 1149 055c BB75     		strb	r3, [r7, #22]
 373:build/openmote-cc2538_armgcc/openstack/02b-MAChigh/sixtop.c ****    
 374:build/openmote-cc2538_armgcc/openstack/02b-MAChigh/sixtop.c ****     // append IETF IE header (length_groupid_type)
 375:build/openmote-cc2538_armgcc/openstack/02b-MAChigh/sixtop.c ****     packetfunctions_reserveHeaderSize(pkt, sizeof(uint16_t));
 1150              		.loc 1 375 0
 1151 055e 0221     		movs	r1, #2
 1152 0560 3869     		ldr	r0, [r7, #16]
 1153 0562 FFF7FEFF 		bl	packetfunctions_reserveHeaderSize
 376:build/openmote-cc2538_armgcc/openstack/02b-MAChigh/sixtop.c ****     length_groupid_type  = len;
 1154              		.loc 1 376 0
 1155 0566 BB7D     		ldrb	r3, [r7, #22]	@ zero_extendqisi2
 1156 0568 FB81     		strh	r3, [r7, #14]	@ movhi
 377:build/openmote-cc2538_armgcc/openstack/02b-MAChigh/sixtop.c ****     length_groupid_type |= (IANA_IETF_IE_GROUP_ID  | IANA_IETF_IE_TYPE); 
 1157              		.loc 1 377 0
 1158 056a FB89     		ldrh	r3, [r7, #14]	@ movhi
 1159 056c 43F07F43 		orr	r3, r3, #-16777216
 1160 0570 43F47F03 		orr	r3, r3, #16711680
 1161 0574 43F42843 		orr	r3, r3, #43008
 1162 0578 FB81     		strh	r3, [r7, #14]	@ movhi
 378:build/openmote-cc2538_armgcc/openstack/02b-MAChigh/sixtop.c ****     pkt->payload[0]      = length_groupid_type        & 0xFF;
 1163              		.loc 1 378 0
 1164 057a 3B69     		ldr	r3, [r7, #16]
 1165 057c 5B68     		ldr	r3, [r3, #4]
 1166 057e FA89     		ldrh	r2, [r7, #14]	@ movhi
 1167 0580 D2B2     		uxtb	r2, r2
 1168 0582 1A70     		strb	r2, [r3]
 379:build/openmote-cc2538_armgcc/openstack/02b-MAChigh/sixtop.c ****     pkt->payload[1]      = (length_groupid_type >> 8) & 0xFF;
 1169              		.loc 1 379 0
 1170 0584 3B69     		ldr	r3, [r7, #16]
 1171 0586 5B68     		ldr	r3, [r3, #4]
 1172 0588 0133     		adds	r3, r3, #1
 1173 058a FA89     		ldrh	r2, [r7, #14]
 1174 058c 120A     		lsrs	r2, r2, #8
 1175 058e 92B2     		uxth	r2, r2
 1176 0590 D2B2     		uxtb	r2, r2
 1177 0592 1A70     		strb	r2, [r3]
 380:build/openmote-cc2538_armgcc/openstack/02b-MAChigh/sixtop.c ****    
 381:build/openmote-cc2538_armgcc/openstack/02b-MAChigh/sixtop.c ****     // indicate IEs present
 382:build/openmote-cc2538_armgcc/openstack/02b-MAChigh/sixtop.c ****     pkt->l2_payloadIEpresent = TRUE;
 1178              		.loc 1 382 0
 1179 0594 3B69     		ldr	r3, [r7, #16]
 1180 0596 0122     		movs	r2, #1
 1181 0598 83F89A20 		strb	r2, [r3, #154]
 383:build/openmote-cc2538_armgcc/openstack/02b-MAChigh/sixtop.c ****     // record this packet as sixtop request message
 384:build/openmote-cc2538_armgcc/openstack/02b-MAChigh/sixtop.c ****     pkt->l2_sixtop_messageType    = SIXTOP_CELL_REQUEST;
 1182              		.loc 1 384 0
 1183 059c 3B69     		ldr	r3, [r7, #16]
 1184 059e 0022     		movs	r2, #0
 1185 05a0 83F89020 		strb	r2, [r3, #144]
 385:build/openmote-cc2538_armgcc/openstack/02b-MAChigh/sixtop.c ****     
 386:build/openmote-cc2538_armgcc/openstack/02b-MAChigh/sixtop.c ****     // send packet
 387:build/openmote-cc2538_armgcc/openstack/02b-MAChigh/sixtop.c ****     outcome = sixtop_send(pkt);
 1186              		.loc 1 387 0
 1187 05a4 3869     		ldr	r0, [r7, #16]
 1188 05a6 FFF7FEFF 		bl	sixtop_send
 1189 05aa 0346     		mov	r3, r0
 1190 05ac 7B73     		strb	r3, [r7, #13]
 388:build/openmote-cc2538_armgcc/openstack/02b-MAChigh/sixtop.c ****     
 389:build/openmote-cc2538_armgcc/openstack/02b-MAChigh/sixtop.c ****     if (outcome == E_SUCCESS){
 1191              		.loc 1 389 0
 1192 05ae 7B7B     		ldrb	r3, [r7, #13]	@ zero_extendqisi2
 1193 05b0 002B     		cmp	r3, #0
 1194 05b2 44D1     		bne	.L46
 390:build/openmote-cc2538_armgcc/openstack/02b-MAChigh/sixtop.c ****         //update states
 391:build/openmote-cc2538_armgcc/openstack/02b-MAChigh/sixtop.c ****         switch(code){
 1195              		.loc 1 391 0
 1196 05b4 FB79     		ldrb	r3, [r7, #7]	@ zero_extendqisi2
 1197 05b6 013B     		subs	r3, r3, #1
 1198 05b8 052B     		cmp	r3, #5
 1199 05ba 43D8     		bhi	.L59
 1200 05bc 01A2     		adr	r2, .L49
 1201 05be 52F823F0 		ldr	pc, [r2, r3, lsl #2]
 1202 05c2 00BF     		.p2align 2
 1203              	.L49:
 1204 05c4 DD050000 		.word	.L48+1
 1205 05c8 FD050000 		.word	.L50+1
 1206 05cc 05060000 		.word	.L51+1
 1207 05d0 0D060000 		.word	.L52+1
 1208 05d4 15060000 		.word	.L53+1
 1209 05d8 1D060000 		.word	.L54+1
 1210              		.p2align 1
 1211              	.L48:
 392:build/openmote-cc2538_armgcc/openstack/02b-MAChigh/sixtop.c ****         case IANA_6TOP_CMD_ADD:
 393:build/openmote-cc2538_armgcc/openstack/02b-MAChigh/sixtop.c ****             if (pkt->isSixtopFake==FALSE){
 1212              		.loc 1 393 0
 1213 05dc 3B69     		ldr	r3, [r7, #16]
 1214 05de 93F84231 		ldrb	r3, [r3, #322]	@ zero_extendqisi2
 1215 05e2 83F00103 		eor	r3, r3, #1
 1216 05e6 DBB2     		uxtb	r3, r3
 1217 05e8 002B     		cmp	r3, #0
 1218 05ea 03D0     		beq	.L55
 394:build/openmote-cc2538_armgcc/openstack/02b-MAChigh/sixtop.c ****             	sixtop_vars.six2six_state = SIX_STATE_WAIT_ADDREQUEST_SENDDONE;
 1219              		.loc 1 394 0
 1220 05ec 184B     		ldr	r3, .L62
 1221 05ee 0122     		movs	r2, #1
 1222 05f0 9A73     		strb	r2, [r3, #14]
 395:build/openmote-cc2538_armgcc/openstack/02b-MAChigh/sixtop.c ****             	//printf("I am node %d, enqueued ADD to %d, state SIX_STATE_WAIT_ADDREQUEST_SENDDONE %
 396:build/openmote-cc2538_armgcc/openstack/02b-MAChigh/sixtop.c ****             }else{
 397:build/openmote-cc2538_armgcc/openstack/02b-MAChigh/sixtop.c ****             	sixtop_vars.six2six_state = SIX_STATE_IDLE;
 398:build/openmote-cc2538_armgcc/openstack/02b-MAChigh/sixtop.c ****             	//printf("I am node %d, enqueued FAKE ADD to %d, comming back state SIX_STATE_IDLE %d 
 399:build/openmote-cc2538_armgcc/openstack/02b-MAChigh/sixtop.c **** 
 400:build/openmote-cc2538_armgcc/openstack/02b-MAChigh/sixtop.c ****             }
 401:build/openmote-cc2538_armgcc/openstack/02b-MAChigh/sixtop.c **** 
 402:build/openmote-cc2538_armgcc/openstack/02b-MAChigh/sixtop.c ****             break;
 1223              		.loc 1 402 0
 1224 05f2 27E0     		b	.L59
 1225              	.L55:
 397:build/openmote-cc2538_armgcc/openstack/02b-MAChigh/sixtop.c ****             	//printf("I am node %d, enqueued FAKE ADD to %d, comming back state SIX_STATE_IDLE %d 
 1226              		.loc 1 397 0
 1227 05f4 164B     		ldr	r3, .L62
 1228 05f6 0022     		movs	r2, #0
 1229 05f8 9A73     		strb	r2, [r3, #14]
 1230              		.loc 1 402 0
 1231 05fa 23E0     		b	.L59
 1232              	.L50:
 403:build/openmote-cc2538_armgcc/openstack/02b-MAChigh/sixtop.c ****         case IANA_6TOP_CMD_DELETE:
 404:build/openmote-cc2538_armgcc/openstack/02b-MAChigh/sixtop.c ****             sixtop_vars.six2six_state = SIX_STATE_WAIT_DELETEREQUEST_SENDDONE;
 1233              		.loc 1 404 0
 1234 05fc 144B     		ldr	r3, .L62
 1235 05fe 0222     		movs	r2, #2
 1236 0600 9A73     		strb	r2, [r3, #14]
 405:build/openmote-cc2538_armgcc/openstack/02b-MAChigh/sixtop.c ****             break;
 1237              		.loc 1 405 0
 1238 0602 1FE0     		b	.L59
 1239              	.L51:
 406:build/openmote-cc2538_armgcc/openstack/02b-MAChigh/sixtop.c ****         case IANA_6TOP_CMD_RELOCATE:
 407:build/openmote-cc2538_armgcc/openstack/02b-MAChigh/sixtop.c ****             sixtop_vars.six2six_state = SIX_STATE_WAIT_RELOCATEREQUEST_SENDDONE;
 1240              		.loc 1 407 0
 1241 0604 124B     		ldr	r3, .L62
 1242 0606 0322     		movs	r2, #3
 1243 0608 9A73     		strb	r2, [r3, #14]
 408:build/openmote-cc2538_armgcc/openstack/02b-MAChigh/sixtop.c ****             break;
 1244              		.loc 1 408 0
 1245 060a 1BE0     		b	.L59
 1246              	.L52:
 409:build/openmote-cc2538_armgcc/openstack/02b-MAChigh/sixtop.c ****         case IANA_6TOP_CMD_COUNT:
 410:build/openmote-cc2538_armgcc/openstack/02b-MAChigh/sixtop.c ****             sixtop_vars.six2six_state = SIX_STATE_WAIT_COUNTREQUEST_SENDDONE;
 1247              		.loc 1 410 0
 1248 060c 104B     		ldr	r3, .L62
 1249 060e 0422     		movs	r2, #4
 1250 0610 9A73     		strb	r2, [r3, #14]
 411:build/openmote-cc2538_armgcc/openstack/02b-MAChigh/sixtop.c ****             break;
 1251              		.loc 1 411 0
 1252 0612 17E0     		b	.L59
 1253              	.L53:
 412:build/openmote-cc2538_armgcc/openstack/02b-MAChigh/sixtop.c ****         case IANA_6TOP_CMD_LIST:
 413:build/openmote-cc2538_armgcc/openstack/02b-MAChigh/sixtop.c ****             sixtop_vars.six2six_state = SIX_STATE_WAIT_LISTREQUEST_SENDDONE;
 1254              		.loc 1 413 0
 1255 0614 0E4B     		ldr	r3, .L62
 1256 0616 0522     		movs	r2, #5
 1257 0618 9A73     		strb	r2, [r3, #14]
 414:build/openmote-cc2538_armgcc/openstack/02b-MAChigh/sixtop.c ****             break;
 1258              		.loc 1 414 0
 1259 061a 13E0     		b	.L59
 1260              	.L54:
 415:build/openmote-cc2538_armgcc/openstack/02b-MAChigh/sixtop.c ****         case IANA_6TOP_CMD_CLEAR:
 416:build/openmote-cc2538_armgcc/openstack/02b-MAChigh/sixtop.c ****             if (pkt->isSixtopFake==FALSE){
 1261              		.loc 1 416 0
 1262 061c 3B69     		ldr	r3, [r7, #16]
 1263 061e 93F84231 		ldrb	r3, [r3, #322]	@ zero_extendqisi2
 1264 0622 83F00103 		eor	r3, r3, #1
 1265 0626 DBB2     		uxtb	r3, r3
 1266 0628 002B     		cmp	r3, #0
 1267 062a 03D0     		beq	.L57
 417:build/openmote-cc2538_armgcc/openstack/02b-MAChigh/sixtop.c ****             	sixtop_vars.six2six_state = SIX_STATE_WAIT_CLEARREQUEST_SENDDONE;
 1268              		.loc 1 417 0
 1269 062c 084B     		ldr	r3, .L62
 1270 062e 0622     		movs	r2, #6
 1271 0630 9A73     		strb	r2, [r3, #14]
 418:build/openmote-cc2538_armgcc/openstack/02b-MAChigh/sixtop.c ****             	//printf("I am node %d, enqueued CLEAR to %d, state SIX_STATE_WAIT_ADDREQUEST_SENDDONE
 419:build/openmote-cc2538_armgcc/openstack/02b-MAChigh/sixtop.c ****             }else{
 420:build/openmote-cc2538_armgcc/openstack/02b-MAChigh/sixtop.c ****             	sixtop_vars.six2six_state = SIX_STATE_IDLE;
 421:build/openmote-cc2538_armgcc/openstack/02b-MAChigh/sixtop.c ****             	//printf("I am node %d, enqueued FAKE CLEAR to %d, comming back state SIX_STATE_IDLE %
 422:build/openmote-cc2538_armgcc/openstack/02b-MAChigh/sixtop.c **** 
 423:build/openmote-cc2538_armgcc/openstack/02b-MAChigh/sixtop.c ****             }
 424:build/openmote-cc2538_armgcc/openstack/02b-MAChigh/sixtop.c ****             //sixtop_vars.six2six_state = SIX_STATE_WAIT_CLEARREQUEST_SENDDONE;
 425:build/openmote-cc2538_armgcc/openstack/02b-MAChigh/sixtop.c ****             break;
 1272              		.loc 1 425 0
 1273 0632 07E0     		b	.L59
 1274              	.L57:
 420:build/openmote-cc2538_armgcc/openstack/02b-MAChigh/sixtop.c ****             	//printf("I am node %d, enqueued FAKE CLEAR to %d, comming back state SIX_STATE_IDLE %
 1275              		.loc 1 420 0
 1276 0634 064B     		ldr	r3, .L62
 1277 0636 0022     		movs	r2, #0
 1278 0638 9A73     		strb	r2, [r3, #14]
 1279              		.loc 1 425 0
 1280 063a 00BF     		nop
 1281 063c 02E0     		b	.L59
 1282              	.L46:
 426:build/openmote-cc2538_armgcc/openstack/02b-MAChigh/sixtop.c ****         }
 427:build/openmote-cc2538_armgcc/openstack/02b-MAChigh/sixtop.c ****     } else {
 428:build/openmote-cc2538_armgcc/openstack/02b-MAChigh/sixtop.c ****         openqueue_freePacketBuffer(pkt);
 1283              		.loc 1 428 0
 1284 063e 3869     		ldr	r0, [r7, #16]
 1285 0640 FFF7FEFF 		bl	openqueue_freePacketBuffer
 1286              	.L59:
 429:build/openmote-cc2538_armgcc/openstack/02b-MAChigh/sixtop.c ****     }
 430:build/openmote-cc2538_armgcc/openstack/02b-MAChigh/sixtop.c ****     return outcome;
 1287              		.loc 1 430 0
 1288 0644 7B7B     		ldrb	r3, [r7, #13]	@ zero_extendqisi2
 1289              	.L21:
 431:build/openmote-cc2538_armgcc/openstack/02b-MAChigh/sixtop.c **** }
 1290              		.loc 1 431 0
 1291 0646 1846     		mov	r0, r3
 1292 0648 1837     		adds	r7, r7, #24
 1293              		.cfi_def_cfa_offset 16
 1294 064a BD46     		mov	sp, r7
 1295              		.cfi_def_cfa_register 13
 1296              		@ sp needed
 1297 064c B0BD     		pop	{r4, r5, r7, pc}
 1298              	.L63:
 1299 064e 00BF     		.align	2
 1300              	.L62:
 1301 0650 00000000 		.word	sixtop_vars
 1302              		.cfi_endproc
 1303              	.LFE4:
 1305              		.align	2
 1306              		.global	sixtop_send
 1307              		.thumb
 1308              		.thumb_func
 1310              	sixtop_send:
 1311              	.LFB5:
 432:build/openmote-cc2538_armgcc/openstack/02b-MAChigh/sixtop.c **** 
 433:build/openmote-cc2538_armgcc/openstack/02b-MAChigh/sixtop.c **** //======= from upper layer
 434:build/openmote-cc2538_armgcc/openstack/02b-MAChigh/sixtop.c **** 
 435:build/openmote-cc2538_armgcc/openstack/02b-MAChigh/sixtop.c **** owerror_t sixtop_send(OpenQueueEntry_t *msg) {
 1312              		.loc 1 435 0
 1313              		.cfi_startproc
 1314              		@ args = 0, pretend = 0, frame = 32
 1315              		@ frame_needed = 1, uses_anonymous_args = 0
 1316 0654 80B5     		push	{r7, lr}
 1317              		.cfi_def_cfa_offset 8
 1318              		.cfi_offset 7, -8
 1319              		.cfi_offset 14, -4
 1320 0656 88B0     		sub	sp, sp, #32
 1321              		.cfi_def_cfa_offset 40
 1322 0658 00AF     		add	r7, sp, #0
 1323              		.cfi_def_cfa_register 7
 1324 065a 7860     		str	r0, [r7, #4]
 436:build/openmote-cc2538_armgcc/openstack/02b-MAChigh/sixtop.c **** 
 437:build/openmote-cc2538_armgcc/openstack/02b-MAChigh/sixtop.c ****     open_addr_t addressToWrite;
 438:build/openmote-cc2538_armgcc/openstack/02b-MAChigh/sixtop.c ****     
 439:build/openmote-cc2538_armgcc/openstack/02b-MAChigh/sixtop.c ****     if (
 440:build/openmote-cc2538_armgcc/openstack/02b-MAChigh/sixtop.c ****         idmanager_getIsDAGroot() == FALSE               &&
 1325              		.loc 1 440 0
 1326 065c FFF7FEFF 		bl	idmanager_getIsDAGroot
 1327 0660 0346     		mov	r3, r0
 1328 0662 83F00103 		eor	r3, r3, #1
 1329 0666 DBB2     		uxtb	r3, r3
 439:build/openmote-cc2538_armgcc/openstack/02b-MAChigh/sixtop.c ****         idmanager_getIsDAGroot() == FALSE               &&
 1330              		.loc 1 439 0
 1331 0668 002B     		cmp	r3, #0
 1332 066a 27D0     		beq	.L65
 441:build/openmote-cc2538_armgcc/openstack/02b-MAChigh/sixtop.c ****         (
 442:build/openmote-cc2538_armgcc/openstack/02b-MAChigh/sixtop.c ****             msg->creator != COMPONENT_SIXTOP_RES        &&
 1333              		.loc 1 442 0
 1334 066c 7B68     		ldr	r3, [r7, #4]
 1335 066e 1B78     		ldrb	r3, [r3]	@ zero_extendqisi2
 440:build/openmote-cc2538_armgcc/openstack/02b-MAChigh/sixtop.c ****         (
 1336              		.loc 1 440 0
 1337 0670 0F2B     		cmp	r3, #15
 1338 0672 23D0     		beq	.L65
 443:build/openmote-cc2538_armgcc/openstack/02b-MAChigh/sixtop.c ****             msg->creator != COMPONENT_CJOIN             &&
 1339              		.loc 1 443 0
 1340 0674 7B68     		ldr	r3, [r7, #4]
 1341 0676 1B78     		ldrb	r3, [r3]	@ zero_extendqisi2
 442:build/openmote-cc2538_armgcc/openstack/02b-MAChigh/sixtop.c ****             msg->creator != COMPONENT_CJOIN             &&
 1342              		.loc 1 442 0
 1343 0678 2B2B     		cmp	r3, #43
 1344 067a 1FD0     		beq	.L65
 444:build/openmote-cc2538_armgcc/openstack/02b-MAChigh/sixtop.c ****             (
 445:build/openmote-cc2538_armgcc/openstack/02b-MAChigh/sixtop.c ****                 icmpv6rpl_getPreferredParentEui64(&addressToWrite) == FALSE      ||
 1345              		.loc 1 445 0
 1346 067c 07F10C03 		add	r3, r7, #12
 1347 0680 1846     		mov	r0, r3
 1348 0682 FFF7FEFF 		bl	icmpv6rpl_getPreferredParentEui64
 1349 0686 0346     		mov	r3, r0
 1350 0688 83F00103 		eor	r3, r3, #1
 1351 068c DBB2     		uxtb	r3, r3
 443:build/openmote-cc2538_armgcc/openstack/02b-MAChigh/sixtop.c ****             (
 1352              		.loc 1 443 0
 1353 068e 002B     		cmp	r3, #0
 1354 0690 12D1     		bne	.L66
 446:build/openmote-cc2538_armgcc/openstack/02b-MAChigh/sixtop.c ****                 (
 447:build/openmote-cc2538_armgcc/openstack/02b-MAChigh/sixtop.c ****                     icmpv6rpl_getPreferredParentEui64(&addressToWrite)           &&
 1355              		.loc 1 447 0
 1356 0692 07F10C03 		add	r3, r7, #12
 1357 0696 1846     		mov	r0, r3
 1358 0698 FFF7FEFF 		bl	icmpv6rpl_getPreferredParentEui64
 1359 069c 0346     		mov	r3, r0
 445:build/openmote-cc2538_armgcc/openstack/02b-MAChigh/sixtop.c ****                 (
 1360              		.loc 1 445 0
 1361 069e 002B     		cmp	r3, #0
 1362 06a0 0CD0     		beq	.L65
 448:build/openmote-cc2538_armgcc/openstack/02b-MAChigh/sixtop.c ****                     schedule_hasDedicatedCellToNeighbor(&addressToWrite)== FALSE
 1363              		.loc 1 448 0
 1364 06a2 07F10C03 		add	r3, r7, #12
 1365 06a6 1846     		mov	r0, r3
 1366 06a8 FFF7FEFF 		bl	schedule_hasDedicatedCellToNeighbor
 1367 06ac 0346     		mov	r3, r0
 1368 06ae 83F00103 		eor	r3, r3, #1
 1369 06b2 DBB2     		uxtb	r3, r3
 447:build/openmote-cc2538_armgcc/openstack/02b-MAChigh/sixtop.c ****                     schedule_hasDedicatedCellToNeighbor(&addressToWrite)== FALSE
 1370              		.loc 1 447 0
 1371 06b4 002B     		cmp	r3, #0
 1372 06b6 01D0     		beq	.L65
 1373              	.L66:
 449:build/openmote-cc2538_armgcc/openstack/02b-MAChigh/sixtop.c ****                 )
 450:build/openmote-cc2538_armgcc/openstack/02b-MAChigh/sixtop.c ****             )
 451:build/openmote-cc2538_armgcc/openstack/02b-MAChigh/sixtop.c ****         )
 452:build/openmote-cc2538_armgcc/openstack/02b-MAChigh/sixtop.c ****     ){
 453:build/openmote-cc2538_armgcc/openstack/02b-MAChigh/sixtop.c ****         return E_FAIL;
 1374              		.loc 1 453 0
 1375 06b8 0123     		movs	r3, #1
 1376 06ba 2CE0     		b	.L69
 1377              	.L65:
 454:build/openmote-cc2538_armgcc/openstack/02b-MAChigh/sixtop.c ****     }
 455:build/openmote-cc2538_armgcc/openstack/02b-MAChigh/sixtop.c **** 
 456:build/openmote-cc2538_armgcc/openstack/02b-MAChigh/sixtop.c ****     // set metadata
 457:build/openmote-cc2538_armgcc/openstack/02b-MAChigh/sixtop.c ****     msg->owner        = COMPONENT_SIXTOP;
 1378              		.loc 1 457 0
 1379 06bc 7B68     		ldr	r3, [r7, #4]
 1380 06be 0C22     		movs	r2, #12
 1381 06c0 5A70     		strb	r2, [r3, #1]
 458:build/openmote-cc2538_armgcc/openstack/02b-MAChigh/sixtop.c ****     msg->l2_frameType = IEEE154_TYPE_DATA;
 1382              		.loc 1 458 0
 1383 06c2 7B68     		ldr	r3, [r7, #4]
 1384 06c4 0122     		movs	r2, #1
 1385 06c6 83F84D20 		strb	r2, [r3, #77]
 459:build/openmote-cc2538_armgcc/openstack/02b-MAChigh/sixtop.c **** 
 460:build/openmote-cc2538_armgcc/openstack/02b-MAChigh/sixtop.c ****     // set l2-security attributes
 461:build/openmote-cc2538_armgcc/openstack/02b-MAChigh/sixtop.c ****     msg->l2_securityLevel   = IEEE802154_security_getSecurityLevel(msg);
 1386              		.loc 1 461 0
 1387 06ca 7868     		ldr	r0, [r7, #4]
 1388 06cc FFF7FEFF 		bl	IEEE802154_security_getSecurityLevel
 1389 06d0 0346     		mov	r3, r0
 1390 06d2 1A46     		mov	r2, r3
 1391 06d4 7B68     		ldr	r3, [r7, #4]
 1392 06d6 83F8A020 		strb	r2, [r3, #160]
 462:build/openmote-cc2538_armgcc/openstack/02b-MAChigh/sixtop.c ****     msg->l2_keyIdMode       = IEEE802154_SECURITY_KEYIDMODE; 
 1393              		.loc 1 462 0
 1394 06da 7B68     		ldr	r3, [r7, #4]
 1395 06dc 0022     		movs	r2, #0
 1396 06de 83F8A120 		strb	r2, [r3, #161]
 463:build/openmote-cc2538_armgcc/openstack/02b-MAChigh/sixtop.c ****     msg->l2_keyIndex        = IEEE802154_security_getDataKeyIndex();
 1397              		.loc 1 463 0
 1398 06e2 FFF7FEFF 		bl	IEEE802154_security_getDataKeyIndex
 1399 06e6 0346     		mov	r3, r0
 1400 06e8 1A46     		mov	r2, r3
 1401 06ea 7B68     		ldr	r3, [r7, #4]
 1402 06ec 83F8A220 		strb	r2, [r3, #162]
 464:build/openmote-cc2538_armgcc/openstack/02b-MAChigh/sixtop.c **** 
 465:build/openmote-cc2538_armgcc/openstack/02b-MAChigh/sixtop.c ****     if (msg->l2_payloadIEpresent == FALSE) {
 1403              		.loc 1 465 0
 1404 06f0 7B68     		ldr	r3, [r7, #4]
 1405 06f2 93F89A30 		ldrb	r3, [r3, #154]	@ zero_extendqisi2
 1406 06f6 83F00103 		eor	r3, r3, #1
 1407 06fa DBB2     		uxtb	r3, r3
 1408 06fc 002B     		cmp	r3, #0
 1409 06fe 05D0     		beq	.L68
 466:build/openmote-cc2538_armgcc/openstack/02b-MAChigh/sixtop.c ****         return sixtop_send_internal(
 1410              		.loc 1 466 0
 1411 0700 0021     		movs	r1, #0
 1412 0702 7868     		ldr	r0, [r7, #4]
 1413 0704 FFF7FEFF 		bl	sixtop_send_internal
 1414 0708 0346     		mov	r3, r0
 1415 070a 04E0     		b	.L69
 1416              	.L68:
 467:build/openmote-cc2538_armgcc/openstack/02b-MAChigh/sixtop.c ****             msg,
 468:build/openmote-cc2538_armgcc/openstack/02b-MAChigh/sixtop.c ****             FALSE
 469:build/openmote-cc2538_armgcc/openstack/02b-MAChigh/sixtop.c ****         );
 470:build/openmote-cc2538_armgcc/openstack/02b-MAChigh/sixtop.c ****     } else {
 471:build/openmote-cc2538_armgcc/openstack/02b-MAChigh/sixtop.c ****         return sixtop_send_internal(
 1417              		.loc 1 471 0
 1418 070c 0121     		movs	r1, #1
 1419 070e 7868     		ldr	r0, [r7, #4]
 1420 0710 FFF7FEFF 		bl	sixtop_send_internal
 1421 0714 0346     		mov	r3, r0
 1422              	.L69:
 472:build/openmote-cc2538_armgcc/openstack/02b-MAChigh/sixtop.c ****             msg,
 473:build/openmote-cc2538_armgcc/openstack/02b-MAChigh/sixtop.c ****             TRUE
 474:build/openmote-cc2538_armgcc/openstack/02b-MAChigh/sixtop.c ****         );
 475:build/openmote-cc2538_armgcc/openstack/02b-MAChigh/sixtop.c ****     }
 476:build/openmote-cc2538_armgcc/openstack/02b-MAChigh/sixtop.c **** }
 1423              		.loc 1 476 0 discriminator 1
 1424 0716 1846     		mov	r0, r3
 1425 0718 2037     		adds	r7, r7, #32
 1426              		.cfi_def_cfa_offset 8
 1427 071a BD46     		mov	sp, r7
 1428              		.cfi_def_cfa_register 13
 1429              		@ sp needed
 1430 071c 80BD     		pop	{r7, pc}
 1431              		.cfi_endproc
 1432              	.LFE5:
 1434 071e 00BF     		.align	2
 1435              		.global	task_sixtopNotifSendDone
 1436              		.thumb
 1437              		.thumb_func
 1439              	task_sixtopNotifSendDone:
 1440              	.LFB6:
 477:build/openmote-cc2538_armgcc/openstack/02b-MAChigh/sixtop.c **** 
 478:build/openmote-cc2538_armgcc/openstack/02b-MAChigh/sixtop.c **** //======= from lower layer
 479:build/openmote-cc2538_armgcc/openstack/02b-MAChigh/sixtop.c **** 
 480:build/openmote-cc2538_armgcc/openstack/02b-MAChigh/sixtop.c **** void task_sixtopNotifSendDone() {
 1441              		.loc 1 480 0
 1442              		.cfi_startproc
 1443              		@ args = 0, pretend = 0, frame = 8
 1444              		@ frame_needed = 1, uses_anonymous_args = 0
 1445 0720 80B5     		push	{r7, lr}
 1446              		.cfi_def_cfa_offset 8
 1447              		.cfi_offset 7, -8
 1448              		.cfi_offset 14, -4
 1449 0722 82B0     		sub	sp, sp, #8
 1450              		.cfi_def_cfa_offset 16
 1451 0724 00AF     		add	r7, sp, #0
 1452              		.cfi_def_cfa_register 7
 481:build/openmote-cc2538_armgcc/openstack/02b-MAChigh/sixtop.c ****     OpenQueueEntry_t* msg;
 482:build/openmote-cc2538_armgcc/openstack/02b-MAChigh/sixtop.c **** 
 483:build/openmote-cc2538_armgcc/openstack/02b-MAChigh/sixtop.c ****     //printf("I am node %d, Send DONE!\n",idmanager_getMyID(ADDR_64B)->addr_64b[7]);
 484:build/openmote-cc2538_armgcc/openstack/02b-MAChigh/sixtop.c **** 
 485:build/openmote-cc2538_armgcc/openstack/02b-MAChigh/sixtop.c ****     // get recently-sent packet from openqueue
 486:build/openmote-cc2538_armgcc/openstack/02b-MAChigh/sixtop.c ****     msg = openqueue_sixtopGetSentPacket();
 1453              		.loc 1 486 0
 1454 0726 FFF7FEFF 		bl	openqueue_sixtopGetSentPacket
 1455 072a 7860     		str	r0, [r7, #4]
 487:build/openmote-cc2538_armgcc/openstack/02b-MAChigh/sixtop.c ****     if (msg==NULL) {
 1456              		.loc 1 487 0
 1457 072c 7B68     		ldr	r3, [r7, #4]
 1458 072e 002B     		cmp	r3, #0
 1459 0730 06D1     		bne	.L71
 488:build/openmote-cc2538_armgcc/openstack/02b-MAChigh/sixtop.c ****         openserial_printCritical(
 1460              		.loc 1 488 0
 1461 0732 0023     		movs	r3, #0
 1462 0734 0022     		movs	r2, #0
 1463 0736 1521     		movs	r1, #21
 1464 0738 0C20     		movs	r0, #12
 1465 073a FFF7FEFF 		bl	openserial_printCritical
 489:build/openmote-cc2538_armgcc/openstack/02b-MAChigh/sixtop.c ****             COMPONENT_SIXTOP,
 490:build/openmote-cc2538_armgcc/openstack/02b-MAChigh/sixtop.c ****             ERR_NO_SENT_PACKET,
 491:build/openmote-cc2538_armgcc/openstack/02b-MAChigh/sixtop.c ****             (errorparameter_t)0,
 492:build/openmote-cc2538_armgcc/openstack/02b-MAChigh/sixtop.c ****             (errorparameter_t)0
 493:build/openmote-cc2538_armgcc/openstack/02b-MAChigh/sixtop.c ****         );
 494:build/openmote-cc2538_armgcc/openstack/02b-MAChigh/sixtop.c ****         return;
 1466              		.loc 1 494 0
 1467 073e 45E0     		b	.L70
 1468              	.L71:
 495:build/openmote-cc2538_armgcc/openstack/02b-MAChigh/sixtop.c ****     }
 496:build/openmote-cc2538_armgcc/openstack/02b-MAChigh/sixtop.c **** 
 497:build/openmote-cc2538_armgcc/openstack/02b-MAChigh/sixtop.c ****     // take ownership
 498:build/openmote-cc2538_armgcc/openstack/02b-MAChigh/sixtop.c ****     msg->owner = COMPONENT_SIXTOP;
 1469              		.loc 1 498 0
 1470 0740 7B68     		ldr	r3, [r7, #4]
 1471 0742 0C22     		movs	r2, #12
 1472 0744 5A70     		strb	r2, [r3, #1]
 499:build/openmote-cc2538_armgcc/openstack/02b-MAChigh/sixtop.c ****     
 500:build/openmote-cc2538_armgcc/openstack/02b-MAChigh/sixtop.c ****     // update neighbor statistics
 501:build/openmote-cc2538_armgcc/openstack/02b-MAChigh/sixtop.c ****     if (msg->l2_sendDoneError==E_SUCCESS) {
 1473              		.loc 1 501 0
 1474 0746 7B68     		ldr	r3, [r7, #4]
 1475 0748 93F83B30 		ldrb	r3, [r3, #59]	@ zero_extendqisi2
 1476 074c 002B     		cmp	r3, #0
 1477 074e 0BD1     		bne	.L73
 502:build/openmote-cc2538_armgcc/openstack/02b-MAChigh/sixtop.c ****         neighbors_indicateTx(
 1478              		.loc 1 502 0
 1479 0750 7B68     		ldr	r3, [r7, #4]
 1480 0752 03F13C00 		add	r0, r3, #60
 1481 0756 7B68     		ldr	r3, [r7, #4]
 1482 0758 93F85010 		ldrb	r1, [r3, #80]	@ zero_extendqisi2
 1483 075c 7B68     		ldr	r3, [r7, #4]
 1484 075e 5133     		adds	r3, r3, #81
 1485 0760 0122     		movs	r2, #1
 1486 0762 FFF7FEFF 		bl	neighbors_indicateTx
 1487 0766 0AE0     		b	.L74
 1488              	.L73:
 503:build/openmote-cc2538_armgcc/openstack/02b-MAChigh/sixtop.c ****             &(msg->l2_nextORpreviousHop),
 504:build/openmote-cc2538_armgcc/openstack/02b-MAChigh/sixtop.c ****             msg->l2_numTxAttempts,
 505:build/openmote-cc2538_armgcc/openstack/02b-MAChigh/sixtop.c ****             TRUE,
 506:build/openmote-cc2538_armgcc/openstack/02b-MAChigh/sixtop.c ****             &msg->l2_asn
 507:build/openmote-cc2538_armgcc/openstack/02b-MAChigh/sixtop.c ****         );
 508:build/openmote-cc2538_armgcc/openstack/02b-MAChigh/sixtop.c ****     } else {
 509:build/openmote-cc2538_armgcc/openstack/02b-MAChigh/sixtop.c ****         neighbors_indicateTx(
 1489              		.loc 1 509 0
 1490 0768 7B68     		ldr	r3, [r7, #4]
 1491 076a 03F13C00 		add	r0, r3, #60
 1492 076e 7B68     		ldr	r3, [r7, #4]
 1493 0770 93F85010 		ldrb	r1, [r3, #80]	@ zero_extendqisi2
 1494 0774 7B68     		ldr	r3, [r7, #4]
 1495 0776 5133     		adds	r3, r3, #81
 1496 0778 0022     		movs	r2, #0
 1497 077a FFF7FEFF 		bl	neighbors_indicateTx
 1498              	.L74:
 510:build/openmote-cc2538_armgcc/openstack/02b-MAChigh/sixtop.c ****              &(msg->l2_nextORpreviousHop),
 511:build/openmote-cc2538_armgcc/openstack/02b-MAChigh/sixtop.c ****              msg->l2_numTxAttempts,
 512:build/openmote-cc2538_armgcc/openstack/02b-MAChigh/sixtop.c ****              FALSE,
 513:build/openmote-cc2538_armgcc/openstack/02b-MAChigh/sixtop.c ****              &msg->l2_asn
 514:build/openmote-cc2538_armgcc/openstack/02b-MAChigh/sixtop.c ****         );
 515:build/openmote-cc2538_armgcc/openstack/02b-MAChigh/sixtop.c ****     }
 516:build/openmote-cc2538_armgcc/openstack/02b-MAChigh/sixtop.c ****     
 517:build/openmote-cc2538_armgcc/openstack/02b-MAChigh/sixtop.c ****     // send the packet to where it belongs
 518:build/openmote-cc2538_armgcc/openstack/02b-MAChigh/sixtop.c ****     switch (msg->creator) {
 1499              		.loc 1 518 0
 1500 077e 7B68     		ldr	r3, [r7, #4]
 1501 0780 1B78     		ldrb	r3, [r3]	@ zero_extendqisi2
 1502 0782 0C2B     		cmp	r3, #12
 1503 0784 02D0     		beq	.L76
 1504 0786 0F2B     		cmp	r3, #15
 1505 0788 10D0     		beq	.L77
 1506 078a 17E0     		b	.L80
 1507              	.L76:
 519:build/openmote-cc2538_armgcc/openstack/02b-MAChigh/sixtop.c ****         case COMPONENT_SIXTOP:
 520:build/openmote-cc2538_armgcc/openstack/02b-MAChigh/sixtop.c ****             if (msg->l2_frameType==IEEE154_TYPE_BEACON) {
 1508              		.loc 1 520 0
 1509 078c 7B68     		ldr	r3, [r7, #4]
 1510 078e 93F84D30 		ldrb	r3, [r3, #77]	@ zero_extendqisi2
 1511 0792 002B     		cmp	r3, #0
 1512 0794 03D1     		bne	.L78
 521:build/openmote-cc2538_armgcc/openstack/02b-MAChigh/sixtop.c ****                 // this is a EB
 522:build/openmote-cc2538_armgcc/openstack/02b-MAChigh/sixtop.c ****                 
 523:build/openmote-cc2538_armgcc/openstack/02b-MAChigh/sixtop.c ****                 // not busy sending EB anymore
 524:build/openmote-cc2538_armgcc/openstack/02b-MAChigh/sixtop.c ****                 sixtop_vars.busySendingEB = FALSE;
 1513              		.loc 1 524 0
 1514 0796 0F4B     		ldr	r3, .L81
 1515 0798 0022     		movs	r2, #0
 1516 079a DA70     		strb	r2, [r3, #3]
 1517 079c 02E0     		b	.L79
 1518              	.L78:
 525:build/openmote-cc2538_armgcc/openstack/02b-MAChigh/sixtop.c ****             } else {
 526:build/openmote-cc2538_armgcc/openstack/02b-MAChigh/sixtop.c ****                 // this is a KA
 527:build/openmote-cc2538_armgcc/openstack/02b-MAChigh/sixtop.c ****                 
 528:build/openmote-cc2538_armgcc/openstack/02b-MAChigh/sixtop.c ****                 // not busy sending KA anymore
 529:build/openmote-cc2538_armgcc/openstack/02b-MAChigh/sixtop.c ****                 sixtop_vars.busySendingKA = FALSE;
 1519              		.loc 1 529 0
 1520 079e 0D4B     		ldr	r3, .L81
 1521 07a0 0022     		movs	r2, #0
 1522 07a2 9A70     		strb	r2, [r3, #2]
 1523              	.L79:
 530:build/openmote-cc2538_armgcc/openstack/02b-MAChigh/sixtop.c ****             }
 531:build/openmote-cc2538_armgcc/openstack/02b-MAChigh/sixtop.c ****             // discard packets
 532:build/openmote-cc2538_armgcc/openstack/02b-MAChigh/sixtop.c ****             openqueue_freePacketBuffer(msg);
 1524              		.loc 1 532 0
 1525 07a4 7868     		ldr	r0, [r7, #4]
 1526 07a6 FFF7FEFF 		bl	openqueue_freePacketBuffer
 533:build/openmote-cc2538_armgcc/openstack/02b-MAChigh/sixtop.c ****             break;
 1527              		.loc 1 533 0
 1528 07aa 0FE0     		b	.L70
 1529              	.L77:
 534:build/openmote-cc2538_armgcc/openstack/02b-MAChigh/sixtop.c ****         case COMPONENT_SIXTOP_RES:
 535:build/openmote-cc2538_armgcc/openstack/02b-MAChigh/sixtop.c ****         	//printf("I am NODE %d, 6P packet send done accepted \n", idmanager_getMyID(ADDR_64B)->add
 536:build/openmote-cc2538_armgcc/openstack/02b-MAChigh/sixtop.c ****             sixtop_six2six_sendDone(msg,msg->l2_sendDoneError);
 1530              		.loc 1 536 0
 1531 07ac 7B68     		ldr	r3, [r7, #4]
 1532 07ae 93F83B30 		ldrb	r3, [r3, #59]	@ zero_extendqisi2
 1533 07b2 1946     		mov	r1, r3
 1534 07b4 7868     		ldr	r0, [r7, #4]
 1535 07b6 FFF7FEFF 		bl	sixtop_six2six_sendDone
 537:build/openmote-cc2538_armgcc/openstack/02b-MAChigh/sixtop.c ****             break;
 1536              		.loc 1 537 0
 1537 07ba 07E0     		b	.L70
 1538              	.L80:
 538:build/openmote-cc2538_armgcc/openstack/02b-MAChigh/sixtop.c ****         default:
 539:build/openmote-cc2538_armgcc/openstack/02b-MAChigh/sixtop.c ****             // send the rest up the stack
 540:build/openmote-cc2538_armgcc/openstack/02b-MAChigh/sixtop.c ****             iphc_sendDone(msg,msg->l2_sendDoneError);
 1539              		.loc 1 540 0
 1540 07bc 7B68     		ldr	r3, [r7, #4]
 1541 07be 93F83B30 		ldrb	r3, [r3, #59]	@ zero_extendqisi2
 1542 07c2 1946     		mov	r1, r3
 1543 07c4 7868     		ldr	r0, [r7, #4]
 1544 07c6 FFF7FEFF 		bl	iphc_sendDone
 541:build/openmote-cc2538_armgcc/openstack/02b-MAChigh/sixtop.c ****             break;
 1545              		.loc 1 541 0
 1546 07ca 00BF     		nop
 1547              	.L70:
 542:build/openmote-cc2538_armgcc/openstack/02b-MAChigh/sixtop.c ****     }
 543:build/openmote-cc2538_armgcc/openstack/02b-MAChigh/sixtop.c **** }
 1548              		.loc 1 543 0
 1549 07cc 0837     		adds	r7, r7, #8
 1550              		.cfi_def_cfa_offset 8
 1551 07ce BD46     		mov	sp, r7
 1552              		.cfi_def_cfa_register 13
 1553              		@ sp needed
 1554 07d0 80BD     		pop	{r7, pc}
 1555              	.L82:
 1556 07d2 00BF     		.align	2
 1557              	.L81:
 1558 07d4 00000000 		.word	sixtop_vars
 1559              		.cfi_endproc
 1560              	.LFE6:
 1562              		.align	2
 1563              		.global	task_sixtopNotifReceive
 1564              		.thumb
 1565              		.thumb_func
 1567              	task_sixtopNotifReceive:
 1568              	.LFB7:
 544:build/openmote-cc2538_armgcc/openstack/02b-MAChigh/sixtop.c **** 
 545:build/openmote-cc2538_armgcc/openstack/02b-MAChigh/sixtop.c **** void task_sixtopNotifReceive() {
 1569              		.loc 1 545 0
 1570              		.cfi_startproc
 1571              		@ args = 0, pretend = 0, frame = 8
 1572              		@ frame_needed = 1, uses_anonymous_args = 0
 1573 07d8 B0B5     		push	{r4, r5, r7, lr}
 1574              		.cfi_def_cfa_offset 16
 1575              		.cfi_offset 4, -16
 1576              		.cfi_offset 5, -12
 1577              		.cfi_offset 7, -8
 1578              		.cfi_offset 14, -4
 1579 07da 84B0     		sub	sp, sp, #16
 1580              		.cfi_def_cfa_offset 32
 1581 07dc 02AF     		add	r7, sp, #8
 1582              		.cfi_def_cfa 7, 24
 546:build/openmote-cc2538_armgcc/openstack/02b-MAChigh/sixtop.c ****     OpenQueueEntry_t* msg;
 547:build/openmote-cc2538_armgcc/openstack/02b-MAChigh/sixtop.c ****     uint16_t          lenIE;
 548:build/openmote-cc2538_armgcc/openstack/02b-MAChigh/sixtop.c ****     // get received packet from openqueue
 549:build/openmote-cc2538_armgcc/openstack/02b-MAChigh/sixtop.c ****     msg = openqueue_sixtopGetReceivedPacket();
 1583              		.loc 1 549 0
 1584 07de FFF7FEFF 		bl	openqueue_sixtopGetReceivedPacket
 1585 07e2 7860     		str	r0, [r7, #4]
 550:build/openmote-cc2538_armgcc/openstack/02b-MAChigh/sixtop.c ****     if (msg==NULL) {
 1586              		.loc 1 550 0
 1587 07e4 7B68     		ldr	r3, [r7, #4]
 1588 07e6 002B     		cmp	r3, #0
 1589 07e8 06D1     		bne	.L84
 551:build/openmote-cc2538_armgcc/openstack/02b-MAChigh/sixtop.c ****         openserial_printCritical(
 1590              		.loc 1 551 0
 1591 07ea 0023     		movs	r3, #0
 1592 07ec 0022     		movs	r2, #0
 1593 07ee 1621     		movs	r1, #22
 1594 07f0 0C20     		movs	r0, #12
 1595 07f2 FFF7FEFF 		bl	openserial_printCritical
 552:build/openmote-cc2538_armgcc/openstack/02b-MAChigh/sixtop.c ****             COMPONENT_SIXTOP,
 553:build/openmote-cc2538_armgcc/openstack/02b-MAChigh/sixtop.c ****             ERR_NO_RECEIVED_PACKET,
 554:build/openmote-cc2538_armgcc/openstack/02b-MAChigh/sixtop.c ****             (errorparameter_t)0,
 555:build/openmote-cc2538_armgcc/openstack/02b-MAChigh/sixtop.c ****             (errorparameter_t)0
 556:build/openmote-cc2538_armgcc/openstack/02b-MAChigh/sixtop.c ****         );
 557:build/openmote-cc2538_armgcc/openstack/02b-MAChigh/sixtop.c ****         return;
 1596              		.loc 1 557 0
 1597 07f6 6FE0     		b	.L83
 1598              	.L84:
 558:build/openmote-cc2538_armgcc/openstack/02b-MAChigh/sixtop.c ****     }
 559:build/openmote-cc2538_armgcc/openstack/02b-MAChigh/sixtop.c **** 
 560:build/openmote-cc2538_armgcc/openstack/02b-MAChigh/sixtop.c ****    
 561:build/openmote-cc2538_armgcc/openstack/02b-MAChigh/sixtop.c ****     // take ownership
 562:build/openmote-cc2538_armgcc/openstack/02b-MAChigh/sixtop.c ****     msg->owner = COMPONENT_SIXTOP;
 1599              		.loc 1 562 0
 1600 07f8 7B68     		ldr	r3, [r7, #4]
 1601 07fa 0C22     		movs	r2, #12
 1602 07fc 5A70     		strb	r2, [r3, #1]
 563:build/openmote-cc2538_armgcc/openstack/02b-MAChigh/sixtop.c ****    
 564:build/openmote-cc2538_armgcc/openstack/02b-MAChigh/sixtop.c ****     // update neighbor statistics
 565:build/openmote-cc2538_armgcc/openstack/02b-MAChigh/sixtop.c ****     neighbors_indicateRx(
 1603              		.loc 1 565 0
 1604 07fe 7B68     		ldr	r3, [r7, #4]
 1605 0800 03F13C00 		add	r0, r3, #60
 1606 0804 7B68     		ldr	r3, [r7, #4]
 1607 0806 93F9BD10 		ldrsb	r1, [r3, #189]
 1608 080a 7B68     		ldr	r3, [r7, #4]
 1609 080c 03F15104 		add	r4, r3, #81
 1610 0810 7B68     		ldr	r3, [r7, #4]
 1611 0812 93F89B50 		ldrb	r5, [r3, #155]	@ zero_extendqisi2
 1612 0816 7B68     		ldr	r3, [r7, #4]
 1613 0818 93F89830 		ldrb	r3, [r3, #152]	@ zero_extendqisi2
 566:build/openmote-cc2538_armgcc/openstack/02b-MAChigh/sixtop.c ****         &(msg->l2_nextORpreviousHop),
 567:build/openmote-cc2538_armgcc/openstack/02b-MAChigh/sixtop.c ****         msg->l1_rssi,
 568:build/openmote-cc2538_armgcc/openstack/02b-MAChigh/sixtop.c ****         &msg->l2_asn,
 569:build/openmote-cc2538_armgcc/openstack/02b-MAChigh/sixtop.c ****         msg->l2_joinPriorityPresent,
 570:build/openmote-cc2538_armgcc/openstack/02b-MAChigh/sixtop.c ****         msg->l2_joinPriority,
 571:build/openmote-cc2538_armgcc/openstack/02b-MAChigh/sixtop.c ****         msg->l2_securityLevel == IEEE154_ASH_SLF_TYPE_NOSEC ? TRUE : FALSE
 1614              		.loc 1 571 0
 1615 081c 7A68     		ldr	r2, [r7, #4]
 1616 081e 92F8A020 		ldrb	r2, [r2, #160]	@ zero_extendqisi2
 565:build/openmote-cc2538_armgcc/openstack/02b-MAChigh/sixtop.c ****         &(msg->l2_nextORpreviousHop),
 1617              		.loc 1 565 0
 1618 0822 002A     		cmp	r2, #0
 1619 0824 0CBF     		ite	eq
 1620 0826 0122     		moveq	r2, #1
 1621 0828 0022     		movne	r2, #0
 1622 082a D2B2     		uxtb	r2, r2
 1623 082c 0192     		str	r2, [sp, #4]
 1624 082e 0093     		str	r3, [sp]
 1625 0830 2B46     		mov	r3, r5
 1626 0832 2246     		mov	r2, r4
 1627 0834 FFF7FEFF 		bl	neighbors_indicateRx
 572:build/openmote-cc2538_armgcc/openstack/02b-MAChigh/sixtop.c ****     );
 573:build/openmote-cc2538_armgcc/openstack/02b-MAChigh/sixtop.c ****     
 574:build/openmote-cc2538_armgcc/openstack/02b-MAChigh/sixtop.c ****     // process the header IEs
 575:build/openmote-cc2538_armgcc/openstack/02b-MAChigh/sixtop.c ****     lenIE=0;
 1628              		.loc 1 575 0
 1629 0838 0023     		movs	r3, #0
 1630 083a 7B80     		strh	r3, [r7, #2]	@ movhi
 576:build/openmote-cc2538_armgcc/openstack/02b-MAChigh/sixtop.c ****     if(
 577:build/openmote-cc2538_armgcc/openstack/02b-MAChigh/sixtop.c ****         msg->l2_frameType              == IEEE154_TYPE_DATA  &&
 1631              		.loc 1 577 0
 1632 083c 7B68     		ldr	r3, [r7, #4]
 1633 083e 93F84D30 		ldrb	r3, [r3, #77]	@ zero_extendqisi2
 576:build/openmote-cc2538_armgcc/openstack/02b-MAChigh/sixtop.c ****     if(
 1634              		.loc 1 576 0
 1635 0842 012B     		cmp	r3, #1
 1636 0844 13D1     		bne	.L86
 578:build/openmote-cc2538_armgcc/openstack/02b-MAChigh/sixtop.c ****         msg->l2_payloadIEpresent       == TRUE               &&
 1637              		.loc 1 578 0
 1638 0846 7B68     		ldr	r3, [r7, #4]
 1639 0848 93F89A30 		ldrb	r3, [r3, #154]	@ zero_extendqisi2
 577:build/openmote-cc2538_armgcc/openstack/02b-MAChigh/sixtop.c ****         msg->l2_payloadIEpresent       == TRUE               &&
 1640              		.loc 1 577 0
 1641 084c 002B     		cmp	r3, #0
 1642 084e 0ED0     		beq	.L86
 579:build/openmote-cc2538_armgcc/openstack/02b-MAChigh/sixtop.c ****         sixtop_processIEs(msg, &lenIE) == FALSE
 1643              		.loc 1 579 0
 1644 0850 BB1C     		adds	r3, r7, #2
 1645 0852 1946     		mov	r1, r3
 1646 0854 7868     		ldr	r0, [r7, #4]
 1647 0856 FFF7FEFF 		bl	sixtop_processIEs
 1648 085a 0346     		mov	r3, r0
 1649 085c 83F00103 		eor	r3, r3, #1
 1650 0860 DBB2     		uxtb	r3, r3
 578:build/openmote-cc2538_armgcc/openstack/02b-MAChigh/sixtop.c ****         msg->l2_payloadIEpresent       == TRUE               &&
 1651              		.loc 1 578 0
 1652 0862 002B     		cmp	r3, #0
 1653 0864 03D0     		beq	.L86
 580:build/openmote-cc2538_armgcc/openstack/02b-MAChigh/sixtop.c ****     ) {
 581:build/openmote-cc2538_armgcc/openstack/02b-MAChigh/sixtop.c ****         // free the packet's RAM memory
 582:build/openmote-cc2538_armgcc/openstack/02b-MAChigh/sixtop.c ****         openqueue_freePacketBuffer(msg);
 1654              		.loc 1 582 0
 1655 0866 7868     		ldr	r0, [r7, #4]
 1656 0868 FFF7FEFF 		bl	openqueue_freePacketBuffer
 583:build/openmote-cc2538_armgcc/openstack/02b-MAChigh/sixtop.c ****         //log error
 584:build/openmote-cc2538_armgcc/openstack/02b-MAChigh/sixtop.c ****         return;
 1657              		.loc 1 584 0
 1658 086c 34E0     		b	.L83
 1659              	.L86:
 585:build/openmote-cc2538_armgcc/openstack/02b-MAChigh/sixtop.c ****     }
 586:build/openmote-cc2538_armgcc/openstack/02b-MAChigh/sixtop.c ****    
 587:build/openmote-cc2538_armgcc/openstack/02b-MAChigh/sixtop.c ****     // toss the header IEs
 588:build/openmote-cc2538_armgcc/openstack/02b-MAChigh/sixtop.c ****     packetfunctions_tossHeader(msg,lenIE);
 1660              		.loc 1 588 0
 1661 086e 7B88     		ldrh	r3, [r7, #2]
 1662 0870 DBB2     		uxtb	r3, r3
 1663 0872 1946     		mov	r1, r3
 1664 0874 7868     		ldr	r0, [r7, #4]
 1665 0876 FFF7FEFF 		bl	packetfunctions_tossHeader
 589:build/openmote-cc2538_armgcc/openstack/02b-MAChigh/sixtop.c ****    
 590:build/openmote-cc2538_armgcc/openstack/02b-MAChigh/sixtop.c ****     // reset it to avoid race conditions with this var.
 591:build/openmote-cc2538_armgcc/openstack/02b-MAChigh/sixtop.c ****     msg->l2_joinPriorityPresent = FALSE; 
 1666              		.loc 1 591 0
 1667 087a 7B68     		ldr	r3, [r7, #4]
 1668 087c 0022     		movs	r2, #0
 1669 087e 83F89B20 		strb	r2, [r3, #155]
 592:build/openmote-cc2538_armgcc/openstack/02b-MAChigh/sixtop.c ****    
 593:build/openmote-cc2538_armgcc/openstack/02b-MAChigh/sixtop.c ****     // send the packet up the stack, if it qualifies
 594:build/openmote-cc2538_armgcc/openstack/02b-MAChigh/sixtop.c ****     switch (msg->l2_frameType) {
 1670              		.loc 1 594 0
 1671 0882 7B68     		ldr	r3, [r7, #4]
 1672 0884 93F84D30 		ldrb	r3, [r3, #77]	@ zero_extendqisi2
 1673 0888 002B     		cmp	r3, #0
 1674 088a 18DB     		blt	.L87
 1675 088c 012B     		cmp	r3, #1
 1676 088e 01DD     		ble	.L88
 1677 0890 032B     		cmp	r3, #3
 1678 0892 14D1     		bne	.L87
 1679              	.L88:
 595:build/openmote-cc2538_armgcc/openstack/02b-MAChigh/sixtop.c ****     case IEEE154_TYPE_BEACON:
 596:build/openmote-cc2538_armgcc/openstack/02b-MAChigh/sixtop.c ****     case IEEE154_TYPE_DATA:
 597:build/openmote-cc2538_armgcc/openstack/02b-MAChigh/sixtop.c ****     case IEEE154_TYPE_CMD:
 598:build/openmote-cc2538_armgcc/openstack/02b-MAChigh/sixtop.c ****         if (msg->length>0) {
 1680              		.loc 1 598 0
 1681 0894 7B68     		ldr	r3, [r7, #4]
 1682 0896 1B7A     		ldrb	r3, [r3, #8]	@ zero_extendqisi2
 1683 0898 002B     		cmp	r3, #0
 1684 089a 0CD0     		beq	.L89
 599:build/openmote-cc2538_armgcc/openstack/02b-MAChigh/sixtop.c ****             if (msg->l2_frameType == IEEE154_TYPE_BEACON){
 1685              		.loc 1 599 0
 1686 089c 7B68     		ldr	r3, [r7, #4]
 1687 089e 93F84D30 		ldrb	r3, [r3, #77]	@ zero_extendqisi2
 1688 08a2 002B     		cmp	r3, #0
 1689 08a4 03D1     		bne	.L90
 600:build/openmote-cc2538_armgcc/openstack/02b-MAChigh/sixtop.c ****                 // I have one byte frequence field, no useful for upper layer
 601:build/openmote-cc2538_armgcc/openstack/02b-MAChigh/sixtop.c ****                 // free up the RAM
 602:build/openmote-cc2538_armgcc/openstack/02b-MAChigh/sixtop.c ****                 openqueue_freePacketBuffer(msg);
 1690              		.loc 1 602 0
 1691 08a6 7868     		ldr	r0, [r7, #4]
 1692 08a8 FFF7FEFF 		bl	openqueue_freePacketBuffer
 603:build/openmote-cc2538_armgcc/openstack/02b-MAChigh/sixtop.c ****                 break;
 1693              		.loc 1 603 0
 1694 08ac 14E0     		b	.L83
 1695              	.L90:
 604:build/openmote-cc2538_armgcc/openstack/02b-MAChigh/sixtop.c ****             }
 605:build/openmote-cc2538_armgcc/openstack/02b-MAChigh/sixtop.c ****             // send to upper layer
 606:build/openmote-cc2538_armgcc/openstack/02b-MAChigh/sixtop.c ****             iphc_receive(msg);
 1696              		.loc 1 606 0
 1697 08ae 7868     		ldr	r0, [r7, #4]
 1698 08b0 FFF7FEFF 		bl	iphc_receive
 607:build/openmote-cc2538_armgcc/openstack/02b-MAChigh/sixtop.c ****         } else {
 608:build/openmote-cc2538_armgcc/openstack/02b-MAChigh/sixtop.c ****             // free up the RAM
 609:build/openmote-cc2538_armgcc/openstack/02b-MAChigh/sixtop.c ****             openqueue_freePacketBuffer(msg);
 610:build/openmote-cc2538_armgcc/openstack/02b-MAChigh/sixtop.c ****         }
 611:build/openmote-cc2538_armgcc/openstack/02b-MAChigh/sixtop.c ****         break;
 1699              		.loc 1 611 0
 1700 08b4 10E0     		b	.L83
 1701              	.L89:
 609:build/openmote-cc2538_armgcc/openstack/02b-MAChigh/sixtop.c ****         }
 1702              		.loc 1 609 0
 1703 08b6 7868     		ldr	r0, [r7, #4]
 1704 08b8 FFF7FEFF 		bl	openqueue_freePacketBuffer
 1705              		.loc 1 611 0
 1706 08bc 0CE0     		b	.L83
 1707              	.L87:
 612:build/openmote-cc2538_armgcc/openstack/02b-MAChigh/sixtop.c ****     case IEEE154_TYPE_ACK:
 613:build/openmote-cc2538_armgcc/openstack/02b-MAChigh/sixtop.c ****     default:
 614:build/openmote-cc2538_armgcc/openstack/02b-MAChigh/sixtop.c ****         // free the packet's RAM memory
 615:build/openmote-cc2538_armgcc/openstack/02b-MAChigh/sixtop.c ****         openqueue_freePacketBuffer(msg);
 1708              		.loc 1 615 0
 1709 08be 7868     		ldr	r0, [r7, #4]
 1710 08c0 FFF7FEFF 		bl	openqueue_freePacketBuffer
 616:build/openmote-cc2538_armgcc/openstack/02b-MAChigh/sixtop.c ****         // log the error
 617:build/openmote-cc2538_armgcc/openstack/02b-MAChigh/sixtop.c ****         openserial_printError(
 618:build/openmote-cc2538_armgcc/openstack/02b-MAChigh/sixtop.c ****             COMPONENT_SIXTOP,
 619:build/openmote-cc2538_armgcc/openstack/02b-MAChigh/sixtop.c ****             ERR_MSG_UNKNOWN_TYPE,
 620:build/openmote-cc2538_armgcc/openstack/02b-MAChigh/sixtop.c ****             (errorparameter_t)msg->l2_frameType,
 1711              		.loc 1 620 0
 1712 08c4 7B68     		ldr	r3, [r7, #4]
 1713 08c6 93F84D30 		ldrb	r3, [r3, #77]	@ zero_extendqisi2
 617:build/openmote-cc2538_armgcc/openstack/02b-MAChigh/sixtop.c ****             COMPONENT_SIXTOP,
 1714              		.loc 1 617 0
 1715 08ca 9AB2     		uxth	r2, r3
 1716 08cc 0023     		movs	r3, #0
 1717 08ce 3021     		movs	r1, #48
 1718 08d0 0C20     		movs	r0, #12
 1719 08d2 FFF7FEFF 		bl	openserial_printError
 621:build/openmote-cc2538_armgcc/openstack/02b-MAChigh/sixtop.c ****             (errorparameter_t)0
 622:build/openmote-cc2538_armgcc/openstack/02b-MAChigh/sixtop.c ****         );
 623:build/openmote-cc2538_armgcc/openstack/02b-MAChigh/sixtop.c ****         break;
 1720              		.loc 1 623 0
 1721 08d6 00BF     		nop
 1722              	.L83:
 624:build/openmote-cc2538_armgcc/openstack/02b-MAChigh/sixtop.c ****     }
 625:build/openmote-cc2538_armgcc/openstack/02b-MAChigh/sixtop.c **** }
 1723              		.loc 1 625 0
 1724 08d8 0837     		adds	r7, r7, #8
 1725              		.cfi_def_cfa_offset 16
 1726 08da BD46     		mov	sp, r7
 1727              		.cfi_def_cfa_register 13
 1728              		@ sp needed
 1729 08dc B0BD     		pop	{r4, r5, r7, pc}
 1730              		.cfi_endproc
 1731              	.LFE7:
 1733 08de 00BF     		.align	2
 1734              		.global	debugPrint_myDAGrank
 1735              		.thumb
 1736              		.thumb_func
 1738              	debugPrint_myDAGrank:
 1739              	.LFB8:
 626:build/openmote-cc2538_armgcc/openstack/02b-MAChigh/sixtop.c **** 
 627:build/openmote-cc2538_armgcc/openstack/02b-MAChigh/sixtop.c **** //======= debugging
 628:build/openmote-cc2538_armgcc/openstack/02b-MAChigh/sixtop.c **** 
 629:build/openmote-cc2538_armgcc/openstack/02b-MAChigh/sixtop.c **** /**
 630:build/openmote-cc2538_armgcc/openstack/02b-MAChigh/sixtop.c **** \brief Trigger this module to print status information, over serial.
 631:build/openmote-cc2538_armgcc/openstack/02b-MAChigh/sixtop.c **** 
 632:build/openmote-cc2538_armgcc/openstack/02b-MAChigh/sixtop.c **** debugPrint_* functions are used by the openserial module to continuously print
 633:build/openmote-cc2538_armgcc/openstack/02b-MAChigh/sixtop.c **** status information about several modules in the OpenWSN stack.
 634:build/openmote-cc2538_armgcc/openstack/02b-MAChigh/sixtop.c **** 
 635:build/openmote-cc2538_armgcc/openstack/02b-MAChigh/sixtop.c **** \returns TRUE if this function printed something, FALSE otherwise.
 636:build/openmote-cc2538_armgcc/openstack/02b-MAChigh/sixtop.c **** */
 637:build/openmote-cc2538_armgcc/openstack/02b-MAChigh/sixtop.c **** bool debugPrint_myDAGrank() {
 1740              		.loc 1 637 0
 1741              		.cfi_startproc
 1742              		@ args = 0, pretend = 0, frame = 8
 1743              		@ frame_needed = 1, uses_anonymous_args = 0
 1744 08e0 80B5     		push	{r7, lr}
 1745              		.cfi_def_cfa_offset 8
 1746              		.cfi_offset 7, -8
 1747              		.cfi_offset 14, -4
 1748 08e2 82B0     		sub	sp, sp, #8
 1749              		.cfi_def_cfa_offset 16
 1750 08e4 00AF     		add	r7, sp, #0
 1751              		.cfi_def_cfa_register 7
 638:build/openmote-cc2538_armgcc/openstack/02b-MAChigh/sixtop.c ****     uint16_t output;
 639:build/openmote-cc2538_armgcc/openstack/02b-MAChigh/sixtop.c ****     
 640:build/openmote-cc2538_armgcc/openstack/02b-MAChigh/sixtop.c ****     output = 0;
 1752              		.loc 1 640 0
 1753 08e6 0023     		movs	r3, #0
 1754 08e8 FB80     		strh	r3, [r7, #6]	@ movhi
 641:build/openmote-cc2538_armgcc/openstack/02b-MAChigh/sixtop.c ****     output = icmpv6rpl_getMyDAGrank();
 1755              		.loc 1 641 0
 1756 08ea FFF7FEFF 		bl	icmpv6rpl_getMyDAGrank
 1757 08ee 0346     		mov	r3, r0
 1758 08f0 FB80     		strh	r3, [r7, #6]	@ movhi
 642:build/openmote-cc2538_armgcc/openstack/02b-MAChigh/sixtop.c ****     openserial_printStatus(STATUS_DAGRANK,(uint8_t*)&output,sizeof(uint16_t));
 1759              		.loc 1 642 0
 1760 08f2 BB1D     		adds	r3, r7, #6
 1761 08f4 0222     		movs	r2, #2
 1762 08f6 1946     		mov	r1, r3
 1763 08f8 0220     		movs	r0, #2
 1764 08fa FFF7FEFF 		bl	openserial_printStatus
 643:build/openmote-cc2538_armgcc/openstack/02b-MAChigh/sixtop.c ****     return TRUE;
 1765              		.loc 1 643 0
 1766 08fe 0123     		movs	r3, #1
 644:build/openmote-cc2538_armgcc/openstack/02b-MAChigh/sixtop.c **** }
 1767              		.loc 1 644 0
 1768 0900 1846     		mov	r0, r3
 1769 0902 0837     		adds	r7, r7, #8
 1770              		.cfi_def_cfa_offset 8
 1771 0904 BD46     		mov	sp, r7
 1772              		.cfi_def_cfa_register 13
 1773              		@ sp needed
 1774 0906 80BD     		pop	{r7, pc}
 1775              		.cfi_endproc
 1776              	.LFE8:
 1778              		.align	2
 1779              		.global	debugPrint_kaPeriod
 1780              		.thumb
 1781              		.thumb_func
 1783              	debugPrint_kaPeriod:
 1784              	.LFB9:
 645:build/openmote-cc2538_armgcc/openstack/02b-MAChigh/sixtop.c **** 
 646:build/openmote-cc2538_armgcc/openstack/02b-MAChigh/sixtop.c **** /**
 647:build/openmote-cc2538_armgcc/openstack/02b-MAChigh/sixtop.c **** \brief Trigger this module to print status information, over serial.
 648:build/openmote-cc2538_armgcc/openstack/02b-MAChigh/sixtop.c **** 
 649:build/openmote-cc2538_armgcc/openstack/02b-MAChigh/sixtop.c **** debugPrint_* functions are used by the openserial module to continuously print
 650:build/openmote-cc2538_armgcc/openstack/02b-MAChigh/sixtop.c **** status information about several modules in the OpenWSN stack.
 651:build/openmote-cc2538_armgcc/openstack/02b-MAChigh/sixtop.c **** 
 652:build/openmote-cc2538_armgcc/openstack/02b-MAChigh/sixtop.c **** \returns TRUE if this function printed something, FALSE otherwise.
 653:build/openmote-cc2538_armgcc/openstack/02b-MAChigh/sixtop.c **** */
 654:build/openmote-cc2538_armgcc/openstack/02b-MAChigh/sixtop.c **** bool debugPrint_kaPeriod() {
 1785              		.loc 1 654 0
 1786              		.cfi_startproc
 1787              		@ args = 0, pretend = 0, frame = 8
 1788              		@ frame_needed = 1, uses_anonymous_args = 0
 1789 0908 80B5     		push	{r7, lr}
 1790              		.cfi_def_cfa_offset 8
 1791              		.cfi_offset 7, -8
 1792              		.cfi_offset 14, -4
 1793 090a 82B0     		sub	sp, sp, #8
 1794              		.cfi_def_cfa_offset 16
 1795 090c 00AF     		add	r7, sp, #0
 1796              		.cfi_def_cfa_register 7
 655:build/openmote-cc2538_armgcc/openstack/02b-MAChigh/sixtop.c ****     uint16_t output;
 656:build/openmote-cc2538_armgcc/openstack/02b-MAChigh/sixtop.c ****     
 657:build/openmote-cc2538_armgcc/openstack/02b-MAChigh/sixtop.c ****     output = sixtop_vars.kaPeriod;
 1797              		.loc 1 657 0
 1798 090e 074B     		ldr	r3, .L98
 1799 0910 5B89     		ldrh	r3, [r3, #10]
 1800 0912 FB80     		strh	r3, [r7, #6]	@ movhi
 658:build/openmote-cc2538_armgcc/openstack/02b-MAChigh/sixtop.c ****     openserial_printStatus(
 1801              		.loc 1 658 0
 1802 0914 BB1D     		adds	r3, r7, #6
 1803 0916 0222     		movs	r2, #2
 1804 0918 1946     		mov	r1, r3
 1805 091a 0A20     		movs	r0, #10
 1806 091c FFF7FEFF 		bl	openserial_printStatus
 659:build/openmote-cc2538_armgcc/openstack/02b-MAChigh/sixtop.c ****         STATUS_KAPERIOD,
 660:build/openmote-cc2538_armgcc/openstack/02b-MAChigh/sixtop.c ****         (uint8_t*)&output,
 661:build/openmote-cc2538_armgcc/openstack/02b-MAChigh/sixtop.c ****         sizeof(output)
 662:build/openmote-cc2538_armgcc/openstack/02b-MAChigh/sixtop.c ****     );
 663:build/openmote-cc2538_armgcc/openstack/02b-MAChigh/sixtop.c ****     return TRUE;
 1807              		.loc 1 663 0
 1808 0920 0123     		movs	r3, #1
 664:build/openmote-cc2538_armgcc/openstack/02b-MAChigh/sixtop.c **** }
 1809              		.loc 1 664 0
 1810 0922 1846     		mov	r0, r3
 1811 0924 0837     		adds	r7, r7, #8
 1812              		.cfi_def_cfa_offset 8
 1813 0926 BD46     		mov	sp, r7
 1814              		.cfi_def_cfa_register 13
 1815              		@ sp needed
 1816 0928 80BD     		pop	{r7, pc}
 1817              	.L99:
 1818 092a 00BF     		.align	2
 1819              	.L98:
 1820 092c 00000000 		.word	sixtop_vars
 1821              		.cfi_endproc
 1822              	.LFE9:
 1824              		.align	2
 1825              		.global	sixtop_setIsResponseEnabled
 1826              		.thumb
 1827              		.thumb_func
 1829              	sixtop_setIsResponseEnabled:
 1830              	.LFB10:
 665:build/openmote-cc2538_armgcc/openstack/02b-MAChigh/sixtop.c **** 
 666:build/openmote-cc2538_armgcc/openstack/02b-MAChigh/sixtop.c **** void sixtop_setIsResponseEnabled(bool isEnabled){
 1831              		.loc 1 666 0
 1832              		.cfi_startproc
 1833              		@ args = 0, pretend = 0, frame = 8
 1834              		@ frame_needed = 1, uses_anonymous_args = 0
 1835              		@ link register save eliminated.
 1836 0930 80B4     		push	{r7}
 1837              		.cfi_def_cfa_offset 4
 1838              		.cfi_offset 7, -4
 1839 0932 83B0     		sub	sp, sp, #12
 1840              		.cfi_def_cfa_offset 16
 1841 0934 00AF     		add	r7, sp, #0
 1842              		.cfi_def_cfa_register 7
 1843 0936 0346     		mov	r3, r0
 1844 0938 FB71     		strb	r3, [r7, #7]
 667:build/openmote-cc2538_armgcc/openstack/02b-MAChigh/sixtop.c ****     sixtop_vars.isResponseEnabled = isEnabled;
 1845              		.loc 1 667 0
 1846 093a 044A     		ldr	r2, .L101
 1847 093c FB79     		ldrb	r3, [r7, #7]
 1848 093e 1374     		strb	r3, [r2, #16]
 668:build/openmote-cc2538_armgcc/openstack/02b-MAChigh/sixtop.c **** }
 1849              		.loc 1 668 0
 1850 0940 00BF     		nop
 1851 0942 0C37     		adds	r7, r7, #12
 1852              		.cfi_def_cfa_offset 4
 1853 0944 BD46     		mov	sp, r7
 1854              		.cfi_def_cfa_register 13
 1855              		@ sp needed
 1856 0946 80BC     		pop	{r7}
 1857              		.cfi_restore 7
 1858              		.cfi_def_cfa_offset 0
 1859 0948 7047     		bx	lr
 1860              	.L102:
 1861 094a 00BF     		.align	2
 1862              	.L101:
 1863 094c 00000000 		.word	sixtop_vars
 1864              		.cfi_endproc
 1865              	.LFE10:
 1867              		.align	2
 1868              		.global	sixtop_send_internal
 1869              		.thumb
 1870              		.thumb_func
 1872              	sixtop_send_internal:
 1873              	.LFB11:
 669:build/openmote-cc2538_armgcc/openstack/02b-MAChigh/sixtop.c **** 
 670:build/openmote-cc2538_armgcc/openstack/02b-MAChigh/sixtop.c **** //=========================== private =========================================
 671:build/openmote-cc2538_armgcc/openstack/02b-MAChigh/sixtop.c **** 
 672:build/openmote-cc2538_armgcc/openstack/02b-MAChigh/sixtop.c **** /**
 673:build/openmote-cc2538_armgcc/openstack/02b-MAChigh/sixtop.c **** \brief Transfer packet to MAC.
 674:build/openmote-cc2538_armgcc/openstack/02b-MAChigh/sixtop.c **** 
 675:build/openmote-cc2538_armgcc/openstack/02b-MAChigh/sixtop.c **** This function adds a IEEE802.15.4 header to the packet and leaves it the 
 676:build/openmote-cc2538_armgcc/openstack/02b-MAChigh/sixtop.c **** OpenQueue buffer. The very last thing it does is assigning this packet to the 
 677:build/openmote-cc2538_armgcc/openstack/02b-MAChigh/sixtop.c **** virtual component COMPONENT_SIXTOP_TO_IEEE802154E. Whenever it gets a change,
 678:build/openmote-cc2538_armgcc/openstack/02b-MAChigh/sixtop.c **** IEEE802154E will handle the packet.
 679:build/openmote-cc2538_armgcc/openstack/02b-MAChigh/sixtop.c **** 
 680:build/openmote-cc2538_armgcc/openstack/02b-MAChigh/sixtop.c **** \param[in] msg The packet to the transmitted
 681:build/openmote-cc2538_armgcc/openstack/02b-MAChigh/sixtop.c **** \param[in] payloadIEPresent Indicates wheter an Information Element is present in the
 682:build/openmote-cc2538_armgcc/openstack/02b-MAChigh/sixtop.c ****    packet.
 683:build/openmote-cc2538_armgcc/openstack/02b-MAChigh/sixtop.c **** 
 684:build/openmote-cc2538_armgcc/openstack/02b-MAChigh/sixtop.c **** \returns E_SUCCESS iff successful.
 685:build/openmote-cc2538_armgcc/openstack/02b-MAChigh/sixtop.c **** */
 686:build/openmote-cc2538_armgcc/openstack/02b-MAChigh/sixtop.c **** owerror_t sixtop_send_internal(
 687:build/openmote-cc2538_armgcc/openstack/02b-MAChigh/sixtop.c ****     OpenQueueEntry_t* msg, 
 688:build/openmote-cc2538_armgcc/openstack/02b-MAChigh/sixtop.c ****     bool    payloadIEPresent) {
 1874              		.loc 1 688 0
 1875              		.cfi_startproc
 1876              		@ args = 0, pretend = 0, frame = 8
 1877              		@ frame_needed = 1, uses_anonymous_args = 0
 1878 0950 80B5     		push	{r7, lr}
 1879              		.cfi_def_cfa_offset 8
 1880              		.cfi_offset 7, -8
 1881              		.cfi_offset 14, -4
 1882 0952 84B0     		sub	sp, sp, #16
 1883              		.cfi_def_cfa_offset 24
 1884 0954 02AF     		add	r7, sp, #8
 1885              		.cfi_def_cfa 7, 16
 1886 0956 7860     		str	r0, [r7, #4]
 1887 0958 0B46     		mov	r3, r1
 1888 095a FB70     		strb	r3, [r7, #3]
 689:build/openmote-cc2538_armgcc/openstack/02b-MAChigh/sixtop.c **** 
 690:build/openmote-cc2538_armgcc/openstack/02b-MAChigh/sixtop.c **** 
 691:build/openmote-cc2538_armgcc/openstack/02b-MAChigh/sixtop.c **** 	if (msg->isDioFake==TRUE){
 1889              		.loc 1 691 0
 1890 095c 7B68     		ldr	r3, [r7, #4]
 1891 095e 93F84331 		ldrb	r3, [r3, #323]	@ zero_extendqisi2
 1892 0962 002B     		cmp	r3, #0
 1893 0964 1AD0     		beq	.L104
 692:build/openmote-cc2538_armgcc/openstack/02b-MAChigh/sixtop.c **** 		if (idmanager_getIsDAGroot()==TRUE) {
 1894              		.loc 1 692 0
 1895 0966 FFF7FEFF 		bl	idmanager_getIsDAGroot
 1896 096a 0346     		mov	r3, r0
 1897 096c 002B     		cmp	r3, #0
 1898 096e 15D0     		beq	.L104
 693:build/openmote-cc2538_armgcc/openstack/02b-MAChigh/sixtop.c **** 			//msg->l2_nextORpreviousHop.addr_64b[7]=2;
 694:build/openmote-cc2538_armgcc/openstack/02b-MAChigh/sixtop.c **** 			//printf("I am whisperroot node %d, sending sixtop fake message \n", idmanager_getMyID(ADDR_64B)
 695:build/openmote-cc2538_armgcc/openstack/02b-MAChigh/sixtop.c **** //	      if (idmanager_getIsDAGroot()==TRUE) {
 696:build/openmote-cc2538_armgcc/openstack/02b-MAChigh/sixtop.c **** 			msg->l2_nextORpreviousHop.addr_64b[6]=0x0f;
 1899              		.loc 1 696 0
 1900 0970 7B68     		ldr	r3, [r7, #4]
 1901 0972 0F22     		movs	r2, #15
 1902 0974 83F84320 		strb	r2, [r3, #67]
 697:build/openmote-cc2538_armgcc/openstack/02b-MAChigh/sixtop.c **** 			if (whisper_getTargetParentOld()==0x55){
 1903              		.loc 1 697 0
 1904 0978 FFF7FEFF 		bl	whisper_getTargetParentOld
 1905 097c 0346     		mov	r3, r0
 1906 097e 552B     		cmp	r3, #85
 1907 0980 06D1     		bne	.L105
 698:build/openmote-cc2538_armgcc/openstack/02b-MAChigh/sixtop.c **** 				msg->l2_nextORpreviousHop.addr_64b[7]=0x61;
 1908              		.loc 1 698 0
 1909 0982 7B68     		ldr	r3, [r7, #4]
 1910 0984 6122     		movs	r2, #97
 1911 0986 83F84420 		strb	r2, [r3, #68]
 699:build/openmote-cc2538_armgcc/openstack/02b-MAChigh/sixtop.c **** 				leds_error_toggle();
 1912              		.loc 1 699 0
 1913 098a FFF7FEFF 		bl	leds_error_toggle
 1914 098e 05E0     		b	.L104
 1915              	.L105:
 700:build/openmote-cc2538_armgcc/openstack/02b-MAChigh/sixtop.c **** 			}else{
 701:build/openmote-cc2538_armgcc/openstack/02b-MAChigh/sixtop.c **** 				msg->l2_nextORpreviousHop.addr_64b[7]=0x2b;
 1916              		.loc 1 701 0
 1917 0990 7B68     		ldr	r3, [r7, #4]
 1918 0992 2B22     		movs	r2, #43
 1919 0994 83F84420 		strb	r2, [r3, #68]
 702:build/openmote-cc2538_armgcc/openstack/02b-MAChigh/sixtop.c **** 				leds_sync_toggle();
 1920              		.loc 1 702 0
 1921 0998 FFF7FEFF 		bl	leds_sync_toggle
 1922              	.L104:
 703:build/openmote-cc2538_armgcc/openstack/02b-MAChigh/sixtop.c **** 			}
 704:build/openmote-cc2538_armgcc/openstack/02b-MAChigh/sixtop.c **** 
 705:build/openmote-cc2538_armgcc/openstack/02b-MAChigh/sixtop.c **** 	      }
 706:build/openmote-cc2538_armgcc/openstack/02b-MAChigh/sixtop.c **** 	}
 707:build/openmote-cc2538_armgcc/openstack/02b-MAChigh/sixtop.c **** 
 708:build/openmote-cc2538_armgcc/openstack/02b-MAChigh/sixtop.c **** 
 709:build/openmote-cc2538_armgcc/openstack/02b-MAChigh/sixtop.c **** 
 710:build/openmote-cc2538_armgcc/openstack/02b-MAChigh/sixtop.c ****     // assign a number of retries
 711:build/openmote-cc2538_armgcc/openstack/02b-MAChigh/sixtop.c ****     if (
 712:build/openmote-cc2538_armgcc/openstack/02b-MAChigh/sixtop.c ****         packetfunctions_isBroadcastMulticast(&(msg->l2_nextORpreviousHop))==TRUE
 1923              		.loc 1 712 0
 1924 099c 7B68     		ldr	r3, [r7, #4]
 1925 099e 3C33     		adds	r3, r3, #60
 1926 09a0 1846     		mov	r0, r3
 1927 09a2 FFF7FEFF 		bl	packetfunctions_isBroadcastMulticast
 1928 09a6 0346     		mov	r3, r0
 711:build/openmote-cc2538_armgcc/openstack/02b-MAChigh/sixtop.c ****         packetfunctions_isBroadcastMulticast(&(msg->l2_nextORpreviousHop))==TRUE
 1929              		.loc 1 711 0
 1930 09a8 002B     		cmp	r3, #0
 1931 09aa 04D0     		beq	.L106
 713:build/openmote-cc2538_armgcc/openstack/02b-MAChigh/sixtop.c ****     ) {
 714:build/openmote-cc2538_armgcc/openstack/02b-MAChigh/sixtop.c ****         msg->l2_retriesLeft = 1;
 1932              		.loc 1 714 0
 1933 09ac 7B68     		ldr	r3, [r7, #4]
 1934 09ae 0122     		movs	r2, #1
 1935 09b0 83F84F20 		strb	r2, [r3, #79]
 1936 09b4 03E0     		b	.L107
 1937              	.L106:
 715:build/openmote-cc2538_armgcc/openstack/02b-MAChigh/sixtop.c ****     } else {
 716:build/openmote-cc2538_armgcc/openstack/02b-MAChigh/sixtop.c ****         msg->l2_retriesLeft = TXRETRIES + 1;
 1938              		.loc 1 716 0
 1939 09b6 7B68     		ldr	r3, [r7, #4]
 1940 09b8 0422     		movs	r2, #4
 1941 09ba 83F84F20 		strb	r2, [r3, #79]
 1942              	.L107:
 717:build/openmote-cc2538_armgcc/openstack/02b-MAChigh/sixtop.c ****     }
 718:build/openmote-cc2538_armgcc/openstack/02b-MAChigh/sixtop.c ****     // record this packet's dsn (for matching the ACK)
 719:build/openmote-cc2538_armgcc/openstack/02b-MAChigh/sixtop.c ****     msg->l2_dsn = sixtop_vars.dsn++;
 1943              		.loc 1 719 0
 1944 09be 134B     		ldr	r3, .L109
 1945 09c0 1B79     		ldrb	r3, [r3, #4]	@ zero_extendqisi2
 1946 09c2 5A1C     		adds	r2, r3, #1
 1947 09c4 D1B2     		uxtb	r1, r2
 1948 09c6 114A     		ldr	r2, .L109
 1949 09c8 1171     		strb	r1, [r2, #4]
 1950 09ca 7A68     		ldr	r2, [r7, #4]
 1951 09cc 82F84E30 		strb	r3, [r2, #78]
 720:build/openmote-cc2538_armgcc/openstack/02b-MAChigh/sixtop.c ****     // this is a new packet which I never attempted to send
 721:build/openmote-cc2538_armgcc/openstack/02b-MAChigh/sixtop.c ****     msg->l2_numTxAttempts = 0;
 1952              		.loc 1 721 0
 1953 09d0 7B68     		ldr	r3, [r7, #4]
 1954 09d2 0022     		movs	r2, #0
 1955 09d4 83F85020 		strb	r2, [r3, #80]
 722:build/openmote-cc2538_armgcc/openstack/02b-MAChigh/sixtop.c ****     // transmit with the default TX power
 723:build/openmote-cc2538_armgcc/openstack/02b-MAChigh/sixtop.c ****     msg->l1_txPower = TX_POWER;
 1956              		.loc 1 723 0
 1957 09d8 7B68     		ldr	r3, [r7, #4]
 1958 09da 1F22     		movs	r2, #31
 1959 09dc 83F8BC20 		strb	r2, [r3, #188]
 724:build/openmote-cc2538_armgcc/openstack/02b-MAChigh/sixtop.c ****     // add a IEEE802.15.4 header
 725:build/openmote-cc2538_armgcc/openstack/02b-MAChigh/sixtop.c ****     ieee802154_prependHeader(
 1960              		.loc 1 725 0
 1961 09e0 7B68     		ldr	r3, [r7, #4]
 1962 09e2 93F84D10 		ldrb	r1, [r3, #77]	@ zero_extendqisi2
 1963 09e6 7B68     		ldr	r3, [r7, #4]
 1964 09e8 93F84E00 		ldrb	r0, [r3, #78]	@ zero_extendqisi2
 1965 09ec 7B68     		ldr	r3, [r7, #4]
 1966 09ee 3C33     		adds	r3, r3, #60
 1967 09f0 FA78     		ldrb	r2, [r7, #3]	@ zero_extendqisi2
 1968 09f2 0093     		str	r3, [sp]
 1969 09f4 0346     		mov	r3, r0
 1970 09f6 7868     		ldr	r0, [r7, #4]
 1971 09f8 FFF7FEFF 		bl	ieee802154_prependHeader
 726:build/openmote-cc2538_armgcc/openstack/02b-MAChigh/sixtop.c ****         msg,
 727:build/openmote-cc2538_armgcc/openstack/02b-MAChigh/sixtop.c ****         msg->l2_frameType,
 728:build/openmote-cc2538_armgcc/openstack/02b-MAChigh/sixtop.c ****         payloadIEPresent,
 729:build/openmote-cc2538_armgcc/openstack/02b-MAChigh/sixtop.c ****         msg->l2_dsn,
 730:build/openmote-cc2538_armgcc/openstack/02b-MAChigh/sixtop.c ****         &(msg->l2_nextORpreviousHop)
 731:build/openmote-cc2538_armgcc/openstack/02b-MAChigh/sixtop.c ****     );
 732:build/openmote-cc2538_armgcc/openstack/02b-MAChigh/sixtop.c ****     // change owner to IEEE802154E fetches it from queue
 733:build/openmote-cc2538_armgcc/openstack/02b-MAChigh/sixtop.c ****     msg->owner  = COMPONENT_SIXTOP_TO_IEEE802154E;
 1972              		.loc 1 733 0
 1973 09fc 7B68     		ldr	r3, [r7, #4]
 1974 09fe 0A22     		movs	r2, #10
 1975 0a00 5A70     		strb	r2, [r3, #1]
 734:build/openmote-cc2538_armgcc/openstack/02b-MAChigh/sixtop.c ****     return E_SUCCESS;
 1976              		.loc 1 734 0
 1977 0a02 0023     		movs	r3, #0
 735:build/openmote-cc2538_armgcc/openstack/02b-MAChigh/sixtop.c **** }
 1978              		.loc 1 735 0
 1979 0a04 1846     		mov	r0, r3
 1980 0a06 0837     		adds	r7, r7, #8
 1981              		.cfi_def_cfa_offset 8
 1982 0a08 BD46     		mov	sp, r7
 1983              		.cfi_def_cfa_register 13
 1984              		@ sp needed
 1985 0a0a 80BD     		pop	{r7, pc}
 1986              	.L110:
 1987              		.align	2
 1988              	.L109:
 1989 0a0c 00000000 		.word	sixtop_vars
 1990              		.cfi_endproc
 1991              	.LFE11:
 1993              		.align	2
 1994              		.global	sixtop_sendingEb_timer_cb
 1995              		.thumb
 1996              		.thumb_func
 1998              	sixtop_sendingEb_timer_cb:
 1999              	.LFB12:
 736:build/openmote-cc2538_armgcc/openstack/02b-MAChigh/sixtop.c **** 
 737:build/openmote-cc2538_armgcc/openstack/02b-MAChigh/sixtop.c **** // timer interrupt callbacks
 738:build/openmote-cc2538_armgcc/openstack/02b-MAChigh/sixtop.c **** void sixtop_sendingEb_timer_cb(opentimers_id_t id){
 2000              		.loc 1 738 0
 2001              		.cfi_startproc
 2002              		@ args = 0, pretend = 0, frame = 8
 2003              		@ frame_needed = 1, uses_anonymous_args = 0
 2004 0a10 80B5     		push	{r7, lr}
 2005              		.cfi_def_cfa_offset 8
 2006              		.cfi_offset 7, -8
 2007              		.cfi_offset 14, -4
 2008 0a12 84B0     		sub	sp, sp, #16
 2009              		.cfi_def_cfa_offset 24
 2010 0a14 02AF     		add	r7, sp, #8
 2011              		.cfi_def_cfa 7, 16
 2012 0a16 0346     		mov	r3, r0
 2013 0a18 FB71     		strb	r3, [r7, #7]
 739:build/openmote-cc2538_armgcc/openstack/02b-MAChigh/sixtop.c ****     scheduler_push_task(timer_sixtop_sendEb_fired,TASKPRIO_SIXTOP);
 2014              		.loc 1 739 0
 2015 0a1a 0321     		movs	r1, #3
 2016 0a1c 0D48     		ldr	r0, .L112
 2017 0a1e FFF7FEFF 		bl	scheduler_push_task
 740:build/openmote-cc2538_armgcc/openstack/02b-MAChigh/sixtop.c ****     // update the period
 741:build/openmote-cc2538_armgcc/openstack/02b-MAChigh/sixtop.c ****     sixtop_vars.periodMaintenance  = 872 +(openrandom_get16b()&0xff);
 2018              		.loc 1 741 0
 2019 0a22 FFF7FEFF 		bl	openrandom_get16b
 2020 0a26 0346     		mov	r3, r0
 2021 0a28 DBB2     		uxtb	r3, r3
 2022 0a2a 9BB2     		uxth	r3, r3
 2023 0a2c 03F55A73 		add	r3, r3, #872
 2024 0a30 9AB2     		uxth	r2, r3
 2025 0a32 094B     		ldr	r3, .L112+4
 2026 0a34 1A80     		strh	r2, [r3]	@ movhi
 742:build/openmote-cc2538_armgcc/openstack/02b-MAChigh/sixtop.c ****     opentimers_scheduleIn(
 2027              		.loc 1 742 0
 2028 0a36 084B     		ldr	r3, .L112+4
 2029 0a38 D879     		ldrb	r0, [r3, #7]	@ zero_extendqisi2
 743:build/openmote-cc2538_armgcc/openstack/02b-MAChigh/sixtop.c ****         sixtop_vars.ebSendingTimerId,
 744:build/openmote-cc2538_armgcc/openstack/02b-MAChigh/sixtop.c ****         sixtop_vars.periodMaintenance,
 2030              		.loc 1 744 0
 2031 0a3a 074B     		ldr	r3, .L112+4
 2032 0a3c 1B88     		ldrh	r3, [r3]
 742:build/openmote-cc2538_armgcc/openstack/02b-MAChigh/sixtop.c ****     opentimers_scheduleIn(
 2033              		.loc 1 742 0
 2034 0a3e 1946     		mov	r1, r3
 2035 0a40 064B     		ldr	r3, .L112+8
 2036 0a42 0093     		str	r3, [sp]
 2037 0a44 0123     		movs	r3, #1
 2038 0a46 0022     		movs	r2, #0
 2039 0a48 FFF7FEFF 		bl	opentimers_scheduleIn
 745:build/openmote-cc2538_armgcc/openstack/02b-MAChigh/sixtop.c ****         TIME_MS,
 746:build/openmote-cc2538_armgcc/openstack/02b-MAChigh/sixtop.c ****         TIMER_ONESHOT,
 747:build/openmote-cc2538_armgcc/openstack/02b-MAChigh/sixtop.c ****         sixtop_sendingEb_timer_cb
 748:build/openmote-cc2538_armgcc/openstack/02b-MAChigh/sixtop.c ****     );
 749:build/openmote-cc2538_armgcc/openstack/02b-MAChigh/sixtop.c **** }
 2040              		.loc 1 749 0
 2041 0a4c 00BF     		nop
 2042 0a4e 0837     		adds	r7, r7, #8
 2043              		.cfi_def_cfa_offset 8
 2044 0a50 BD46     		mov	sp, r7
 2045              		.cfi_def_cfa_register 13
 2046              		@ sp needed
 2047 0a52 80BD     		pop	{r7, pc}
 2048              	.L113:
 2049              		.align	2
 2050              	.L112:
 2051 0a54 00000000 		.word	timer_sixtop_sendEb_fired
 2052 0a58 00000000 		.word	sixtop_vars
 2053 0a5c 00000000 		.word	sixtop_sendingEb_timer_cb
 2054              		.cfi_endproc
 2055              	.LFE12:
 2057              		.align	2
 2058              		.global	sixtop_maintenance_timer_cb
 2059              		.thumb
 2060              		.thumb_func
 2062              	sixtop_maintenance_timer_cb:
 2063              	.LFB13:
 750:build/openmote-cc2538_armgcc/openstack/02b-MAChigh/sixtop.c **** 
 751:build/openmote-cc2538_armgcc/openstack/02b-MAChigh/sixtop.c **** void sixtop_maintenance_timer_cb(opentimers_id_t id) {
 2064              		.loc 1 751 0
 2065              		.cfi_startproc
 2066              		@ args = 0, pretend = 0, frame = 8
 2067              		@ frame_needed = 1, uses_anonymous_args = 0
 2068 0a60 80B5     		push	{r7, lr}
 2069              		.cfi_def_cfa_offset 8
 2070              		.cfi_offset 7, -8
 2071              		.cfi_offset 14, -4
 2072 0a62 82B0     		sub	sp, sp, #8
 2073              		.cfi_def_cfa_offset 16
 2074 0a64 00AF     		add	r7, sp, #0
 2075              		.cfi_def_cfa_register 7
 2076 0a66 0346     		mov	r3, r0
 2077 0a68 FB71     		strb	r3, [r7, #7]
 752:build/openmote-cc2538_armgcc/openstack/02b-MAChigh/sixtop.c ****     scheduler_push_task(timer_sixtop_management_fired,TASKPRIO_SIXTOP);
 2078              		.loc 1 752 0
 2079 0a6a 0321     		movs	r1, #3
 2080 0a6c 0348     		ldr	r0, .L115
 2081 0a6e FFF7FEFF 		bl	scheduler_push_task
 753:build/openmote-cc2538_armgcc/openstack/02b-MAChigh/sixtop.c **** }
 2082              		.loc 1 753 0
 2083 0a72 00BF     		nop
 2084 0a74 0837     		adds	r7, r7, #8
 2085              		.cfi_def_cfa_offset 8
 2086 0a76 BD46     		mov	sp, r7
 2087              		.cfi_def_cfa_register 13
 2088              		@ sp needed
 2089 0a78 80BD     		pop	{r7, pc}
 2090              	.L116:
 2091 0a7a 00BF     		.align	2
 2092              	.L115:
 2093 0a7c 00000000 		.word	timer_sixtop_management_fired
 2094              		.cfi_endproc
 2095              	.LFE13:
 2097              		.align	2
 2098              		.global	sixtop_timeout_timer_cb
 2099              		.thumb
 2100              		.thumb_func
 2102              	sixtop_timeout_timer_cb:
 2103              	.LFB14:
 754:build/openmote-cc2538_armgcc/openstack/02b-MAChigh/sixtop.c **** 
 755:build/openmote-cc2538_armgcc/openstack/02b-MAChigh/sixtop.c **** void sixtop_timeout_timer_cb(opentimers_id_t id) {
 2104              		.loc 1 755 0
 2105              		.cfi_startproc
 2106              		@ args = 0, pretend = 0, frame = 8
 2107              		@ frame_needed = 1, uses_anonymous_args = 0
 2108 0a80 80B5     		push	{r7, lr}
 2109              		.cfi_def_cfa_offset 8
 2110              		.cfi_offset 7, -8
 2111              		.cfi_offset 14, -4
 2112 0a82 82B0     		sub	sp, sp, #8
 2113              		.cfi_def_cfa_offset 16
 2114 0a84 00AF     		add	r7, sp, #0
 2115              		.cfi_def_cfa_register 7
 2116 0a86 0346     		mov	r3, r0
 2117 0a88 FB71     		strb	r3, [r7, #7]
 756:build/openmote-cc2538_armgcc/openstack/02b-MAChigh/sixtop.c ****     scheduler_push_task(timer_sixtop_six2six_timeout_fired,TASKPRIO_SIXTOP_TIMEOUT);
 2118              		.loc 1 756 0
 2119 0a8a 0A21     		movs	r1, #10
 2120 0a8c 0348     		ldr	r0, .L118
 2121 0a8e FFF7FEFF 		bl	scheduler_push_task
 757:build/openmote-cc2538_armgcc/openstack/02b-MAChigh/sixtop.c **** }
 2122              		.loc 1 757 0
 2123 0a92 00BF     		nop
 2124 0a94 0837     		adds	r7, r7, #8
 2125              		.cfi_def_cfa_offset 8
 2126 0a96 BD46     		mov	sp, r7
 2127              		.cfi_def_cfa_register 13
 2128              		@ sp needed
 2129 0a98 80BD     		pop	{r7, pc}
 2130              	.L119:
 2131 0a9a 00BF     		.align	2
 2132              	.L118:
 2133 0a9c 00000000 		.word	timer_sixtop_six2six_timeout_fired
 2134              		.cfi_endproc
 2135              	.LFE14:
 2137              		.align	2
 2138              		.global	timer_sixtop_sendEb_fired
 2139              		.thumb
 2140              		.thumb_func
 2142              	timer_sixtop_sendEb_fired:
 2143              	.LFB15:
 758:build/openmote-cc2538_armgcc/openstack/02b-MAChigh/sixtop.c **** 
 759:build/openmote-cc2538_armgcc/openstack/02b-MAChigh/sixtop.c **** //======= EB/KA task
 760:build/openmote-cc2538_armgcc/openstack/02b-MAChigh/sixtop.c **** 
 761:build/openmote-cc2538_armgcc/openstack/02b-MAChigh/sixtop.c **** void timer_sixtop_sendEb_fired(){
 2144              		.loc 1 761 0
 2145              		.cfi_startproc
 2146              		@ args = 0, pretend = 0, frame = 8
 2147              		@ frame_needed = 1, uses_anonymous_args = 0
 2148 0aa0 80B5     		push	{r7, lr}
 2149              		.cfi_def_cfa_offset 8
 2150              		.cfi_offset 7, -8
 2151              		.cfi_offset 14, -4
 2152 0aa2 82B0     		sub	sp, sp, #8
 2153              		.cfi_def_cfa_offset 16
 2154 0aa4 00AF     		add	r7, sp, #0
 2155              		.cfi_def_cfa_register 7
 762:build/openmote-cc2538_armgcc/openstack/02b-MAChigh/sixtop.c ****     
 763:build/openmote-cc2538_armgcc/openstack/02b-MAChigh/sixtop.c ****     uint16_t newPeriod;
 764:build/openmote-cc2538_armgcc/openstack/02b-MAChigh/sixtop.c ****     // current period 
 765:build/openmote-cc2538_armgcc/openstack/02b-MAChigh/sixtop.c ****     newPeriod = EB_PORTION*(neighbors_getNumNeighbors()+1);
 2156              		.loc 1 765 0
 2157 0aa6 FFF7FEFF 		bl	neighbors_getNumNeighbors
 2158 0aaa 0346     		mov	r3, r0
 2159 0aac 0133     		adds	r3, r3, #1
 2160 0aae 9BB2     		uxth	r3, r3
 2161 0ab0 1A46     		mov	r2, r3	@ movhi
 2162 0ab2 5200     		lsls	r2, r2, #1
 2163 0ab4 1344     		add	r3, r3, r2
 2164 0ab6 5B00     		lsls	r3, r3, #1
 2165 0ab8 FB80     		strh	r3, [r7, #6]	@ movhi
 766:build/openmote-cc2538_armgcc/openstack/02b-MAChigh/sixtop.c ****     if (
 767:build/openmote-cc2538_armgcc/openstack/02b-MAChigh/sixtop.c ****         sixtop_vars.ebPeriod  < newPeriod &&
 2166              		.loc 1 767 0
 2167 0aba 184B     		ldr	r3, .L125
 2168 0abc 9B89     		ldrh	r3, [r3, #12]
 766:build/openmote-cc2538_armgcc/openstack/02b-MAChigh/sixtop.c ****     if (
 2169              		.loc 1 766 0
 2170 0abe FA88     		ldrh	r2, [r7, #6]
 2171 0ac0 9A42     		cmp	r2, r3
 2172 0ac2 0ED9     		bls	.L121
 768:build/openmote-cc2538_armgcc/openstack/02b-MAChigh/sixtop.c ****         sixtop_vars.ebCounter > newPeriod
 2173              		.loc 1 768 0
 2174 0ac4 154B     		ldr	r3, .L125
 2175 0ac6 9B79     		ldrb	r3, [r3, #6]	@ zero_extendqisi2
 2176 0ac8 9BB2     		uxth	r3, r3
 767:build/openmote-cc2538_armgcc/openstack/02b-MAChigh/sixtop.c ****         sixtop_vars.ebCounter > newPeriod
 2177              		.loc 1 767 0
 2178 0aca FA88     		ldrh	r2, [r7, #6]
 2179 0acc 9A42     		cmp	r2, r3
 2180 0ace 08D2     		bcs	.L121
 769:build/openmote-cc2538_armgcc/openstack/02b-MAChigh/sixtop.c ****     ){
 770:build/openmote-cc2538_armgcc/openstack/02b-MAChigh/sixtop.c ****         sixtop_vars.ebCounter = 0;
 2181              		.loc 1 770 0
 2182 0ad0 124B     		ldr	r3, .L125
 2183 0ad2 0022     		movs	r2, #0
 2184 0ad4 9A71     		strb	r2, [r3, #6]
 771:build/openmote-cc2538_armgcc/openstack/02b-MAChigh/sixtop.c ****         sixtop_vars.ebPeriod  = newPeriod;
 2185              		.loc 1 771 0
 2186 0ad6 114A     		ldr	r2, .L125
 2187 0ad8 FB88     		ldrh	r3, [r7, #6]	@ movhi
 2188 0ada 9381     		strh	r3, [r2, #12]	@ movhi
 772:build/openmote-cc2538_armgcc/openstack/02b-MAChigh/sixtop.c ****         sixtop_sendEB();
 2189              		.loc 1 772 0
 2190 0adc FFF7FEFF 		bl	sixtop_sendEB
 2191 0ae0 17E0     		b	.L122
 2192              	.L121:
 773:build/openmote-cc2538_armgcc/openstack/02b-MAChigh/sixtop.c ****     } else {
 774:build/openmote-cc2538_armgcc/openstack/02b-MAChigh/sixtop.c ****         sixtop_vars.ebPeriod  = newPeriod;
 2193              		.loc 1 774 0
 2194 0ae2 0E4A     		ldr	r2, .L125
 2195 0ae4 FB88     		ldrh	r3, [r7, #6]	@ movhi
 2196 0ae6 9381     		strh	r3, [r2, #12]	@ movhi
 775:build/openmote-cc2538_armgcc/openstack/02b-MAChigh/sixtop.c ****         sixtop_vars.ebCounter = (sixtop_vars.ebCounter+1)%sixtop_vars.ebPeriod;
 2197              		.loc 1 775 0
 2198 0ae8 0C4B     		ldr	r3, .L125
 2199 0aea 9B79     		ldrb	r3, [r3, #6]	@ zero_extendqisi2
 2200 0aec 0133     		adds	r3, r3, #1
 2201 0aee 0B4A     		ldr	r2, .L125
 2202 0af0 9289     		ldrh	r2, [r2, #12]
 2203 0af2 93FBF2F1 		sdiv	r1, r3, r2
 2204 0af6 02FB01F2 		mul	r2, r2, r1
 2205 0afa 9B1A     		subs	r3, r3, r2
 2206 0afc DAB2     		uxtb	r2, r3
 2207 0afe 074B     		ldr	r3, .L125
 2208 0b00 9A71     		strb	r2, [r3, #6]
 776:build/openmote-cc2538_armgcc/openstack/02b-MAChigh/sixtop.c ****         switch (sixtop_vars.ebCounter) {
 2209              		.loc 1 776 0
 2210 0b02 064B     		ldr	r3, .L125
 2211 0b04 9B79     		ldrb	r3, [r3, #6]	@ zero_extendqisi2
 2212 0b06 002B     		cmp	r3, #0
 2213 0b08 00D0     		beq	.L124
 777:build/openmote-cc2538_armgcc/openstack/02b-MAChigh/sixtop.c ****         case 0:
 778:build/openmote-cc2538_armgcc/openstack/02b-MAChigh/sixtop.c ****             sixtop_sendEB();
 779:build/openmote-cc2538_armgcc/openstack/02b-MAChigh/sixtop.c ****             break;
 780:build/openmote-cc2538_armgcc/openstack/02b-MAChigh/sixtop.c ****         default:
 781:build/openmote-cc2538_armgcc/openstack/02b-MAChigh/sixtop.c ****             break;
 2214              		.loc 1 781 0
 2215 0b0a 02E0     		b	.L122
 2216              	.L124:
 778:build/openmote-cc2538_armgcc/openstack/02b-MAChigh/sixtop.c ****             break;
 2217              		.loc 1 778 0
 2218 0b0c FFF7FEFF 		bl	sixtop_sendEB
 779:build/openmote-cc2538_armgcc/openstack/02b-MAChigh/sixtop.c ****         default:
 2219              		.loc 1 779 0
 2220 0b10 00BF     		nop
 2221              	.L122:
 782:build/openmote-cc2538_armgcc/openstack/02b-MAChigh/sixtop.c ****         }
 783:build/openmote-cc2538_armgcc/openstack/02b-MAChigh/sixtop.c ****     }
 784:build/openmote-cc2538_armgcc/openstack/02b-MAChigh/sixtop.c **** }
 2222              		.loc 1 784 0
 2223 0b12 00BF     		nop
 2224 0b14 0837     		adds	r7, r7, #8
 2225              		.cfi_def_cfa_offset 8
 2226 0b16 BD46     		mov	sp, r7
 2227              		.cfi_def_cfa_register 13
 2228              		@ sp needed
 2229 0b18 80BD     		pop	{r7, pc}
 2230              	.L126:
 2231 0b1a 00BF     		.align	2
 2232              	.L125:
 2233 0b1c 00000000 		.word	sixtop_vars
 2234              		.cfi_endproc
 2235              	.LFE15:
 2237              		.align	2
 2238              		.global	timer_sixtop_management_fired
 2239              		.thumb
 2240              		.thumb_func
 2242              	timer_sixtop_management_fired:
 2243              	.LFB16:
 785:build/openmote-cc2538_armgcc/openstack/02b-MAChigh/sixtop.c **** 
 786:build/openmote-cc2538_armgcc/openstack/02b-MAChigh/sixtop.c **** /**
 787:build/openmote-cc2538_armgcc/openstack/02b-MAChigh/sixtop.c **** \brief Timer handlers which triggers MAC management task.
 788:build/openmote-cc2538_armgcc/openstack/02b-MAChigh/sixtop.c **** 
 789:build/openmote-cc2538_armgcc/openstack/02b-MAChigh/sixtop.c **** This function is called in task context by the scheduler after the RES timer
 790:build/openmote-cc2538_armgcc/openstack/02b-MAChigh/sixtop.c **** has fired. This timer is set to fire every second, on average.
 791:build/openmote-cc2538_armgcc/openstack/02b-MAChigh/sixtop.c **** 
 792:build/openmote-cc2538_armgcc/openstack/02b-MAChigh/sixtop.c **** The body of this function executes one of the MAC management task.
 793:build/openmote-cc2538_armgcc/openstack/02b-MAChigh/sixtop.c **** */
 794:build/openmote-cc2538_armgcc/openstack/02b-MAChigh/sixtop.c **** void timer_sixtop_management_fired(void) {
 2244              		.loc 1 794 0
 2245              		.cfi_startproc
 2246              		@ args = 0, pretend = 0, frame = 0
 2247              		@ frame_needed = 1, uses_anonymous_args = 0
 2248 0b20 98B5     		push	{r3, r4, r7, lr}
 2249              		.cfi_def_cfa_offset 16
 2250              		.cfi_offset 3, -16
 2251              		.cfi_offset 4, -12
 2252              		.cfi_offset 7, -8
 2253              		.cfi_offset 14, -4
 2254 0b22 00AF     		add	r7, sp, #0
 2255              		.cfi_def_cfa_register 7
 795:build/openmote-cc2538_armgcc/openstack/02b-MAChigh/sixtop.c ****    
 796:build/openmote-cc2538_armgcc/openstack/02b-MAChigh/sixtop.c ****     sixtop_vars.mgtTaskCounter = (sixtop_vars.mgtTaskCounter+1)%MAINTENANCE_PERIOD;
 2256              		.loc 1 796 0
 2257 0b24 0E4B     		ldr	r3, .L132
 2258 0b26 5B79     		ldrb	r3, [r3, #5]	@ zero_extendqisi2
 2259 0b28 5A1C     		adds	r2, r3, #1
 2260 0b2a 0E4B     		ldr	r3, .L132+4
 2261 0b2c 82FB0334 		smull	r3, r4, r2, r3
 2262 0b30 1319     		adds	r3, r2, r4
 2263 0b32 1911     		asrs	r1, r3, #4
 2264 0b34 D317     		asrs	r3, r2, #31
 2265 0b36 C91A     		subs	r1, r1, r3
 2266 0b38 0B46     		mov	r3, r1
 2267 0b3a 1B01     		lsls	r3, r3, #4
 2268 0b3c 5B1A     		subs	r3, r3, r1
 2269 0b3e 5B00     		lsls	r3, r3, #1
 2270 0b40 D11A     		subs	r1, r2, r3
 2271 0b42 CAB2     		uxtb	r2, r1
 2272 0b44 064B     		ldr	r3, .L132
 2273 0b46 5A71     		strb	r2, [r3, #5]
 797:build/openmote-cc2538_armgcc/openstack/02b-MAChigh/sixtop.c ****    
 798:build/openmote-cc2538_armgcc/openstack/02b-MAChigh/sixtop.c ****     switch (sixtop_vars.mgtTaskCounter) {
 2274              		.loc 1 798 0
 2275 0b48 054B     		ldr	r3, .L132
 2276 0b4a 5B79     		ldrb	r3, [r3, #5]	@ zero_extendqisi2
 2277 0b4c 002B     		cmp	r3, #0
 2278 0b4e 02D1     		bne	.L131
 799:build/openmote-cc2538_armgcc/openstack/02b-MAChigh/sixtop.c ****         case 0:
 800:build/openmote-cc2538_armgcc/openstack/02b-MAChigh/sixtop.c ****             // called every MAINTENANCE_PERIOD seconds
 801:build/openmote-cc2538_armgcc/openstack/02b-MAChigh/sixtop.c ****             neighbors_removeOld();
 2279              		.loc 1 801 0
 2280 0b50 FFF7FEFF 		bl	neighbors_removeOld
 802:build/openmote-cc2538_armgcc/openstack/02b-MAChigh/sixtop.c ****             break;
 2281              		.loc 1 802 0
 2282 0b54 02E0     		b	.L130
 2283              	.L131:
 803:build/openmote-cc2538_armgcc/openstack/02b-MAChigh/sixtop.c ****         default:
 804:build/openmote-cc2538_armgcc/openstack/02b-MAChigh/sixtop.c ****             // called every second, except once every MAINTENANCE_PERIOD seconds
 805:build/openmote-cc2538_armgcc/openstack/02b-MAChigh/sixtop.c ****             sixtop_sendKA();
 2284              		.loc 1 805 0
 2285 0b56 FFF7FEFF 		bl	sixtop_sendKA
 806:build/openmote-cc2538_armgcc/openstack/02b-MAChigh/sixtop.c ****             break;
 2286              		.loc 1 806 0
 2287 0b5a 00BF     		nop
 2288              	.L130:
 807:build/openmote-cc2538_armgcc/openstack/02b-MAChigh/sixtop.c ****     }
 808:build/openmote-cc2538_armgcc/openstack/02b-MAChigh/sixtop.c **** }
 2289              		.loc 1 808 0
 2290 0b5c 00BF     		nop
 2291 0b5e 98BD     		pop	{r3, r4, r7, pc}
 2292              	.L133:
 2293              		.align	2
 2294              	.L132:
 2295 0b60 00000000 		.word	sixtop_vars
 2296 0b64 89888888 		.word	-2004318071
 2297              		.cfi_endproc
 2298              	.LFE16:
 2300              		.align	2
 2301              		.global	sixtop_sendEB
 2302              		.thumb
 2303              		.thumb_func
 2305              	sixtop_sendEB:
 2306              	.LFB17:
 809:build/openmote-cc2538_armgcc/openstack/02b-MAChigh/sixtop.c **** 
 810:build/openmote-cc2538_armgcc/openstack/02b-MAChigh/sixtop.c **** /**
 811:build/openmote-cc2538_armgcc/openstack/02b-MAChigh/sixtop.c **** \brief Send an EB.
 812:build/openmote-cc2538_armgcc/openstack/02b-MAChigh/sixtop.c **** 
 813:build/openmote-cc2538_armgcc/openstack/02b-MAChigh/sixtop.c **** This is one of the MAC management tasks. This function inlines in the
 814:build/openmote-cc2538_armgcc/openstack/02b-MAChigh/sixtop.c **** timers_res_fired() function, but is declared as a separate function for better
 815:build/openmote-cc2538_armgcc/openstack/02b-MAChigh/sixtop.c **** readability of the code.
 816:build/openmote-cc2538_armgcc/openstack/02b-MAChigh/sixtop.c **** */
 817:build/openmote-cc2538_armgcc/openstack/02b-MAChigh/sixtop.c **** port_INLINE void sixtop_sendEB() {
 2307              		.loc 1 817 0
 2308              		.cfi_startproc
 2309              		@ args = 0, pretend = 0, frame = 32
 2310              		@ frame_needed = 1, uses_anonymous_args = 0
 2311 0b68 80B5     		push	{r7, lr}
 2312              		.cfi_def_cfa_offset 8
 2313              		.cfi_offset 7, -8
 2314              		.cfi_offset 14, -4
 2315 0b6a 88B0     		sub	sp, sp, #32
 2316              		.cfi_def_cfa_offset 40
 2317 0b6c 00AF     		add	r7, sp, #0
 2318              		.cfi_def_cfa_register 7
 818:build/openmote-cc2538_armgcc/openstack/02b-MAChigh/sixtop.c ****     OpenQueueEntry_t* eb;
 819:build/openmote-cc2538_armgcc/openstack/02b-MAChigh/sixtop.c ****     uint8_t     i;
 820:build/openmote-cc2538_armgcc/openstack/02b-MAChigh/sixtop.c ****     uint8_t     eb_len;
 821:build/openmote-cc2538_armgcc/openstack/02b-MAChigh/sixtop.c ****     uint16_t    temp16b;
 822:build/openmote-cc2538_armgcc/openstack/02b-MAChigh/sixtop.c ****     open_addr_t addressToWrite;
 823:build/openmote-cc2538_armgcc/openstack/02b-MAChigh/sixtop.c ****     
 824:build/openmote-cc2538_armgcc/openstack/02b-MAChigh/sixtop.c ****     memset(&addressToWrite,0,sizeof(open_addr_t));
 2319              		.loc 1 824 0
 2320 0b6e 3B46     		mov	r3, r7
 2321 0b70 1122     		movs	r2, #17
 2322 0b72 0021     		movs	r1, #0
 2323 0b74 1846     		mov	r0, r3
 2324 0b76 FFF7FEFF 		bl	memset
 825:build/openmote-cc2538_armgcc/openstack/02b-MAChigh/sixtop.c ****     if (
 826:build/openmote-cc2538_armgcc/openstack/02b-MAChigh/sixtop.c ****         (ieee154e_isSynch()==FALSE)                     ||
 2325              		.loc 1 826 0
 2326 0b7a FFF7FEFF 		bl	ieee154e_isSynch
 2327 0b7e 0346     		mov	r3, r0
 2328 0b80 83F00103 		eor	r3, r3, #1
 2329 0b84 DBB2     		uxtb	r3, r3
 825:build/openmote-cc2538_armgcc/openstack/02b-MAChigh/sixtop.c ****     if (
 2330              		.loc 1 825 0
 2331 0b86 002B     		cmp	r3, #0
 2332 0b88 17D1     		bne	.L135
 827:build/openmote-cc2538_armgcc/openstack/02b-MAChigh/sixtop.c ****         (IEEE802154_security_isConfigured()==FALSE)     ||
 2333              		.loc 1 827 0
 2334 0b8a FFF7FEFF 		bl	IEEE802154_security_isConfigured
 2335 0b8e 0346     		mov	r3, r0
 2336 0b90 83F00103 		eor	r3, r3, #1
 2337 0b94 DBB2     		uxtb	r3, r3
 826:build/openmote-cc2538_armgcc/openstack/02b-MAChigh/sixtop.c ****         (IEEE802154_security_isConfigured()==FALSE)     ||
 2338              		.loc 1 826 0
 2339 0b96 002B     		cmp	r3, #0
 2340 0b98 0FD1     		bne	.L135
 828:build/openmote-cc2538_armgcc/openstack/02b-MAChigh/sixtop.c ****         (icmpv6rpl_getMyDAGrank()==DEFAULTDAGRANK)      ||
 2341              		.loc 1 828 0
 2342 0b9a FFF7FEFF 		bl	icmpv6rpl_getMyDAGrank
 2343 0b9e 0346     		mov	r3, r0
 2344 0ba0 1A46     		mov	r2, r3
 827:build/openmote-cc2538_armgcc/openstack/02b-MAChigh/sixtop.c ****         (IEEE802154_security_isConfigured()==FALSE)     ||
 2345              		.loc 1 827 0
 2346 0ba2 4FF6FF73 		movw	r3, #65535
 2347 0ba6 9A42     		cmp	r2, r3
 2348 0ba8 07D0     		beq	.L135
 829:build/openmote-cc2538_armgcc/openstack/02b-MAChigh/sixtop.c ****         icmpv6rpl_daoSent()==FALSE
 2349              		.loc 1 829 0
 2350 0baa FFF7FEFF 		bl	icmpv6rpl_daoSent
 2351 0bae 0346     		mov	r3, r0
 2352 0bb0 83F00103 		eor	r3, r3, #1
 2353 0bb4 DBB2     		uxtb	r3, r3
 828:build/openmote-cc2538_armgcc/openstack/02b-MAChigh/sixtop.c ****         (icmpv6rpl_getMyDAGrank()==DEFAULTDAGRANK)      ||
 2354              		.loc 1 828 0
 2355 0bb6 002B     		cmp	r3, #0
 2356 0bb8 09D0     		beq	.L136
 2357              	.L135:
 830:build/openmote-cc2538_armgcc/openstack/02b-MAChigh/sixtop.c ****     ) {
 831:build/openmote-cc2538_armgcc/openstack/02b-MAChigh/sixtop.c ****         // I'm not sync'ed, or did not join, or did not acquire a DAGrank or did not send out a DAO
 832:build/openmote-cc2538_armgcc/openstack/02b-MAChigh/sixtop.c ****         // before starting to advertize the network, we need to make sure that we are reachable dow
 833:build/openmote-cc2538_armgcc/openstack/02b-MAChigh/sixtop.c ****         // thus, the condition if DAO was sent
 834:build/openmote-cc2538_armgcc/openstack/02b-MAChigh/sixtop.c ****         
 835:build/openmote-cc2538_armgcc/openstack/02b-MAChigh/sixtop.c ****         // delete packets genereted by this module (EB and KA) from openqueue
 836:build/openmote-cc2538_armgcc/openstack/02b-MAChigh/sixtop.c ****         openqueue_removeAllCreatedBy(COMPONENT_SIXTOP);
 2358              		.loc 1 836 0
 2359 0bba 0C20     		movs	r0, #12
 2360 0bbc FFF7FEFF 		bl	openqueue_removeAllCreatedBy
 837:build/openmote-cc2538_armgcc/openstack/02b-MAChigh/sixtop.c ****         
 838:build/openmote-cc2538_armgcc/openstack/02b-MAChigh/sixtop.c ****         // I'm not busy sending an EB or KA
 839:build/openmote-cc2538_armgcc/openstack/02b-MAChigh/sixtop.c ****         sixtop_vars.busySendingEB = FALSE;
 2361              		.loc 1 839 0
 2362 0bc0 704B     		ldr	r3, .L150
 2363 0bc2 0022     		movs	r2, #0
 2364 0bc4 DA70     		strb	r2, [r3, #3]
 840:build/openmote-cc2538_armgcc/openstack/02b-MAChigh/sixtop.c ****         sixtop_vars.busySendingKA = FALSE;
 2365              		.loc 1 840 0
 2366 0bc6 6F4B     		ldr	r3, .L150
 2367 0bc8 0022     		movs	r2, #0
 2368 0bca 9A70     		strb	r2, [r3, #2]
 841:build/openmote-cc2538_armgcc/openstack/02b-MAChigh/sixtop.c ****         
 842:build/openmote-cc2538_armgcc/openstack/02b-MAChigh/sixtop.c ****         // stop here
 843:build/openmote-cc2538_armgcc/openstack/02b-MAChigh/sixtop.c ****         return;
 2369              		.loc 1 843 0
 2370 0bcc D6E0     		b	.L134
 2371              	.L136:
 844:build/openmote-cc2538_armgcc/openstack/02b-MAChigh/sixtop.c ****     }
 845:build/openmote-cc2538_armgcc/openstack/02b-MAChigh/sixtop.c **** 
 846:build/openmote-cc2538_armgcc/openstack/02b-MAChigh/sixtop.c ****     if (
 847:build/openmote-cc2538_armgcc/openstack/02b-MAChigh/sixtop.c ****         idmanager_getIsDAGroot() == FALSE &&
 2372              		.loc 1 847 0
 2373 0bce FFF7FEFF 		bl	idmanager_getIsDAGroot
 2374 0bd2 0346     		mov	r3, r0
 2375 0bd4 83F00103 		eor	r3, r3, #1
 2376 0bd8 DBB2     		uxtb	r3, r3
 846:build/openmote-cc2538_armgcc/openstack/02b-MAChigh/sixtop.c ****         idmanager_getIsDAGroot() == FALSE &&
 2377              		.loc 1 846 0
 2378 0bda 002B     		cmp	r3, #0
 2379 0bdc 24D0     		beq	.L138
 848:build/openmote-cc2538_armgcc/openstack/02b-MAChigh/sixtop.c ****         (
 849:build/openmote-cc2538_armgcc/openstack/02b-MAChigh/sixtop.c ****             icmpv6rpl_getPreferredParentEui64(&addressToWrite) == FALSE ||
 2380              		.loc 1 849 0
 2381 0bde 3B46     		mov	r3, r7
 2382 0be0 1846     		mov	r0, r3
 2383 0be2 FFF7FEFF 		bl	icmpv6rpl_getPreferredParentEui64
 2384 0be6 0346     		mov	r3, r0
 2385 0be8 83F00103 		eor	r3, r3, #1
 2386 0bec DBB2     		uxtb	r3, r3
 847:build/openmote-cc2538_armgcc/openstack/02b-MAChigh/sixtop.c ****         (
 2387              		.loc 1 847 0
 2388 0bee 002B     		cmp	r3, #0
 2389 0bf0 10D1     		bne	.L139
 850:build/openmote-cc2538_armgcc/openstack/02b-MAChigh/sixtop.c ****             (
 851:build/openmote-cc2538_armgcc/openstack/02b-MAChigh/sixtop.c ****                 icmpv6rpl_getPreferredParentEui64(&addressToWrite) &&
 2390              		.loc 1 851 0
 2391 0bf2 3B46     		mov	r3, r7
 2392 0bf4 1846     		mov	r0, r3
 2393 0bf6 FFF7FEFF 		bl	icmpv6rpl_getPreferredParentEui64
 2394 0bfa 0346     		mov	r3, r0
 849:build/openmote-cc2538_armgcc/openstack/02b-MAChigh/sixtop.c ****             (
 2395              		.loc 1 849 0
 2396 0bfc 002B     		cmp	r3, #0
 2397 0bfe 13D0     		beq	.L138
 852:build/openmote-cc2538_armgcc/openstack/02b-MAChigh/sixtop.c ****                 schedule_hasDedicatedCellToNeighbor(&addressToWrite) == FALSE
 2398              		.loc 1 852 0
 2399 0c00 3B46     		mov	r3, r7
 2400 0c02 1846     		mov	r0, r3
 2401 0c04 FFF7FEFF 		bl	schedule_hasDedicatedCellToNeighbor
 2402 0c08 0346     		mov	r3, r0
 2403 0c0a 83F00103 		eor	r3, r3, #1
 2404 0c0e DBB2     		uxtb	r3, r3
 851:build/openmote-cc2538_armgcc/openstack/02b-MAChigh/sixtop.c ****                 schedule_hasDedicatedCellToNeighbor(&addressToWrite) == FALSE
 2405              		.loc 1 851 0
 2406 0c10 002B     		cmp	r3, #0
 2407 0c12 09D0     		beq	.L138
 2408              	.L139:
 853:build/openmote-cc2538_armgcc/openstack/02b-MAChigh/sixtop.c ****             )
 854:build/openmote-cc2538_armgcc/openstack/02b-MAChigh/sixtop.c ****         )
 855:build/openmote-cc2538_armgcc/openstack/02b-MAChigh/sixtop.c ****     ){
 856:build/openmote-cc2538_armgcc/openstack/02b-MAChigh/sixtop.c ****         // delete packets genereted by this module (EB and KA) from openqueue
 857:build/openmote-cc2538_armgcc/openstack/02b-MAChigh/sixtop.c ****         openqueue_removeAllCreatedBy(COMPONENT_SIXTOP);
 2409              		.loc 1 857 0
 2410 0c14 0C20     		movs	r0, #12
 2411 0c16 FFF7FEFF 		bl	openqueue_removeAllCreatedBy
 858:build/openmote-cc2538_armgcc/openstack/02b-MAChigh/sixtop.c ****         
 859:build/openmote-cc2538_armgcc/openstack/02b-MAChigh/sixtop.c ****         // I'm not busy sending an EB or KA
 860:build/openmote-cc2538_armgcc/openstack/02b-MAChigh/sixtop.c ****         sixtop_vars.busySendingEB = FALSE;
 2412              		.loc 1 860 0
 2413 0c1a 5A4B     		ldr	r3, .L150
 2414 0c1c 0022     		movs	r2, #0
 2415 0c1e DA70     		strb	r2, [r3, #3]
 861:build/openmote-cc2538_armgcc/openstack/02b-MAChigh/sixtop.c ****         sixtop_vars.busySendingKA = FALSE;
 2416              		.loc 1 861 0
 2417 0c20 584B     		ldr	r3, .L150
 2418 0c22 0022     		movs	r2, #0
 2419 0c24 9A70     		strb	r2, [r3, #2]
 862:build/openmote-cc2538_armgcc/openstack/02b-MAChigh/sixtop.c ****         
 863:build/openmote-cc2538_armgcc/openstack/02b-MAChigh/sixtop.c ****         return;
 2420              		.loc 1 863 0
 2421 0c26 A9E0     		b	.L134
 2422              	.L138:
 864:build/openmote-cc2538_armgcc/openstack/02b-MAChigh/sixtop.c ****     }
 865:build/openmote-cc2538_armgcc/openstack/02b-MAChigh/sixtop.c ****    
 866:build/openmote-cc2538_armgcc/openstack/02b-MAChigh/sixtop.c ****     if (sixtop_vars.busySendingEB==TRUE) {
 2423              		.loc 1 866 0
 2424 0c28 564B     		ldr	r3, .L150
 2425 0c2a DB78     		ldrb	r3, [r3, #3]	@ zero_extendqisi2
 2426 0c2c 002B     		cmp	r3, #0
 2427 0c2e 40F0A480 		bne	.L149
 867:build/openmote-cc2538_armgcc/openstack/02b-MAChigh/sixtop.c ****         // don't continue if I'm still sending a previous EB
 868:build/openmote-cc2538_armgcc/openstack/02b-MAChigh/sixtop.c ****         return;
 869:build/openmote-cc2538_armgcc/openstack/02b-MAChigh/sixtop.c ****     }
 870:build/openmote-cc2538_armgcc/openstack/02b-MAChigh/sixtop.c ****     
 871:build/openmote-cc2538_armgcc/openstack/02b-MAChigh/sixtop.c ****     // if I get here, I will send an EB
 872:build/openmote-cc2538_armgcc/openstack/02b-MAChigh/sixtop.c ****     
 873:build/openmote-cc2538_armgcc/openstack/02b-MAChigh/sixtop.c ****     // get a free packet buffer
 874:build/openmote-cc2538_armgcc/openstack/02b-MAChigh/sixtop.c ****     eb = openqueue_getFreePacketBuffer(COMPONENT_SIXTOP);
 2428              		.loc 1 874 0
 2429 0c32 0C20     		movs	r0, #12
 2430 0c34 FFF7FEFF 		bl	openqueue_getFreePacketBuffer
 2431 0c38 B861     		str	r0, [r7, #24]
 875:build/openmote-cc2538_armgcc/openstack/02b-MAChigh/sixtop.c ****     if (eb==NULL) {
 2432              		.loc 1 875 0
 2433 0c3a BB69     		ldr	r3, [r7, #24]
 2434 0c3c 002B     		cmp	r3, #0
 2435 0c3e 06D1     		bne	.L141
 876:build/openmote-cc2538_armgcc/openstack/02b-MAChigh/sixtop.c ****         openserial_printError(
 2436              		.loc 1 876 0
 2437 0c40 0023     		movs	r3, #0
 2438 0c42 0022     		movs	r2, #0
 2439 0c44 2C21     		movs	r1, #44
 2440 0c46 0C20     		movs	r0, #12
 2441 0c48 FFF7FEFF 		bl	openserial_printError
 877:build/openmote-cc2538_armgcc/openstack/02b-MAChigh/sixtop.c ****             COMPONENT_SIXTOP,
 878:build/openmote-cc2538_armgcc/openstack/02b-MAChigh/sixtop.c ****             ERR_NO_FREE_PACKET_BUFFER,
 879:build/openmote-cc2538_armgcc/openstack/02b-MAChigh/sixtop.c ****             (errorparameter_t)0,
 880:build/openmote-cc2538_armgcc/openstack/02b-MAChigh/sixtop.c ****             (errorparameter_t)0
 881:build/openmote-cc2538_armgcc/openstack/02b-MAChigh/sixtop.c ****         );
 882:build/openmote-cc2538_armgcc/openstack/02b-MAChigh/sixtop.c ****         return;
 2442              		.loc 1 882 0
 2443 0c4c 96E0     		b	.L134
 2444              	.L141:
 883:build/openmote-cc2538_armgcc/openstack/02b-MAChigh/sixtop.c ****     }
 884:build/openmote-cc2538_armgcc/openstack/02b-MAChigh/sixtop.c ****     
 885:build/openmote-cc2538_armgcc/openstack/02b-MAChigh/sixtop.c ****     // declare ownership over that packet
 886:build/openmote-cc2538_armgcc/openstack/02b-MAChigh/sixtop.c ****     eb->creator = COMPONENT_SIXTOP;
 2445              		.loc 1 886 0
 2446 0c4e BB69     		ldr	r3, [r7, #24]
 2447 0c50 0C22     		movs	r2, #12
 2448 0c52 1A70     		strb	r2, [r3]
 887:build/openmote-cc2538_armgcc/openstack/02b-MAChigh/sixtop.c ****     eb->owner   = COMPONENT_SIXTOP;
 2449              		.loc 1 887 0
 2450 0c54 BB69     		ldr	r3, [r7, #24]
 2451 0c56 0C22     		movs	r2, #12
 2452 0c58 5A70     		strb	r2, [r3, #1]
 888:build/openmote-cc2538_armgcc/openstack/02b-MAChigh/sixtop.c ****     
 889:build/openmote-cc2538_armgcc/openstack/02b-MAChigh/sixtop.c ****     // in case we none default number of shared cells defined in minimal configuration
 890:build/openmote-cc2538_armgcc/openstack/02b-MAChigh/sixtop.c ****     if (ebIEsBytestream[EB_SLOTFRAME_NUMLINK_OFFSET]>1){
 2453              		.loc 1 890 0
 2454 0c5a 0123     		movs	r3, #1
 2455 0c5c 012B     		cmp	r3, #1
 2456 0c5e 25D9     		bls	.L142
 891:build/openmote-cc2538_armgcc/openstack/02b-MAChigh/sixtop.c ****         for (i=ebIEsBytestream[EB_SLOTFRAME_NUMLINK_OFFSET]-1;i>0;i--){
 2457              		.loc 1 891 0
 2458 0c60 0123     		movs	r3, #1
 2459 0c62 013B     		subs	r3, r3, #1
 2460 0c64 FB77     		strb	r3, [r7, #31]
 2461 0c66 1EE0     		b	.L143
 2462              	.L144:
 892:build/openmote-cc2538_armgcc/openstack/02b-MAChigh/sixtop.c ****             packetfunctions_reserveHeaderSize(eb,5);
 2463              		.loc 1 892 0 discriminator 3
 2464 0c68 0521     		movs	r1, #5
 2465 0c6a B869     		ldr	r0, [r7, #24]
 2466 0c6c FFF7FEFF 		bl	packetfunctions_reserveHeaderSize
 893:build/openmote-cc2538_armgcc/openstack/02b-MAChigh/sixtop.c ****             eb->payload[0]   = i;    // slot offset
 2467              		.loc 1 893 0 discriminator 3
 2468 0c70 BB69     		ldr	r3, [r7, #24]
 2469 0c72 5B68     		ldr	r3, [r3, #4]
 2470 0c74 FA7F     		ldrb	r2, [r7, #31]
 2471 0c76 1A70     		strb	r2, [r3]
 894:build/openmote-cc2538_armgcc/openstack/02b-MAChigh/sixtop.c ****             eb->payload[1]   = 0x00;
 2472              		.loc 1 894 0 discriminator 3
 2473 0c78 BB69     		ldr	r3, [r7, #24]
 2474 0c7a 5B68     		ldr	r3, [r3, #4]
 2475 0c7c 0133     		adds	r3, r3, #1
 2476 0c7e 0022     		movs	r2, #0
 2477 0c80 1A70     		strb	r2, [r3]
 895:build/openmote-cc2538_armgcc/openstack/02b-MAChigh/sixtop.c ****             eb->payload[2]   = 0x00; // channel offset
 2478              		.loc 1 895 0 discriminator 3
 2479 0c82 BB69     		ldr	r3, [r7, #24]
 2480 0c84 5B68     		ldr	r3, [r3, #4]
 2481 0c86 0233     		adds	r3, r3, #2
 2482 0c88 0022     		movs	r2, #0
 2483 0c8a 1A70     		strb	r2, [r3]
 896:build/openmote-cc2538_armgcc/openstack/02b-MAChigh/sixtop.c ****             eb->payload[3]   = 0x00;
 2484              		.loc 1 896 0 discriminator 3
 2485 0c8c BB69     		ldr	r3, [r7, #24]
 2486 0c8e 5B68     		ldr	r3, [r3, #4]
 2487 0c90 0333     		adds	r3, r3, #3
 2488 0c92 0022     		movs	r2, #0
 2489 0c94 1A70     		strb	r2, [r3]
 897:build/openmote-cc2538_armgcc/openstack/02b-MAChigh/sixtop.c ****             eb->payload[4]   = 0x0F; // link options
 2490              		.loc 1 897 0 discriminator 3
 2491 0c96 BB69     		ldr	r3, [r7, #24]
 2492 0c98 5B68     		ldr	r3, [r3, #4]
 2493 0c9a 0433     		adds	r3, r3, #4
 2494 0c9c 0F22     		movs	r2, #15
 2495 0c9e 1A70     		strb	r2, [r3]
 891:build/openmote-cc2538_armgcc/openstack/02b-MAChigh/sixtop.c ****             packetfunctions_reserveHeaderSize(eb,5);
 2496              		.loc 1 891 0 discriminator 3
 2497 0ca0 FB7F     		ldrb	r3, [r7, #31]	@ zero_extendqisi2
 2498 0ca2 013B     		subs	r3, r3, #1
 2499 0ca4 FB77     		strb	r3, [r7, #31]
 2500              	.L143:
 891:build/openmote-cc2538_armgcc/openstack/02b-MAChigh/sixtop.c ****             packetfunctions_reserveHeaderSize(eb,5);
 2501              		.loc 1 891 0 is_stmt 0 discriminator 1
 2502 0ca6 FB7F     		ldrb	r3, [r7, #31]	@ zero_extendqisi2
 2503 0ca8 002B     		cmp	r3, #0
 2504 0caa DDD1     		bne	.L144
 2505              	.L142:
 898:build/openmote-cc2538_armgcc/openstack/02b-MAChigh/sixtop.c ****         }
 899:build/openmote-cc2538_armgcc/openstack/02b-MAChigh/sixtop.c ****     }
 900:build/openmote-cc2538_armgcc/openstack/02b-MAChigh/sixtop.c ****     
 901:build/openmote-cc2538_armgcc/openstack/02b-MAChigh/sixtop.c ****     // reserve space for EB IEs
 902:build/openmote-cc2538_armgcc/openstack/02b-MAChigh/sixtop.c ****     packetfunctions_reserveHeaderSize(eb,EB_IE_LEN);
 2506              		.loc 1 902 0 is_stmt 1
 2507 0cac 1C21     		movs	r1, #28
 2508 0cae B869     		ldr	r0, [r7, #24]
 2509 0cb0 FFF7FEFF 		bl	packetfunctions_reserveHeaderSize
 903:build/openmote-cc2538_armgcc/openstack/02b-MAChigh/sixtop.c ****     for (i=0;i<EB_IE_LEN;i++){
 2510              		.loc 1 903 0
 2511 0cb4 0023     		movs	r3, #0
 2512 0cb6 FB77     		strb	r3, [r7, #31]
 2513 0cb8 0AE0     		b	.L145
 2514              	.L146:
 904:build/openmote-cc2538_armgcc/openstack/02b-MAChigh/sixtop.c ****         eb->payload[i]   = ebIEsBytestream[i];
 2515              		.loc 1 904 0 discriminator 3
 2516 0cba BB69     		ldr	r3, [r7, #24]
 2517 0cbc 5A68     		ldr	r2, [r3, #4]
 2518 0cbe FB7F     		ldrb	r3, [r7, #31]	@ zero_extendqisi2
 2519 0cc0 1344     		add	r3, r3, r2
 2520 0cc2 FA7F     		ldrb	r2, [r7, #31]	@ zero_extendqisi2
 2521 0cc4 3049     		ldr	r1, .L150+4
 2522 0cc6 8A5C     		ldrb	r2, [r1, r2]	@ zero_extendqisi2
 2523 0cc8 1A70     		strb	r2, [r3]
 903:build/openmote-cc2538_armgcc/openstack/02b-MAChigh/sixtop.c ****     for (i=0;i<EB_IE_LEN;i++){
 2524              		.loc 1 903 0 discriminator 3
 2525 0cca FB7F     		ldrb	r3, [r7, #31]	@ zero_extendqisi2
 2526 0ccc 0133     		adds	r3, r3, #1
 2527 0cce FB77     		strb	r3, [r7, #31]
 2528              	.L145:
 903:build/openmote-cc2538_armgcc/openstack/02b-MAChigh/sixtop.c ****     for (i=0;i<EB_IE_LEN;i++){
 2529              		.loc 1 903 0 is_stmt 0 discriminator 1
 2530 0cd0 FB7F     		ldrb	r3, [r7, #31]	@ zero_extendqisi2
 2531 0cd2 1B2B     		cmp	r3, #27
 2532 0cd4 F1D9     		bls	.L146
 905:build/openmote-cc2538_armgcc/openstack/02b-MAChigh/sixtop.c ****     }
 906:build/openmote-cc2538_armgcc/openstack/02b-MAChigh/sixtop.c ****     
 907:build/openmote-cc2538_armgcc/openstack/02b-MAChigh/sixtop.c ****     if (ebIEsBytestream[EB_SLOTFRAME_NUMLINK_OFFSET]>1){
 2533              		.loc 1 907 0 is_stmt 1
 2534 0cd6 0123     		movs	r3, #1
 2535 0cd8 012B     		cmp	r3, #1
 2536 0cda 1AD9     		bls	.L147
 908:build/openmote-cc2538_armgcc/openstack/02b-MAChigh/sixtop.c ****         // reconstruct the MLME IE header since length changed 
 909:build/openmote-cc2538_armgcc/openstack/02b-MAChigh/sixtop.c ****         eb_len = EB_IE_LEN-2+5*(ebIEsBytestream[EB_SLOTFRAME_NUMLINK_OFFSET]-1);
 2537              		.loc 1 909 0
 2538 0cdc 0123     		movs	r3, #1
 2539 0cde 013B     		subs	r3, r3, #1
 2540 0ce0 DBB2     		uxtb	r3, r3
 2541 0ce2 1A46     		mov	r2, r3
 2542 0ce4 9200     		lsls	r2, r2, #2
 2543 0ce6 1344     		add	r3, r3, r2
 2544 0ce8 DBB2     		uxtb	r3, r3
 2545 0cea 1A33     		adds	r3, r3, #26
 2546 0cec FB75     		strb	r3, [r7, #23]
 910:build/openmote-cc2538_armgcc/openstack/02b-MAChigh/sixtop.c ****         temp16b = eb_len | IEEE802154E_PAYLOAD_DESC_GROUP_ID_MLME | IEEE802154E_PAYLOAD_DESC_TYPE_M
 2547              		.loc 1 910 0
 2548 0cee FB7D     		ldrb	r3, [r7, #23]	@ zero_extendqisi2
 2549 0cf0 9AB2     		uxth	r2, r3
 2550 0cf2 264B     		ldr	r3, .L150+8
 2551 0cf4 1343     		orrs	r3, r3, r2
 2552 0cf6 BB82     		strh	r3, [r7, #20]	@ movhi
 911:build/openmote-cc2538_armgcc/openstack/02b-MAChigh/sixtop.c ****         eb->payload[0] = (uint8_t)(temp16b & 0x00ff);
 2553              		.loc 1 911 0
 2554 0cf8 BB69     		ldr	r3, [r7, #24]
 2555 0cfa 5B68     		ldr	r3, [r3, #4]
 2556 0cfc BA8A     		ldrh	r2, [r7, #20]	@ movhi
 2557 0cfe D2B2     		uxtb	r2, r2
 2558 0d00 1A70     		strb	r2, [r3]
 912:build/openmote-cc2538_armgcc/openstack/02b-MAChigh/sixtop.c ****         eb->payload[1] = (uint8_t)((temp16b & 0xff00)>>8);
 2559              		.loc 1 912 0
 2560 0d02 BB69     		ldr	r3, [r7, #24]
 2561 0d04 5B68     		ldr	r3, [r3, #4]
 2562 0d06 0133     		adds	r3, r3, #1
 2563 0d08 BA8A     		ldrh	r2, [r7, #20]
 2564 0d0a 120A     		lsrs	r2, r2, #8
 2565 0d0c 92B2     		uxth	r2, r2
 2566 0d0e D2B2     		uxtb	r2, r2
 2567 0d10 1A70     		strb	r2, [r3]
 2568              	.L147:
 913:build/openmote-cc2538_armgcc/openstack/02b-MAChigh/sixtop.c ****     }
 914:build/openmote-cc2538_armgcc/openstack/02b-MAChigh/sixtop.c ****     
 915:build/openmote-cc2538_armgcc/openstack/02b-MAChigh/sixtop.c ****     // Keep a pointer to where the ASN will be
 916:build/openmote-cc2538_armgcc/openstack/02b-MAChigh/sixtop.c ****     // Note: the actual value of the current ASN and JP will be written by the
 917:build/openmote-cc2538_armgcc/openstack/02b-MAChigh/sixtop.c ****     //    IEEE802.15.4e when transmitting
 918:build/openmote-cc2538_armgcc/openstack/02b-MAChigh/sixtop.c ****     eb->l2_ASNpayload               = &eb->payload[EB_ASN0_OFFSET]; 
 2569              		.loc 1 918 0
 2570 0d12 BB69     		ldr	r3, [r7, #24]
 2571 0d14 5B68     		ldr	r3, [r3, #4]
 2572 0d16 1A1D     		adds	r2, r3, #4
 2573 0d18 BB69     		ldr	r3, [r7, #24]
 2574 0d1a C3F89420 		str	r2, [r3, #148]
 919:build/openmote-cc2538_armgcc/openstack/02b-MAChigh/sixtop.c ****     
 920:build/openmote-cc2538_armgcc/openstack/02b-MAChigh/sixtop.c ****     // some l2 information about this packet
 921:build/openmote-cc2538_armgcc/openstack/02b-MAChigh/sixtop.c ****     eb->l2_frameType                     = IEEE154_TYPE_BEACON;
 2575              		.loc 1 921 0
 2576 0d1e BB69     		ldr	r3, [r7, #24]
 2577 0d20 0022     		movs	r2, #0
 2578 0d22 83F84D20 		strb	r2, [r3, #77]
 922:build/openmote-cc2538_armgcc/openstack/02b-MAChigh/sixtop.c ****     eb->l2_nextORpreviousHop.type        = ADDR_16B;
 2579              		.loc 1 922 0
 2580 0d26 BB69     		ldr	r3, [r7, #24]
 2581 0d28 0122     		movs	r2, #1
 2582 0d2a 83F83C20 		strb	r2, [r3, #60]
 923:build/openmote-cc2538_armgcc/openstack/02b-MAChigh/sixtop.c ****     eb->l2_nextORpreviousHop.addr_16b[0] = 0xff;
 2583              		.loc 1 923 0
 2584 0d2e BB69     		ldr	r3, [r7, #24]
 2585 0d30 FF22     		movs	r2, #255
 2586 0d32 83F83D20 		strb	r2, [r3, #61]
 924:build/openmote-cc2538_armgcc/openstack/02b-MAChigh/sixtop.c ****     eb->l2_nextORpreviousHop.addr_16b[1] = 0xff;
 2587              		.loc 1 924 0
 2588 0d36 BB69     		ldr	r3, [r7, #24]
 2589 0d38 FF22     		movs	r2, #255
 2590 0d3a 83F83E20 		strb	r2, [r3, #62]
 925:build/openmote-cc2538_armgcc/openstack/02b-MAChigh/sixtop.c ****     
 926:build/openmote-cc2538_armgcc/openstack/02b-MAChigh/sixtop.c ****     //I has an IE in my payload
 927:build/openmote-cc2538_armgcc/openstack/02b-MAChigh/sixtop.c ****     eb->l2_payloadIEpresent = TRUE;
 2591              		.loc 1 927 0
 2592 0d3e BB69     		ldr	r3, [r7, #24]
 2593 0d40 0122     		movs	r2, #1
 2594 0d42 83F89A20 		strb	r2, [r3, #154]
 928:build/openmote-cc2538_armgcc/openstack/02b-MAChigh/sixtop.c **** 
 929:build/openmote-cc2538_armgcc/openstack/02b-MAChigh/sixtop.c ****     // set l2-security attributes
 930:build/openmote-cc2538_armgcc/openstack/02b-MAChigh/sixtop.c ****     eb->l2_securityLevel   = IEEE802154_SECURITY_LEVEL_BEACON;
 2595              		.loc 1 930 0
 2596 0d46 BB69     		ldr	r3, [r7, #24]
 2597 0d48 0022     		movs	r2, #0
 2598 0d4a 83F8A020 		strb	r2, [r3, #160]
 931:build/openmote-cc2538_armgcc/openstack/02b-MAChigh/sixtop.c ****     eb->l2_keyIdMode       = IEEE802154_SECURITY_KEYIDMODE;
 2599              		.loc 1 931 0
 2600 0d4e BB69     		ldr	r3, [r7, #24]
 2601 0d50 0022     		movs	r2, #0
 2602 0d52 83F8A120 		strb	r2, [r3, #161]
 932:build/openmote-cc2538_armgcc/openstack/02b-MAChigh/sixtop.c ****     eb->l2_keyIndex        = IEEE802154_security_getBeaconKeyIndex();
 2603              		.loc 1 932 0
 2604 0d56 FFF7FEFF 		bl	IEEE802154_security_getBeaconKeyIndex
 2605 0d5a 0346     		mov	r3, r0
 2606 0d5c 1A46     		mov	r2, r3
 2607 0d5e BB69     		ldr	r3, [r7, #24]
 2608 0d60 83F8A220 		strb	r2, [r3, #162]
 933:build/openmote-cc2538_armgcc/openstack/02b-MAChigh/sixtop.c ****     
 934:build/openmote-cc2538_armgcc/openstack/02b-MAChigh/sixtop.c ****     // put in queue for MAC to handle
 935:build/openmote-cc2538_armgcc/openstack/02b-MAChigh/sixtop.c ****     sixtop_send_internal(eb,eb->l2_payloadIEpresent);
 2609              		.loc 1 935 0
 2610 0d64 BB69     		ldr	r3, [r7, #24]
 2611 0d66 93F89A30 		ldrb	r3, [r3, #154]	@ zero_extendqisi2
 2612 0d6a 1946     		mov	r1, r3
 2613 0d6c B869     		ldr	r0, [r7, #24]
 2614 0d6e FFF7FEFF 		bl	sixtop_send_internal
 936:build/openmote-cc2538_armgcc/openstack/02b-MAChigh/sixtop.c ****     
 937:build/openmote-cc2538_armgcc/openstack/02b-MAChigh/sixtop.c ****     // I'm now busy sending an EB
 938:build/openmote-cc2538_armgcc/openstack/02b-MAChigh/sixtop.c ****     sixtop_vars.busySendingEB = TRUE;
 2615              		.loc 1 938 0
 2616 0d72 044B     		ldr	r3, .L150
 2617 0d74 0122     		movs	r2, #1
 2618 0d76 DA70     		strb	r2, [r3, #3]
 2619 0d78 00E0     		b	.L134
 2620              	.L149:
 868:build/openmote-cc2538_armgcc/openstack/02b-MAChigh/sixtop.c ****     }
 2621              		.loc 1 868 0
 2622 0d7a 00BF     		nop
 2623              	.L134:
 939:build/openmote-cc2538_armgcc/openstack/02b-MAChigh/sixtop.c **** }
 2624              		.loc 1 939 0
 2625 0d7c 2037     		adds	r7, r7, #32
 2626              		.cfi_def_cfa_offset 8
 2627 0d7e BD46     		mov	sp, r7
 2628              		.cfi_def_cfa_register 13
 2629              		@ sp needed
 2630 0d80 80BD     		pop	{r7, pc}
 2631              	.L151:
 2632 0d82 00BF     		.align	2
 2633              	.L150:
 2634 0d84 00000000 		.word	sixtop_vars
 2635 0d88 50000000 		.word	ebIEsBytestream
 2636 0d8c 0088FFFF 		.word	-30720
 2637              		.cfi_endproc
 2638              	.LFE17:
 2640              		.align	2
 2641              		.global	sixtop_sendKA
 2642              		.thumb
 2643              		.thumb_func
 2645              	sixtop_sendKA:
 2646              	.LFB18:
 940:build/openmote-cc2538_armgcc/openstack/02b-MAChigh/sixtop.c **** 
 941:build/openmote-cc2538_armgcc/openstack/02b-MAChigh/sixtop.c **** /**
 942:build/openmote-cc2538_armgcc/openstack/02b-MAChigh/sixtop.c **** \brief Send an keep-alive message, if necessary.
 943:build/openmote-cc2538_armgcc/openstack/02b-MAChigh/sixtop.c **** 
 944:build/openmote-cc2538_armgcc/openstack/02b-MAChigh/sixtop.c **** This is one of the MAC management tasks. This function inlines in the
 945:build/openmote-cc2538_armgcc/openstack/02b-MAChigh/sixtop.c **** timers_res_fired() function, but is declared as a separate function for better
 946:build/openmote-cc2538_armgcc/openstack/02b-MAChigh/sixtop.c **** readability of the code.
 947:build/openmote-cc2538_armgcc/openstack/02b-MAChigh/sixtop.c **** */
 948:build/openmote-cc2538_armgcc/openstack/02b-MAChigh/sixtop.c **** port_INLINE void sixtop_sendKA() {
 2647              		.loc 1 948 0
 2648              		.cfi_startproc
 2649              		@ args = 0, pretend = 0, frame = 8
 2650              		@ frame_needed = 1, uses_anonymous_args = 0
 2651 0d90 80B5     		push	{r7, lr}
 2652              		.cfi_def_cfa_offset 8
 2653              		.cfi_offset 7, -8
 2654              		.cfi_offset 14, -4
 2655 0d92 82B0     		sub	sp, sp, #8
 2656              		.cfi_def_cfa_offset 16
 2657 0d94 00AF     		add	r7, sp, #0
 2658              		.cfi_def_cfa_register 7
 949:build/openmote-cc2538_armgcc/openstack/02b-MAChigh/sixtop.c ****     OpenQueueEntry_t* kaPkt;
 950:build/openmote-cc2538_armgcc/openstack/02b-MAChigh/sixtop.c ****     open_addr_t*      kaNeighAddr;
 951:build/openmote-cc2538_armgcc/openstack/02b-MAChigh/sixtop.c ****     
 952:build/openmote-cc2538_armgcc/openstack/02b-MAChigh/sixtop.c **** 
 953:build/openmote-cc2538_armgcc/openstack/02b-MAChigh/sixtop.c **** 
 954:build/openmote-cc2538_armgcc/openstack/02b-MAChigh/sixtop.c ****     if (ieee154e_isSynch()==FALSE) {
 2659              		.loc 1 954 0
 2660 0d96 FFF7FEFF 		bl	ieee154e_isSynch
 2661 0d9a 0346     		mov	r3, r0
 2662 0d9c 83F00103 		eor	r3, r3, #1
 2663 0da0 DBB2     		uxtb	r3, r3
 2664 0da2 002B     		cmp	r3, #0
 2665 0da4 09D0     		beq	.L153
 955:build/openmote-cc2538_armgcc/openstack/02b-MAChigh/sixtop.c ****         // I'm not sync'ed
 956:build/openmote-cc2538_armgcc/openstack/02b-MAChigh/sixtop.c ****         
 957:build/openmote-cc2538_armgcc/openstack/02b-MAChigh/sixtop.c ****         // delete packets genereted by this module (EB and KA) from openqueue
 958:build/openmote-cc2538_armgcc/openstack/02b-MAChigh/sixtop.c ****         openqueue_removeAllCreatedBy(COMPONENT_SIXTOP);
 2666              		.loc 1 958 0
 2667 0da6 0C20     		movs	r0, #12
 2668 0da8 FFF7FEFF 		bl	openqueue_removeAllCreatedBy
 959:build/openmote-cc2538_armgcc/openstack/02b-MAChigh/sixtop.c ****         
 960:build/openmote-cc2538_armgcc/openstack/02b-MAChigh/sixtop.c ****         // I'm not busy sending an EB or KA
 961:build/openmote-cc2538_armgcc/openstack/02b-MAChigh/sixtop.c ****         sixtop_vars.busySendingEB = FALSE;
 2669              		.loc 1 961 0
 2670 0dac 334B     		ldr	r3, .L161
 2671 0dae 0022     		movs	r2, #0
 2672 0db0 DA70     		strb	r2, [r3, #3]
 962:build/openmote-cc2538_armgcc/openstack/02b-MAChigh/sixtop.c ****         sixtop_vars.busySendingKA = FALSE;
 2673              		.loc 1 962 0
 2674 0db2 324B     		ldr	r3, .L161
 2675 0db4 0022     		movs	r2, #0
 2676 0db6 9A70     		strb	r2, [r3, #2]
 963:build/openmote-cc2538_armgcc/openstack/02b-MAChigh/sixtop.c ****       
 964:build/openmote-cc2538_armgcc/openstack/02b-MAChigh/sixtop.c ****         // stop here
 965:build/openmote-cc2538_armgcc/openstack/02b-MAChigh/sixtop.c ****         return;
 2677              		.loc 1 965 0
 2678 0db8 5CE0     		b	.L152
 2679              	.L153:
 966:build/openmote-cc2538_armgcc/openstack/02b-MAChigh/sixtop.c ****     }
 967:build/openmote-cc2538_armgcc/openstack/02b-MAChigh/sixtop.c **** 
 968:build/openmote-cc2538_armgcc/openstack/02b-MAChigh/sixtop.c ****     if (sixtop_vars.busySendingKA==TRUE) {
 2680              		.loc 1 968 0
 2681 0dba 304B     		ldr	r3, .L161
 2682 0dbc 9B78     		ldrb	r3, [r3, #2]	@ zero_extendqisi2
 2683 0dbe 002B     		cmp	r3, #0
 2684 0dc0 55D1     		bne	.L159
 969:build/openmote-cc2538_armgcc/openstack/02b-MAChigh/sixtop.c ****         // don't proceed if I'm still sending a KA
 970:build/openmote-cc2538_armgcc/openstack/02b-MAChigh/sixtop.c ****         return;
 971:build/openmote-cc2538_armgcc/openstack/02b-MAChigh/sixtop.c ****     }
 972:build/openmote-cc2538_armgcc/openstack/02b-MAChigh/sixtop.c **** 
 973:build/openmote-cc2538_armgcc/openstack/02b-MAChigh/sixtop.c ****     kaNeighAddr = neighbors_getKANeighbor(sixtop_vars.kaPeriod);
 2685              		.loc 1 973 0
 2686 0dc2 2E4B     		ldr	r3, .L161
 2687 0dc4 5B89     		ldrh	r3, [r3, #10]
 2688 0dc6 1846     		mov	r0, r3
 2689 0dc8 FFF7FEFF 		bl	neighbors_getKANeighbor
 2690 0dcc 7860     		str	r0, [r7, #4]
 974:build/openmote-cc2538_armgcc/openstack/02b-MAChigh/sixtop.c ****     if (kaNeighAddr==NULL) {
 2691              		.loc 1 974 0
 2692 0dce 7B68     		ldr	r3, [r7, #4]
 2693 0dd0 002B     		cmp	r3, #0
 2694 0dd2 4ED0     		beq	.L160
 975:build/openmote-cc2538_armgcc/openstack/02b-MAChigh/sixtop.c ****         // don't proceed if I have no neighbor I need to send a KA to
 976:build/openmote-cc2538_armgcc/openstack/02b-MAChigh/sixtop.c ****         return;
 977:build/openmote-cc2538_armgcc/openstack/02b-MAChigh/sixtop.c ****     }
 978:build/openmote-cc2538_armgcc/openstack/02b-MAChigh/sixtop.c ****     
 979:build/openmote-cc2538_armgcc/openstack/02b-MAChigh/sixtop.c ****     if (schedule_hasDedicatedCellToNeighbor(kaNeighAddr) == FALSE){
 2695              		.loc 1 979 0
 2696 0dd4 7868     		ldr	r0, [r7, #4]
 2697 0dd6 FFF7FEFF 		bl	schedule_hasDedicatedCellToNeighbor
 2698 0dda 0346     		mov	r3, r0
 2699 0ddc 83F00103 		eor	r3, r3, #1
 2700 0de0 DBB2     		uxtb	r3, r3
 2701 0de2 002B     		cmp	r3, #0
 2702 0de4 09D0     		beq	.L157
 980:build/openmote-cc2538_armgcc/openstack/02b-MAChigh/sixtop.c ****         // delete packets genereted by this module (EB and KA) from openqueue
 981:build/openmote-cc2538_armgcc/openstack/02b-MAChigh/sixtop.c ****         openqueue_removeAllCreatedBy(COMPONENT_SIXTOP);
 2703              		.loc 1 981 0
 2704 0de6 0C20     		movs	r0, #12
 2705 0de8 FFF7FEFF 		bl	openqueue_removeAllCreatedBy
 982:build/openmote-cc2538_armgcc/openstack/02b-MAChigh/sixtop.c ****         
 983:build/openmote-cc2538_armgcc/openstack/02b-MAChigh/sixtop.c ****         // I'm not busy sending an EB or KA
 984:build/openmote-cc2538_armgcc/openstack/02b-MAChigh/sixtop.c ****         sixtop_vars.busySendingEB = FALSE;
 2706              		.loc 1 984 0
 2707 0dec 234B     		ldr	r3, .L161
 2708 0dee 0022     		movs	r2, #0
 2709 0df0 DA70     		strb	r2, [r3, #3]
 985:build/openmote-cc2538_armgcc/openstack/02b-MAChigh/sixtop.c ****         sixtop_vars.busySendingKA = FALSE;
 2710              		.loc 1 985 0
 2711 0df2 224B     		ldr	r3, .L161
 2712 0df4 0022     		movs	r2, #0
 2713 0df6 9A70     		strb	r2, [r3, #2]
 986:build/openmote-cc2538_armgcc/openstack/02b-MAChigh/sixtop.c ****         
 987:build/openmote-cc2538_armgcc/openstack/02b-MAChigh/sixtop.c ****         return;
 2714              		.loc 1 987 0
 2715 0df8 3CE0     		b	.L152
 2716              	.L157:
 988:build/openmote-cc2538_armgcc/openstack/02b-MAChigh/sixtop.c ****     }
 989:build/openmote-cc2538_armgcc/openstack/02b-MAChigh/sixtop.c **** 
 990:build/openmote-cc2538_armgcc/openstack/02b-MAChigh/sixtop.c ****     //printf("I am node %d, I will send a Keep Alive\n", idmanager_getMyID(ADDR_64B)->addr_64b[7]);
 991:build/openmote-cc2538_armgcc/openstack/02b-MAChigh/sixtop.c ****     // if I get here, I will send a KA
 992:build/openmote-cc2538_armgcc/openstack/02b-MAChigh/sixtop.c **** 
 993:build/openmote-cc2538_armgcc/openstack/02b-MAChigh/sixtop.c ****     // get a free packet buffer
 994:build/openmote-cc2538_armgcc/openstack/02b-MAChigh/sixtop.c ****     kaPkt = openqueue_getFreePacketBuffer(COMPONENT_SIXTOP);
 2717              		.loc 1 994 0
 2718 0dfa 0C20     		movs	r0, #12
 2719 0dfc FFF7FEFF 		bl	openqueue_getFreePacketBuffer
 2720 0e00 3860     		str	r0, [r7]
 995:build/openmote-cc2538_armgcc/openstack/02b-MAChigh/sixtop.c ****     if (kaPkt==NULL) {
 2721              		.loc 1 995 0
 2722 0e02 3B68     		ldr	r3, [r7]
 2723 0e04 002B     		cmp	r3, #0
 2724 0e06 06D1     		bne	.L158
 996:build/openmote-cc2538_armgcc/openstack/02b-MAChigh/sixtop.c ****         openserial_printError(
 2725              		.loc 1 996 0
 2726 0e08 0023     		movs	r3, #0
 2727 0e0a 0122     		movs	r2, #1
 2728 0e0c 2C21     		movs	r1, #44
 2729 0e0e 0C20     		movs	r0, #12
 2730 0e10 FFF7FEFF 		bl	openserial_printError
 997:build/openmote-cc2538_armgcc/openstack/02b-MAChigh/sixtop.c ****             COMPONENT_SIXTOP,
 998:build/openmote-cc2538_armgcc/openstack/02b-MAChigh/sixtop.c ****             ERR_NO_FREE_PACKET_BUFFER,
 999:build/openmote-cc2538_armgcc/openstack/02b-MAChigh/sixtop.c ****             (errorparameter_t)1,
1000:build/openmote-cc2538_armgcc/openstack/02b-MAChigh/sixtop.c ****             (errorparameter_t)0
1001:build/openmote-cc2538_armgcc/openstack/02b-MAChigh/sixtop.c ****         );
1002:build/openmote-cc2538_armgcc/openstack/02b-MAChigh/sixtop.c ****         return;
 2731              		.loc 1 1002 0
 2732 0e14 2EE0     		b	.L152
 2733              	.L158:
1003:build/openmote-cc2538_armgcc/openstack/02b-MAChigh/sixtop.c ****    }
1004:build/openmote-cc2538_armgcc/openstack/02b-MAChigh/sixtop.c ****    
1005:build/openmote-cc2538_armgcc/openstack/02b-MAChigh/sixtop.c ****     // declare ownership over that packet
1006:build/openmote-cc2538_armgcc/openstack/02b-MAChigh/sixtop.c ****     kaPkt->creator = COMPONENT_SIXTOP;
 2734              		.loc 1 1006 0
 2735 0e16 3B68     		ldr	r3, [r7]
 2736 0e18 0C22     		movs	r2, #12
 2737 0e1a 1A70     		strb	r2, [r3]
1007:build/openmote-cc2538_armgcc/openstack/02b-MAChigh/sixtop.c ****     kaPkt->owner   = COMPONENT_SIXTOP;
 2738              		.loc 1 1007 0
 2739 0e1c 3B68     		ldr	r3, [r7]
 2740 0e1e 0C22     		movs	r2, #12
 2741 0e20 5A70     		strb	r2, [r3, #1]
1008:build/openmote-cc2538_armgcc/openstack/02b-MAChigh/sixtop.c ****     
1009:build/openmote-cc2538_armgcc/openstack/02b-MAChigh/sixtop.c ****     // some l2 information about this packet
1010:build/openmote-cc2538_armgcc/openstack/02b-MAChigh/sixtop.c ****     kaPkt->l2_frameType = IEEE154_TYPE_DATA;
 2742              		.loc 1 1010 0
 2743 0e22 3B68     		ldr	r3, [r7]
 2744 0e24 0122     		movs	r2, #1
 2745 0e26 83F84D20 		strb	r2, [r3, #77]
1011:build/openmote-cc2538_armgcc/openstack/02b-MAChigh/sixtop.c ****     memcpy(&(kaPkt->l2_nextORpreviousHop),kaNeighAddr,sizeof(open_addr_t));
 2746              		.loc 1 1011 0
 2747 0e2a 3B68     		ldr	r3, [r7]
 2748 0e2c 3C33     		adds	r3, r3, #60
 2749 0e2e 1122     		movs	r2, #17
 2750 0e30 7968     		ldr	r1, [r7, #4]
 2751 0e32 1846     		mov	r0, r3
 2752 0e34 FFF7FEFF 		bl	memcpy
1012:build/openmote-cc2538_armgcc/openstack/02b-MAChigh/sixtop.c ****     
1013:build/openmote-cc2538_armgcc/openstack/02b-MAChigh/sixtop.c ****     // set l2-security attributes
1014:build/openmote-cc2538_armgcc/openstack/02b-MAChigh/sixtop.c ****     kaPkt->l2_securityLevel   = IEEE802154_SECURITY_LEVEL; // do not exchange KAs with 
 2753              		.loc 1 1014 0
 2754 0e38 3B68     		ldr	r3, [r7]
 2755 0e3a 0022     		movs	r2, #0
 2756 0e3c 83F8A020 		strb	r2, [r3, #160]
1015:build/openmote-cc2538_armgcc/openstack/02b-MAChigh/sixtop.c ****     kaPkt->l2_keyIdMode       = IEEE802154_SECURITY_KEYIDMODE;
 2757              		.loc 1 1015 0
 2758 0e40 3B68     		ldr	r3, [r7]
 2759 0e42 0022     		movs	r2, #0
 2760 0e44 83F8A120 		strb	r2, [r3, #161]
1016:build/openmote-cc2538_armgcc/openstack/02b-MAChigh/sixtop.c ****     kaPkt->l2_keyIndex        = IEEE802154_security_getDataKeyIndex();
 2761              		.loc 1 1016 0
 2762 0e48 FFF7FEFF 		bl	IEEE802154_security_getDataKeyIndex
 2763 0e4c 0346     		mov	r3, r0
 2764 0e4e 1A46     		mov	r2, r3
 2765 0e50 3B68     		ldr	r3, [r7]
 2766 0e52 83F8A220 		strb	r2, [r3, #162]
1017:build/openmote-cc2538_armgcc/openstack/02b-MAChigh/sixtop.c **** 
1018:build/openmote-cc2538_armgcc/openstack/02b-MAChigh/sixtop.c ****     kaPkt->isSixtopFake=FALSE;
 2767              		.loc 1 1018 0
 2768 0e56 3B68     		ldr	r3, [r7]
 2769 0e58 0022     		movs	r2, #0
 2770 0e5a 83F84221 		strb	r2, [r3, #322]
1019:build/openmote-cc2538_armgcc/openstack/02b-MAChigh/sixtop.c **** 
1020:build/openmote-cc2538_armgcc/openstack/02b-MAChigh/sixtop.c ****     // put in queue for MAC to handle
1021:build/openmote-cc2538_armgcc/openstack/02b-MAChigh/sixtop.c ****     sixtop_send_internal(kaPkt,FALSE);
 2771              		.loc 1 1021 0
 2772 0e5e 0021     		movs	r1, #0
 2773 0e60 3868     		ldr	r0, [r7]
 2774 0e62 FFF7FEFF 		bl	sixtop_send_internal
1022:build/openmote-cc2538_armgcc/openstack/02b-MAChigh/sixtop.c ****     
1023:build/openmote-cc2538_armgcc/openstack/02b-MAChigh/sixtop.c ****     // I'm now busy sending a KA
1024:build/openmote-cc2538_armgcc/openstack/02b-MAChigh/sixtop.c ****     sixtop_vars.busySendingKA = TRUE;
 2775              		.loc 1 1024 0
 2776 0e66 054B     		ldr	r3, .L161
 2777 0e68 0122     		movs	r2, #1
 2778 0e6a 9A70     		strb	r2, [r3, #2]
 2779 0e6c 02E0     		b	.L152
 2780              	.L159:
 970:build/openmote-cc2538_armgcc/openstack/02b-MAChigh/sixtop.c ****     }
 2781              		.loc 1 970 0
 2782 0e6e 00BF     		nop
 2783 0e70 00E0     		b	.L152
 2784              	.L160:
 976:build/openmote-cc2538_armgcc/openstack/02b-MAChigh/sixtop.c ****     }
 2785              		.loc 1 976 0
 2786 0e72 00BF     		nop
 2787              	.L152:
1025:build/openmote-cc2538_armgcc/openstack/02b-MAChigh/sixtop.c **** 
1026:build/openmote-cc2538_armgcc/openstack/02b-MAChigh/sixtop.c **** #ifdef OPENSIM
1027:build/openmote-cc2538_armgcc/openstack/02b-MAChigh/sixtop.c ****     debugpins_ka_set();
1028:build/openmote-cc2538_armgcc/openstack/02b-MAChigh/sixtop.c ****     debugpins_ka_clr();
1029:build/openmote-cc2538_armgcc/openstack/02b-MAChigh/sixtop.c **** #endif
1030:build/openmote-cc2538_armgcc/openstack/02b-MAChigh/sixtop.c **** }
 2788              		.loc 1 1030 0
 2789 0e74 0837     		adds	r7, r7, #8
 2790              		.cfi_def_cfa_offset 8
 2791 0e76 BD46     		mov	sp, r7
 2792              		.cfi_def_cfa_register 13
 2793              		@ sp needed
 2794 0e78 80BD     		pop	{r7, pc}
 2795              	.L162:
 2796 0e7a 00BF     		.align	2
 2797              	.L161:
 2798 0e7c 00000000 		.word	sixtop_vars
 2799              		.cfi_endproc
 2800              	.LFE18:
 2802              		.align	2
 2803              		.global	timer_sixtop_six2six_timeout_fired
 2804              		.thumb
 2805              		.thumb_func
 2807              	timer_sixtop_six2six_timeout_fired:
 2808              	.LFB19:
1031:build/openmote-cc2538_armgcc/openstack/02b-MAChigh/sixtop.c **** 
1032:build/openmote-cc2538_armgcc/openstack/02b-MAChigh/sixtop.c **** //======= six2six task
1033:build/openmote-cc2538_armgcc/openstack/02b-MAChigh/sixtop.c **** 
1034:build/openmote-cc2538_armgcc/openstack/02b-MAChigh/sixtop.c **** void timer_sixtop_six2six_timeout_fired(void) {
 2809              		.loc 1 1034 0
 2810              		.cfi_startproc
 2811              		@ args = 0, pretend = 0, frame = 0
 2812              		@ frame_needed = 1, uses_anonymous_args = 0
 2813 0e80 80B5     		push	{r7, lr}
 2814              		.cfi_def_cfa_offset 8
 2815              		.cfi_offset 7, -8
 2816              		.cfi_offset 14, -4
 2817 0e82 00AF     		add	r7, sp, #0
 2818              		.cfi_def_cfa_register 7
1035:build/openmote-cc2538_armgcc/openstack/02b-MAChigh/sixtop.c ****   
1036:build/openmote-cc2538_armgcc/openstack/02b-MAChigh/sixtop.c ****     if (sixtop_vars.six2six_state == SIX_STATE_WAIT_CLEARRESPONSE){
 2819              		.loc 1 1036 0
 2820 0e84 0F4B     		ldr	r3, .L165
 2821 0e86 9B7B     		ldrb	r3, [r3, #14]	@ zero_extendqisi2
 2822 0e88 0C2B     		cmp	r3, #12
 2823 0e8a 10D1     		bne	.L164
1037:build/openmote-cc2538_armgcc/openstack/02b-MAChigh/sixtop.c ****         // no response for the 6p clear, just clear locally
1038:build/openmote-cc2538_armgcc/openstack/02b-MAChigh/sixtop.c ****         schedule_removeAllCells(
1039:build/openmote-cc2538_armgcc/openstack/02b-MAChigh/sixtop.c ****             sixtop_vars.cb_sf_getMetadata(),
 2824              		.loc 1 1039 0
 2825 0e8c 0D4B     		ldr	r3, .L165
 2826 0e8e 1B6B     		ldr	r3, [r3, #48]
 2827 0e90 9847     		blx	r3
 2828 0e92 0346     		mov	r3, r0
1038:build/openmote-cc2538_armgcc/openstack/02b-MAChigh/sixtop.c ****             sixtop_vars.cb_sf_getMetadata(),
 2829              		.loc 1 1038 0
 2830 0e94 DBB2     		uxtb	r3, r3
 2831 0e96 0C49     		ldr	r1, .L165+4
 2832 0e98 1846     		mov	r0, r3
 2833 0e9a FFF7FEFF 		bl	schedule_removeAllCells
1040:build/openmote-cc2538_armgcc/openstack/02b-MAChigh/sixtop.c ****             &sixtop_vars.neighborToClearCells
1041:build/openmote-cc2538_armgcc/openstack/02b-MAChigh/sixtop.c ****         );
1042:build/openmote-cc2538_armgcc/openstack/02b-MAChigh/sixtop.c ****         neighbors_resetSequenceNumber(&sixtop_vars.neighborToClearCells);
 2834              		.loc 1 1042 0
 2835 0e9e 0A48     		ldr	r0, .L165+4
 2836 0ea0 FFF7FEFF 		bl	neighbors_resetSequenceNumber
1043:build/openmote-cc2538_armgcc/openstack/02b-MAChigh/sixtop.c ****         memset(&sixtop_vars.neighborToClearCells,0,sizeof(open_addr_t));
 2837              		.loc 1 1043 0
 2838 0ea4 1122     		movs	r2, #17
 2839 0ea6 0021     		movs	r1, #0
 2840 0ea8 0748     		ldr	r0, .L165+4
 2841 0eaa FFF7FEFF 		bl	memset
 2842              	.L164:
1044:build/openmote-cc2538_armgcc/openstack/02b-MAChigh/sixtop.c ****     }
1045:build/openmote-cc2538_armgcc/openstack/02b-MAChigh/sixtop.c ****     // timeout timer fired, reset the state of sixtop to idle
1046:build/openmote-cc2538_armgcc/openstack/02b-MAChigh/sixtop.c ****     sixtop_vars.six2six_state = SIX_STATE_IDLE;
 2843              		.loc 1 1046 0
 2844 0eae 054B     		ldr	r3, .L165
 2845 0eb0 0022     		movs	r2, #0
 2846 0eb2 9A73     		strb	r2, [r3, #14]
1047:build/openmote-cc2538_armgcc/openstack/02b-MAChigh/sixtop.c ****     opentimers_cancel(sixtop_vars.timeoutTimerId);
 2847              		.loc 1 1047 0
 2848 0eb4 034B     		ldr	r3, .L165
 2849 0eb6 5B7A     		ldrb	r3, [r3, #9]	@ zero_extendqisi2
 2850 0eb8 1846     		mov	r0, r3
 2851 0eba FFF7FEFF 		bl	opentimers_cancel
1048:build/openmote-cc2538_armgcc/openstack/02b-MAChigh/sixtop.c **** }
 2852              		.loc 1 1048 0
 2853 0ebe 00BF     		nop
 2854 0ec0 80BD     		pop	{r7, pc}
 2855              	.L166:
 2856 0ec2 00BF     		.align	2
 2857              	.L165:
 2858 0ec4 00000000 		.word	sixtop_vars
 2859 0ec8 3C000000 		.word	sixtop_vars+60
 2860              		.cfi_endproc
 2861              	.LFE19:
 2863              		.align	2
 2864              		.global	sixtop_six2six_sendDone
 2865              		.thumb
 2866              		.thumb_func
 2868              	sixtop_six2six_sendDone:
 2869              	.LFB20:
1049:build/openmote-cc2538_armgcc/openstack/02b-MAChigh/sixtop.c **** 
1050:build/openmote-cc2538_armgcc/openstack/02b-MAChigh/sixtop.c **** void sixtop_six2six_sendDone(OpenQueueEntry_t* msg, owerror_t error){
 2870              		.loc 1 1050 0
 2871              		.cfi_startproc
 2872              		@ args = 0, pretend = 0, frame = 8
 2873              		@ frame_needed = 1, uses_anonymous_args = 0
 2874 0ecc 80B5     		push	{r7, lr}
 2875              		.cfi_def_cfa_offset 8
 2876              		.cfi_offset 7, -8
 2877              		.cfi_offset 14, -4
 2878 0ece 84B0     		sub	sp, sp, #16
 2879              		.cfi_def_cfa_offset 24
 2880 0ed0 02AF     		add	r7, sp, #8
 2881              		.cfi_def_cfa 7, 16
 2882 0ed2 7860     		str	r0, [r7, #4]
 2883 0ed4 0B46     		mov	r3, r1
 2884 0ed6 FB70     		strb	r3, [r7, #3]
1051:build/openmote-cc2538_armgcc/openstack/02b-MAChigh/sixtop.c **** 
1052:build/openmote-cc2538_armgcc/openstack/02b-MAChigh/sixtop.c **** 	//printf("I am node %d, SENDDONE \n",idmanager_getMyID(ADDR_64B)->addr_64b[7]);
1053:build/openmote-cc2538_armgcc/openstack/02b-MAChigh/sixtop.c **** 
1054:build/openmote-cc2538_armgcc/openstack/02b-MAChigh/sixtop.c ****     msg->owner = COMPONENT_SIXTOP_RES;
 2885              		.loc 1 1054 0
 2886 0ed8 7B68     		ldr	r3, [r7, #4]
 2887 0eda 0F22     		movs	r2, #15
 2888 0edc 5A70     		strb	r2, [r3, #1]
1055:build/openmote-cc2538_armgcc/openstack/02b-MAChigh/sixtop.c **** 
1056:build/openmote-cc2538_armgcc/openstack/02b-MAChigh/sixtop.c ****     // if this is a request send done
1057:build/openmote-cc2538_armgcc/openstack/02b-MAChigh/sixtop.c ****     if (msg->l2_sixtop_messageType == SIXTOP_CELL_REQUEST){
 2889              		.loc 1 1057 0
 2890 0ede 7B68     		ldr	r3, [r7, #4]
 2891 0ee0 93F89030 		ldrb	r3, [r3, #144]	@ zero_extendqisi2
 2892 0ee4 002B     		cmp	r3, #0
 2893 0ee6 44D1     		bne	.L168
1058:build/openmote-cc2538_armgcc/openstack/02b-MAChigh/sixtop.c ****         if(error == E_FAIL) {
 2894              		.loc 1 1058 0
 2895 0ee8 FB78     		ldrb	r3, [r7, #3]	@ zero_extendqisi2
 2896 0eea 012B     		cmp	r3, #1
 2897 0eec 03D1     		bne	.L169
1059:build/openmote-cc2538_armgcc/openstack/02b-MAChigh/sixtop.c ****             // reset handler and state if the request is failed to send out
1060:build/openmote-cc2538_armgcc/openstack/02b-MAChigh/sixtop.c ****             sixtop_vars.six2six_state = SIX_STATE_IDLE;
 2898              		.loc 1 1060 0
 2899 0eee 5A4B     		ldr	r3, .L186
 2900 0ef0 0022     		movs	r2, #0
 2901 0ef2 9A73     		strb	r2, [r3, #14]
 2902 0ef4 3DE0     		b	.L168
 2903              	.L169:
1061:build/openmote-cc2538_armgcc/openstack/02b-MAChigh/sixtop.c ****             //printf("I am NODE %d, REQUEST SEND DONE FAIL \n", idmanager_getMyID(ADDR_64B)->addr_6
1062:build/openmote-cc2538_armgcc/openstack/02b-MAChigh/sixtop.c ****         } else {
1063:build/openmote-cc2538_armgcc/openstack/02b-MAChigh/sixtop.c ****         	//printf("I am NODE %d, 6P REQUEST SEND DONE sent successfully \n", idmanager_getMyID(ADDR
1064:build/openmote-cc2538_armgcc/openstack/02b-MAChigh/sixtop.c ****         	if (msg->isSixtopFake){
 2904              		.loc 1 1064 0
 2905 0ef6 7B68     		ldr	r3, [r7, #4]
 2906 0ef8 93F84231 		ldrb	r3, [r3, #322]	@ zero_extendqisi2
 2907 0efc 002B     		cmp	r3, #0
 2908 0efe 01D0     		beq	.L170
1065:build/openmote-cc2538_armgcc/openstack/02b-MAChigh/sixtop.c ****         		whisper_trigger_nextStep();
 2909              		.loc 1 1065 0
 2910 0f00 FFF7FEFF 		bl	whisper_trigger_nextStep
 2911              	.L170:
1066:build/openmote-cc2538_armgcc/openstack/02b-MAChigh/sixtop.c ****         		//printf("I am NODE %d, FAKE 6P REQUEST SEND DONE sent successfully. NEXT STEP \n", idman
1067:build/openmote-cc2538_armgcc/openstack/02b-MAChigh/sixtop.c **** //        		if (whisper_getState()==1){
1068:build/openmote-cc2538_armgcc/openstack/02b-MAChigh/sixtop.c **** //        			printf("I am NODE %d, 6P FAKE send done sent successfully \n", idmanager_getMyID(ADDR_
1069:build/openmote-cc2538_armgcc/openstack/02b-MAChigh/sixtop.c **** //        		    whisper_trigger_nextStep();
1070:build/openmote-cc2538_armgcc/openstack/02b-MAChigh/sixtop.c **** //        		}else{
1071:build/openmote-cc2538_armgcc/openstack/02b-MAChigh/sixtop.c **** //        			printf("I am NODE %d, second 6P FAKE send done sent successfully \n", idmanager_getMyI
1072:build/openmote-cc2538_armgcc/openstack/02b-MAChigh/sixtop.c **** //        		}
1073:build/openmote-cc2538_armgcc/openstack/02b-MAChigh/sixtop.c ****         	}
1074:build/openmote-cc2538_armgcc/openstack/02b-MAChigh/sixtop.c ****             // the packet has been sent out successfully
1075:build/openmote-cc2538_armgcc/openstack/02b-MAChigh/sixtop.c ****             switch (sixtop_vars.six2six_state) {
 2912              		.loc 1 1075 0
 2913 0f04 544B     		ldr	r3, .L186
 2914 0f06 9B7B     		ldrb	r3, [r3, #14]	@ zero_extendqisi2
 2915 0f08 013B     		subs	r3, r3, #1
 2916 0f0a 052B     		cmp	r3, #5
 2917 0f0c 26D8     		bhi	.L185
 2918 0f0e 01A2     		adr	r2, .L173
 2919 0f10 52F823F0 		ldr	pc, [r2, r3, lsl #2]
 2920              		.p2align 2
 2921              	.L173:
 2922 0f14 2D0F0000 		.word	.L172+1
 2923 0f18 350F0000 		.word	.L174+1
 2924 0f1c 3D0F0000 		.word	.L175+1
 2925 0f20 4D0F0000 		.word	.L176+1
 2926 0f24 450F0000 		.word	.L177+1
 2927 0f28 550F0000 		.word	.L178+1
 2928              		.p2align 1
 2929              	.L172:
1076:build/openmote-cc2538_armgcc/openstack/02b-MAChigh/sixtop.c ****             case SIX_STATE_WAIT_ADDREQUEST_SENDDONE:
1077:build/openmote-cc2538_armgcc/openstack/02b-MAChigh/sixtop.c ****                 sixtop_vars.six2six_state = SIX_STATE_WAIT_ADDRESPONSE;
 2930              		.loc 1 1077 0
 2931 0f2c 4A4B     		ldr	r3, .L186
 2932 0f2e 0722     		movs	r2, #7
 2933 0f30 9A73     		strb	r2, [r3, #14]
1078:build/openmote-cc2538_armgcc/openstack/02b-MAChigh/sixtop.c ****                 break;
 2934              		.loc 1 1078 0
 2935 0f32 14E0     		b	.L179
 2936              	.L174:
1079:build/openmote-cc2538_armgcc/openstack/02b-MAChigh/sixtop.c ****             case SIX_STATE_WAIT_DELETEREQUEST_SENDDONE:
1080:build/openmote-cc2538_armgcc/openstack/02b-MAChigh/sixtop.c ****                 sixtop_vars.six2six_state = SIX_STATE_WAIT_DELETERESPONSE;
 2937              		.loc 1 1080 0
 2938 0f34 484B     		ldr	r3, .L186
 2939 0f36 0822     		movs	r2, #8
 2940 0f38 9A73     		strb	r2, [r3, #14]
1081:build/openmote-cc2538_armgcc/openstack/02b-MAChigh/sixtop.c ****                 break;
 2941              		.loc 1 1081 0
 2942 0f3a 10E0     		b	.L179
 2943              	.L175:
1082:build/openmote-cc2538_armgcc/openstack/02b-MAChigh/sixtop.c ****             case SIX_STATE_WAIT_RELOCATEREQUEST_SENDDONE:
1083:build/openmote-cc2538_armgcc/openstack/02b-MAChigh/sixtop.c ****                 sixtop_vars.six2six_state = SIX_STATE_WAIT_RELOCATERESPONSE;
 2944              		.loc 1 1083 0
 2945 0f3c 464B     		ldr	r3, .L186
 2946 0f3e 0922     		movs	r2, #9
 2947 0f40 9A73     		strb	r2, [r3, #14]
1084:build/openmote-cc2538_armgcc/openstack/02b-MAChigh/sixtop.c ****                 break;
 2948              		.loc 1 1084 0
 2949 0f42 0CE0     		b	.L179
 2950              	.L177:
1085:build/openmote-cc2538_armgcc/openstack/02b-MAChigh/sixtop.c ****             case SIX_STATE_WAIT_LISTREQUEST_SENDDONE:
1086:build/openmote-cc2538_armgcc/openstack/02b-MAChigh/sixtop.c ****                 sixtop_vars.six2six_state = SIX_STATE_WAIT_LISTRESPONSE;
 2951              		.loc 1 1086 0
 2952 0f44 444B     		ldr	r3, .L186
 2953 0f46 0B22     		movs	r2, #11
 2954 0f48 9A73     		strb	r2, [r3, #14]
1087:build/openmote-cc2538_armgcc/openstack/02b-MAChigh/sixtop.c ****                 break;
 2955              		.loc 1 1087 0
 2956 0f4a 08E0     		b	.L179
 2957              	.L176:
1088:build/openmote-cc2538_armgcc/openstack/02b-MAChigh/sixtop.c ****             case SIX_STATE_WAIT_COUNTREQUEST_SENDDONE:
1089:build/openmote-cc2538_armgcc/openstack/02b-MAChigh/sixtop.c ****                 sixtop_vars.six2six_state = SIX_STATE_WAIT_COUNTRESPONSE;
 2958              		.loc 1 1089 0
 2959 0f4c 424B     		ldr	r3, .L186
 2960 0f4e 0A22     		movs	r2, #10
 2961 0f50 9A73     		strb	r2, [r3, #14]
1090:build/openmote-cc2538_armgcc/openstack/02b-MAChigh/sixtop.c ****                 break;
 2962              		.loc 1 1090 0
 2963 0f52 04E0     		b	.L179
 2964              	.L178:
1091:build/openmote-cc2538_armgcc/openstack/02b-MAChigh/sixtop.c ****             case SIX_STATE_WAIT_CLEARREQUEST_SENDDONE:
1092:build/openmote-cc2538_armgcc/openstack/02b-MAChigh/sixtop.c ****                 sixtop_vars.six2six_state = SIX_STATE_WAIT_CLEARRESPONSE;
 2965              		.loc 1 1092 0
 2966 0f54 404B     		ldr	r3, .L186
 2967 0f56 0C22     		movs	r2, #12
 2968 0f58 9A73     		strb	r2, [r3, #14]
1093:build/openmote-cc2538_armgcc/openstack/02b-MAChigh/sixtop.c ****                 break;
 2969              		.loc 1 1093 0
 2970 0f5a 00E0     		b	.L179
 2971              	.L185:
1094:build/openmote-cc2538_armgcc/openstack/02b-MAChigh/sixtop.c ****             default:
1095:build/openmote-cc2538_armgcc/openstack/02b-MAChigh/sixtop.c ****                 // should never happen
1096:build/openmote-cc2538_armgcc/openstack/02b-MAChigh/sixtop.c ****                 break;
 2972              		.loc 1 1096 0
 2973 0f5c 00BF     		nop
 2974              	.L179:
1097:build/openmote-cc2538_armgcc/openstack/02b-MAChigh/sixtop.c ****             }
1098:build/openmote-cc2538_armgcc/openstack/02b-MAChigh/sixtop.c ****             // start timeout timer if I am waiting for a response
1099:build/openmote-cc2538_armgcc/openstack/02b-MAChigh/sixtop.c ****             opentimers_scheduleIn(
 2975              		.loc 1 1099 0
 2976 0f5e 3E4B     		ldr	r3, .L186
 2977 0f60 587A     		ldrb	r0, [r3, #9]	@ zero_extendqisi2
 2978 0f62 3E4B     		ldr	r3, .L186+4
 2979 0f64 0093     		str	r3, [sp]
 2980 0f66 0123     		movs	r3, #1
 2981 0f68 0022     		movs	r2, #0
 2982 0f6a 4FF6FF71 		movw	r1, #65535
 2983 0f6e FFF7FEFF 		bl	opentimers_scheduleIn
 2984              	.L168:
1100:build/openmote-cc2538_armgcc/openstack/02b-MAChigh/sixtop.c ****                 sixtop_vars.timeoutTimerId,
1101:build/openmote-cc2538_armgcc/openstack/02b-MAChigh/sixtop.c ****                 SIX2SIX_TIMEOUT_MS,
1102:build/openmote-cc2538_armgcc/openstack/02b-MAChigh/sixtop.c ****                 TIME_MS,
1103:build/openmote-cc2538_armgcc/openstack/02b-MAChigh/sixtop.c ****                 TIMER_ONESHOT,
1104:build/openmote-cc2538_armgcc/openstack/02b-MAChigh/sixtop.c ****                 sixtop_timeout_timer_cb
1105:build/openmote-cc2538_armgcc/openstack/02b-MAChigh/sixtop.c ****             );
1106:build/openmote-cc2538_armgcc/openstack/02b-MAChigh/sixtop.c ****         }
1107:build/openmote-cc2538_armgcc/openstack/02b-MAChigh/sixtop.c ****     }
1108:build/openmote-cc2538_armgcc/openstack/02b-MAChigh/sixtop.c ****     
1109:build/openmote-cc2538_armgcc/openstack/02b-MAChigh/sixtop.c ****     // if this is a response send done
1110:build/openmote-cc2538_armgcc/openstack/02b-MAChigh/sixtop.c ****     if (msg->l2_sixtop_messageType == SIXTOP_CELL_RESPONSE){
 2985              		.loc 1 1110 0
 2986 0f72 7B68     		ldr	r3, [r7, #4]
 2987 0f74 93F89030 		ldrb	r3, [r3, #144]	@ zero_extendqisi2
 2988 0f78 012B     		cmp	r3, #1
 2989 0f7a 66D1     		bne	.L180
1111:build/openmote-cc2538_armgcc/openstack/02b-MAChigh/sixtop.c ****         if(error == E_SUCCESS) {
 2990              		.loc 1 1111 0
 2991 0f7c FB78     		ldrb	r3, [r7, #3]	@ zero_extendqisi2
 2992 0f7e 002B     		cmp	r3, #0
 2993 0f80 63D1     		bne	.L180
1112:build/openmote-cc2538_armgcc/openstack/02b-MAChigh/sixtop.c ****         	//printf("I am node %d, sendDone ACK to 6P RESPONSE packet!!!!!!!!!!!!!!!!!!!!!!!!!! \n", 
1113:build/openmote-cc2538_armgcc/openstack/02b-MAChigh/sixtop.c ****             neighbors_updateSequenceNumber(&(msg->l2_nextORpreviousHop));
 2994              		.loc 1 1113 0
 2995 0f82 7B68     		ldr	r3, [r7, #4]
 2996 0f84 3C33     		adds	r3, r3, #60
 2997 0f86 1846     		mov	r0, r3
 2998 0f88 FFF7FEFF 		bl	neighbors_updateSequenceNumber
1114:build/openmote-cc2538_armgcc/openstack/02b-MAChigh/sixtop.c ****             // in case a response is sent out, check the return code
1115:build/openmote-cc2538_armgcc/openstack/02b-MAChigh/sixtop.c ****             if (msg->l2_sixtop_returnCode == IANA_6TOP_RC_SUCCESS){
 2999              		.loc 1 1115 0
 3000 0f8c 7B68     		ldr	r3, [r7, #4]
 3001 0f8e 93F89330 		ldrb	r3, [r3, #147]	@ zero_extendqisi2
 3002 0f92 002B     		cmp	r3, #0
 3003 0f94 59D1     		bne	.L180
1116:build/openmote-cc2538_armgcc/openstack/02b-MAChigh/sixtop.c ****                 if (msg->l2_sixtop_command == IANA_6TOP_CMD_ADD){
 3004              		.loc 1 1116 0
 3005 0f96 7B68     		ldr	r3, [r7, #4]
 3006 0f98 93F89130 		ldrb	r3, [r3, #145]	@ zero_extendqisi2
 3007 0f9c 012B     		cmp	r3, #1
 3008 0f9e 0ED1     		bne	.L181
1117:build/openmote-cc2538_armgcc/openstack/02b-MAChigh/sixtop.c ****                 	//printf("I am node %d, adding cells  from neigh ACK to ADD RESPONSE\n", idmanager
1118:build/openmote-cc2538_armgcc/openstack/02b-MAChigh/sixtop.c ****                 	//printf("I am node %d, adding cells  METADATA is %d\n", idmanager_getMyID(ADDR_64
1119:build/openmote-cc2538_armgcc/openstack/02b-MAChigh/sixtop.c ****                     sixtop_addCells(
1120:build/openmote-cc2538_armgcc/openstack/02b-MAChigh/sixtop.c ****                         msg->l2_sixtop_frameID,
 3009              		.loc 1 1120 0
 3010 0fa0 7B68     		ldr	r3, [r7, #4]
 3011 0fa2 B3F88E30 		ldrh	r3, [r3, #142]
1119:build/openmote-cc2538_armgcc/openstack/02b-MAChigh/sixtop.c ****                         msg->l2_sixtop_frameID,
 3012              		.loc 1 1119 0
 3013 0fa6 D8B2     		uxtb	r0, r3
1121:build/openmote-cc2538_armgcc/openstack/02b-MAChigh/sixtop.c ****                         msg->l2_sixtop_celllist_add,
 3014              		.loc 1 1121 0
 3015 0fa8 7B68     		ldr	r3, [r7, #4]
 3016 0faa 03F15C01 		add	r1, r3, #92
1119:build/openmote-cc2538_armgcc/openstack/02b-MAChigh/sixtop.c ****                         msg->l2_sixtop_frameID,
 3017              		.loc 1 1119 0
 3018 0fae 7B68     		ldr	r3, [r7, #4]
 3019 0fb0 03F13C02 		add	r2, r3, #60
 3020 0fb4 7B68     		ldr	r3, [r7, #4]
 3021 0fb6 93F89230 		ldrb	r3, [r3, #146]	@ zero_extendqisi2
 3022 0fba FFF7FEFF 		bl	sixtop_addCells
 3023              	.L181:
1122:build/openmote-cc2538_armgcc/openstack/02b-MAChigh/sixtop.c ****                         &(msg->l2_nextORpreviousHop),
1123:build/openmote-cc2538_armgcc/openstack/02b-MAChigh/sixtop.c ****                         msg->l2_sixtop_cellOptions
1124:build/openmote-cc2538_armgcc/openstack/02b-MAChigh/sixtop.c ****                     );
1125:build/openmote-cc2538_armgcc/openstack/02b-MAChigh/sixtop.c ****                 }
1126:build/openmote-cc2538_armgcc/openstack/02b-MAChigh/sixtop.c ****                 
1127:build/openmote-cc2538_armgcc/openstack/02b-MAChigh/sixtop.c ****                 if (msg->l2_sixtop_command == IANA_6TOP_CMD_DELETE){
 3024              		.loc 1 1127 0
 3025 0fbe 7B68     		ldr	r3, [r7, #4]
 3026 0fc0 93F89130 		ldrb	r3, [r3, #145]	@ zero_extendqisi2
 3027 0fc4 022B     		cmp	r3, #2
 3028 0fc6 0ED1     		bne	.L182
1128:build/openmote-cc2538_armgcc/openstack/02b-MAChigh/sixtop.c ****                     sixtop_removeCells(
1129:build/openmote-cc2538_armgcc/openstack/02b-MAChigh/sixtop.c ****                       msg->l2_sixtop_frameID,
 3029              		.loc 1 1129 0
 3030 0fc8 7B68     		ldr	r3, [r7, #4]
 3031 0fca B3F88E30 		ldrh	r3, [r3, #142]
1128:build/openmote-cc2538_armgcc/openstack/02b-MAChigh/sixtop.c ****                     sixtop_removeCells(
 3032              		.loc 1 1128 0
 3033 0fce D8B2     		uxtb	r0, r3
1130:build/openmote-cc2538_armgcc/openstack/02b-MAChigh/sixtop.c ****                         msg->l2_sixtop_celllist_delete,
 3034              		.loc 1 1130 0
 3035 0fd0 7B68     		ldr	r3, [r7, #4]
 3036 0fd2 03F17501 		add	r1, r3, #117
1128:build/openmote-cc2538_armgcc/openstack/02b-MAChigh/sixtop.c ****                     sixtop_removeCells(
 3037              		.loc 1 1128 0
 3038 0fd6 7B68     		ldr	r3, [r7, #4]
 3039 0fd8 03F13C02 		add	r2, r3, #60
 3040 0fdc 7B68     		ldr	r3, [r7, #4]
 3041 0fde 93F89230 		ldrb	r3, [r3, #146]	@ zero_extendqisi2
 3042 0fe2 FFF7FEFF 		bl	sixtop_removeCells
 3043              	.L182:
1131:build/openmote-cc2538_armgcc/openstack/02b-MAChigh/sixtop.c ****                       &(msg->l2_nextORpreviousHop),
1132:build/openmote-cc2538_armgcc/openstack/02b-MAChigh/sixtop.c ****                         msg->l2_sixtop_cellOptions
1133:build/openmote-cc2538_armgcc/openstack/02b-MAChigh/sixtop.c ****                     );
1134:build/openmote-cc2538_armgcc/openstack/02b-MAChigh/sixtop.c ****                 }
1135:build/openmote-cc2538_armgcc/openstack/02b-MAChigh/sixtop.c ****               
1136:build/openmote-cc2538_armgcc/openstack/02b-MAChigh/sixtop.c ****                 if ( msg->l2_sixtop_command == IANA_6TOP_CMD_RELOCATE){
 3044              		.loc 1 1136 0
 3045 0fe6 7B68     		ldr	r3, [r7, #4]
 3046 0fe8 93F89130 		ldrb	r3, [r3, #145]	@ zero_extendqisi2
 3047 0fec 032B     		cmp	r3, #3
 3048 0fee 1DD1     		bne	.L183
1137:build/openmote-cc2538_armgcc/openstack/02b-MAChigh/sixtop.c ****                     sixtop_removeCells(
1138:build/openmote-cc2538_armgcc/openstack/02b-MAChigh/sixtop.c ****                         msg->l2_sixtop_frameID,
 3049              		.loc 1 1138 0
 3050 0ff0 7B68     		ldr	r3, [r7, #4]
 3051 0ff2 B3F88E30 		ldrh	r3, [r3, #142]
1137:build/openmote-cc2538_armgcc/openstack/02b-MAChigh/sixtop.c ****                     sixtop_removeCells(
 3052              		.loc 1 1137 0
 3053 0ff6 D8B2     		uxtb	r0, r3
1139:build/openmote-cc2538_armgcc/openstack/02b-MAChigh/sixtop.c ****                         msg->l2_sixtop_celllist_delete,
 3054              		.loc 1 1139 0
 3055 0ff8 7B68     		ldr	r3, [r7, #4]
 3056 0ffa 03F17501 		add	r1, r3, #117
1137:build/openmote-cc2538_armgcc/openstack/02b-MAChigh/sixtop.c ****                     sixtop_removeCells(
 3057              		.loc 1 1137 0
 3058 0ffe 7B68     		ldr	r3, [r7, #4]
 3059 1000 03F13C02 		add	r2, r3, #60
 3060 1004 7B68     		ldr	r3, [r7, #4]
 3061 1006 93F89230 		ldrb	r3, [r3, #146]	@ zero_extendqisi2
 3062 100a FFF7FEFF 		bl	sixtop_removeCells
1140:build/openmote-cc2538_armgcc/openstack/02b-MAChigh/sixtop.c ****                         &(msg->l2_nextORpreviousHop),
1141:build/openmote-cc2538_armgcc/openstack/02b-MAChigh/sixtop.c ****                         msg->l2_sixtop_cellOptions
1142:build/openmote-cc2538_armgcc/openstack/02b-MAChigh/sixtop.c ****                     );
1143:build/openmote-cc2538_armgcc/openstack/02b-MAChigh/sixtop.c ****                     sixtop_addCells(
1144:build/openmote-cc2538_armgcc/openstack/02b-MAChigh/sixtop.c ****                         msg->l2_sixtop_frameID,
 3063              		.loc 1 1144 0
 3064 100e 7B68     		ldr	r3, [r7, #4]
 3065 1010 B3F88E30 		ldrh	r3, [r3, #142]
1143:build/openmote-cc2538_armgcc/openstack/02b-MAChigh/sixtop.c ****                         msg->l2_sixtop_frameID,
 3066              		.loc 1 1143 0
 3067 1014 D8B2     		uxtb	r0, r3
1145:build/openmote-cc2538_armgcc/openstack/02b-MAChigh/sixtop.c ****                         msg->l2_sixtop_celllist_add,
 3068              		.loc 1 1145 0
 3069 1016 7B68     		ldr	r3, [r7, #4]
 3070 1018 03F15C01 		add	r1, r3, #92
1143:build/openmote-cc2538_armgcc/openstack/02b-MAChigh/sixtop.c ****                         msg->l2_sixtop_frameID,
 3071              		.loc 1 1143 0
 3072 101c 7B68     		ldr	r3, [r7, #4]
 3073 101e 03F13C02 		add	r2, r3, #60
 3074 1022 7B68     		ldr	r3, [r7, #4]
 3075 1024 93F89230 		ldrb	r3, [r3, #146]	@ zero_extendqisi2
 3076 1028 FFF7FEFF 		bl	sixtop_addCells
 3077              	.L183:
1146:build/openmote-cc2538_armgcc/openstack/02b-MAChigh/sixtop.c ****                         &(msg->l2_nextORpreviousHop),
1147:build/openmote-cc2538_armgcc/openstack/02b-MAChigh/sixtop.c ****                         msg->l2_sixtop_cellOptions
1148:build/openmote-cc2538_armgcc/openstack/02b-MAChigh/sixtop.c ****                     );
1149:build/openmote-cc2538_armgcc/openstack/02b-MAChigh/sixtop.c ****                 }
1150:build/openmote-cc2538_armgcc/openstack/02b-MAChigh/sixtop.c ****                 
1151:build/openmote-cc2538_armgcc/openstack/02b-MAChigh/sixtop.c ****                 if ( msg->l2_sixtop_command == IANA_6TOP_CMD_CLEAR){
 3078              		.loc 1 1151 0
 3079 102c 7B68     		ldr	r3, [r7, #4]
 3080 102e 93F89130 		ldrb	r3, [r3, #145]	@ zero_extendqisi2
 3081 1032 062B     		cmp	r3, #6
 3082 1034 09D1     		bne	.L180
1152:build/openmote-cc2538_armgcc/openstack/02b-MAChigh/sixtop.c ****                 	//printf("I am NODE %d, receiving RESPONSE send done. DELETING ALL CELLS in my sch
1153:build/openmote-cc2538_armgcc/openstack/02b-MAChigh/sixtop.c ****                     schedule_removeAllCells(
1154:build/openmote-cc2538_armgcc/openstack/02b-MAChigh/sixtop.c ****                         msg->l2_sixtop_frameID, 
 3083              		.loc 1 1154 0
 3084 1036 7B68     		ldr	r3, [r7, #4]
 3085 1038 B3F88E30 		ldrh	r3, [r3, #142]
1153:build/openmote-cc2538_armgcc/openstack/02b-MAChigh/sixtop.c ****                         msg->l2_sixtop_frameID, 
 3086              		.loc 1 1153 0
 3087 103c DAB2     		uxtb	r2, r3
 3088 103e 7B68     		ldr	r3, [r7, #4]
 3089 1040 3C33     		adds	r3, r3, #60
 3090 1042 1946     		mov	r1, r3
 3091 1044 1046     		mov	r0, r2
 3092 1046 FFF7FEFF 		bl	schedule_removeAllCells
 3093              	.L180:
1155:build/openmote-cc2538_armgcc/openstack/02b-MAChigh/sixtop.c ****                         &(msg->l2_nextORpreviousHop)
1156:build/openmote-cc2538_armgcc/openstack/02b-MAChigh/sixtop.c ****                     );
1157:build/openmote-cc2538_armgcc/openstack/02b-MAChigh/sixtop.c ****                     //neighbors_resetSequenceNumber(&(msg->l2_nextORpreviousHop));
1158:build/openmote-cc2538_armgcc/openstack/02b-MAChigh/sixtop.c ****                 }
1159:build/openmote-cc2538_armgcc/openstack/02b-MAChigh/sixtop.c ****             } else {
1160:build/openmote-cc2538_armgcc/openstack/02b-MAChigh/sixtop.c ****             	//printf("I am node %d, sendDone ACK to 6P RESPONSE packet is FAIL! \n", idmanager_get
1161:build/openmote-cc2538_armgcc/openstack/02b-MAChigh/sixtop.c ****                 // the return code doesn't end up with SUCCESS
1162:build/openmote-cc2538_armgcc/openstack/02b-MAChigh/sixtop.c ****                 // The return code will be processed on request side.
1163:build/openmote-cc2538_armgcc/openstack/02b-MAChigh/sixtop.c ****             }
1164:build/openmote-cc2538_armgcc/openstack/02b-MAChigh/sixtop.c ****         } else {
1165:build/openmote-cc2538_armgcc/openstack/02b-MAChigh/sixtop.c ****             // doesn't receive the ACK of response packet from request side after maximum retries.
1166:build/openmote-cc2538_armgcc/openstack/02b-MAChigh/sixtop.c ****         }
1167:build/openmote-cc2538_armgcc/openstack/02b-MAChigh/sixtop.c ****     }
1168:build/openmote-cc2538_armgcc/openstack/02b-MAChigh/sixtop.c ****     // free the buffer
1169:build/openmote-cc2538_armgcc/openstack/02b-MAChigh/sixtop.c ****     openqueue_freePacketBuffer(msg);
 3094              		.loc 1 1169 0
 3095 104a 7868     		ldr	r0, [r7, #4]
 3096 104c FFF7FEFF 		bl	openqueue_freePacketBuffer
1170:build/openmote-cc2538_armgcc/openstack/02b-MAChigh/sixtop.c **** }
 3097              		.loc 1 1170 0
 3098 1050 00BF     		nop
 3099 1052 0837     		adds	r7, r7, #8
 3100              		.cfi_def_cfa_offset 8
 3101 1054 BD46     		mov	sp, r7
 3102              		.cfi_def_cfa_register 13
 3103              		@ sp needed
 3104 1056 80BD     		pop	{r7, pc}
 3105              	.L187:
 3106              		.align	2
 3107              	.L186:
 3108 1058 00000000 		.word	sixtop_vars
 3109 105c 00000000 		.word	sixtop_timeout_timer_cb
 3110              		.cfi_endproc
 3111              	.LFE20:
 3113              		.align	2
 3114              		.global	sixtop_processIEs
 3115              		.thumb
 3116              		.thumb_func
 3118              	sixtop_processIEs:
 3119              	.LFB21:
1171:build/openmote-cc2538_armgcc/openstack/02b-MAChigh/sixtop.c **** 
1172:build/openmote-cc2538_armgcc/openstack/02b-MAChigh/sixtop.c **** port_INLINE bool sixtop_processIEs(OpenQueueEntry_t* pkt, uint16_t * lenIE) {
 3120              		.loc 1 1172 0
 3121              		.cfi_startproc
 3122              		@ args = 0, pretend = 0, frame = 24
 3123              		@ frame_needed = 1, uses_anonymous_args = 0
 3124 1060 B0B5     		push	{r4, r5, r7, lr}
 3125              		.cfi_def_cfa_offset 16
 3126              		.cfi_offset 4, -16
 3127              		.cfi_offset 5, -12
 3128              		.cfi_offset 7, -8
 3129              		.cfi_offset 14, -4
 3130 1062 8AB0     		sub	sp, sp, #40
 3131              		.cfi_def_cfa_offset 56
 3132 1064 04AF     		add	r7, sp, #16
 3133              		.cfi_def_cfa 7, 40
 3134 1066 7860     		str	r0, [r7, #4]
 3135 1068 3960     		str	r1, [r7]
1173:build/openmote-cc2538_armgcc/openstack/02b-MAChigh/sixtop.c ****     uint8_t ptr;
1174:build/openmote-cc2538_armgcc/openstack/02b-MAChigh/sixtop.c ****     uint8_t temp_8b;
1175:build/openmote-cc2538_armgcc/openstack/02b-MAChigh/sixtop.c ****     uint8_t subtypeid,code,sfid,version,type,seqNum;
1176:build/openmote-cc2538_armgcc/openstack/02b-MAChigh/sixtop.c ****     uint16_t temp_16b,len,headerlen;
1177:build/openmote-cc2538_armgcc/openstack/02b-MAChigh/sixtop.c ****    
1178:build/openmote-cc2538_armgcc/openstack/02b-MAChigh/sixtop.c ****     ptr         = 0;
 3136              		.loc 1 1178 0
 3137 106a 0023     		movs	r3, #0
 3138 106c FB75     		strb	r3, [r7, #23]
1179:build/openmote-cc2538_armgcc/openstack/02b-MAChigh/sixtop.c ****     headerlen   = 0;
 3139              		.loc 1 1179 0
 3140 106e 0023     		movs	r3, #0
 3141 1070 BB82     		strh	r3, [r7, #20]	@ movhi
1180:build/openmote-cc2538_armgcc/openstack/02b-MAChigh/sixtop.c ****   
1181:build/openmote-cc2538_armgcc/openstack/02b-MAChigh/sixtop.c ****     //candidate IE header  if type ==0 header IE if type==1 payload IE
1182:build/openmote-cc2538_armgcc/openstack/02b-MAChigh/sixtop.c ****     temp_8b     = *((uint8_t*)(pkt->payload)+ptr);
 3142              		.loc 1 1182 0
 3143 1072 7B68     		ldr	r3, [r7, #4]
 3144 1074 5A68     		ldr	r2, [r3, #4]
 3145 1076 FB7D     		ldrb	r3, [r7, #23]	@ zero_extendqisi2
 3146 1078 1344     		add	r3, r3, r2
 3147 107a 1B78     		ldrb	r3, [r3]
 3148 107c FB74     		strb	r3, [r7, #19]
1183:build/openmote-cc2538_armgcc/openstack/02b-MAChigh/sixtop.c ****     ptr++;
 3149              		.loc 1 1183 0
 3150 107e FB7D     		ldrb	r3, [r7, #23]	@ zero_extendqisi2
 3151 1080 0133     		adds	r3, r3, #1
 3152 1082 FB75     		strb	r3, [r7, #23]
1184:build/openmote-cc2538_armgcc/openstack/02b-MAChigh/sixtop.c ****     temp_16b    = temp_8b + ((*((uint8_t*)(pkt->payload)+ptr))<<8);
 3153              		.loc 1 1184 0
 3154 1084 FB7C     		ldrb	r3, [r7, #19]	@ zero_extendqisi2
 3155 1086 9AB2     		uxth	r2, r3
 3156 1088 7B68     		ldr	r3, [r7, #4]
 3157 108a 5968     		ldr	r1, [r3, #4]
 3158 108c FB7D     		ldrb	r3, [r7, #23]	@ zero_extendqisi2
 3159 108e 0B44     		add	r3, r3, r1
 3160 1090 1B78     		ldrb	r3, [r3]	@ zero_extendqisi2
 3161 1092 9BB2     		uxth	r3, r3
 3162 1094 1B02     		lsls	r3, r3, #8
 3163 1096 9BB2     		uxth	r3, r3
 3164 1098 1344     		add	r3, r3, r2
 3165 109a 3B82     		strh	r3, [r7, #16]	@ movhi
1185:build/openmote-cc2538_armgcc/openstack/02b-MAChigh/sixtop.c ****     ptr++;
 3166              		.loc 1 1185 0
 3167 109c FB7D     		ldrb	r3, [r7, #23]	@ zero_extendqisi2
 3168 109e 0133     		adds	r3, r3, #1
 3169 10a0 FB75     		strb	r3, [r7, #23]
1186:build/openmote-cc2538_armgcc/openstack/02b-MAChigh/sixtop.c ****     *lenIE += 2;
 3170              		.loc 1 1186 0
 3171 10a2 3B68     		ldr	r3, [r7]
 3172 10a4 1B88     		ldrh	r3, [r3]
 3173 10a6 0233     		adds	r3, r3, #2
 3174 10a8 9AB2     		uxth	r2, r3
 3175 10aa 3B68     		ldr	r3, [r7]
 3176 10ac 1A80     		strh	r2, [r3]	@ movhi
1187:build/openmote-cc2538_armgcc/openstack/02b-MAChigh/sixtop.c ****     // check ietf ie group id, type
1188:build/openmote-cc2538_armgcc/openstack/02b-MAChigh/sixtop.c ****     if ((temp_16b & IEEE802154E_DESC_LEN_PAYLOAD_ID_TYPE_MASK) != (IANA_IETF_IE_GROUP_ID | IANA_IET
 3177              		.loc 1 1188 0
 3178 10ae 3B8A     		ldrh	r3, [r7, #16]
 3179 10b0 03F47843 		and	r3, r3, #63488
 3180 10b4 B3F5284F 		cmp	r3, #43008
 3181 10b8 07D0     		beq	.L189
1189:build/openmote-cc2538_armgcc/openstack/02b-MAChigh/sixtop.c ****         // wrong IE ID or type, record and drop the packet
1190:build/openmote-cc2538_armgcc/openstack/02b-MAChigh/sixtop.c ****         openserial_printError(COMPONENT_SIXTOP,ERR_UNSUPPORTED_FORMAT,0,0);
 3182              		.loc 1 1190 0
 3183 10ba 0023     		movs	r3, #0
 3184 10bc 0022     		movs	r2, #0
 3185 10be 4021     		movs	r1, #64
 3186 10c0 0C20     		movs	r0, #12
 3187 10c2 FFF7FEFF 		bl	openserial_printError
1191:build/openmote-cc2538_armgcc/openstack/02b-MAChigh/sixtop.c ****         return FALSE;
 3188              		.loc 1 1191 0
 3189 10c6 0023     		movs	r3, #0
 3190 10c8 80E0     		b	.L190
 3191              	.L189:
1192:build/openmote-cc2538_armgcc/openstack/02b-MAChigh/sixtop.c ****     }
1193:build/openmote-cc2538_armgcc/openstack/02b-MAChigh/sixtop.c ****     len = temp_16b & IEEE802154E_DESC_LEN_PAYLOAD_IE_MASK;
 3192              		.loc 1 1193 0
 3193 10ca 3B8A     		ldrh	r3, [r7, #16]	@ movhi
 3194 10cc C3F30A03 		ubfx	r3, r3, #0, #11
 3195 10d0 FB81     		strh	r3, [r7, #14]	@ movhi
1194:build/openmote-cc2538_armgcc/openstack/02b-MAChigh/sixtop.c ****     *lenIE += len;
 3196              		.loc 1 1194 0
 3197 10d2 3B68     		ldr	r3, [r7]
 3198 10d4 1A88     		ldrh	r2, [r3]
 3199 10d6 FB89     		ldrh	r3, [r7, #14]	@ movhi
 3200 10d8 1344     		add	r3, r3, r2
 3201 10da 9AB2     		uxth	r2, r3
 3202 10dc 3B68     		ldr	r3, [r7]
 3203 10de 1A80     		strh	r2, [r3]	@ movhi
1195:build/openmote-cc2538_armgcc/openstack/02b-MAChigh/sixtop.c ****   
1196:build/openmote-cc2538_armgcc/openstack/02b-MAChigh/sixtop.c ****     // check 6p subtype Id
1197:build/openmote-cc2538_armgcc/openstack/02b-MAChigh/sixtop.c ****     subtypeid  = *((uint8_t*)(pkt->payload)+ptr);
 3204              		.loc 1 1197 0
 3205 10e0 7B68     		ldr	r3, [r7, #4]
 3206 10e2 5A68     		ldr	r2, [r3, #4]
 3207 10e4 FB7D     		ldrb	r3, [r7, #23]	@ zero_extendqisi2
 3208 10e6 1344     		add	r3, r3, r2
 3209 10e8 1B78     		ldrb	r3, [r3]
 3210 10ea 7B73     		strb	r3, [r7, #13]
1198:build/openmote-cc2538_armgcc/openstack/02b-MAChigh/sixtop.c ****     ptr += 1;
 3211              		.loc 1 1198 0
 3212 10ec FB7D     		ldrb	r3, [r7, #23]
 3213 10ee 0133     		adds	r3, r3, #1
 3214 10f0 FB75     		strb	r3, [r7, #23]
1199:build/openmote-cc2538_armgcc/openstack/02b-MAChigh/sixtop.c ****     if (subtypeid != IANA_6TOP_SUBIE_ID){
 3215              		.loc 1 1199 0
 3216 10f2 7B7B     		ldrb	r3, [r7, #13]	@ zero_extendqisi2
 3217 10f4 C92B     		cmp	r3, #201
 3218 10f6 07D0     		beq	.L191
1200:build/openmote-cc2538_armgcc/openstack/02b-MAChigh/sixtop.c ****         // wrong subtypeID, record and drop the packet
1201:build/openmote-cc2538_armgcc/openstack/02b-MAChigh/sixtop.c ****         openserial_printError(COMPONENT_SIXTOP,ERR_UNSUPPORTED_FORMAT,1,0);
 3219              		.loc 1 1201 0
 3220 10f8 0023     		movs	r3, #0
 3221 10fa 0122     		movs	r2, #1
 3222 10fc 4021     		movs	r1, #64
 3223 10fe 0C20     		movs	r0, #12
 3224 1100 FFF7FEFF 		bl	openserial_printError
1202:build/openmote-cc2538_armgcc/openstack/02b-MAChigh/sixtop.c ****         return FALSE;
 3225              		.loc 1 1202 0
 3226 1104 0023     		movs	r3, #0
 3227 1106 61E0     		b	.L190
 3228              	.L191:
1203:build/openmote-cc2538_armgcc/openstack/02b-MAChigh/sixtop.c ****     }
1204:build/openmote-cc2538_armgcc/openstack/02b-MAChigh/sixtop.c ****     headerlen += 1;
 3229              		.loc 1 1204 0
 3230 1108 BB8A     		ldrh	r3, [r7, #20]	@ movhi
 3231 110a 0133     		adds	r3, r3, #1
 3232 110c BB82     		strh	r3, [r7, #20]	@ movhi
1205:build/openmote-cc2538_armgcc/openstack/02b-MAChigh/sixtop.c ****     
1206:build/openmote-cc2538_armgcc/openstack/02b-MAChigh/sixtop.c ****     // check 6p version
1207:build/openmote-cc2538_armgcc/openstack/02b-MAChigh/sixtop.c ****     temp_8b = *((uint8_t*)(pkt->payload)+ptr);
 3233              		.loc 1 1207 0
 3234 110e 7B68     		ldr	r3, [r7, #4]
 3235 1110 5A68     		ldr	r2, [r3, #4]
 3236 1112 FB7D     		ldrb	r3, [r7, #23]	@ zero_extendqisi2
 3237 1114 1344     		add	r3, r3, r2
 3238 1116 1B78     		ldrb	r3, [r3]
 3239 1118 FB74     		strb	r3, [r7, #19]
1208:build/openmote-cc2538_armgcc/openstack/02b-MAChigh/sixtop.c ****     ptr += 1;
 3240              		.loc 1 1208 0
 3241 111a FB7D     		ldrb	r3, [r7, #23]
 3242 111c 0133     		adds	r3, r3, #1
 3243 111e FB75     		strb	r3, [r7, #23]
1209:build/openmote-cc2538_armgcc/openstack/02b-MAChigh/sixtop.c ****     // 6p doesn't define type 3
1210:build/openmote-cc2538_armgcc/openstack/02b-MAChigh/sixtop.c ****     if (temp_8b>>IANA_6TOP_TYPE_SHIFT == 3){
 3244              		.loc 1 1210 0
 3245 1120 FB7C     		ldrb	r3, [r7, #19]	@ zero_extendqisi2
 3246 1122 1B09     		lsrs	r3, r3, #4
 3247 1124 DBB2     		uxtb	r3, r3
 3248 1126 032B     		cmp	r3, #3
 3249 1128 07D1     		bne	.L192
1211:build/openmote-cc2538_armgcc/openstack/02b-MAChigh/sixtop.c ****         // wrong type, record and drop the packet
1212:build/openmote-cc2538_armgcc/openstack/02b-MAChigh/sixtop.c ****         openserial_printError(COMPONENT_SIXTOP,ERR_UNSUPPORTED_FORMAT,2,0);
 3250              		.loc 1 1212 0
 3251 112a 0023     		movs	r3, #0
 3252 112c 0222     		movs	r2, #2
 3253 112e 4021     		movs	r1, #64
 3254 1130 0C20     		movs	r0, #12
 3255 1132 FFF7FEFF 		bl	openserial_printError
1213:build/openmote-cc2538_armgcc/openstack/02b-MAChigh/sixtop.c ****         return FALSE;
 3256              		.loc 1 1213 0
 3257 1136 0023     		movs	r3, #0
 3258 1138 48E0     		b	.L190
 3259              	.L192:
1214:build/openmote-cc2538_armgcc/openstack/02b-MAChigh/sixtop.c ****     }
1215:build/openmote-cc2538_armgcc/openstack/02b-MAChigh/sixtop.c ****     version    = temp_8b &  IANA_6TOP_VESION_MASK;
 3260              		.loc 1 1215 0
 3261 113a FB7C     		ldrb	r3, [r7, #19]
 3262 113c 03F00F03 		and	r3, r3, #15
 3263 1140 3B73     		strb	r3, [r7, #12]
