   1              		.syntax unified
   2              		.cpu cortex-m3
   3              		.fpu softvfp
   4              		.eabi_attribute 20, 1
   5              		.eabi_attribute 21, 1
   6              		.eabi_attribute 23, 3
   7              		.eabi_attribute 24, 1
   8              		.eabi_attribute 25, 1
   9              		.eabi_attribute 26, 1
  10              		.eabi_attribute 30, 6
  11              		.eabi_attribute 34, 1
  12              		.eabi_attribute 18, 4
  13              		.thumb
  14              		.syntax unified
  15              		.file	"cborencoder.c"
  16              		.text
  17              	.Ltext0:
  18              		.cfi_sections	.debug_frame
  19              		.section	.rodata
  20              		.align	2
  23              	rreg_uriquery:
  24 0000 683D7563 		.ascii	"h=ucb\000"
  24      6200
  25 0006 0000     		.align	2
  28              	infoBoardname:
  29 0008 43433235 		.ascii	"CC2538\000"
  29      333800
  30 000f 00       		.align	2
  33              	infouCName:
  34 0010 43433235 		.ascii	"CC2538\000"
  34      333800
  35 0017 00       		.align	2
  38              	infoRadioName:
  39 0018 43433235 		.ascii	"CC2538 SoC\000"
  39      33382053 
  39      6F4300
  40 0023 00       		.align	2
  43              	infoStackName:
  44 0024 4F70656E 		.ascii	"OpenWSN \000"
  44      57534E20 
  44      00
  45              		.text
  46              		.align	2
  47              		.global	cborencoder_put_text
  48              		.thumb
  49              		.thumb_func
  51              	cborencoder_put_text:
  52              	.LFB0:
  53              		.file 1 "build/openmote-cc2538_armgcc/openapps/opencoap/cborencoder.c"
   1:build/openmote-cc2538_armgcc/openapps/opencoap/cborencoder.c **** /**
   2:build/openmote-cc2538_armgcc/openapps/opencoap/cborencoder.c **** \brief CBOR encoder library.
   3:build/openmote-cc2538_armgcc/openapps/opencoap/cborencoder.c **** 
   4:build/openmote-cc2538_armgcc/openapps/opencoap/cborencoder.c **** \author Martin Gunnarsson <martin.gunnarsson@ri.se>
   5:build/openmote-cc2538_armgcc/openapps/opencoap/cborencoder.c **** */
   6:build/openmote-cc2538_armgcc/openapps/opencoap/cborencoder.c **** 
   7:build/openmote-cc2538_armgcc/openapps/opencoap/cborencoder.c **** 
   8:build/openmote-cc2538_armgcc/openapps/opencoap/cborencoder.c **** #include "cborencoder.h"
   9:build/openmote-cc2538_armgcc/openapps/opencoap/cborencoder.c **** 
  10:build/openmote-cc2538_armgcc/openapps/opencoap/cborencoder.c **** uint8_t cborencoder_put_text(uint8_t **buffer, char *text, uint8_t text_len){
  54              		.loc 1 10 0
  55              		.cfi_startproc
  56              		@ args = 0, pretend = 0, frame = 24
  57              		@ frame_needed = 1, uses_anonymous_args = 0
  58 0000 80B5     		push	{r7, lr}
  59              		.cfi_def_cfa_offset 8
  60              		.cfi_offset 7, -8
  61              		.cfi_offset 14, -4
  62 0002 86B0     		sub	sp, sp, #24
  63              		.cfi_def_cfa_offset 32
  64 0004 00AF     		add	r7, sp, #0
  65              		.cfi_def_cfa_register 7
  66 0006 F860     		str	r0, [r7, #12]
  67 0008 B960     		str	r1, [r7, #8]
  68 000a 1346     		mov	r3, r2
  69 000c FB71     		strb	r3, [r7, #7]
  11:build/openmote-cc2538_armgcc/openapps/opencoap/cborencoder.c **** 	uint8_t ret = 0;
  70              		.loc 1 11 0
  71 000e 0023     		movs	r3, #0
  72 0010 FB75     		strb	r3, [r7, #23]
  12:build/openmote-cc2538_armgcc/openapps/opencoap/cborencoder.c **** 
  13:build/openmote-cc2538_armgcc/openapps/opencoap/cborencoder.c **** 	if(text_len > 23 ){
  73              		.loc 1 13 0
  74 0012 FB79     		ldrb	r3, [r7, #7]	@ zero_extendqisi2
  75 0014 172B     		cmp	r3, #23
  76 0016 15D9     		bls	.L2
  14:build/openmote-cc2538_armgcc/openapps/opencoap/cborencoder.c **** 		**buffer = 0x78;
  77              		.loc 1 14 0
  78 0018 FB68     		ldr	r3, [r7, #12]
  79 001a 1B68     		ldr	r3, [r3]
  80 001c 7822     		movs	r2, #120
  81 001e 1A70     		strb	r2, [r3]
  15:build/openmote-cc2538_armgcc/openapps/opencoap/cborencoder.c **** 		(*buffer)++;
  82              		.loc 1 15 0
  83 0020 FB68     		ldr	r3, [r7, #12]
  84 0022 1B68     		ldr	r3, [r3]
  85 0024 5A1C     		adds	r2, r3, #1
  86 0026 FB68     		ldr	r3, [r7, #12]
  87 0028 1A60     		str	r2, [r3]
  16:build/openmote-cc2538_armgcc/openapps/opencoap/cborencoder.c **** 		**buffer = text_len;
  88              		.loc 1 16 0
  89 002a FB68     		ldr	r3, [r7, #12]
  90 002c 1B68     		ldr	r3, [r3]
  91 002e FA79     		ldrb	r2, [r7, #7]
  92 0030 1A70     		strb	r2, [r3]
  17:build/openmote-cc2538_armgcc/openapps/opencoap/cborencoder.c **** 		(*buffer)++;
  93              		.loc 1 17 0
  94 0032 FB68     		ldr	r3, [r7, #12]
  95 0034 1B68     		ldr	r3, [r3]
  96 0036 5A1C     		adds	r2, r3, #1
  97 0038 FB68     		ldr	r3, [r7, #12]
  98 003a 1A60     		str	r2, [r3]
  18:build/openmote-cc2538_armgcc/openapps/opencoap/cborencoder.c **** 		ret += 2;
  99              		.loc 1 18 0
 100 003c FB7D     		ldrb	r3, [r7, #23]
 101 003e 0233     		adds	r3, r3, #2
 102 0040 FB75     		strb	r3, [r7, #23]
 103 0042 0EE0     		b	.L3
 104              	.L2:
  19:build/openmote-cc2538_armgcc/openapps/opencoap/cborencoder.c **** 	}else{
  20:build/openmote-cc2538_armgcc/openapps/opencoap/cborencoder.c **** 		**buffer = (0x60 | text_len);
 105              		.loc 1 20 0
 106 0044 FB68     		ldr	r3, [r7, #12]
 107 0046 1B68     		ldr	r3, [r3]
 108 0048 FA79     		ldrb	r2, [r7, #7]
 109 004a 42F06002 		orr	r2, r2, #96
 110 004e D2B2     		uxtb	r2, r2
 111 0050 1A70     		strb	r2, [r3]
  21:build/openmote-cc2538_armgcc/openapps/opencoap/cborencoder.c **** 		(*buffer)++;
 112              		.loc 1 21 0
 113 0052 FB68     		ldr	r3, [r7, #12]
 114 0054 1B68     		ldr	r3, [r3]
 115 0056 5A1C     		adds	r2, r3, #1
 116 0058 FB68     		ldr	r3, [r7, #12]
 117 005a 1A60     		str	r2, [r3]
  22:build/openmote-cc2538_armgcc/openapps/opencoap/cborencoder.c **** 		ret += 1;
 118              		.loc 1 22 0
 119 005c FB7D     		ldrb	r3, [r7, #23]
 120 005e 0133     		adds	r3, r3, #1
 121 0060 FB75     		strb	r3, [r7, #23]
 122              	.L3:
  23:build/openmote-cc2538_armgcc/openapps/opencoap/cborencoder.c **** 	}
  24:build/openmote-cc2538_armgcc/openapps/opencoap/cborencoder.c **** 
  25:build/openmote-cc2538_armgcc/openapps/opencoap/cborencoder.c **** 	memcpy(*buffer, text, text_len);
 123              		.loc 1 25 0
 124 0062 FB68     		ldr	r3, [r7, #12]
 125 0064 1B68     		ldr	r3, [r3]
 126 0066 FA79     		ldrb	r2, [r7, #7]	@ zero_extendqisi2
 127 0068 B968     		ldr	r1, [r7, #8]
 128 006a 1846     		mov	r0, r3
 129 006c FFF7FEFF 		bl	memcpy
  26:build/openmote-cc2538_armgcc/openapps/opencoap/cborencoder.c **** 	(*buffer)+= text_len;
 130              		.loc 1 26 0
 131 0070 FB68     		ldr	r3, [r7, #12]
 132 0072 1A68     		ldr	r2, [r3]
 133 0074 FB79     		ldrb	r3, [r7, #7]	@ zero_extendqisi2
 134 0076 1A44     		add	r2, r2, r3
 135 0078 FB68     		ldr	r3, [r7, #12]
 136 007a 1A60     		str	r2, [r3]
  27:build/openmote-cc2538_armgcc/openapps/opencoap/cborencoder.c **** 	ret += text_len;
 137              		.loc 1 27 0
 138 007c FA7D     		ldrb	r2, [r7, #23]
 139 007e FB79     		ldrb	r3, [r7, #7]
 140 0080 1344     		add	r3, r3, r2
 141 0082 FB75     		strb	r3, [r7, #23]
  28:build/openmote-cc2538_armgcc/openapps/opencoap/cborencoder.c **** 	return ret;
 142              		.loc 1 28 0
 143 0084 FB7D     		ldrb	r3, [r7, #23]	@ zero_extendqisi2
  29:build/openmote-cc2538_armgcc/openapps/opencoap/cborencoder.c **** }
 144              		.loc 1 29 0
 145 0086 1846     		mov	r0, r3
 146 0088 1837     		adds	r7, r7, #24
 147              		.cfi_def_cfa_offset 8
 148 008a BD46     		mov	sp, r7
 149              		.cfi_def_cfa_register 13
 150              		@ sp needed
 151 008c 80BD     		pop	{r7, pc}
 152              		.cfi_endproc
 153              	.LFE0:
 155 008e 00BF     		.align	2
 156              		.global	cborencoder_put_array
 157              		.thumb
 158              		.thumb_func
 160              	cborencoder_put_array:
 161              	.LFB1:
  30:build/openmote-cc2538_armgcc/openapps/opencoap/cborencoder.c **** 
  31:build/openmote-cc2538_armgcc/openapps/opencoap/cborencoder.c **** uint8_t cborencoder_put_array(uint8_t **buffer,uint8_t elements){
 162              		.loc 1 31 0
 163              		.cfi_startproc
 164              		@ args = 0, pretend = 0, frame = 8
 165              		@ frame_needed = 1, uses_anonymous_args = 0
 166              		@ link register save eliminated.
 167 0090 80B4     		push	{r7}
 168              		.cfi_def_cfa_offset 4
 169              		.cfi_offset 7, -4
 170 0092 83B0     		sub	sp, sp, #12
 171              		.cfi_def_cfa_offset 16
 172 0094 00AF     		add	r7, sp, #0
 173              		.cfi_def_cfa_register 7
 174 0096 7860     		str	r0, [r7, #4]
 175 0098 0B46     		mov	r3, r1
 176 009a FB70     		strb	r3, [r7, #3]
  32:build/openmote-cc2538_armgcc/openapps/opencoap/cborencoder.c **** 	if(elements > 15){
 177              		.loc 1 32 0
 178 009c FB78     		ldrb	r3, [r7, #3]	@ zero_extendqisi2
 179 009e 0F2B     		cmp	r3, #15
 180 00a0 01D9     		bls	.L6
  33:build/openmote-cc2538_armgcc/openapps/opencoap/cborencoder.c **** 		return 0;
 181              		.loc 1 33 0
 182 00a2 0023     		movs	r3, #0
 183 00a4 0CE0     		b	.L7
 184              	.L6:
  34:build/openmote-cc2538_armgcc/openapps/opencoap/cborencoder.c **** 	}
  35:build/openmote-cc2538_armgcc/openapps/opencoap/cborencoder.c **** 
  36:build/openmote-cc2538_armgcc/openapps/opencoap/cborencoder.c **** 	**buffer = (0x80 | elements);
 185              		.loc 1 36 0
 186 00a6 7B68     		ldr	r3, [r7, #4]
 187 00a8 1B68     		ldr	r3, [r3]
 188 00aa FA78     		ldrb	r2, [r7, #3]
 189 00ac 62F07F02 		orn	r2, r2, #127
 190 00b0 D2B2     		uxtb	r2, r2
 191 00b2 1A70     		strb	r2, [r3]
  37:build/openmote-cc2538_armgcc/openapps/opencoap/cborencoder.c **** 	(*buffer)++;
 192              		.loc 1 37 0
 193 00b4 7B68     		ldr	r3, [r7, #4]
 194 00b6 1B68     		ldr	r3, [r3]
 195 00b8 5A1C     		adds	r2, r3, #1
 196 00ba 7B68     		ldr	r3, [r7, #4]
 197 00bc 1A60     		str	r2, [r3]
  38:build/openmote-cc2538_armgcc/openapps/opencoap/cborencoder.c **** 	return 1;
 198              		.loc 1 38 0
 199 00be 0123     		movs	r3, #1
 200              	.L7:
  39:build/openmote-cc2538_armgcc/openapps/opencoap/cborencoder.c **** }
 201              		.loc 1 39 0
 202 00c0 1846     		mov	r0, r3
 203 00c2 0C37     		adds	r7, r7, #12
 204              		.cfi_def_cfa_offset 4
 205 00c4 BD46     		mov	sp, r7
 206              		.cfi_def_cfa_register 13
 207              		@ sp needed
 208 00c6 80BC     		pop	{r7}
 209              		.cfi_restore 7
 210              		.cfi_def_cfa_offset 0
 211 00c8 7047     		bx	lr
 212              		.cfi_endproc
 213              	.LFE1:
 215 00ca 00BF     		.align	2
 216              		.global	cborencoder_put_bytes
 217              		.thumb
 218              		.thumb_func
 220              	cborencoder_put_bytes:
 221              	.LFB2:
  40:build/openmote-cc2538_armgcc/openapps/opencoap/cborencoder.c **** 
  41:build/openmote-cc2538_armgcc/openapps/opencoap/cborencoder.c **** uint8_t cborencoder_put_bytes(uint8_t **buffer, uint8_t bytes_len, uint8_t *bytes){
 222              		.loc 1 41 0
 223              		.cfi_startproc
 224              		@ args = 0, pretend = 0, frame = 24
 225              		@ frame_needed = 1, uses_anonymous_args = 0
 226 00cc 80B5     		push	{r7, lr}
 227              		.cfi_def_cfa_offset 8
 228              		.cfi_offset 7, -8
 229              		.cfi_offset 14, -4
 230 00ce 86B0     		sub	sp, sp, #24
 231              		.cfi_def_cfa_offset 32
 232 00d0 00AF     		add	r7, sp, #0
 233              		.cfi_def_cfa_register 7
 234 00d2 F860     		str	r0, [r7, #12]
 235 00d4 0B46     		mov	r3, r1
 236 00d6 7A60     		str	r2, [r7, #4]
 237 00d8 FB72     		strb	r3, [r7, #11]
  42:build/openmote-cc2538_armgcc/openapps/opencoap/cborencoder.c **** 	uint8_t ret = 0;
 238              		.loc 1 42 0
 239 00da 0023     		movs	r3, #0
 240 00dc FB75     		strb	r3, [r7, #23]
  43:build/openmote-cc2538_armgcc/openapps/opencoap/cborencoder.c **** 	if(bytes_len > 23){
 241              		.loc 1 43 0
 242 00de FB7A     		ldrb	r3, [r7, #11]	@ zero_extendqisi2
 243 00e0 172B     		cmp	r3, #23
 244 00e2 15D9     		bls	.L9
  44:build/openmote-cc2538_armgcc/openapps/opencoap/cborencoder.c **** 		**buffer = 0x58;
 245              		.loc 1 44 0
 246 00e4 FB68     		ldr	r3, [r7, #12]
 247 00e6 1B68     		ldr	r3, [r3]
 248 00e8 5822     		movs	r2, #88
 249 00ea 1A70     		strb	r2, [r3]
  45:build/openmote-cc2538_armgcc/openapps/opencoap/cborencoder.c **** 		(*buffer)++;
 250              		.loc 1 45 0
 251 00ec FB68     		ldr	r3, [r7, #12]
 252 00ee 1B68     		ldr	r3, [r3]
 253 00f0 5A1C     		adds	r2, r3, #1
 254 00f2 FB68     		ldr	r3, [r7, #12]
 255 00f4 1A60     		str	r2, [r3]
  46:build/openmote-cc2538_armgcc/openapps/opencoap/cborencoder.c **** 		**buffer = bytes_len;
 256              		.loc 1 46 0
 257 00f6 FB68     		ldr	r3, [r7, #12]
 258 00f8 1B68     		ldr	r3, [r3]
 259 00fa FA7A     		ldrb	r2, [r7, #11]
 260 00fc 1A70     		strb	r2, [r3]
  47:build/openmote-cc2538_armgcc/openapps/opencoap/cborencoder.c **** 		(*buffer)++;
 261              		.loc 1 47 0
 262 00fe FB68     		ldr	r3, [r7, #12]
 263 0100 1B68     		ldr	r3, [r3]
 264 0102 5A1C     		adds	r2, r3, #1
 265 0104 FB68     		ldr	r3, [r7, #12]
 266 0106 1A60     		str	r2, [r3]
  48:build/openmote-cc2538_armgcc/openapps/opencoap/cborencoder.c **** 		ret += 2;
 267              		.loc 1 48 0
 268 0108 FB7D     		ldrb	r3, [r7, #23]
 269 010a 0233     		adds	r3, r3, #2
 270 010c FB75     		strb	r3, [r7, #23]
 271 010e 0EE0     		b	.L10
 272              	.L9:
  49:build/openmote-cc2538_armgcc/openapps/opencoap/cborencoder.c **** 	}else{
  50:build/openmote-cc2538_armgcc/openapps/opencoap/cborencoder.c **** 		**buffer = (0x40 | bytes_len);
 273              		.loc 1 50 0
 274 0110 FB68     		ldr	r3, [r7, #12]
 275 0112 1B68     		ldr	r3, [r3]
 276 0114 FA7A     		ldrb	r2, [r7, #11]
 277 0116 42F04002 		orr	r2, r2, #64
 278 011a D2B2     		uxtb	r2, r2
 279 011c 1A70     		strb	r2, [r3]
  51:build/openmote-cc2538_armgcc/openapps/opencoap/cborencoder.c **** 		(*buffer)++;
 280              		.loc 1 51 0
 281 011e FB68     		ldr	r3, [r7, #12]
 282 0120 1B68     		ldr	r3, [r3]
 283 0122 5A1C     		adds	r2, r3, #1
 284 0124 FB68     		ldr	r3, [r7, #12]
 285 0126 1A60     		str	r2, [r3]
  52:build/openmote-cc2538_armgcc/openapps/opencoap/cborencoder.c **** 		ret += 1;
 286              		.loc 1 52 0
 287 0128 FB7D     		ldrb	r3, [r7, #23]
 288 012a 0133     		adds	r3, r3, #1
 289 012c FB75     		strb	r3, [r7, #23]
 290              	.L10:
  53:build/openmote-cc2538_armgcc/openapps/opencoap/cborencoder.c **** 	}
  54:build/openmote-cc2538_armgcc/openapps/opencoap/cborencoder.c **** 	memcpy(*buffer, bytes, bytes_len);
 291              		.loc 1 54 0
 292 012e FB68     		ldr	r3, [r7, #12]
 293 0130 1B68     		ldr	r3, [r3]
 294 0132 FA7A     		ldrb	r2, [r7, #11]	@ zero_extendqisi2
 295 0134 7968     		ldr	r1, [r7, #4]
 296 0136 1846     		mov	r0, r3
 297 0138 FFF7FEFF 		bl	memcpy
  55:build/openmote-cc2538_armgcc/openapps/opencoap/cborencoder.c **** 	(*buffer) += bytes_len;
 298              		.loc 1 55 0
 299 013c FB68     		ldr	r3, [r7, #12]
 300 013e 1A68     		ldr	r2, [r3]
 301 0140 FB7A     		ldrb	r3, [r7, #11]	@ zero_extendqisi2
 302 0142 1A44     		add	r2, r2, r3
 303 0144 FB68     		ldr	r3, [r7, #12]
 304 0146 1A60     		str	r2, [r3]
  56:build/openmote-cc2538_armgcc/openapps/opencoap/cborencoder.c **** 	ret += bytes_len;
 305              		.loc 1 56 0
 306 0148 FA7D     		ldrb	r2, [r7, #23]
 307 014a FB7A     		ldrb	r3, [r7, #11]
 308 014c 1344     		add	r3, r3, r2
 309 014e FB75     		strb	r3, [r7, #23]
  57:build/openmote-cc2538_armgcc/openapps/opencoap/cborencoder.c **** 	return ret;
 310              		.loc 1 57 0
 311 0150 FB7D     		ldrb	r3, [r7, #23]	@ zero_extendqisi2
  58:build/openmote-cc2538_armgcc/openapps/opencoap/cborencoder.c **** }
 312              		.loc 1 58 0
 313 0152 1846     		mov	r0, r3
 314 0154 1837     		adds	r7, r7, #24
 315              		.cfi_def_cfa_offset 8
 316 0156 BD46     		mov	sp, r7
 317              		.cfi_def_cfa_register 13
 318              		@ sp needed
 319 0158 80BD     		pop	{r7, pc}
 320              		.cfi_endproc
 321              	.LFE2:
 323 015a 00BF     		.align	2
 324              		.global	cborencoder_put_map
 325              		.thumb
 326              		.thumb_func
 328              	cborencoder_put_map:
 329              	.LFB3:
  59:build/openmote-cc2538_armgcc/openapps/opencoap/cborencoder.c **** uint8_t cborencoder_put_map(uint8_t **buffer, uint8_t elements){
 330              		.loc 1 59 0
 331              		.cfi_startproc
 332              		@ args = 0, pretend = 0, frame = 8
 333              		@ frame_needed = 1, uses_anonymous_args = 0
 334              		@ link register save eliminated.
 335 015c 80B4     		push	{r7}
 336              		.cfi_def_cfa_offset 4
 337              		.cfi_offset 7, -4
 338 015e 83B0     		sub	sp, sp, #12
 339              		.cfi_def_cfa_offset 16
 340 0160 00AF     		add	r7, sp, #0
 341              		.cfi_def_cfa_register 7
 342 0162 7860     		str	r0, [r7, #4]
 343 0164 0B46     		mov	r3, r1
 344 0166 FB70     		strb	r3, [r7, #3]
  60:build/openmote-cc2538_armgcc/openapps/opencoap/cborencoder.c **** 	if(elements > 15){
 345              		.loc 1 60 0
 346 0168 FB78     		ldrb	r3, [r7, #3]	@ zero_extendqisi2
 347 016a 0F2B     		cmp	r3, #15
 348 016c 01D9     		bls	.L13
  61:build/openmote-cc2538_armgcc/openapps/opencoap/cborencoder.c **** 		return 0;
 349              		.loc 1 61 0
 350 016e 0023     		movs	r3, #0
 351 0170 0CE0     		b	.L14
 352              	.L13:
  62:build/openmote-cc2538_armgcc/openapps/opencoap/cborencoder.c **** 	}
  63:build/openmote-cc2538_armgcc/openapps/opencoap/cborencoder.c **** 	**buffer = (0xa0 | elements);
 353              		.loc 1 63 0
 354 0172 7B68     		ldr	r3, [r7, #4]
 355 0174 1B68     		ldr	r3, [r3]
 356 0176 FA78     		ldrb	r2, [r7, #3]
 357 0178 62F05F02 		orn	r2, r2, #95
 358 017c D2B2     		uxtb	r2, r2
 359 017e 1A70     		strb	r2, [r3]
  64:build/openmote-cc2538_armgcc/openapps/opencoap/cborencoder.c **** 	(*buffer)++;
 360              		.loc 1 64 0
 361 0180 7B68     		ldr	r3, [r7, #4]
 362 0182 1B68     		ldr	r3, [r3]
 363 0184 5A1C     		adds	r2, r3, #1
 364 0186 7B68     		ldr	r3, [r7, #4]
 365 0188 1A60     		str	r2, [r3]
  65:build/openmote-cc2538_armgcc/openapps/opencoap/cborencoder.c **** 
  66:build/openmote-cc2538_armgcc/openapps/opencoap/cborencoder.c **** 	return 1;
 366              		.loc 1 66 0
 367 018a 0123     		movs	r3, #1
 368              	.L14:
  67:build/openmote-cc2538_armgcc/openapps/opencoap/cborencoder.c **** }
 369              		.loc 1 67 0
 370 018c 1846     		mov	r0, r3
 371 018e 0C37     		adds	r7, r7, #12
 372              		.cfi_def_cfa_offset 4
 373 0190 BD46     		mov	sp, r7
 374              		.cfi_def_cfa_register 13
 375              		@ sp needed
 376 0192 80BC     		pop	{r7}
 377              		.cfi_restore 7
 378              		.cfi_def_cfa_offset 0
 379 0194 7047     		bx	lr
 380              		.cfi_endproc
 381              	.LFE3:
 383 0196 00BF     		.align	2
 384              		.global	cborencoder_put_unsigned
 385              		.thumb
 386              		.thumb_func
 388              	cborencoder_put_unsigned:
 389              	.LFB4:
  68:build/openmote-cc2538_armgcc/openapps/opencoap/cborencoder.c **** 
  69:build/openmote-cc2538_armgcc/openapps/opencoap/cborencoder.c **** uint8_t cborencoder_put_unsigned(uint8_t **buffer, uint8_t value){
 390              		.loc 1 69 0
 391              		.cfi_startproc
 392              		@ args = 0, pretend = 0, frame = 8
 393              		@ frame_needed = 1, uses_anonymous_args = 0
 394              		@ link register save eliminated.
 395 0198 80B4     		push	{r7}
 396              		.cfi_def_cfa_offset 4
 397              		.cfi_offset 7, -4
 398 019a 83B0     		sub	sp, sp, #12
 399              		.cfi_def_cfa_offset 16
 400 019c 00AF     		add	r7, sp, #0
 401              		.cfi_def_cfa_register 7
 402 019e 7860     		str	r0, [r7, #4]
 403 01a0 0B46     		mov	r3, r1
 404 01a2 FB70     		strb	r3, [r7, #3]
  70:build/openmote-cc2538_armgcc/openapps/opencoap/cborencoder.c **** 	if(value > 0x17 ){
 405              		.loc 1 70 0
 406 01a4 FB78     		ldrb	r3, [r7, #3]	@ zero_extendqisi2
 407 01a6 172B     		cmp	r3, #23
 408 01a8 13D9     		bls	.L16
  71:build/openmote-cc2538_armgcc/openapps/opencoap/cborencoder.c **** 			(**buffer) = (0x18);
 409              		.loc 1 71 0
 410 01aa 7B68     		ldr	r3, [r7, #4]
 411 01ac 1B68     		ldr	r3, [r3]
 412 01ae 1822     		movs	r2, #24
 413 01b0 1A70     		strb	r2, [r3]
  72:build/openmote-cc2538_armgcc/openapps/opencoap/cborencoder.c **** 			(*buffer)++;
 414              		.loc 1 72 0
 415 01b2 7B68     		ldr	r3, [r7, #4]
 416 01b4 1B68     		ldr	r3, [r3]
 417 01b6 5A1C     		adds	r2, r3, #1
 418 01b8 7B68     		ldr	r3, [r7, #4]
 419 01ba 1A60     		str	r2, [r3]
  73:build/openmote-cc2538_armgcc/openapps/opencoap/cborencoder.c **** 			(**buffer) = (value);
 420              		.loc 1 73 0
 421 01bc 7B68     		ldr	r3, [r7, #4]
 422 01be 1B68     		ldr	r3, [r3]
 423 01c0 FA78     		ldrb	r2, [r7, #3]
 424 01c2 1A70     		strb	r2, [r3]
  74:build/openmote-cc2538_armgcc/openapps/opencoap/cborencoder.c **** 			(*buffer)++;
 425              		.loc 1 74 0
 426 01c4 7B68     		ldr	r3, [r7, #4]
 427 01c6 1B68     		ldr	r3, [r3]
 428 01c8 5A1C     		adds	r2, r3, #1
 429 01ca 7B68     		ldr	r3, [r7, #4]
 430 01cc 1A60     		str	r2, [r3]
  75:build/openmote-cc2538_armgcc/openapps/opencoap/cborencoder.c **** 		return 2;
 431              		.loc 1 75 0
 432 01ce 0223     		movs	r3, #2
 433 01d0 09E0     		b	.L17
 434              	.L16:
  76:build/openmote-cc2538_armgcc/openapps/opencoap/cborencoder.c **** 	}
  77:build/openmote-cc2538_armgcc/openapps/opencoap/cborencoder.c **** 	(**buffer) = (value);
 435              		.loc 1 77 0
 436 01d2 7B68     		ldr	r3, [r7, #4]
 437 01d4 1B68     		ldr	r3, [r3]
 438 01d6 FA78     		ldrb	r2, [r7, #3]
 439 01d8 1A70     		strb	r2, [r3]
  78:build/openmote-cc2538_armgcc/openapps/opencoap/cborencoder.c **** 	(*buffer)++;
 440              		.loc 1 78 0
 441 01da 7B68     		ldr	r3, [r7, #4]
 442 01dc 1B68     		ldr	r3, [r3]
 443 01de 5A1C     		adds	r2, r3, #1
 444 01e0 7B68     		ldr	r3, [r7, #4]
 445 01e2 1A60     		str	r2, [r3]
  79:build/openmote-cc2538_armgcc/openapps/opencoap/cborencoder.c **** 	return 1;
 446              		.loc 1 79 0
 447 01e4 0123     		movs	r3, #1
 448              	.L17:
  80:build/openmote-cc2538_armgcc/openapps/opencoap/cborencoder.c **** }
 449              		.loc 1 80 0
 450 01e6 1846     		mov	r0, r3
 451 01e8 0C37     		adds	r7, r7, #12
 452              		.cfi_def_cfa_offset 4
 453 01ea BD46     		mov	sp, r7
 454              		.cfi_def_cfa_register 13
 455              		@ sp needed
 456 01ec 80BC     		pop	{r7}
 457              		.cfi_restore 7
 458              		.cfi_def_cfa_offset 0
 459 01ee 7047     		bx	lr
 460              		.cfi_endproc
 461              	.LFE4:
 463              	.Letext0:
 464              		.file 2 "/usr/include/newlib/machine/_default_types.h"
 465              		.file 3 "/usr/include/newlib/sys/_stdint.h"
 466              		.file 4 "bsp/boards/openmote-cc2538/board_info.h"
 467              		.file 5 "inc/opendefs.h"