   1              		.syntax unified
   2              		.cpu cortex-m3
   3              		.fpu softvfp
   4              		.eabi_attribute 20, 1
   5              		.eabi_attribute 21, 1
   6              		.eabi_attribute 23, 3
   7              		.eabi_attribute 24, 1
   8              		.eabi_attribute 25, 1
   9              		.eabi_attribute 26, 1
  10              		.eabi_attribute 30, 6
  11              		.eabi_attribute 34, 1
  12              		.eabi_attribute 18, 4
  13              		.thumb
  14              		.syntax unified
  15              		.file	"opencoap.c"
  16              		.text
  17              	.Ltext0:
  18              		.cfi_sections	.debug_frame
  19              		.section	.rodata
  20              		.align	2
  23              	rreg_uriquery:
  24 0000 683D7563 		.ascii	"h=ucb\000"
  24      6200
  25 0006 0000     		.align	2
  28              	infoBoardname:
  29 0008 43433235 		.ascii	"CC2538\000"
  29      333800
  30 000f 00       		.align	2
  33              	infouCName:
  34 0010 43433235 		.ascii	"CC2538\000"
  34      333800
  35 0017 00       		.align	2
  38              	infoRadioName:
  39 0018 43433235 		.ascii	"CC2538 SoC\000"
  39      33382053 
  39      6F4300
  40 0023 00       		.align	2
  43              	infoStackName:
  44 0024 4F70656E 		.ascii	"OpenWSN \000"
  44      57534E20 
  44      00
  45 002d 000000   		.align	2
  48              	ipAddr_ipsoRD:
  49 0030 26       		.byte	38
  50 0031 07       		.byte	7
  51 0032 F7       		.byte	-9
  52 0033 40       		.byte	64
  53 0034 00       		.byte	0
  54 0035 00       		.byte	0
  55 0036 00       		.byte	0
  56 0037 3F       		.byte	63
  57 0038 00       		.byte	0
  58 0039 00       		.byte	0
  59 003a 00       		.byte	0
  60 003b 00       		.byte	0
  61 003c 00       		.byte	0
  62 003d 00       		.byte	0
  63 003e 0E       		.byte	14
  64 003f 29       		.byte	41
  65              		.align	2
  68              	ipAddr_motesEecs:
  69 0040 20       		.byte	32
  70 0041 01       		.byte	1
  71 0042 04       		.byte	4
  72 0043 70       		.byte	112
  73 0044 00       		.byte	0
  74 0045 66       		.byte	102
  75 0046 00       		.byte	0
  76 0047 19       		.byte	25
  77 0048 00       		.byte	0
  78 0049 00       		.byte	0
  79 004a 00       		.byte	0
  80 004b 00       		.byte	0
  81 004c 00       		.byte	0
  82 004d 00       		.byte	0
  83 004e 00       		.byte	0
  84 004f 02       		.byte	2
  85              		.align	2
  88              	ipAddr_local:
  89 0050 26       		.byte	38
  90 0051 07       		.byte	7
  91 0052 F1       		.byte	-15
  92 0053 40       		.byte	64
  93 0054 04       		.byte	4
  94 0055 00       		.byte	0
  95 0056 10       		.byte	16
  96 0057 36       		.byte	54
  97 0058 4D       		.byte	77
  98 0059 CD       		.byte	-51
  99 005a AB       		.byte	-85
 100 005b 54       		.byte	84
 101 005c 81       		.byte	-127
 102 005d 99       		.byte	-103
 103 005e C1       		.byte	-63
 104 005f F7       		.byte	-9
 105              		.align	2
 108              	ipAddr_motedata:
 109 0060 20       		.byte	32
 110 0061 01       		.byte	1
 111 0062 04       		.byte	4
 112 0063 70       		.byte	112
 113 0064 00       		.byte	0
 114 0065 66       		.byte	102
 115 0066 00       		.byte	0
 116 0067 17       		.byte	23
 117 0068 00       		.byte	0
 118 0069 00       		.byte	0
 119 006a 00       		.byte	0
 120 006b 00       		.byte	0
 121 006c 00       		.byte	0
 122 006d 00       		.byte	0
 123 006e 00       		.byte	0
 124 006f 02       		.byte	2
 125              		.align	2
 128              	ipAddr_ringmaster:
 129 0070 BB       		.byte	-69
 130 0071 BB       		.byte	-69
 131 0072 00       		.byte	0
 132 0073 00       		.byte	0
 133 0074 00       		.byte	0
 134 0075 00       		.byte	0
 135 0076 00       		.byte	0
 136 0077 00       		.byte	0
 137 0078 00       		.byte	0
 138 0079 00       		.byte	0
 139 007a 00       		.byte	0
 140 007b 00       		.byte	0
 141 007c 00       		.byte	0
 142 007d 00       		.byte	0
 143 007e 00       		.byte	0
 144 007f 01       		.byte	1
 145              		.align	2
 148              	linklocalprefix:
 149 0080 FE       		.byte	-2
 150 0081 80       		.byte	-128
 151 0082 00       		.byte	0
 152 0083 00       		.byte	0
 153 0084 00       		.byte	0
 154 0085 00       		.byte	0
 155 0086 00       		.byte	0
 156 0087 00       		.byte	0
 157              		.align	2
 160              	all_routers_multicast:
 161 0088 FF       		.byte	-1
 162 0089 02       		.byte	2
 163 008a 00       		.byte	0
 164 008b 00       		.byte	0
 165 008c 00       		.byte	0
 166 008d 00       		.byte	0
 167 008e 00       		.byte	0
 168 008f 00       		.byte	0
 169 0090 00       		.byte	0
 170 0091 00       		.byte	0
 171 0092 00       		.byte	0
 172 0093 00       		.byte	0
 173 0094 00       		.byte	0
 174 0095 00       		.byte	0
 175 0096 00       		.byte	0
 176 0097 1A       		.byte	26
 177              		.comm	opencoap_vars,64,4
 178              		.text
 179              		.align	2
 180              		.global	opencoap_init
 181              		.thumb
 182              		.thumb_func
 184              	opencoap_init:
 185              	.LFB0:
 186              		.file 1 "build/openmote-cc2538_armgcc/openapps/opencoap/opencoap.c"
   1:build/openmote-cc2538_armgcc/openapps/opencoap/opencoap.c **** #include "opendefs.h"
   2:build/openmote-cc2538_armgcc/openapps/opencoap/opencoap.c **** #include "opencoap.h"
   3:build/openmote-cc2538_armgcc/openapps/opencoap/opencoap.c **** #include "openoscoap.h"
   4:build/openmote-cc2538_armgcc/openapps/opencoap/opencoap.c **** #include "openqueue.h"
   5:build/openmote-cc2538_armgcc/openapps/opencoap/opencoap.c **** #include "openserial.h"
   6:build/openmote-cc2538_armgcc/openapps/opencoap/opencoap.c **** #include "openrandom.h"
   7:build/openmote-cc2538_armgcc/openapps/opencoap/opencoap.c **** #include "packetfunctions.h"
   8:build/openmote-cc2538_armgcc/openapps/opencoap/opencoap.c **** #include "idmanager.h"
   9:build/openmote-cc2538_armgcc/openapps/opencoap/opencoap.c **** #include "opentimers.h"
  10:build/openmote-cc2538_armgcc/openapps/opencoap/opencoap.c **** #include "scheduler.h"
  11:build/openmote-cc2538_armgcc/openapps/opencoap/opencoap.c **** #include "cryptoengine.h"
  12:build/openmote-cc2538_armgcc/openapps/opencoap/opencoap.c **** #include "icmpv6rpl.h"
  13:build/openmote-cc2538_armgcc/openapps/opencoap/opencoap.c **** 
  14:build/openmote-cc2538_armgcc/openapps/opencoap/opencoap.c **** //=========================== defines =========================================
  15:build/openmote-cc2538_armgcc/openapps/opencoap/opencoap.c **** 
  16:build/openmote-cc2538_armgcc/openapps/opencoap/opencoap.c **** //=========================== variables =======================================
  17:build/openmote-cc2538_armgcc/openapps/opencoap/opencoap.c **** 
  18:build/openmote-cc2538_armgcc/openapps/opencoap/opencoap.c **** opencoap_vars_t opencoap_vars;
  19:build/openmote-cc2538_armgcc/openapps/opencoap/opencoap.c **** 
  20:build/openmote-cc2538_armgcc/openapps/opencoap/opencoap.c **** //=========================== prototype =======================================
  21:build/openmote-cc2538_armgcc/openapps/opencoap/opencoap.c **** void opencoap_header_encode(OpenQueueEntry_t *msg, 
  22:build/openmote-cc2538_armgcc/openapps/opencoap/opencoap.c ****         uint8_t version, 
  23:build/openmote-cc2538_armgcc/openapps/opencoap/opencoap.c ****         coap_type_t type, 
  24:build/openmote-cc2538_armgcc/openapps/opencoap/opencoap.c ****         uint8_t TKL, 
  25:build/openmote-cc2538_armgcc/openapps/opencoap/opencoap.c ****         coap_code_t code, 
  26:build/openmote-cc2538_armgcc/openapps/opencoap/opencoap.c ****         uint16_t messageID, 
  27:build/openmote-cc2538_armgcc/openapps/opencoap/opencoap.c ****         uint8_t *token); 
  28:build/openmote-cc2538_armgcc/openapps/opencoap/opencoap.c **** 
  29:build/openmote-cc2538_armgcc/openapps/opencoap/opencoap.c **** void opencoap_handle_proxy_scheme(OpenQueueEntry_t *msg,
  30:build/openmote-cc2538_armgcc/openapps/opencoap/opencoap.c ****         coap_header_iht* header,
  31:build/openmote-cc2538_armgcc/openapps/opencoap/opencoap.c ****         coap_option_iht* incomingOptions, 
  32:build/openmote-cc2538_armgcc/openapps/opencoap/opencoap.c ****         uint8_t incomingOptionsLen);
  33:build/openmote-cc2538_armgcc/openapps/opencoap/opencoap.c **** 
  34:build/openmote-cc2538_armgcc/openapps/opencoap/opencoap.c **** void opencoap_handle_stateless_proxy(OpenQueueEntry_t *msg,
  35:build/openmote-cc2538_armgcc/openapps/opencoap/opencoap.c ****         coap_header_iht* header,
  36:build/openmote-cc2538_armgcc/openapps/opencoap/opencoap.c ****         coap_option_iht* incomingOptions, 
  37:build/openmote-cc2538_armgcc/openapps/opencoap/opencoap.c ****         uint8_t incomingOptionsLen);
  38:build/openmote-cc2538_armgcc/openapps/opencoap/opencoap.c **** 
  39:build/openmote-cc2538_armgcc/openapps/opencoap/opencoap.c **** void opencoap_add_stateless_proxy_option(coap_option_iht* option, 
  40:build/openmote-cc2538_armgcc/openapps/opencoap/opencoap.c ****         uint8_t* address, 
  41:build/openmote-cc2538_armgcc/openapps/opencoap/opencoap.c ****         uint8_t addressLen, 
  42:build/openmote-cc2538_armgcc/openapps/opencoap/opencoap.c ****         uint16_t portNumber);
  43:build/openmote-cc2538_armgcc/openapps/opencoap/opencoap.c **** 
  44:build/openmote-cc2538_armgcc/openapps/opencoap/opencoap.c **** void opencoap_forward_message(OpenQueueEntry_t *msg,
  45:build/openmote-cc2538_armgcc/openapps/opencoap/opencoap.c ****         coap_header_iht* header,
  46:build/openmote-cc2538_armgcc/openapps/opencoap/opencoap.c ****         coap_option_iht* outgoinOptions, 
  47:build/openmote-cc2538_armgcc/openapps/opencoap/opencoap.c ****         uint8_t outgoingOptionsLen,
  48:build/openmote-cc2538_armgcc/openapps/opencoap/opencoap.c ****         open_addr_t* destIP,
  49:build/openmote-cc2538_armgcc/openapps/opencoap/opencoap.c ****         uint16_t destPortNumber);
  50:build/openmote-cc2538_armgcc/openapps/opencoap/opencoap.c **** 
  51:build/openmote-cc2538_armgcc/openapps/opencoap/opencoap.c **** //=========================== public ==========================================
  52:build/openmote-cc2538_armgcc/openapps/opencoap/opencoap.c **** 
  53:build/openmote-cc2538_armgcc/openapps/opencoap/opencoap.c **** //===== from stack
  54:build/openmote-cc2538_armgcc/openapps/opencoap/opencoap.c **** 
  55:build/openmote-cc2538_armgcc/openapps/opencoap/opencoap.c **** /**
  56:build/openmote-cc2538_armgcc/openapps/opencoap/opencoap.c **** \brief Initialize this module.
  57:build/openmote-cc2538_armgcc/openapps/opencoap/opencoap.c **** */
  58:build/openmote-cc2538_armgcc/openapps/opencoap/opencoap.c **** void opencoap_init() {
 187              		.loc 1 58 0
 188              		.cfi_startproc
 189              		@ args = 0, pretend = 0, frame = 8
 190              		@ frame_needed = 1, uses_anonymous_args = 0
 191 0000 80B5     		push	{r7, lr}
 192              		.cfi_def_cfa_offset 8
 193              		.cfi_offset 7, -8
 194              		.cfi_offset 14, -4
 195 0002 82B0     		sub	sp, sp, #8
 196              		.cfi_def_cfa_offset 16
 197 0004 00AF     		add	r7, sp, #0
 198              		.cfi_def_cfa_register 7
  59:build/openmote-cc2538_armgcc/openapps/opencoap/opencoap.c ****    uint16_t rand;
  60:build/openmote-cc2538_armgcc/openapps/opencoap/opencoap.c ****    uint8_t pos;
  61:build/openmote-cc2538_armgcc/openapps/opencoap/opencoap.c **** 
  62:build/openmote-cc2538_armgcc/openapps/opencoap/opencoap.c ****    pos = 0;
 199              		.loc 1 62 0
 200 0006 0023     		movs	r3, #0
 201 0008 FB71     		strb	r3, [r7, #7]
  63:build/openmote-cc2538_armgcc/openapps/opencoap/opencoap.c **** 
  64:build/openmote-cc2538_armgcc/openapps/opencoap/opencoap.c ****    // initialize the resource linked list
  65:build/openmote-cc2538_armgcc/openapps/opencoap/opencoap.c ****    opencoap_vars.resources     = NULL;
 202              		.loc 1 65 0
 203 000a 194B     		ldr	r3, .L4
 204 000c 0022     		movs	r2, #0
 205 000e 1A61     		str	r2, [r3, #16]
  66:build/openmote-cc2538_armgcc/openapps/opencoap/opencoap.c ****    
  67:build/openmote-cc2538_armgcc/openapps/opencoap/opencoap.c ****    // initialize the messageID
  68:build/openmote-cc2538_armgcc/openapps/opencoap/opencoap.c ****    opencoap_vars.messageID     = openrandom_get16b();
 206              		.loc 1 68 0
 207 0010 FFF7FEFF 		bl	openrandom_get16b
 208 0014 0346     		mov	r3, r0
 209 0016 1A46     		mov	r2, r3
 210 0018 154B     		ldr	r3, .L4
 211 001a DA82     		strh	r2, [r3, #22]	@ movhi
  69:build/openmote-cc2538_armgcc/openapps/opencoap/opencoap.c **** 
  70:build/openmote-cc2538_armgcc/openapps/opencoap/opencoap.c ****    // stateless proxy vars
  71:build/openmote-cc2538_armgcc/openapps/opencoap/opencoap.c ****    
  72:build/openmote-cc2538_armgcc/openapps/opencoap/opencoap.c ****    //generate a key at random
  73:build/openmote-cc2538_armgcc/openapps/opencoap/opencoap.c ****    while (pos<16) {
 212              		.loc 1 73 0
 213 001c 0FE0     		b	.L2
 214              	.L3:
  74:build/openmote-cc2538_armgcc/openapps/opencoap/opencoap.c ****        rand = openrandom_get16b();
 215              		.loc 1 74 0
 216 001e FFF7FEFF 		bl	openrandom_get16b
 217 0022 0346     		mov	r3, r0
 218 0024 BB80     		strh	r3, [r7, #4]	@ movhi
  75:build/openmote-cc2538_armgcc/openapps/opencoap/opencoap.c ****        memcpy(&opencoap_vars.statelessProxy.key[pos],&rand,2);
 219              		.loc 1 75 0
 220 0026 FB79     		ldrb	r3, [r7, #7]	@ zero_extendqisi2
 221 0028 1833     		adds	r3, r3, #24
 222 002a 114A     		ldr	r2, .L4
 223 002c 1344     		add	r3, r3, r2
 224 002e 391D     		adds	r1, r7, #4
 225 0030 0222     		movs	r2, #2
 226 0032 1846     		mov	r0, r3
 227 0034 FFF7FEFF 		bl	memcpy
  76:build/openmote-cc2538_armgcc/openapps/opencoap/opencoap.c ****        pos+=2;
 228              		.loc 1 76 0
 229 0038 FB79     		ldrb	r3, [r7, #7]
 230 003a 0233     		adds	r3, r3, #2
 231 003c FB71     		strb	r3, [r7, #7]
 232              	.L2:
  73:build/openmote-cc2538_armgcc/openapps/opencoap/opencoap.c ****        rand = openrandom_get16b();
 233              		.loc 1 73 0
 234 003e FB79     		ldrb	r3, [r7, #7]	@ zero_extendqisi2
 235 0040 0F2B     		cmp	r3, #15
 236 0042 ECD9     		bls	.L3
  77:build/openmote-cc2538_armgcc/openapps/opencoap/opencoap.c ****    }
  78:build/openmote-cc2538_armgcc/openapps/opencoap/opencoap.c ****    // init sequence number to zero
  79:build/openmote-cc2538_armgcc/openapps/opencoap/opencoap.c ****    opencoap_vars.statelessProxy.sequenceNumber = 0;
 237              		.loc 1 79 0
 238 0044 0A4B     		ldr	r3, .L4
 239 0046 0022     		movs	r2, #0
 240 0048 83F83F20 		strb	r2, [r3, #63]
  80:build/openmote-cc2538_armgcc/openapps/opencoap/opencoap.c **** 
  81:build/openmote-cc2538_armgcc/openapps/opencoap/opencoap.c ****    // register at UDP stack
  82:build/openmote-cc2538_armgcc/openapps/opencoap/opencoap.c ****    opencoap_vars.desc.port              = WKP_UDP_COAP;
 241              		.loc 1 82 0
 242 004c 084B     		ldr	r3, .L4
 243 004e 41F23362 		movw	r2, #5683
 244 0052 1A80     		strh	r2, [r3]	@ movhi
  83:build/openmote-cc2538_armgcc/openapps/opencoap/opencoap.c ****    opencoap_vars.desc.callbackReceive   = &opencoap_receive;
 245              		.loc 1 83 0
 246 0054 064B     		ldr	r3, .L4
 247 0056 074A     		ldr	r2, .L4+4
 248 0058 5A60     		str	r2, [r3, #4]
  84:build/openmote-cc2538_armgcc/openapps/opencoap/opencoap.c ****    opencoap_vars.desc.callbackSendDone  = opencoap_sendDone;
 249              		.loc 1 84 0
 250 005a 054B     		ldr	r3, .L4
 251 005c 064A     		ldr	r2, .L4+8
 252 005e 9A60     		str	r2, [r3, #8]
  85:build/openmote-cc2538_armgcc/openapps/opencoap/opencoap.c ****    openudp_register(&opencoap_vars.desc);
 253              		.loc 1 85 0
 254 0060 0348     		ldr	r0, .L4
 255 0062 FFF7FEFF 		bl	openudp_register
  86:build/openmote-cc2538_armgcc/openapps/opencoap/opencoap.c **** }
 256              		.loc 1 86 0
 257 0066 00BF     		nop
 258 0068 0837     		adds	r7, r7, #8
 259              		.cfi_def_cfa_offset 8
 260 006a BD46     		mov	sp, r7
 261              		.cfi_def_cfa_register 13
 262              		@ sp needed
 263 006c 80BD     		pop	{r7, pc}
 264              	.L5:
 265 006e 00BF     		.align	2
 266              	.L4:
 267 0070 00000000 		.word	opencoap_vars
 268 0074 00000000 		.word	opencoap_receive
 269 0078 00000000 		.word	opencoap_sendDone
 270              		.cfi_endproc
 271              	.LFE0:
 273              		.align	2
 274              		.global	opencoap_receive
 275              		.thumb
 276              		.thumb_func
 278              	opencoap_receive:
 279              	.LFB1:
  87:build/openmote-cc2538_armgcc/openapps/opencoap/opencoap.c **** 
  88:build/openmote-cc2538_armgcc/openapps/opencoap/opencoap.c **** /**
  89:build/openmote-cc2538_armgcc/openapps/opencoap/opencoap.c **** \brief Indicate a CoAP messages was received.
  90:build/openmote-cc2538_armgcc/openapps/opencoap/opencoap.c **** 
  91:build/openmote-cc2538_armgcc/openapps/opencoap/opencoap.c **** A "CoAP message" is simply a UDP datagram received on the CoAP UDP port.
  92:build/openmote-cc2538_armgcc/openapps/opencoap/opencoap.c **** 
  93:build/openmote-cc2538_armgcc/openapps/opencoap/opencoap.c **** This function will call the appropriate resource, and send back its answer. The
  94:build/openmote-cc2538_armgcc/openapps/opencoap/opencoap.c **** received packetbuffer is reused to contain the response (or error code).
  95:build/openmote-cc2538_armgcc/openapps/opencoap/opencoap.c **** 
  96:build/openmote-cc2538_armgcc/openapps/opencoap/opencoap.c **** \param[in] msg The received CoAP message.
  97:build/openmote-cc2538_armgcc/openapps/opencoap/opencoap.c **** */
  98:build/openmote-cc2538_armgcc/openapps/opencoap/opencoap.c **** void opencoap_receive(OpenQueueEntry_t* msg) {
 280              		.loc 1 98 0
 281              		.cfi_startproc
 282              		@ args = 0, pretend = 0, frame = 232
 283              		@ frame_needed = 1, uses_anonymous_args = 0
 284 007c 90B5     		push	{r4, r7, lr}
 285              		.cfi_def_cfa_offset 12
 286              		.cfi_offset 4, -12
 287              		.cfi_offset 7, -8
 288              		.cfi_offset 14, -4
 289 007e BFB0     		sub	sp, sp, #252
 290              		.cfi_def_cfa_offset 264
 291 0080 04AF     		add	r7, sp, #16
 292              		.cfi_def_cfa 7, 248
 293 0082 7860     		str	r0, [r7, #4]
  99:build/openmote-cc2538_armgcc/openapps/opencoap/opencoap.c ****    uint16_t                  temp_l4_destination_port;
 100:build/openmote-cc2538_armgcc/openapps/opencoap/opencoap.c ****    uint8_t                   index;
 101:build/openmote-cc2538_armgcc/openapps/opencoap/opencoap.c ****    coap_resource_desc_t*     temp_desc;
 102:build/openmote-cc2538_armgcc/openapps/opencoap/opencoap.c ****    bool                      found;
 103:build/openmote-cc2538_armgcc/openapps/opencoap/opencoap.c ****    owerror_t                 outcome = 0;
 294              		.loc 1 103 0
 295 0084 0023     		movs	r3, #0
 296 0086 87F8E230 		strb	r3, [r7, #226]
 104:build/openmote-cc2538_armgcc/openapps/opencoap/opencoap.c ****    coap_type_t               response_type;
 105:build/openmote-cc2538_armgcc/openapps/opencoap/opencoap.c ****    // local variables passed to the handlers (with msg)
 106:build/openmote-cc2538_armgcc/openapps/opencoap/opencoap.c ****    coap_header_iht           coap_header;
 107:build/openmote-cc2538_armgcc/openapps/opencoap/opencoap.c ****    coap_option_iht           coap_incomingOptions[MAX_COAP_OPTIONS];
 108:build/openmote-cc2538_armgcc/openapps/opencoap/opencoap.c ****    coap_option_iht           coap_outgoingOptions[MAX_COAP_OPTIONS];
 109:build/openmote-cc2538_armgcc/openapps/opencoap/opencoap.c ****    uint8_t                   coap_incomingOptionsLen;
 110:build/openmote-cc2538_armgcc/openapps/opencoap/opencoap.c ****    uint8_t                   coap_outgoingOptionsLen;
 111:build/openmote-cc2538_armgcc/openapps/opencoap/opencoap.c ****    uint8_t                   option_count;
 112:build/openmote-cc2538_armgcc/openapps/opencoap/opencoap.c ****    uint8_t                   option_index;
 113:build/openmote-cc2538_armgcc/openapps/opencoap/opencoap.c ****    owerror_t                 decStatus;
 114:build/openmote-cc2538_armgcc/openapps/opencoap/opencoap.c ****    coap_option_iht*          objectSecurity;
 115:build/openmote-cc2538_armgcc/openapps/opencoap/opencoap.c ****    coap_option_iht*          proxyScheme;
 116:build/openmote-cc2538_armgcc/openapps/opencoap/opencoap.c ****    coap_option_iht*          statelessProxy;
 117:build/openmote-cc2538_armgcc/openapps/opencoap/opencoap.c ****    uint16_t                  rcvdSequenceNumber;
 118:build/openmote-cc2538_armgcc/openapps/opencoap/opencoap.c ****    uint8_t*                  rcvdKid;
 119:build/openmote-cc2538_armgcc/openapps/opencoap/opencoap.c ****    uint8_t                   rcvdKidLen;
 120:build/openmote-cc2538_armgcc/openapps/opencoap/opencoap.c ****    oscoap_security_context_t* blindContext;
 121:build/openmote-cc2538_armgcc/openapps/opencoap/opencoap.c ****    coap_code_t               securityReturnCode;
 122:build/openmote-cc2538_armgcc/openapps/opencoap/opencoap.c ****    coap_option_class_t       class;
 123:build/openmote-cc2538_armgcc/openapps/opencoap/opencoap.c **** 
 124:build/openmote-cc2538_armgcc/openapps/opencoap/opencoap.c ****    // init options len
 125:build/openmote-cc2538_armgcc/openapps/opencoap/opencoap.c ****    coap_incomingOptionsLen = MAX_COAP_OPTIONS;
 297              		.loc 1 125 0
 298 008a 0A23     		movs	r3, #10
 299 008c FB75     		strb	r3, [r7, #23]
 126:build/openmote-cc2538_armgcc/openapps/opencoap/opencoap.c ****    coap_outgoingOptionsLen = 0;
 300              		.loc 1 126 0
 301 008e 0023     		movs	r3, #0
 302 0090 BB75     		strb	r3, [r7, #22]
 127:build/openmote-cc2538_armgcc/openapps/opencoap/opencoap.c ****    class = COAP_OPTION_CLASS_ALL;
 303              		.loc 1 127 0
 304 0092 0323     		movs	r3, #3
 305 0094 87F8CE30 		strb	r3, [r7, #206]
 128:build/openmote-cc2538_armgcc/openapps/opencoap/opencoap.c **** 
 129:build/openmote-cc2538_armgcc/openapps/opencoap/opencoap.c ****    // init returnCode
 130:build/openmote-cc2538_armgcc/openapps/opencoap/opencoap.c ****    securityReturnCode = COAP_CODE_EMPTY;
 306              		.loc 1 130 0
 307 0098 0023     		movs	r3, #0
 308 009a 87F8CF30 		strb	r3, [r7, #207]
 131:build/openmote-cc2538_armgcc/openapps/opencoap/opencoap.c **** 
 132:build/openmote-cc2538_armgcc/openapps/opencoap/opencoap.c ****    // take ownership over the received packet
 133:build/openmote-cc2538_armgcc/openapps/opencoap/opencoap.c ****    msg->owner                = COMPONENT_OPENCOAP;
 309              		.loc 1 133 0
 310 009e 7B68     		ldr	r3, [r7, #4]
 311 00a0 1A22     		movs	r2, #26
 312 00a2 5A70     		strb	r2, [r3, #1]
 134:build/openmote-cc2538_armgcc/openapps/opencoap/opencoap.c ****    
 135:build/openmote-cc2538_armgcc/openapps/opencoap/opencoap.c ****    //=== step 1. parse the packet
 136:build/openmote-cc2538_armgcc/openapps/opencoap/opencoap.c ****    
 137:build/openmote-cc2538_armgcc/openapps/opencoap/opencoap.c ****    // parse the CoAP header and remove from packet
 138:build/openmote-cc2538_armgcc/openapps/opencoap/opencoap.c ****    index = 0;
 313              		.loc 1 138 0
 314 00a4 0023     		movs	r3, #0
 315 00a6 87F8CD30 		strb	r3, [r7, #205]
 139:build/openmote-cc2538_armgcc/openapps/opencoap/opencoap.c ****    coap_header.Ver           = (msg->payload[index] & 0xc0) >> 6;
 316              		.loc 1 139 0
 317 00aa 7B68     		ldr	r3, [r7, #4]
 318 00ac 5A68     		ldr	r2, [r3, #4]
 319 00ae 97F8CD30 		ldrb	r3, [r7, #205]	@ zero_extendqisi2
 320 00b2 1344     		add	r3, r3, r2
 321 00b4 1B78     		ldrb	r3, [r3]	@ zero_extendqisi2
 322 00b6 9B09     		lsrs	r3, r3, #6
 323 00b8 DBB2     		uxtb	r3, r3
 324 00ba 87F8B830 		strb	r3, [r7, #184]
 140:build/openmote-cc2538_armgcc/openapps/opencoap/opencoap.c ****    coap_header.T             = (coap_type_t)((msg->payload[index] & 0x30) >> 4);
 325              		.loc 1 140 0
 326 00be 7B68     		ldr	r3, [r7, #4]
 327 00c0 5A68     		ldr	r2, [r3, #4]
 328 00c2 97F8CD30 		ldrb	r3, [r7, #205]	@ zero_extendqisi2
 329 00c6 1344     		add	r3, r3, r2
 330 00c8 1B78     		ldrb	r3, [r3]	@ zero_extendqisi2
 331 00ca 1B11     		asrs	r3, r3, #4
 332 00cc 03F00303 		and	r3, r3, #3
 333 00d0 DBB2     		uxtb	r3, r3
 334 00d2 87F8B930 		strb	r3, [r7, #185]
 141:build/openmote-cc2538_armgcc/openapps/opencoap/opencoap.c ****    coap_header.TKL           = (msg->payload[index] & 0x0f);
 335              		.loc 1 141 0
 336 00d6 7B68     		ldr	r3, [r7, #4]
 337 00d8 5A68     		ldr	r2, [r3, #4]
 338 00da 97F8CD30 		ldrb	r3, [r7, #205]	@ zero_extendqisi2
 339 00de 1344     		add	r3, r3, r2
 340 00e0 1B78     		ldrb	r3, [r3]	@ zero_extendqisi2
 341 00e2 03F00F03 		and	r3, r3, #15
 342 00e6 DBB2     		uxtb	r3, r3
 343 00e8 87F8BA30 		strb	r3, [r7, #186]
 142:build/openmote-cc2538_armgcc/openapps/opencoap/opencoap.c ****    index++;
 344              		.loc 1 142 0
 345 00ec 97F8CD30 		ldrb	r3, [r7, #205]	@ zero_extendqisi2
 346 00f0 0133     		adds	r3, r3, #1
 347 00f2 87F8CD30 		strb	r3, [r7, #205]
 143:build/openmote-cc2538_armgcc/openapps/opencoap/opencoap.c ****    coap_header.Code          = (coap_code_t)(msg->payload[index]);
 348              		.loc 1 143 0
 349 00f6 7B68     		ldr	r3, [r7, #4]
 350 00f8 5A68     		ldr	r2, [r3, #4]
 351 00fa 97F8CD30 		ldrb	r3, [r7, #205]	@ zero_extendqisi2
 352 00fe 1344     		add	r3, r3, r2
 353 0100 1B78     		ldrb	r3, [r3]	@ zero_extendqisi2
 354 0102 87F8BB30 		strb	r3, [r7, #187]
 144:build/openmote-cc2538_armgcc/openapps/opencoap/opencoap.c ****    index++;
 355              		.loc 1 144 0
 356 0106 97F8CD30 		ldrb	r3, [r7, #205]	@ zero_extendqisi2
 357 010a 0133     		adds	r3, r3, #1
 358 010c 87F8CD30 		strb	r3, [r7, #205]
 145:build/openmote-cc2538_armgcc/openapps/opencoap/opencoap.c ****    coap_header.messageID     = msg->payload[index]*256+msg->payload[index+1];
 359              		.loc 1 145 0
 360 0110 7B68     		ldr	r3, [r7, #4]
 361 0112 5A68     		ldr	r2, [r3, #4]
 362 0114 97F8CD30 		ldrb	r3, [r7, #205]	@ zero_extendqisi2
 363 0118 1344     		add	r3, r3, r2
 364 011a 1B78     		ldrb	r3, [r3]	@ zero_extendqisi2
 365 011c 9BB2     		uxth	r3, r3
 366 011e 1B02     		lsls	r3, r3, #8
 367 0120 9AB2     		uxth	r2, r3
 368 0122 7B68     		ldr	r3, [r7, #4]
 369 0124 5968     		ldr	r1, [r3, #4]
 370 0126 97F8CD30 		ldrb	r3, [r7, #205]	@ zero_extendqisi2
 371 012a 0133     		adds	r3, r3, #1
 372 012c 0B44     		add	r3, r3, r1
 373 012e 1B78     		ldrb	r3, [r3]	@ zero_extendqisi2
 374 0130 9BB2     		uxth	r3, r3
 375 0132 1344     		add	r3, r3, r2
 376 0134 9BB2     		uxth	r3, r3
 377 0136 A7F8BC30 		strh	r3, [r7, #188]	@ movhi
 146:build/openmote-cc2538_armgcc/openapps/opencoap/opencoap.c ****    index+=2;
 378              		.loc 1 146 0
 379 013a 97F8CD30 		ldrb	r3, [r7, #205]
 380 013e 0233     		adds	r3, r3, #2
 381 0140 87F8CD30 		strb	r3, [r7, #205]
 147:build/openmote-cc2538_armgcc/openapps/opencoap/opencoap.c ****    
 148:build/openmote-cc2538_armgcc/openapps/opencoap/opencoap.c ****    // reject unsupported header
 149:build/openmote-cc2538_armgcc/openapps/opencoap/opencoap.c ****    if (coap_header.Ver!=COAP_VERSION || coap_header.TKL>COAP_MAX_TKL) {
 382              		.loc 1 149 0
 383 0144 97F8B830 		ldrb	r3, [r7, #184]	@ zero_extendqisi2
 384 0148 012B     		cmp	r3, #1
 385 014a 03D1     		bne	.L7
 386              		.loc 1 149 0 is_stmt 0 discriminator 1
 387 014c 97F8BA30 		ldrb	r3, [r7, #186]	@ zero_extendqisi2
 388 0150 082B     		cmp	r3, #8
 389 0152 0BD9     		bls	.L8
 390              	.L7:
 150:build/openmote-cc2538_armgcc/openapps/opencoap/opencoap.c ****       openserial_printError(
 151:build/openmote-cc2538_armgcc/openapps/opencoap/opencoap.c ****          COMPONENT_OPENCOAP,ERR_WRONG_TRAN_PROTOCOL,
 152:build/openmote-cc2538_armgcc/openapps/opencoap/opencoap.c ****          (errorparameter_t)0,
 153:build/openmote-cc2538_armgcc/openapps/opencoap/opencoap.c ****          (errorparameter_t)coap_header.Ver
 391              		.loc 1 153 0 is_stmt 1
 392 0154 97F8B830 		ldrb	r3, [r7, #184]	@ zero_extendqisi2
 150:build/openmote-cc2538_armgcc/openapps/opencoap/opencoap.c ****       openserial_printError(
 393              		.loc 1 150 0
 394 0158 9BB2     		uxth	r3, r3
 395 015a 0022     		movs	r2, #0
 396 015c 0621     		movs	r1, #6
 397 015e 1A20     		movs	r0, #26
 398 0160 FFF7FEFF 		bl	openserial_printError
 154:build/openmote-cc2538_armgcc/openapps/opencoap/opencoap.c ****       );
 155:build/openmote-cc2538_armgcc/openapps/opencoap/opencoap.c ****       openqueue_freePacketBuffer(msg);
 399              		.loc 1 155 0
 400 0164 7868     		ldr	r0, [r7, #4]
 401 0166 FFF7FEFF 		bl	openqueue_freePacketBuffer
 156:build/openmote-cc2538_armgcc/openapps/opencoap/opencoap.c ****       return;
 402              		.loc 1 156 0
 403 016a C5E3     		b	.L6
 404              	.L8:
 157:build/openmote-cc2538_armgcc/openapps/opencoap/opencoap.c ****    }
 158:build/openmote-cc2538_armgcc/openapps/opencoap/opencoap.c ****    
 159:build/openmote-cc2538_armgcc/openapps/opencoap/opencoap.c ****    // record the token
 160:build/openmote-cc2538_armgcc/openapps/opencoap/opencoap.c ****    memcpy(&coap_header.token[0], &msg->payload[index], coap_header.TKL);
 405              		.loc 1 160 0
 406 016c 7B68     		ldr	r3, [r7, #4]
 407 016e 5A68     		ldr	r2, [r3, #4]
 408 0170 97F8CD30 		ldrb	r3, [r7, #205]	@ zero_extendqisi2
 409 0174 D118     		adds	r1, r2, r3
 410 0176 97F8BA30 		ldrb	r3, [r7, #186]	@ zero_extendqisi2
 411 017a 1A46     		mov	r2, r3
 412 017c 07F1B803 		add	r3, r7, #184
 413 0180 0633     		adds	r3, r3, #6
 414 0182 1846     		mov	r0, r3
 415 0184 FFF7FEFF 		bl	memcpy
 161:build/openmote-cc2538_armgcc/openapps/opencoap/opencoap.c ****    index += coap_header.TKL;
 416              		.loc 1 161 0
 417 0188 97F8BA20 		ldrb	r2, [r7, #186]	@ zero_extendqisi2
 418 018c 97F8CD30 		ldrb	r3, [r7, #205]
 419 0190 1344     		add	r3, r3, r2
 420 0192 87F8CD30 		strb	r3, [r7, #205]
 162:build/openmote-cc2538_armgcc/openapps/opencoap/opencoap.c **** 
 163:build/openmote-cc2538_armgcc/openapps/opencoap/opencoap.c ****    // remove the CoAP header
 164:build/openmote-cc2538_armgcc/openapps/opencoap/opencoap.c ****    packetfunctions_tossHeader(msg,index);
 421              		.loc 1 164 0
 422 0196 97F8CD30 		ldrb	r3, [r7, #205]	@ zero_extendqisi2
 423 019a 1946     		mov	r1, r3
 424 019c 7868     		ldr	r0, [r7, #4]
 425 019e FFF7FEFF 		bl	packetfunctions_tossHeader
 165:build/openmote-cc2538_armgcc/openapps/opencoap/opencoap.c ****     
 166:build/openmote-cc2538_armgcc/openapps/opencoap/opencoap.c ****    // parse options and toss header
 167:build/openmote-cc2538_armgcc/openapps/opencoap/opencoap.c ****    index = opencoap_options_parse(&msg->payload[0], msg->length, coap_incomingOptions, &coap_incomi
 426              		.loc 1 167 0
 427 01a2 7B68     		ldr	r3, [r7, #4]
 428 01a4 5868     		ldr	r0, [r3, #4]
 429 01a6 7B68     		ldr	r3, [r7, #4]
 430 01a8 197A     		ldrb	r1, [r3, #8]	@ zero_extendqisi2
 431 01aa 07F11703 		add	r3, r7, #23
 432 01ae 07F16802 		add	r2, r7, #104
 433 01b2 FFF7FEFF 		bl	opencoap_options_parse
 434 01b6 0346     		mov	r3, r0
 435 01b8 87F8CD30 		strb	r3, [r7, #205]
 168:build/openmote-cc2538_armgcc/openapps/opencoap/opencoap.c **** 
 169:build/openmote-cc2538_armgcc/openapps/opencoap/opencoap.c ****    // toss options
 170:build/openmote-cc2538_armgcc/openapps/opencoap/opencoap.c ****    packetfunctions_tossHeader(msg,index);
 436              		.loc 1 170 0
 437 01bc 97F8CD30 		ldrb	r3, [r7, #205]	@ zero_extendqisi2
 438 01c0 1946     		mov	r1, r3
 439 01c2 7868     		ldr	r0, [r7, #4]
 440 01c4 FFF7FEFF 		bl	packetfunctions_tossHeader
 171:build/openmote-cc2538_armgcc/openapps/opencoap/opencoap.c **** 
 172:build/openmote-cc2538_armgcc/openapps/opencoap/opencoap.c ****    // process handled options
 173:build/openmote-cc2538_armgcc/openapps/opencoap/opencoap.c ****    //== Stateless Proxy option
 174:build/openmote-cc2538_armgcc/openapps/opencoap/opencoap.c ****    option_count = opencoap_find_option(coap_incomingOptions, coap_incomingOptionsLen, COAP_OPTION_N
 441              		.loc 1 174 0
 442 01c8 F97D     		ldrb	r1, [r7, #23]	@ zero_extendqisi2
 443 01ca 07F11503 		add	r3, r7, #21
 444 01ce 07F16800 		add	r0, r7, #104
 445 01d2 2822     		movs	r2, #40
 446 01d4 FFF7FEFF 		bl	opencoap_find_option
 447 01d8 0346     		mov	r3, r0
 448 01da 87F8CC30 		strb	r3, [r7, #204]
 175:build/openmote-cc2538_armgcc/openapps/opencoap/opencoap.c ****    if(option_count >= 1) {
 449              		.loc 1 175 0
 450 01de 97F8CC30 		ldrb	r3, [r7, #204]	@ zero_extendqisi2
 451 01e2 002B     		cmp	r3, #0
 452 01e4 07D0     		beq	.L10
 176:build/openmote-cc2538_armgcc/openapps/opencoap/opencoap.c ****      statelessProxy = &coap_incomingOptions[option_index];
 453              		.loc 1 176 0
 454 01e6 7B7D     		ldrb	r3, [r7, #21]	@ zero_extendqisi2
 455 01e8 07F16802 		add	r2, r7, #104
 456 01ec DB00     		lsls	r3, r3, #3
 457 01ee 1344     		add	r3, r3, r2
 458 01f0 C7F8D430 		str	r3, [r7, #212]
 459 01f4 02E0     		b	.L11
 460              	.L10:
 177:build/openmote-cc2538_armgcc/openapps/opencoap/opencoap.c ****    } else {
 178:build/openmote-cc2538_armgcc/openapps/opencoap/opencoap.c ****      statelessProxy = NULL;
 461              		.loc 1 178 0
 462 01f6 0023     		movs	r3, #0
 463 01f8 C7F8D430 		str	r3, [r7, #212]
 464              	.L11:
 179:build/openmote-cc2538_armgcc/openapps/opencoap/opencoap.c ****    }
 180:build/openmote-cc2538_armgcc/openapps/opencoap/opencoap.c ****    if (statelessProxy) {
 465              		.loc 1 180 0
 466 01fc D7F8D430 		ldr	r3, [r7, #212]
 467 0200 002B     		cmp	r3, #0
 468 0202 0BD0     		beq	.L12
 181:build/openmote-cc2538_armgcc/openapps/opencoap/opencoap.c ****        opencoap_handle_stateless_proxy(msg, &coap_header, coap_incomingOptions, coap_incomingOption
 469              		.loc 1 181 0
 470 0204 FB7D     		ldrb	r3, [r7, #23]	@ zero_extendqisi2
 471 0206 07F16802 		add	r2, r7, #104
 472 020a 07F1B801 		add	r1, r7, #184
 473 020e 7868     		ldr	r0, [r7, #4]
 474 0210 FFF7FEFF 		bl	opencoap_handle_stateless_proxy
 182:build/openmote-cc2538_armgcc/openapps/opencoap/opencoap.c ****        openqueue_freePacketBuffer(msg);
 475              		.loc 1 182 0
 476 0214 7868     		ldr	r0, [r7, #4]
 477 0216 FFF7FEFF 		bl	openqueue_freePacketBuffer
 183:build/openmote-cc2538_armgcc/openapps/opencoap/opencoap.c ****        return;
 478              		.loc 1 183 0
 479 021a 6DE3     		b	.L6
 480              	.L12:
 184:build/openmote-cc2538_armgcc/openapps/opencoap/opencoap.c ****    }
 185:build/openmote-cc2538_armgcc/openapps/opencoap/opencoap.c **** 
 186:build/openmote-cc2538_armgcc/openapps/opencoap/opencoap.c ****    //== Proxy Scheme option
 187:build/openmote-cc2538_armgcc/openapps/opencoap/opencoap.c ****    option_count = opencoap_find_option(coap_incomingOptions, coap_incomingOptionsLen, COAP_OPTION_N
 481              		.loc 1 187 0
 482 021c F97D     		ldrb	r1, [r7, #23]	@ zero_extendqisi2
 483 021e 07F11503 		add	r3, r7, #21
 484 0222 07F16800 		add	r0, r7, #104
 485 0226 2722     		movs	r2, #39
 486 0228 FFF7FEFF 		bl	opencoap_find_option
 487 022c 0346     		mov	r3, r0
 488 022e 87F8CC30 		strb	r3, [r7, #204]
 188:build/openmote-cc2538_armgcc/openapps/opencoap/opencoap.c ****    if(option_count >= 1) {
 489              		.loc 1 188 0
 490 0232 97F8CC30 		ldrb	r3, [r7, #204]	@ zero_extendqisi2
 491 0236 002B     		cmp	r3, #0
 492 0238 07D0     		beq	.L13
 189:build/openmote-cc2538_armgcc/openapps/opencoap/opencoap.c ****      proxyScheme = &coap_incomingOptions[option_index];
 493              		.loc 1 189 0
 494 023a 7B7D     		ldrb	r3, [r7, #21]	@ zero_extendqisi2
 495 023c 07F16802 		add	r2, r7, #104
 496 0240 DB00     		lsls	r3, r3, #3
 497 0242 1344     		add	r3, r3, r2
 498 0244 C7F8D830 		str	r3, [r7, #216]
 499 0248 02E0     		b	.L14
 500              	.L13:
 190:build/openmote-cc2538_armgcc/openapps/opencoap/opencoap.c ****    } else {
 191:build/openmote-cc2538_armgcc/openapps/opencoap/opencoap.c ****      proxyScheme = NULL;
 501              		.loc 1 191 0
 502 024a 0023     		movs	r3, #0
 503 024c C7F8D830 		str	r3, [r7, #216]
 504              	.L14:
 192:build/openmote-cc2538_armgcc/openapps/opencoap/opencoap.c ****    }
 193:build/openmote-cc2538_armgcc/openapps/opencoap/opencoap.c ****    if (proxyScheme) {
 505              		.loc 1 193 0
 506 0250 D7F8D830 		ldr	r3, [r7, #216]
 507 0254 002B     		cmp	r3, #0
 508 0256 0BD0     		beq	.L15
 194:build/openmote-cc2538_armgcc/openapps/opencoap/opencoap.c ****         opencoap_handle_proxy_scheme(msg, &coap_header, coap_incomingOptions, coap_incomingOptionsL
 509              		.loc 1 194 0
 510 0258 FB7D     		ldrb	r3, [r7, #23]	@ zero_extendqisi2
 511 025a 07F16802 		add	r2, r7, #104
 512 025e 07F1B801 		add	r1, r7, #184
 513 0262 7868     		ldr	r0, [r7, #4]
 514 0264 FFF7FEFF 		bl	opencoap_handle_proxy_scheme
 195:build/openmote-cc2538_armgcc/openapps/opencoap/opencoap.c ****         openqueue_freePacketBuffer(msg);
 515              		.loc 1 195 0
 516 0268 7868     		ldr	r0, [r7, #4]
 517 026a FFF7FEFF 		bl	openqueue_freePacketBuffer
 196:build/openmote-cc2538_armgcc/openapps/opencoap/opencoap.c ****         return;
 518              		.loc 1 196 0
 519 026e 43E3     		b	.L6
 520              	.L15:
 197:build/openmote-cc2538_armgcc/openapps/opencoap/opencoap.c ****    }
 198:build/openmote-cc2538_armgcc/openapps/opencoap/opencoap.c **** 
 199:build/openmote-cc2538_armgcc/openapps/opencoap/opencoap.c **** 
 200:build/openmote-cc2538_armgcc/openapps/opencoap/opencoap.c ****    //== Object Security Option
 201:build/openmote-cc2538_armgcc/openapps/opencoap/opencoap.c ****    option_count = opencoap_find_option(coap_incomingOptions, coap_incomingOptionsLen, COAP_OPTION_N
 521              		.loc 1 201 0
 522 0270 F97D     		ldrb	r1, [r7, #23]	@ zero_extendqisi2
 523 0272 07F11503 		add	r3, r7, #21
 524 0276 07F16800 		add	r0, r7, #104
 525 027a 1522     		movs	r2, #21
 526 027c FFF7FEFF 		bl	opencoap_find_option
 527 0280 0346     		mov	r3, r0
 528 0282 87F8CC30 		strb	r3, [r7, #204]
 202:build/openmote-cc2538_armgcc/openapps/opencoap/opencoap.c ****    if(option_count >= 1) {
 529              		.loc 1 202 0
 530 0286 97F8CC30 		ldrb	r3, [r7, #204]	@ zero_extendqisi2
 531 028a 002B     		cmp	r3, #0
 532 028c 07D0     		beq	.L16
 203:build/openmote-cc2538_armgcc/openapps/opencoap/opencoap.c ****      objectSecurity = &coap_incomingOptions[option_index];
 533              		.loc 1 203 0
 534 028e 7B7D     		ldrb	r3, [r7, #21]	@ zero_extendqisi2
 535 0290 07F16802 		add	r2, r7, #104
 536 0294 DB00     		lsls	r3, r3, #3
 537 0296 1344     		add	r3, r3, r2
 538 0298 C7F8DC30 		str	r3, [r7, #220]
 539 029c 02E0     		b	.L17
 540              	.L16:
 204:build/openmote-cc2538_armgcc/openapps/opencoap/opencoap.c ****    } else {
 205:build/openmote-cc2538_armgcc/openapps/opencoap/opencoap.c ****      objectSecurity = NULL;
 541              		.loc 1 205 0
 542 029e 0023     		movs	r3, #0
 543 02a0 C7F8DC30 		str	r3, [r7, #220]
 544              	.L17:
 206:build/openmote-cc2538_armgcc/openapps/opencoap/opencoap.c ****    }
 207:build/openmote-cc2538_armgcc/openapps/opencoap/opencoap.c ****    if (objectSecurity) {
 545              		.loc 1 207 0
 546 02a4 D7F8DC30 		ldr	r3, [r7, #220]
 547 02a8 002B     		cmp	r3, #0
 548 02aa 60D0     		beq	.L18
 208:build/openmote-cc2538_armgcc/openapps/opencoap/opencoap.c ****        if ((objectSecurity->length == 0 && msg->length == 0) ||
 549              		.loc 1 208 0
 550 02ac D7F8DC30 		ldr	r3, [r7, #220]
 551 02b0 5B78     		ldrb	r3, [r3, #1]	@ zero_extendqisi2
 552 02b2 002B     		cmp	r3, #0
 553 02b4 04D1     		bne	.L19
 554              		.loc 1 208 0 is_stmt 0 discriminator 1
 555 02b6 7B68     		ldr	r3, [r7, #4]
 556 02b8 1B7A     		ldrb	r3, [r3, #8]	@ zero_extendqisi2
 557 02ba 002B     		cmp	r3, #0
 558 02bc 00F01583 		beq	.L69
 559              	.L19:
 209:build/openmote-cc2538_armgcc/openapps/opencoap/opencoap.c ****                (objectSecurity->length != 0 && msg->length != 0)) {
 560              		.loc 1 209 0 is_stmt 1 discriminator 3
 561 02c0 D7F8DC30 		ldr	r3, [r7, #220]
 562 02c4 5B78     		ldrb	r3, [r3, #1]	@ zero_extendqisi2
 208:build/openmote-cc2538_armgcc/openapps/opencoap/opencoap.c ****        if ((objectSecurity->length == 0 && msg->length == 0) ||
 563              		.loc 1 208 0 discriminator 3
 564 02c6 002B     		cmp	r3, #0
 565 02c8 04D0     		beq	.L21
 566              		.loc 1 209 0
 567 02ca 7B68     		ldr	r3, [r7, #4]
 568 02cc 1B7A     		ldrb	r3, [r3, #8]	@ zero_extendqisi2
 569 02ce 002B     		cmp	r3, #0
 570 02d0 40F00B83 		bne	.L69
 571              	.L21:
 210:build/openmote-cc2538_armgcc/openapps/opencoap/opencoap.c ****             // malformated object security message
 211:build/openmote-cc2538_armgcc/openapps/opencoap/opencoap.c ****             return;
 212:build/openmote-cc2538_armgcc/openapps/opencoap/opencoap.c ****        }
 213:build/openmote-cc2538_armgcc/openapps/opencoap/opencoap.c ****        
 214:build/openmote-cc2538_armgcc/openapps/opencoap/opencoap.c ****        if (objectSecurity->length == 0) {
 572              		.loc 1 214 0
 573 02d4 D7F8DC30 		ldr	r3, [r7, #220]
 574 02d8 5B78     		ldrb	r3, [r3, #1]	@ zero_extendqisi2
 575 02da 002B     		cmp	r3, #0
 576 02dc 1CD1     		bne	.L22
 215:build/openmote-cc2538_armgcc/openapps/opencoap/opencoap.c ****            index = openoscoap_parse_compressed_COSE(&msg->payload[0], 
 577              		.loc 1 215 0
 578 02de 7B68     		ldr	r3, [r7, #4]
 579 02e0 5868     		ldr	r0, [r3, #4]
 580 02e2 7B68     		ldr	r3, [r7, #4]
 581 02e4 197A     		ldrb	r1, [r3, #8]	@ zero_extendqisi2
 582 02e6 07F10C04 		add	r4, r7, #12
 583 02ea 07F11202 		add	r2, r7, #18
 584 02ee 07F10B03 		add	r3, r7, #11
 585 02f2 0093     		str	r3, [sp]
 586 02f4 2346     		mov	r3, r4
 587 02f6 FFF7FEFF 		bl	openoscoap_parse_compressed_COSE
 588 02fa 0346     		mov	r3, r0
 589 02fc 87F8CD30 		strb	r3, [r7, #205]
 216:build/openmote-cc2538_armgcc/openapps/opencoap/opencoap.c ****                    msg->length, 
 217:build/openmote-cc2538_armgcc/openapps/opencoap/opencoap.c ****                    &rcvdSequenceNumber,
 218:build/openmote-cc2538_armgcc/openapps/opencoap/opencoap.c ****                    &rcvdKid,
 219:build/openmote-cc2538_armgcc/openapps/opencoap/opencoap.c ****                    &rcvdKidLen);
 220:build/openmote-cc2538_armgcc/openapps/opencoap/opencoap.c ****            if (index == 0) {
 590              		.loc 1 220 0
 591 0300 97F8CD30 		ldrb	r3, [r7, #205]	@ zero_extendqisi2
 592 0304 002B     		cmp	r3, #0
 593 0306 00F0F282 		beq	.L70
 221:build/openmote-cc2538_armgcc/openapps/opencoap/opencoap.c ****                return;
 222:build/openmote-cc2538_armgcc/openapps/opencoap/opencoap.c ****            }
 223:build/openmote-cc2538_armgcc/openapps/opencoap/opencoap.c ****            packetfunctions_tossHeader(msg, index);
 594              		.loc 1 223 0
 595 030a 97F8CD30 		ldrb	r3, [r7, #205]	@ zero_extendqisi2
 596 030e 1946     		mov	r1, r3
 597 0310 7868     		ldr	r0, [r7, #4]
 598 0312 FFF7FEFF 		bl	packetfunctions_tossHeader
 599 0316 2AE0     		b	.L18
 600              	.L22:
 224:build/openmote-cc2538_armgcc/openapps/opencoap/opencoap.c ****        }
 225:build/openmote-cc2538_armgcc/openapps/opencoap/opencoap.c ****        else {
 226:build/openmote-cc2538_armgcc/openapps/opencoap/opencoap.c ****            index = openoscoap_parse_compressed_COSE(objectSecurity->pValue,
 601              		.loc 1 226 0
 602 0318 D7F8DC30 		ldr	r3, [r7, #220]
 603 031c 5868     		ldr	r0, [r3, #4]
 604 031e D7F8DC30 		ldr	r3, [r7, #220]
 605 0322 5978     		ldrb	r1, [r3, #1]	@ zero_extendqisi2
 606 0324 07F10C04 		add	r4, r7, #12
 607 0328 07F11202 		add	r2, r7, #18
 608 032c 07F10B03 		add	r3, r7, #11
 609 0330 0093     		str	r3, [sp]
 610 0332 2346     		mov	r3, r4
 611 0334 FFF7FEFF 		bl	openoscoap_parse_compressed_COSE
 612 0338 0346     		mov	r3, r0
 613 033a 87F8CD30 		strb	r3, [r7, #205]
 227:build/openmote-cc2538_armgcc/openapps/opencoap/opencoap.c ****                    objectSecurity->length,
 228:build/openmote-cc2538_armgcc/openapps/opencoap/opencoap.c ****                    &rcvdSequenceNumber,
 229:build/openmote-cc2538_armgcc/openapps/opencoap/opencoap.c ****                    &rcvdKid,
 230:build/openmote-cc2538_armgcc/openapps/opencoap/opencoap.c ****                    &rcvdKidLen);
 231:build/openmote-cc2538_armgcc/openapps/opencoap/opencoap.c ****            
 232:build/openmote-cc2538_armgcc/openapps/opencoap/opencoap.c ****            if (index == 0) {
 614              		.loc 1 232 0
 615 033e 97F8CD30 		ldrb	r3, [r7, #205]	@ zero_extendqisi2
 616 0342 002B     		cmp	r3, #0
 617 0344 00F0D582 		beq	.L71
 233:build/openmote-cc2538_armgcc/openapps/opencoap/opencoap.c ****                return;
 234:build/openmote-cc2538_armgcc/openapps/opencoap/opencoap.c ****            }
 235:build/openmote-cc2538_armgcc/openapps/opencoap/opencoap.c ****            objectSecurity->length -= index;
 618              		.loc 1 235 0
 619 0348 D7F8DC30 		ldr	r3, [r7, #220]
 620 034c 5A78     		ldrb	r2, [r3, #1]	@ zero_extendqisi2
 621 034e 97F8CD30 		ldrb	r3, [r7, #205]
 622 0352 D31A     		subs	r3, r2, r3
 623 0354 DAB2     		uxtb	r2, r3
 624 0356 D7F8DC30 		ldr	r3, [r7, #220]
 625 035a 5A70     		strb	r2, [r3, #1]
 236:build/openmote-cc2538_armgcc/openapps/opencoap/opencoap.c ****            objectSecurity->pValue += index;
 626              		.loc 1 236 0
 627 035c D7F8DC30 		ldr	r3, [r7, #220]
 628 0360 5A68     		ldr	r2, [r3, #4]
 629 0362 97F8CD30 		ldrb	r3, [r7, #205]	@ zero_extendqisi2
 630 0366 1A44     		add	r2, r2, r3
 631 0368 D7F8DC30 		ldr	r3, [r7, #220]
 632 036c 5A60     		str	r2, [r3, #4]
 633              	.L18:
 237:build/openmote-cc2538_armgcc/openapps/opencoap/opencoap.c ****        }
 238:build/openmote-cc2538_armgcc/openapps/opencoap/opencoap.c ****    }
 239:build/openmote-cc2538_armgcc/openapps/opencoap/opencoap.c **** 
 240:build/openmote-cc2538_armgcc/openapps/opencoap/opencoap.c ****    //=== step 2. find the resource to handle the packet
 241:build/openmote-cc2538_armgcc/openapps/opencoap/opencoap.c ****    
 242:build/openmote-cc2538_armgcc/openapps/opencoap/opencoap.c ****    // find the resource this applies to
 243:build/openmote-cc2538_armgcc/openapps/opencoap/opencoap.c ****    found = FALSE;
 634              		.loc 1 243 0
 635 036e 0023     		movs	r3, #0
 636 0370 87F8E330 		strb	r3, [r7, #227]
 244:build/openmote-cc2538_armgcc/openapps/opencoap/opencoap.c ****    
 245:build/openmote-cc2538_armgcc/openapps/opencoap/opencoap.c ****    if (
 246:build/openmote-cc2538_armgcc/openapps/opencoap/opencoap.c ****          coap_header.Code>=COAP_CODE_REQ_GET &&
 637              		.loc 1 246 0
 638 0374 97F8BB30 		ldrb	r3, [r7, #187]	@ zero_extendqisi2
 245:build/openmote-cc2538_armgcc/openapps/opencoap/opencoap.c ****          coap_header.Code>=COAP_CODE_REQ_GET &&
 639              		.loc 1 245 0
 640 0378 002B     		cmp	r3, #0
 641 037a 00F04381 		beq	.L25
 247:build/openmote-cc2538_armgcc/openapps/opencoap/opencoap.c ****          coap_header.Code<=COAP_CODE_REQ_DELETE
 642              		.loc 1 247 0
 643 037e 97F8BB30 		ldrb	r3, [r7, #187]	@ zero_extendqisi2
 246:build/openmote-cc2538_armgcc/openapps/opencoap/opencoap.c ****          coap_header.Code<=COAP_CODE_REQ_DELETE
 644              		.loc 1 246 0
 645 0382 042B     		cmp	r3, #4
 646 0384 00F23E81 		bhi	.L25
 248:build/openmote-cc2538_armgcc/openapps/opencoap/opencoap.c ****       ) {
 249:build/openmote-cc2538_armgcc/openapps/opencoap/opencoap.c ****       // this is a request: target resource is indicated as COAP_OPTION_LOCATIONPATH option(s)
 250:build/openmote-cc2538_armgcc/openapps/opencoap/opencoap.c ****       
 251:build/openmote-cc2538_armgcc/openapps/opencoap/opencoap.c ****       // first, we need to decrypt the request and to do so find the right security context
 252:build/openmote-cc2538_armgcc/openapps/opencoap/opencoap.c ****       if (objectSecurity) {
 647              		.loc 1 252 0
 648 0388 D7F8DC30 		ldr	r3, [r7, #220]
 649 038c 002B     		cmp	r3, #0
 650 038e 55D0     		beq	.L26
 253:build/openmote-cc2538_armgcc/openapps/opencoap/opencoap.c ****             temp_desc = opencoap_vars.resources;
 651              		.loc 1 253 0
 652 0390 B44B     		ldr	r3, .L78
 653 0392 1B69     		ldr	r3, [r3, #16]
 654 0394 C7F8E430 		str	r3, [r7, #228]
 254:build/openmote-cc2538_armgcc/openapps/opencoap/opencoap.c ****             blindContext = NULL;
 655              		.loc 1 254 0
 656 0398 0023     		movs	r3, #0
 657 039a C7F8D030 		str	r3, [r7, #208]
 658              	.L29:
 255:build/openmote-cc2538_armgcc/openapps/opencoap/opencoap.c ****             // loop through all resources and compare recipient context
 256:build/openmote-cc2538_armgcc/openapps/opencoap/opencoap.c ****             do {
 257:build/openmote-cc2538_armgcc/openapps/opencoap/opencoap.c ****                 if (temp_desc->securityContext != NULL && 
 659              		.loc 1 257 0
 660 039e D7F8E430 		ldr	r3, [r7, #228]
 661 03a2 5B69     		ldr	r3, [r3, #20]
 662 03a4 002B     		cmp	r3, #0
 663 03a6 19D0     		beq	.L27
 258:build/openmote-cc2538_armgcc/openapps/opencoap/opencoap.c ****                     temp_desc->securityContext->recipientIDLen == rcvdKidLen &&
 664              		.loc 1 258 0 discriminator 1
 665 03a8 D7F8E430 		ldr	r3, [r7, #228]
 666 03ac 5B69     		ldr	r3, [r3, #20]
 667 03ae 93F83620 		ldrb	r2, [r3, #54]	@ zero_extendqisi2
 668 03b2 FB7A     		ldrb	r3, [r7, #11]	@ zero_extendqisi2
 257:build/openmote-cc2538_armgcc/openapps/opencoap/opencoap.c ****                     temp_desc->securityContext->recipientIDLen == rcvdKidLen &&
 669              		.loc 1 257 0 discriminator 1
 670 03b4 9A42     		cmp	r2, r3
 671 03b6 11D1     		bne	.L27
 259:build/openmote-cc2538_armgcc/openapps/opencoap/opencoap.c ****                     memcmp(rcvdKid, temp_desc->securityContext->recipientID, rcvdKidLen) == 0) {
 672              		.loc 1 259 0
 673 03b8 F868     		ldr	r0, [r7, #12]
 674 03ba D7F8E430 		ldr	r3, [r7, #228]
 675 03be 5B69     		ldr	r3, [r3, #20]
 676 03c0 2C33     		adds	r3, r3, #44
 677 03c2 FA7A     		ldrb	r2, [r7, #11]	@ zero_extendqisi2
 678 03c4 1946     		mov	r1, r3
 679 03c6 FFF7FEFF 		bl	memcmp
 680 03ca 0346     		mov	r3, r0
 258:build/openmote-cc2538_armgcc/openapps/opencoap/opencoap.c ****                     temp_desc->securityContext->recipientIDLen == rcvdKidLen &&
 681              		.loc 1 258 0
 682 03cc 002B     		cmp	r3, #0
 683 03ce 05D1     		bne	.L27
 260:build/openmote-cc2538_armgcc/openapps/opencoap/opencoap.c ****                     
 261:build/openmote-cc2538_armgcc/openapps/opencoap/opencoap.c ****                     blindContext = temp_desc->securityContext;
 684              		.loc 1 261 0
 685 03d0 D7F8E430 		ldr	r3, [r7, #228]
 686 03d4 5B69     		ldr	r3, [r3, #20]
 687 03d6 C7F8D030 		str	r3, [r7, #208]
 262:build/openmote-cc2538_armgcc/openapps/opencoap/opencoap.c ****                     break;
 688              		.loc 1 262 0
 689 03da 09E0     		b	.L28
 690              	.L27:
 263:build/openmote-cc2538_armgcc/openapps/opencoap/opencoap.c ****                 }
 264:build/openmote-cc2538_armgcc/openapps/opencoap/opencoap.c ****                 temp_desc = temp_desc->next;
 691              		.loc 1 264 0
 692 03dc D7F8E430 		ldr	r3, [r7, #228]
 693 03e0 5B6B     		ldr	r3, [r3, #52]
 694 03e2 C7F8E430 		str	r3, [r7, #228]
 265:build/openmote-cc2538_armgcc/openapps/opencoap/opencoap.c ****             }
 266:build/openmote-cc2538_armgcc/openapps/opencoap/opencoap.c ****             while (temp_desc->next!=NULL);
 695              		.loc 1 266 0
 696 03e6 D7F8E430 		ldr	r3, [r7, #228]
 697 03ea 5B6B     		ldr	r3, [r3, #52]
 698 03ec 002B     		cmp	r3, #0
 699 03ee D6D1     		bne	.L29
 700              	.L28:
 267:build/openmote-cc2538_armgcc/openapps/opencoap/opencoap.c **** 
 268:build/openmote-cc2538_armgcc/openapps/opencoap/opencoap.c ****             if (blindContext) {
 701              		.loc 1 268 0
 702 03f0 D7F8D030 		ldr	r3, [r7, #208]
 703 03f4 002B     		cmp	r3, #0
 704 03f6 1ED0     		beq	.L30
 269:build/openmote-cc2538_armgcc/openapps/opencoap/opencoap.c ****                     coap_incomingOptionsLen = MAX_COAP_OPTIONS;
 705              		.loc 1 269 0
 706 03f8 0A23     		movs	r3, #10
 707 03fa FB75     		strb	r3, [r7, #23]
 270:build/openmote-cc2538_armgcc/openapps/opencoap/opencoap.c ****                     decStatus = openoscoap_unprotect_message(blindContext,
 708              		.loc 1 270 0
 709 03fc 97F8B810 		ldrb	r1, [r7, #184]	@ zero_extendqisi2
 271:build/openmote-cc2538_armgcc/openapps/opencoap/opencoap.c ****                             coap_header.Ver,
 272:build/openmote-cc2538_armgcc/openapps/opencoap/opencoap.c ****                             coap_header.Code,
 710              		.loc 1 272 0
 711 0400 97F8BB20 		ldrb	r2, [r7, #187]	@ zero_extendqisi2
 270:build/openmote-cc2538_armgcc/openapps/opencoap/opencoap.c ****                     decStatus = openoscoap_unprotect_message(blindContext,
 712              		.loc 1 270 0
 713 0404 7B8A     		ldrh	r3, [r7, #18]
 714 0406 07F16800 		add	r0, r7, #104
 715 040a 0293     		str	r3, [sp, #8]
 716 040c 7B68     		ldr	r3, [r7, #4]
 717 040e 0193     		str	r3, [sp, #4]
 718 0410 07F11703 		add	r3, r7, #23
 719 0414 0093     		str	r3, [sp]
 720 0416 0346     		mov	r3, r0
 721 0418 D7F8D000 		ldr	r0, [r7, #208]
 722 041c FFF7FEFF 		bl	openoscoap_unprotect_message
 723 0420 0346     		mov	r3, r0
 724 0422 87F8CB30 		strb	r3, [r7, #203]
 273:build/openmote-cc2538_armgcc/openapps/opencoap/opencoap.c ****                             coap_incomingOptions,
 274:build/openmote-cc2538_armgcc/openapps/opencoap/opencoap.c ****                             &coap_incomingOptionsLen,
 275:build/openmote-cc2538_armgcc/openapps/opencoap/opencoap.c ****                             msg,
 276:build/openmote-cc2538_armgcc/openapps/opencoap/opencoap.c ****                             rcvdSequenceNumber
 277:build/openmote-cc2538_armgcc/openapps/opencoap/opencoap.c ****                     );
 278:build/openmote-cc2538_armgcc/openapps/opencoap/opencoap.c **** 
 279:build/openmote-cc2538_armgcc/openapps/opencoap/opencoap.c ****                     if (decStatus != E_SUCCESS) {
 725              		.loc 1 279 0
 726 0426 97F8CB30 		ldrb	r3, [r7, #203]	@ zero_extendqisi2
 727 042a 002B     		cmp	r3, #0
 728 042c 06D0     		beq	.L26
 280:build/openmote-cc2538_armgcc/openapps/opencoap/opencoap.c ****                         securityReturnCode = COAP_CODE_RESP_BADREQ;
 729              		.loc 1 280 0
 730 042e 8023     		movs	r3, #128
 731 0430 87F8CF30 		strb	r3, [r7, #207]
 732 0434 02E0     		b	.L26
 733              	.L30:
 281:build/openmote-cc2538_armgcc/openapps/opencoap/opencoap.c ****                     }
 282:build/openmote-cc2538_armgcc/openapps/opencoap/opencoap.c ****                 
 283:build/openmote-cc2538_armgcc/openapps/opencoap/opencoap.c ****             }
 284:build/openmote-cc2538_armgcc/openapps/opencoap/opencoap.c ****             else {
 285:build/openmote-cc2538_armgcc/openapps/opencoap/opencoap.c ****                 securityReturnCode = COAP_CODE_RESP_UNAUTHORIZED;
 734              		.loc 1 285 0
 735 0436 8123     		movs	r3, #129
 736 0438 87F8CF30 		strb	r3, [r7, #207]
 737              	.L26:
 286:build/openmote-cc2538_armgcc/openapps/opencoap/opencoap.c ****             }
 287:build/openmote-cc2538_armgcc/openapps/opencoap/opencoap.c ****       }
 288:build/openmote-cc2538_armgcc/openapps/opencoap/opencoap.c **** 
 289:build/openmote-cc2538_armgcc/openapps/opencoap/opencoap.c **** 
 290:build/openmote-cc2538_armgcc/openapps/opencoap/opencoap.c ****       // find the resource which matches
 291:build/openmote-cc2538_armgcc/openapps/opencoap/opencoap.c ****       
 292:build/openmote-cc2538_armgcc/openapps/opencoap/opencoap.c ****       // start with the first resource in the linked list
 293:build/openmote-cc2538_armgcc/openapps/opencoap/opencoap.c ****       temp_desc = opencoap_vars.resources;
 738              		.loc 1 293 0
 739 043c 894B     		ldr	r3, .L78
 740 043e 1B69     		ldr	r3, [r3, #16]
 741 0440 C7F8E430 		str	r3, [r7, #228]
 294:build/openmote-cc2538_armgcc/openapps/opencoap/opencoap.c ****       
 295:build/openmote-cc2538_armgcc/openapps/opencoap/opencoap.c ****       // iterate until matching resource found, or no match
 296:build/openmote-cc2538_armgcc/openapps/opencoap/opencoap.c ****       while (found==FALSE && securityReturnCode==COAP_CODE_EMPTY) {
 742              		.loc 1 296 0
 743 0444 CEE0     		b	.L32
 744              	.L42:
 297:build/openmote-cc2538_armgcc/openapps/opencoap/opencoap.c ****         
 298:build/openmote-cc2538_armgcc/openapps/opencoap/opencoap.c ****         option_count = opencoap_find_option(coap_incomingOptions, coap_incomingOptionsLen, COAP_OPT
 745              		.loc 1 298 0
 746 0446 F97D     		ldrb	r1, [r7, #23]	@ zero_extendqisi2
 747 0448 07F11503 		add	r3, r7, #21
 748 044c 07F16800 		add	r0, r7, #104
 749 0450 0B22     		movs	r2, #11
 750 0452 FFF7FEFF 		bl	opencoap_find_option
 751 0456 0346     		mov	r3, r0
 752 0458 87F8CC30 		strb	r3, [r7, #204]
 299:build/openmote-cc2538_armgcc/openapps/opencoap/opencoap.c ****         if (
 753              		.loc 1 299 0
 754 045c 97F8CC30 		ldrb	r3, [r7, #204]	@ zero_extendqisi2
 755 0460 022B     		cmp	r3, #2
 756 0462 67D1     		bne	.L33
 300:build/openmote-cc2538_armgcc/openapps/opencoap/opencoap.c ****              option_count == 2                                       &&
 301:build/openmote-cc2538_armgcc/openapps/opencoap/opencoap.c ****              temp_desc->path0len>0                                   &&
 757              		.loc 1 301 0
 758 0464 D7F8E430 		ldr	r3, [r7, #228]
 759 0468 1B78     		ldrb	r3, [r3]	@ zero_extendqisi2
 300:build/openmote-cc2538_armgcc/openapps/opencoap/opencoap.c ****              option_count == 2                                       &&
 760              		.loc 1 300 0
 761 046a 002B     		cmp	r3, #0
 762 046c 62D0     		beq	.L33
 302:build/openmote-cc2538_armgcc/openapps/opencoap/opencoap.c ****              temp_desc->path0val!=NULL                               &&
 763              		.loc 1 302 0
 764 046e D7F8E430 		ldr	r3, [r7, #228]
 765 0472 5B68     		ldr	r3, [r3, #4]
 301:build/openmote-cc2538_armgcc/openapps/opencoap/opencoap.c ****              temp_desc->path0val!=NULL                               &&
 766              		.loc 1 301 0
 767 0474 002B     		cmp	r3, #0
 768 0476 5DD0     		beq	.L33
 303:build/openmote-cc2538_armgcc/openapps/opencoap/opencoap.c ****              temp_desc->path1len>0                                   &&
 769              		.loc 1 303 0
 770 0478 D7F8E430 		ldr	r3, [r7, #228]
 771 047c 1B7A     		ldrb	r3, [r3, #8]	@ zero_extendqisi2
 302:build/openmote-cc2538_armgcc/openapps/opencoap/opencoap.c ****              temp_desc->path0val!=NULL                               &&
 772              		.loc 1 302 0
 773 047e 002B     		cmp	r3, #0
 774 0480 58D0     		beq	.L33
 304:build/openmote-cc2538_armgcc/openapps/opencoap/opencoap.c ****              temp_desc->path1val!=NULL
 775              		.loc 1 304 0
 776 0482 D7F8E430 		ldr	r3, [r7, #228]
 777 0486 DB68     		ldr	r3, [r3, #12]
 303:build/openmote-cc2538_armgcc/openapps/opencoap/opencoap.c ****              temp_desc->path1len>0                                   &&
 778              		.loc 1 303 0
 779 0488 002B     		cmp	r3, #0
 780 048a 53D0     		beq	.L33
 305:build/openmote-cc2538_armgcc/openapps/opencoap/opencoap.c ****           ) {
 306:build/openmote-cc2538_armgcc/openapps/opencoap/opencoap.c ****           // resource has a path of form path0/path1
 307:build/openmote-cc2538_armgcc/openapps/opencoap/opencoap.c ****              
 308:build/openmote-cc2538_armgcc/openapps/opencoap/opencoap.c ****           if (
 309:build/openmote-cc2538_armgcc/openapps/opencoap/opencoap.c ****                 coap_incomingOptions[option_index].length==temp_desc->path0len                     
 781              		.loc 1 309 0
 782 048c 7B7D     		ldrb	r3, [r7, #21]	@ zero_extendqisi2
 783 048e DB00     		lsls	r3, r3, #3
 784 0490 07F1E802 		add	r2, r7, #232
 785 0494 1344     		add	r3, r3, r2
 786 0496 13F87F2C 		ldrb	r2, [r3, #-127]	@ zero_extendqisi2
 787 049a D7F8E430 		ldr	r3, [r7, #228]
 788 049e 1B78     		ldrb	r3, [r3]	@ zero_extendqisi2
 308:build/openmote-cc2538_armgcc/openapps/opencoap/opencoap.c ****                 coap_incomingOptions[option_index].length==temp_desc->path0len                     
 789              		.loc 1 308 0
 790 04a0 9A42     		cmp	r2, r3
 791 04a2 40F08B80 		bne	.L72
 310:build/openmote-cc2538_armgcc/openapps/opencoap/opencoap.c ****                 memcmp(coap_incomingOptions[option_index].pValue,temp_desc->path0val,temp_desc->pat
 792              		.loc 1 310 0
 793 04a6 7B7D     		ldrb	r3, [r7, #21]	@ zero_extendqisi2
 794 04a8 DB00     		lsls	r3, r3, #3
 795 04aa 07F1E802 		add	r2, r7, #232
 796 04ae 1344     		add	r3, r3, r2
 797 04b0 53F87C0C 		ldr	r0, [r3, #-124]
 798 04b4 D7F8E430 		ldr	r3, [r7, #228]
 799 04b8 5968     		ldr	r1, [r3, #4]
 800 04ba D7F8E430 		ldr	r3, [r7, #228]
 801 04be 1B78     		ldrb	r3, [r3]	@ zero_extendqisi2
 802 04c0 1A46     		mov	r2, r3
 803 04c2 FFF7FEFF 		bl	memcmp
 804 04c6 0346     		mov	r3, r0
 309:build/openmote-cc2538_armgcc/openapps/opencoap/opencoap.c ****                 memcmp(coap_incomingOptions[option_index].pValue,temp_desc->path0val,temp_desc->pat
 805              		.loc 1 309 0
 806 04c8 002B     		cmp	r3, #0
 807 04ca 77D1     		bne	.L72
 311:build/openmote-cc2538_armgcc/openapps/opencoap/opencoap.c ****                 coap_incomingOptions[option_index+1].length==temp_desc->path1len                   
 808              		.loc 1 311 0
 809 04cc 7B7D     		ldrb	r3, [r7, #21]	@ zero_extendqisi2
 810 04ce 0133     		adds	r3, r3, #1
 811 04d0 DB00     		lsls	r3, r3, #3
 812 04d2 07F1E802 		add	r2, r7, #232
 813 04d6 1344     		add	r3, r3, r2
 814 04d8 13F87F2C 		ldrb	r2, [r3, #-127]	@ zero_extendqisi2
 815 04dc D7F8E430 		ldr	r3, [r7, #228]
 816 04e0 1B7A     		ldrb	r3, [r3, #8]	@ zero_extendqisi2
 310:build/openmote-cc2538_armgcc/openapps/opencoap/opencoap.c ****                 memcmp(coap_incomingOptions[option_index].pValue,temp_desc->path0val,temp_desc->pat
 817              		.loc 1 310 0
 818 04e2 9A42     		cmp	r2, r3
 819 04e4 6AD1     		bne	.L72
 312:build/openmote-cc2538_armgcc/openapps/opencoap/opencoap.c ****                 memcmp(coap_incomingOptions[option_index+1].pValue,temp_desc->path1val,temp_desc->p
 820              		.loc 1 312 0
 821 04e6 7B7D     		ldrb	r3, [r7, #21]	@ zero_extendqisi2
 822 04e8 0133     		adds	r3, r3, #1
 823 04ea DB00     		lsls	r3, r3, #3
 824 04ec 07F1E802 		add	r2, r7, #232
 825 04f0 1344     		add	r3, r3, r2
 826 04f2 53F87C0C 		ldr	r0, [r3, #-124]
 827 04f6 D7F8E430 		ldr	r3, [r7, #228]
 828 04fa D968     		ldr	r1, [r3, #12]
 829 04fc D7F8E430 		ldr	r3, [r7, #228]
 830 0500 1B7A     		ldrb	r3, [r3, #8]	@ zero_extendqisi2
 831 0502 1A46     		mov	r2, r3
 832 0504 FFF7FEFF 		bl	memcmp
 833 0508 0346     		mov	r3, r0
 311:build/openmote-cc2538_armgcc/openapps/opencoap/opencoap.c ****                 coap_incomingOptions[option_index+1].length==temp_desc->path1len                   
 834              		.loc 1 311 0
 835 050a 002B     		cmp	r3, #0
 836 050c 56D1     		bne	.L72
 313:build/openmote-cc2538_armgcc/openapps/opencoap/opencoap.c ****              ) {
 314:build/openmote-cc2538_armgcc/openapps/opencoap/opencoap.c ****              if (temp_desc->securityContext != NULL && 
 837              		.loc 1 314 0
 838 050e D7F8E430 		ldr	r3, [r7, #228]
 839 0512 5B69     		ldr	r3, [r3, #20]
 840 0514 002B     		cmp	r3, #0
 841 0516 09D0     		beq	.L35
 315:build/openmote-cc2538_armgcc/openapps/opencoap/opencoap.c ****                  blindContext != temp_desc->securityContext) {
 842              		.loc 1 315 0 discriminator 1
 843 0518 D7F8E430 		ldr	r3, [r7, #228]
 844 051c 5A69     		ldr	r2, [r3, #20]
 314:build/openmote-cc2538_armgcc/openapps/opencoap/opencoap.c ****                  blindContext != temp_desc->securityContext) {
 845              		.loc 1 314 0 discriminator 1
 846 051e D7F8D030 		ldr	r3, [r7, #208]
 847 0522 9A42     		cmp	r2, r3
 848 0524 02D0     		beq	.L35
 316:build/openmote-cc2538_armgcc/openapps/opencoap/opencoap.c ****                  securityReturnCode = COAP_CODE_RESP_UNAUTHORIZED;
 849              		.loc 1 316 0
 850 0526 8123     		movs	r3, #129
 851 0528 87F8CF30 		strb	r3, [r7, #207]
 852              	.L35:
 317:build/openmote-cc2538_armgcc/openapps/opencoap/opencoap.c ****              }
 318:build/openmote-cc2538_armgcc/openapps/opencoap/opencoap.c ****               found = TRUE;
 853              		.loc 1 318 0
 854 052c 0123     		movs	r3, #1
 855 052e 87F8E330 		strb	r3, [r7, #227]
 308:build/openmote-cc2538_armgcc/openapps/opencoap/opencoap.c ****                 coap_incomingOptions[option_index].length==temp_desc->path0len                     
 856              		.loc 1 308 0
 857 0532 43E0     		b	.L72
 858              	.L33:
 319:build/openmote-cc2538_armgcc/openapps/opencoap/opencoap.c ****           };
 320:build/openmote-cc2538_armgcc/openapps/opencoap/opencoap.c **** 
 321:build/openmote-cc2538_armgcc/openapps/opencoap/opencoap.c ****         } else if (
 859              		.loc 1 321 0
 860 0534 97F8CC30 		ldrb	r3, [r7, #204]	@ zero_extendqisi2
 861 0538 012B     		cmp	r3, #1
 862 053a 3BD1     		bne	.L37
 322:build/openmote-cc2538_armgcc/openapps/opencoap/opencoap.c ****              option_count == 1                                &&
 323:build/openmote-cc2538_armgcc/openapps/opencoap/opencoap.c ****              temp_desc->path0len>0                            &&
 863              		.loc 1 323 0
 864 053c D7F8E430 		ldr	r3, [r7, #228]
 865 0540 1B78     		ldrb	r3, [r3]	@ zero_extendqisi2
 322:build/openmote-cc2538_armgcc/openapps/opencoap/opencoap.c ****              option_count == 1                                &&
 866              		.loc 1 322 0
 867 0542 002B     		cmp	r3, #0
 868 0544 36D0     		beq	.L37
 324:build/openmote-cc2538_armgcc/openapps/opencoap/opencoap.c ****              temp_desc->path0val!=NULL
 869              		.loc 1 324 0
 870 0546 D7F8E430 		ldr	r3, [r7, #228]
 871 054a 5B68     		ldr	r3, [r3, #4]
 323:build/openmote-cc2538_armgcc/openapps/opencoap/opencoap.c ****              temp_desc->path0val!=NULL
 872              		.loc 1 323 0
 873 054c 002B     		cmp	r3, #0
 874 054e 31D0     		beq	.L37
 325:build/openmote-cc2538_armgcc/openapps/opencoap/opencoap.c ****           ) {
 326:build/openmote-cc2538_armgcc/openapps/opencoap/opencoap.c ****           // resource has a path of form path0
 327:build/openmote-cc2538_armgcc/openapps/opencoap/opencoap.c ****              
 328:build/openmote-cc2538_armgcc/openapps/opencoap/opencoap.c ****           if (
 329:build/openmote-cc2538_armgcc/openapps/opencoap/opencoap.c ****                 coap_incomingOptions[option_index].length==temp_desc->path0len                     
 875              		.loc 1 329 0
 876 0550 7B7D     		ldrb	r3, [r7, #21]	@ zero_extendqisi2
 877 0552 DB00     		lsls	r3, r3, #3
 878 0554 07F1E802 		add	r2, r7, #232
 879 0558 1344     		add	r3, r3, r2
 880 055a 13F87F2C 		ldrb	r2, [r3, #-127]	@ zero_extendqisi2
 881 055e D7F8E430 		ldr	r3, [r7, #228]
 882 0562 1B78     		ldrb	r3, [r3]	@ zero_extendqisi2
 328:build/openmote-cc2538_armgcc/openapps/opencoap/opencoap.c ****                 coap_incomingOptions[option_index].length==temp_desc->path0len                     
 883              		.loc 1 328 0
 884 0564 9A42     		cmp	r2, r3
 885 0566 2BD1     		bne	.L73
 330:build/openmote-cc2538_armgcc/openapps/opencoap/opencoap.c ****                 memcmp(coap_incomingOptions[option_index].pValue,temp_desc->path0val,temp_desc->pat
 886              		.loc 1 330 0
 887 0568 7B7D     		ldrb	r3, [r7, #21]	@ zero_extendqisi2
 888 056a DB00     		lsls	r3, r3, #3
 889 056c 07F1E802 		add	r2, r7, #232
 890 0570 1344     		add	r3, r3, r2
 891 0572 53F87C0C 		ldr	r0, [r3, #-124]
 892 0576 D7F8E430 		ldr	r3, [r7, #228]
 893 057a 5968     		ldr	r1, [r3, #4]
 894 057c D7F8E430 		ldr	r3, [r7, #228]
 895 0580 1B78     		ldrb	r3, [r3]	@ zero_extendqisi2
 896 0582 1A46     		mov	r2, r3
 897 0584 FFF7FEFF 		bl	memcmp
 898 0588 0346     		mov	r3, r0
 329:build/openmote-cc2538_armgcc/openapps/opencoap/opencoap.c ****                 memcmp(coap_incomingOptions[option_index].pValue,temp_desc->path0val,temp_desc->pat
 899              		.loc 1 329 0
 900 058a 002B     		cmp	r3, #0
 901 058c 18D1     		bne	.L73
 331:build/openmote-cc2538_armgcc/openapps/opencoap/opencoap.c ****              ) {
 332:build/openmote-cc2538_armgcc/openapps/opencoap/opencoap.c ****              if (temp_desc->securityContext != NULL && 
 902              		.loc 1 332 0
 903 058e D7F8E430 		ldr	r3, [r7, #228]
 904 0592 5B69     		ldr	r3, [r3, #20]
 905 0594 002B     		cmp	r3, #0
 906 0596 09D0     		beq	.L39
 333:build/openmote-cc2538_armgcc/openapps/opencoap/opencoap.c ****                  blindContext != temp_desc->securityContext) {
 907              		.loc 1 333 0 discriminator 1
 908 0598 D7F8E430 		ldr	r3, [r7, #228]
 909 059c 5A69     		ldr	r2, [r3, #20]
 332:build/openmote-cc2538_armgcc/openapps/opencoap/opencoap.c ****                  blindContext != temp_desc->securityContext) {
 910              		.loc 1 332 0 discriminator 1
 911 059e D7F8D030 		ldr	r3, [r7, #208]
 912 05a2 9A42     		cmp	r2, r3
 913 05a4 02D0     		beq	.L39
 334:build/openmote-cc2538_armgcc/openapps/opencoap/opencoap.c ****                  securityReturnCode = COAP_CODE_RESP_UNAUTHORIZED;
 914              		.loc 1 334 0
 915 05a6 8123     		movs	r3, #129
 916 05a8 87F8CF30 		strb	r3, [r7, #207]
 917              	.L39:
 335:build/openmote-cc2538_armgcc/openapps/opencoap/opencoap.c ****              }
 336:build/openmote-cc2538_armgcc/openapps/opencoap/opencoap.c ****              found = TRUE;
 918              		.loc 1 336 0
 919 05ac 0123     		movs	r3, #1
 920 05ae 87F8E330 		strb	r3, [r7, #227]
 328:build/openmote-cc2538_armgcc/openapps/opencoap/opencoap.c ****                 coap_incomingOptions[option_index].length==temp_desc->path0len                     
 921              		.loc 1 328 0
 922 05b2 05E0     		b	.L73
 923              	.L37:
 337:build/openmote-cc2538_armgcc/openapps/opencoap/opencoap.c ****           };
 338:build/openmote-cc2538_armgcc/openapps/opencoap/opencoap.c ****         } else {
 339:build/openmote-cc2538_armgcc/openapps/opencoap/opencoap.c ****           // option_count == 0  ||
 340:build/openmote-cc2538_armgcc/openapps/opencoap/opencoap.c ****           // option_count >= 2
 341:build/openmote-cc2538_armgcc/openapps/opencoap/opencoap.c ****           // resource has not a valid path or path is too long
 342:build/openmote-cc2538_armgcc/openapps/opencoap/opencoap.c ****           found = FALSE;      
 924              		.loc 1 342 0
 925 05b4 0023     		movs	r3, #0
 926 05b6 87F8E330 		strb	r3, [r7, #227]
 927 05ba 02E0     		b	.L36
 928              	.L72:
 308:build/openmote-cc2538_armgcc/openapps/opencoap/opencoap.c ****                 coap_incomingOptions[option_index].length==temp_desc->path0len                     
 929              		.loc 1 308 0
 930 05bc 00BF     		nop
 931 05be 00E0     		b	.L36
 932              	.L73:
 328:build/openmote-cc2538_armgcc/openapps/opencoap/opencoap.c ****                 coap_incomingOptions[option_index].length==temp_desc->path0len                     
 933              		.loc 1 328 0
 934 05c0 00BF     		nop
 935              	.L36:
 343:build/openmote-cc2538_armgcc/openapps/opencoap/opencoap.c ****         };
 344:build/openmote-cc2538_armgcc/openapps/opencoap/opencoap.c ****          
 345:build/openmote-cc2538_armgcc/openapps/opencoap/opencoap.c ****          // iterate to next resource, if not found
 346:build/openmote-cc2538_armgcc/openapps/opencoap/opencoap.c ****          if (found==FALSE) {
 936              		.loc 1 346 0
 937 05c2 97F8E330 		ldrb	r3, [r7, #227]
 938 05c6 83F00103 		eor	r3, r3, #1
 939 05ca DBB2     		uxtb	r3, r3
 940 05cc 002B     		cmp	r3, #0
 941 05ce 09D0     		beq	.L32
 347:build/openmote-cc2538_armgcc/openapps/opencoap/opencoap.c ****             if (temp_desc->next!=NULL) {
 942              		.loc 1 347 0
 943 05d0 D7F8E430 		ldr	r3, [r7, #228]
 944 05d4 5B6B     		ldr	r3, [r3, #52]
 945 05d6 002B     		cmp	r3, #0
 946 05d8 12D0     		beq	.L74
 348:build/openmote-cc2538_armgcc/openapps/opencoap/opencoap.c ****                temp_desc = temp_desc->next;
 947              		.loc 1 348 0
 948 05da D7F8E430 		ldr	r3, [r7, #228]
 949 05de 5B6B     		ldr	r3, [r3, #52]
 950 05e0 C7F8E430 		str	r3, [r7, #228]
 951              	.L32:
 296:build/openmote-cc2538_armgcc/openapps/opencoap/opencoap.c ****         
 952              		.loc 1 296 0
 953 05e4 97F8E330 		ldrb	r3, [r7, #227]
 954 05e8 83F00103 		eor	r3, r3, #1
 955 05ec DBB2     		uxtb	r3, r3
 956 05ee 002B     		cmp	r3, #0
 957 05f0 00F09A80 		beq	.L75
 296:build/openmote-cc2538_armgcc/openapps/opencoap/opencoap.c ****         
 958              		.loc 1 296 0 is_stmt 0 discriminator 1
 959 05f4 97F8CF30 		ldrb	r3, [r7, #207]	@ zero_extendqisi2
 960 05f8 002B     		cmp	r3, #0
 961 05fa 3FF424AF 		beq	.L42
 245:build/openmote-cc2538_armgcc/openapps/opencoap/opencoap.c ****          coap_header.Code>=COAP_CODE_REQ_GET &&
 962              		.loc 1 245 0 is_stmt 1
 963 05fe 93E0     		b	.L75
 964              	.L74:
 349:build/openmote-cc2538_armgcc/openapps/opencoap/opencoap.c ****             } else {
 350:build/openmote-cc2538_armgcc/openapps/opencoap/opencoap.c ****                break;
 965              		.loc 1 350 0
 966 0600 00BF     		nop
 245:build/openmote-cc2538_armgcc/openapps/opencoap/opencoap.c ****          coap_header.Code>=COAP_CODE_REQ_GET &&
 967              		.loc 1 245 0
 968 0602 91E0     		b	.L75
 969              	.L25:
 351:build/openmote-cc2538_armgcc/openapps/opencoap/opencoap.c ****             }
 352:build/openmote-cc2538_armgcc/openapps/opencoap/opencoap.c ****          }
 353:build/openmote-cc2538_armgcc/openapps/opencoap/opencoap.c ****       }
 354:build/openmote-cc2538_armgcc/openapps/opencoap/opencoap.c ****    
 355:build/openmote-cc2538_armgcc/openapps/opencoap/opencoap.c ****    } else {
 356:build/openmote-cc2538_armgcc/openapps/opencoap/opencoap.c ****       // this is a response: target resource is indicated by token, and message ID
 357:build/openmote-cc2538_armgcc/openapps/opencoap/opencoap.c ****       // if an ack for a confirmable message, or a reset
 358:build/openmote-cc2538_armgcc/openapps/opencoap/opencoap.c ****       // find the resource which matches
 359:build/openmote-cc2538_armgcc/openapps/opencoap/opencoap.c ****       
 360:build/openmote-cc2538_armgcc/openapps/opencoap/opencoap.c ****       // start with the first resource in the linked list
 361:build/openmote-cc2538_armgcc/openapps/opencoap/opencoap.c ****       temp_desc = opencoap_vars.resources;
 970              		.loc 1 361 0
 971 0604 174B     		ldr	r3, .L78
 972 0606 1B69     		ldr	r3, [r3, #16]
 973 0608 C7F8E430 		str	r3, [r7, #228]
 362:build/openmote-cc2538_armgcc/openapps/opencoap/opencoap.c ****       
 363:build/openmote-cc2538_armgcc/openapps/opencoap/opencoap.c ****       // iterate until matching resource found, or no match
 364:build/openmote-cc2538_armgcc/openapps/opencoap/opencoap.c ****       while (found==FALSE) {
 974              		.loc 1 364 0
 975 060c 7EE0     		b	.L44
 976              	.L53:
 365:build/openmote-cc2538_armgcc/openapps/opencoap/opencoap.c ****          
 366:build/openmote-cc2538_armgcc/openapps/opencoap/opencoap.c ****          if (
 367:build/openmote-cc2538_armgcc/openapps/opencoap/opencoap.c ****                 coap_header.TKL==temp_desc->last_request.TKL                                       
 977              		.loc 1 367 0
 978 060e 97F8BA20 		ldrb	r2, [r7, #186]	@ zero_extendqisi2
 979 0612 D7F8E430 		ldr	r3, [r7, #228]
 980 0616 93F82630 		ldrb	r3, [r3, #38]	@ zero_extendqisi2
 366:build/openmote-cc2538_armgcc/openapps/opencoap/opencoap.c ****                 coap_header.TKL==temp_desc->last_request.TKL                                       
 981              		.loc 1 366 0
 982 061a 9A42     		cmp	r2, r3
 983 061c 65D1     		bne	.L45
 368:build/openmote-cc2538_armgcc/openapps/opencoap/opencoap.c ****                 memcmp(&coap_header.token[0],&temp_desc->last_request.token[0],coap_header.TKL)==0
 984              		.loc 1 368 0
 985 061e D7F8E430 		ldr	r3, [r7, #228]
 986 0622 03F12A01 		add	r1, r3, #42
 987 0626 97F8BA30 		ldrb	r3, [r7, #186]	@ zero_extendqisi2
 988 062a 1A46     		mov	r2, r3
 989 062c 07F1B803 		add	r3, r7, #184
 990 0630 0633     		adds	r3, r3, #6
 991 0632 1846     		mov	r0, r3
 992 0634 FFF7FEFF 		bl	memcmp
 993 0638 0346     		mov	r3, r0
 367:build/openmote-cc2538_armgcc/openapps/opencoap/opencoap.c ****                 memcmp(&coap_header.token[0],&temp_desc->last_request.token[0],coap_header.TKL)==0
 994              		.loc 1 367 0
 995 063a 002B     		cmp	r3, #0
 996 063c 55D1     		bne	.L45
 369:build/openmote-cc2538_armgcc/openapps/opencoap/opencoap.c ****             ) {
 370:build/openmote-cc2538_armgcc/openapps/opencoap/opencoap.c ****                 
 371:build/openmote-cc2538_armgcc/openapps/opencoap/opencoap.c ****             if (coap_header.T==COAP_TYPE_ACK || coap_header.T==COAP_TYPE_RES) {
 997              		.loc 1 371 0
 998 063e 97F8B930 		ldrb	r3, [r7, #185]	@ zero_extendqisi2
 999 0642 022B     		cmp	r3, #2
 1000 0644 03D0     		beq	.L46
 1001              		.loc 1 371 0 is_stmt 0 discriminator 1
 1002 0646 97F8B930 		ldrb	r3, [r7, #185]	@ zero_extendqisi2
 1003 064a 032B     		cmp	r3, #3
 1004 064c 0CD1     		bne	.L47
 1005              	.L46:
 372:build/openmote-cc2538_armgcc/openapps/opencoap/opencoap.c ****                 if (coap_header.messageID==temp_desc->last_request.messageID) {
 1006              		.loc 1 372 0 is_stmt 1
 1007 064e B7F8BC20 		ldrh	r2, [r7, #188]
 1008 0652 D7F8E430 		ldr	r3, [r7, #228]
 1009 0656 1B8D     		ldrh	r3, [r3, #40]
 1010 0658 9A42     		cmp	r2, r3
 1011 065a 08D1     		bne	.L49
 373:build/openmote-cc2538_armgcc/openapps/opencoap/opencoap.c ****                     found=TRUE;
 1012              		.loc 1 373 0
 1013 065c 0123     		movs	r3, #1
 1014 065e 87F8E330 		strb	r3, [r7, #227]
 372:build/openmote-cc2538_armgcc/openapps/opencoap/opencoap.c ****                 if (coap_header.messageID==temp_desc->last_request.messageID) {
 1015              		.loc 1 372 0
 1016 0662 04E0     		b	.L49
 1017              	.L79:
 1018              		.align	2
 1019              	.L78:
 1020 0664 00000000 		.word	opencoap_vars
 1021              	.L47:
 374:build/openmote-cc2538_armgcc/openapps/opencoap/opencoap.c ****                 }
 375:build/openmote-cc2538_armgcc/openapps/opencoap/opencoap.c ****             } else {
 376:build/openmote-cc2538_armgcc/openapps/opencoap/opencoap.c ****                 found=TRUE;
 1022              		.loc 1 376 0
 1023 0668 0123     		movs	r3, #1
 1024 066a 87F8E330 		strb	r3, [r7, #227]
 1025              	.L49:
 377:build/openmote-cc2538_armgcc/openapps/opencoap/opencoap.c ****             }
 378:build/openmote-cc2538_armgcc/openapps/opencoap/opencoap.c ****             
 379:build/openmote-cc2538_armgcc/openapps/opencoap/opencoap.c ****             // resource found
 380:build/openmote-cc2538_armgcc/openapps/opencoap/opencoap.c ****             // verify if it needs to be decrypted
 381:build/openmote-cc2538_armgcc/openapps/opencoap/opencoap.c ****             // errors are passed to the application without decryption as they do not contain
 382:build/openmote-cc2538_armgcc/openapps/opencoap/opencoap.c ****             // object security option
 383:build/openmote-cc2538_armgcc/openapps/opencoap/opencoap.c ****             if (found==TRUE && temp_desc->callbackRx!=NULL) {
 1026              		.loc 1 383 0
 1027 066e 97F8E330 		ldrb	r3, [r7, #227]	@ zero_extendqisi2
 1028 0672 002B     		cmp	r3, #0
 1029 0674 39D0     		beq	.L45
 1030              		.loc 1 383 0 is_stmt 0 discriminator 1
 1031 0676 D7F8E430 		ldr	r3, [r7, #228]
 1032 067a DB69     		ldr	r3, [r3, #28]
 1033 067c 002B     		cmp	r3, #0
 1034 067e 34D0     		beq	.L45
 384:build/openmote-cc2538_armgcc/openapps/opencoap/opencoap.c ****                 if (temp_desc->securityContext != NULL && coap_header.Code < COAP_CODE_RESP_BADREQ)
 1035              		.loc 1 384 0 is_stmt 1
 1036 0680 D7F8E430 		ldr	r3, [r7, #228]
 1037 0684 5B69     		ldr	r3, [r3, #20]
 1038 0686 002B     		cmp	r3, #0
 1039 0688 23D0     		beq	.L50
 1040              		.loc 1 384 0 is_stmt 0 discriminator 1
 1041 068a 97F8BB30 		ldrb	r3, [r7, #187]	@ zero_extendqisi2
 1042 068e 5BB2     		sxtb	r3, r3
 1043 0690 002B     		cmp	r3, #0
 1044 0692 1EDB     		blt	.L50
 385:build/openmote-cc2538_armgcc/openapps/opencoap/opencoap.c ****                     coap_incomingOptionsLen = MAX_COAP_OPTIONS;
 1045              		.loc 1 385 0 is_stmt 1
 1046 0694 0A23     		movs	r3, #10
 1047 0696 FB75     		strb	r3, [r7, #23]
 386:build/openmote-cc2538_armgcc/openapps/opencoap/opencoap.c ****                     decStatus = openoscoap_unprotect_message(temp_desc->securityContext,
 1048              		.loc 1 386 0
 1049 0698 D7F8E430 		ldr	r3, [r7, #228]
 1050 069c 5869     		ldr	r0, [r3, #20]
 1051 069e 97F8B810 		ldrb	r1, [r7, #184]	@ zero_extendqisi2
 387:build/openmote-cc2538_armgcc/openapps/opencoap/opencoap.c ****                             coap_header.Ver,
 388:build/openmote-cc2538_armgcc/openapps/opencoap/opencoap.c ****                             coap_header.Code,
 1052              		.loc 1 388 0
 1053 06a2 97F8BB20 		ldrb	r2, [r7, #187]	@ zero_extendqisi2
 386:build/openmote-cc2538_armgcc/openapps/opencoap/opencoap.c ****                     decStatus = openoscoap_unprotect_message(temp_desc->securityContext,
 1054              		.loc 1 386 0
 1055 06a6 D7F8E430 		ldr	r3, [r7, #228]
 1056 06aa 5B8E     		ldrh	r3, [r3, #50]
 1057 06ac 07F16804 		add	r4, r7, #104
 1058 06b0 0293     		str	r3, [sp, #8]
 1059 06b2 7B68     		ldr	r3, [r7, #4]
 1060 06b4 0193     		str	r3, [sp, #4]
 1061 06b6 07F11703 		add	r3, r7, #23
 1062 06ba 0093     		str	r3, [sp]
 1063 06bc 2346     		mov	r3, r4
 1064 06be FFF7FEFF 		bl	openoscoap_unprotect_message
 1065 06c2 0346     		mov	r3, r0
 1066 06c4 87F8CB30 		strb	r3, [r7, #203]
 389:build/openmote-cc2538_armgcc/openapps/opencoap/opencoap.c ****                             coap_incomingOptions,
 390:build/openmote-cc2538_armgcc/openapps/opencoap/opencoap.c ****                             &coap_incomingOptionsLen,
 391:build/openmote-cc2538_armgcc/openapps/opencoap/opencoap.c ****                             msg,
 392:build/openmote-cc2538_armgcc/openapps/opencoap/opencoap.c ****                             temp_desc->last_request.oscoapSeqNum
 393:build/openmote-cc2538_armgcc/openapps/opencoap/opencoap.c ****                     );
 394:build/openmote-cc2538_armgcc/openapps/opencoap/opencoap.c **** 
 395:build/openmote-cc2538_armgcc/openapps/opencoap/opencoap.c ****                     if (decStatus != E_SUCCESS) {
 1067              		.loc 1 395 0
 1068 06c8 97F8CB30 		ldrb	r3, [r7, #203]	@ zero_extendqisi2
 1069 06cc 002B     		cmp	r3, #0
 1070 06ce 40F01281 		bne	.L76
 1071              	.L50:
 396:build/openmote-cc2538_armgcc/openapps/opencoap/opencoap.c ****                         return;
 397:build/openmote-cc2538_armgcc/openapps/opencoap/opencoap.c ****                     }
 398:build/openmote-cc2538_armgcc/openapps/opencoap/opencoap.c ****                 }
 399:build/openmote-cc2538_armgcc/openapps/opencoap/opencoap.c **** 
 400:build/openmote-cc2538_armgcc/openapps/opencoap/opencoap.c ****                temp_desc->callbackRx(msg,&coap_header,&coap_incomingOptions[0], NULL, NULL);
 1072              		.loc 1 400 0
 1073 06d2 D7F8E430 		ldr	r3, [r7, #228]
 1074 06d6 DC69     		ldr	r4, [r3, #28]
 1075 06d8 07F16802 		add	r2, r7, #104
 1076 06dc 07F1B801 		add	r1, r7, #184
 1077 06e0 0023     		movs	r3, #0
 1078 06e2 0093     		str	r3, [sp]
 1079 06e4 0023     		movs	r3, #0
 1080 06e6 7868     		ldr	r0, [r7, #4]
 1081 06e8 A047     		blx	r4
 1082              	.L45:
 401:build/openmote-cc2538_armgcc/openapps/opencoap/opencoap.c ****             }
 402:build/openmote-cc2538_armgcc/openapps/opencoap/opencoap.c ****          }
 403:build/openmote-cc2538_armgcc/openapps/opencoap/opencoap.c ****          
 404:build/openmote-cc2538_armgcc/openapps/opencoap/opencoap.c ****          // iterate to next resource, if not found
 405:build/openmote-cc2538_armgcc/openapps/opencoap/opencoap.c ****          if (found==FALSE) {
 1083              		.loc 1 405 0
 1084 06ea 97F8E330 		ldrb	r3, [r7, #227]
 1085 06ee 83F00103 		eor	r3, r3, #1
 1086 06f2 DBB2     		uxtb	r3, r3
 1087 06f4 002B     		cmp	r3, #0
 1088 06f6 09D0     		beq	.L44
 406:build/openmote-cc2538_armgcc/openapps/opencoap/opencoap.c ****             if (temp_desc->next!=NULL) {
 1089              		.loc 1 406 0
 1090 06f8 D7F8E430 		ldr	r3, [r7, #228]
 1091 06fc 5B6B     		ldr	r3, [r3, #52]
 1092 06fe 002B     		cmp	r3, #0
 1093 0700 0DD0     		beq	.L77
 407:build/openmote-cc2538_armgcc/openapps/opencoap/opencoap.c ****                temp_desc = temp_desc->next;
 1094              		.loc 1 407 0
 1095 0702 D7F8E430 		ldr	r3, [r7, #228]
 1096 0706 5B6B     		ldr	r3, [r3, #52]
 1097 0708 C7F8E430 		str	r3, [r7, #228]
 1098              	.L44:
 364:build/openmote-cc2538_armgcc/openapps/opencoap/opencoap.c ****          
 1099              		.loc 1 364 0
 1100 070c 97F8E330 		ldrb	r3, [r7, #227]
 1101 0710 83F00103 		eor	r3, r3, #1
 1102 0714 DBB2     		uxtb	r3, r3
 1103 0716 002B     		cmp	r3, #0
 1104 0718 7FF479AF 		bne	.L53
 1105 071c 00E0     		b	.L52
 1106              	.L77:
 408:build/openmote-cc2538_armgcc/openapps/opencoap/opencoap.c ****             } else {
 409:build/openmote-cc2538_armgcc/openapps/opencoap/opencoap.c ****                break;
 1107              		.loc 1 409 0
 1108 071e 00BF     		nop
 1109              	.L52:
 410:build/openmote-cc2538_armgcc/openapps/opencoap/opencoap.c ****             }
 411:build/openmote-cc2538_armgcc/openapps/opencoap/opencoap.c ****          }
 412:build/openmote-cc2538_armgcc/openapps/opencoap/opencoap.c ****       };
 413:build/openmote-cc2538_armgcc/openapps/opencoap/opencoap.c ****       
 414:build/openmote-cc2538_armgcc/openapps/opencoap/opencoap.c ****       // free the received packet
 415:build/openmote-cc2538_armgcc/openapps/opencoap/opencoap.c ****       openqueue_freePacketBuffer(msg);
 1110              		.loc 1 415 0
 1111 0720 7868     		ldr	r0, [r7, #4]
 1112 0722 FFF7FEFF 		bl	openqueue_freePacketBuffer
 416:build/openmote-cc2538_armgcc/openapps/opencoap/opencoap.c ****       
 417:build/openmote-cc2538_armgcc/openapps/opencoap/opencoap.c ****       // stop here: will will not respond to a response
 418:build/openmote-cc2538_armgcc/openapps/opencoap/opencoap.c ****       return;
 1113              		.loc 1 418 0
 1114 0726 E7E0     		b	.L6
 1115              	.L75:
 245:build/openmote-cc2538_armgcc/openapps/opencoap/opencoap.c ****          coap_header.Code>=COAP_CODE_REQ_GET &&
 1116              		.loc 1 245 0
 1117 0728 00BF     		nop
 419:build/openmote-cc2538_armgcc/openapps/opencoap/opencoap.c ****    }
 420:build/openmote-cc2538_armgcc/openapps/opencoap/opencoap.c ****    
 421:build/openmote-cc2538_armgcc/openapps/opencoap/opencoap.c ****    //=== step 3. ask the resource to prepare response
 422:build/openmote-cc2538_armgcc/openapps/opencoap/opencoap.c ****    
 423:build/openmote-cc2538_armgcc/openapps/opencoap/opencoap.c ****    if (found==TRUE && securityReturnCode==COAP_CODE_EMPTY) {
 1118              		.loc 1 423 0
 1119 072a 97F8E330 		ldrb	r3, [r7, #227]	@ zero_extendqisi2
 1120 072e 002B     		cmp	r3, #0
 1121 0730 4CD0     		beq	.L54
 1122              		.loc 1 423 0 is_stmt 0 discriminator 1
 1123 0732 97F8CF30 		ldrb	r3, [r7, #207]	@ zero_extendqisi2
 1124 0736 002B     		cmp	r3, #0
 1125 0738 48D1     		bne	.L54
 424:build/openmote-cc2538_armgcc/openapps/opencoap/opencoap.c ****       
 425:build/openmote-cc2538_armgcc/openapps/opencoap/opencoap.c ****       // call the resource's callback
 426:build/openmote-cc2538_armgcc/openapps/opencoap/opencoap.c ****       outcome = temp_desc->callbackRx(msg,&coap_header,&coap_incomingOptions[0], coap_outgoingOptio
 1126              		.loc 1 426 0 is_stmt 1
 1127 073a D7F8E430 		ldr	r3, [r7, #228]
 1128 073e DC69     		ldr	r4, [r3, #28]
 1129 0740 07F11800 		add	r0, r7, #24
 1130 0744 07F16802 		add	r2, r7, #104
 1131 0748 07F1B801 		add	r1, r7, #184
 1132 074c 07F11603 		add	r3, r7, #22
 1133 0750 0093     		str	r3, [sp]
 1134 0752 0346     		mov	r3, r0
 1135 0754 7868     		ldr	r0, [r7, #4]
 1136 0756 A047     		blx	r4
 1137 0758 0346     		mov	r3, r0
 1138 075a 87F8E230 		strb	r3, [r7, #226]
 427:build/openmote-cc2538_armgcc/openapps/opencoap/opencoap.c ****       if (outcome == E_FAIL) {
 1139              		.loc 1 427 0
 1140 075e 97F8E230 		ldrb	r3, [r7, #226]	@ zero_extendqisi2
 1141 0762 012B     		cmp	r3, #1
 1142 0764 02D1     		bne	.L55
 428:build/openmote-cc2538_armgcc/openapps/opencoap/opencoap.c ****             securityReturnCode = COAP_CODE_RESP_METHODNOTALLOWED;
 1143              		.loc 1 428 0
 1144 0766 8523     		movs	r3, #133
 1145 0768 87F8CF30 		strb	r3, [r7, #207]
 1146              	.L55:
 429:build/openmote-cc2538_armgcc/openapps/opencoap/opencoap.c ****       }
 430:build/openmote-cc2538_armgcc/openapps/opencoap/opencoap.c ****     if (temp_desc->securityContext != NULL) {
 1147              		.loc 1 430 0
 1148 076c D7F8E430 		ldr	r3, [r7, #228]
 1149 0770 5B69     		ldr	r3, [r3, #20]
 1150 0772 002B     		cmp	r3, #0
 1151 0774 26D0     		beq	.L56
 431:build/openmote-cc2538_armgcc/openapps/opencoap/opencoap.c ****         coap_outgoingOptions[coap_outgoingOptionsLen++].type = COAP_OPTION_NUM_OBJECTSECURITY;
 1152              		.loc 1 431 0
 1153 0776 BB7D     		ldrb	r3, [r7, #22]	@ zero_extendqisi2
 1154 0778 5A1C     		adds	r2, r3, #1
 1155 077a D2B2     		uxtb	r2, r2
 1156 077c BA75     		strb	r2, [r7, #22]
 1157 077e DB00     		lsls	r3, r3, #3
 1158 0780 07F1E802 		add	r2, r7, #232
 1159 0784 1344     		add	r3, r3, r2
 1160 0786 1522     		movs	r2, #21
 1161 0788 03F8D02C 		strb	r2, [r3, #-208]
 432:build/openmote-cc2538_armgcc/openapps/opencoap/opencoap.c ****         if (coap_outgoingOptionsLen > MAX_COAP_OPTIONS) { 
 1162              		.loc 1 432 0
 1163 078c BB7D     		ldrb	r3, [r7, #22]	@ zero_extendqisi2
 1164 078e 0A2B     		cmp	r3, #10
 1165 0790 02D9     		bls	.L57
 433:build/openmote-cc2538_armgcc/openapps/opencoap/opencoap.c ****             securityReturnCode = COAP_CODE_RESP_SERVERERROR; // no space for object security option
 1166              		.loc 1 433 0
 1167 0792 A023     		movs	r3, #160
 1168 0794 87F8CF30 		strb	r3, [r7, #207]
 1169              	.L57:
 434:build/openmote-cc2538_armgcc/openapps/opencoap/opencoap.c ****         }
 435:build/openmote-cc2538_armgcc/openapps/opencoap/opencoap.c ****         // protect the message in the openqueue buffer
 436:build/openmote-cc2538_armgcc/openapps/opencoap/opencoap.c ****         openoscoap_protect_message(
 1170              		.loc 1 436 0
 1171 0798 D7F8E430 		ldr	r3, [r7, #228]
 1172 079c 5869     		ldr	r0, [r3, #20]
 437:build/openmote-cc2538_armgcc/openapps/opencoap/opencoap.c ****                   temp_desc->securityContext,
 438:build/openmote-cc2538_armgcc/openapps/opencoap/opencoap.c ****                   COAP_VERSION,
 439:build/openmote-cc2538_armgcc/openapps/opencoap/opencoap.c ****                   coap_header.Code,
 1173              		.loc 1 439 0
 1174 079e 97F8BB10 		ldrb	r1, [r7, #187]	@ zero_extendqisi2
 436:build/openmote-cc2538_armgcc/openapps/opencoap/opencoap.c ****                   temp_desc->securityContext,
 1175              		.loc 1 436 0
 1176 07a2 BB7D     		ldrb	r3, [r7, #22]	@ zero_extendqisi2
 1177 07a4 7A8A     		ldrh	r2, [r7, #18]
 1178 07a6 07F11804 		add	r4, r7, #24
 1179 07aa 0292     		str	r2, [sp, #8]
 1180 07ac 7A68     		ldr	r2, [r7, #4]
 1181 07ae 0192     		str	r2, [sp, #4]
 1182 07b0 0093     		str	r3, [sp]
 1183 07b2 2346     		mov	r3, r4
 1184 07b4 0A46     		mov	r2, r1
 1185 07b6 0121     		movs	r1, #1
 1186 07b8 FFF7FEFF 		bl	openoscoap_protect_message
 440:build/openmote-cc2538_armgcc/openapps/opencoap/opencoap.c ****                   coap_outgoingOptions,
 441:build/openmote-cc2538_armgcc/openapps/opencoap/opencoap.c ****                   coap_outgoingOptionsLen,
 442:build/openmote-cc2538_armgcc/openapps/opencoap/opencoap.c ****                   msg,
 443:build/openmote-cc2538_armgcc/openapps/opencoap/opencoap.c ****                   rcvdSequenceNumber);
 444:build/openmote-cc2538_armgcc/openapps/opencoap/opencoap.c ****         class = COAP_OPTION_CLASS_U;
 1187              		.loc 1 444 0
 1188 07bc 0223     		movs	r3, #2
 1189 07be 87F8CE30 		strb	r3, [r7, #206]
 430:build/openmote-cc2538_armgcc/openapps/opencoap/opencoap.c ****         coap_outgoingOptions[coap_outgoingOptionsLen++].type = COAP_OPTION_NUM_OBJECTSECURITY;
 1190              		.loc 1 430 0
 1191 07c2 1AE0     		b	.L59
 1192              	.L56:
 445:build/openmote-cc2538_armgcc/openapps/opencoap/opencoap.c ****     } else {
 446:build/openmote-cc2538_armgcc/openapps/opencoap/opencoap.c ****         class = COAP_OPTION_CLASS_ALL;
 1193              		.loc 1 446 0
 1194 07c4 0323     		movs	r3, #3
 1195 07c6 87F8CE30 		strb	r3, [r7, #206]
 430:build/openmote-cc2538_armgcc/openapps/opencoap/opencoap.c ****         coap_outgoingOptions[coap_outgoingOptionsLen++].type = COAP_OPTION_NUM_OBJECTSECURITY;
 1196              		.loc 1 430 0
 1197 07ca 16E0     		b	.L59
 1198              	.L54:
 447:build/openmote-cc2538_armgcc/openapps/opencoap/opencoap.c ****     }
 448:build/openmote-cc2538_armgcc/openapps/opencoap/opencoap.c **** 
 449:build/openmote-cc2538_armgcc/openapps/opencoap/opencoap.c ****    } else {
 450:build/openmote-cc2538_armgcc/openapps/opencoap/opencoap.c ****       // reset packet payload (DO NOT DELETE, we will reuse same buffer for response)
 451:build/openmote-cc2538_armgcc/openapps/opencoap/opencoap.c ****       msg->payload                     = &(msg->packet[127]);
 1199              		.loc 1 451 0
 1200 07cc 7B68     		ldr	r3, [r7, #4]
 1201 07ce 03F23F12 		addw	r2, r3, #319
 1202 07d2 7B68     		ldr	r3, [r7, #4]
 1203 07d4 5A60     		str	r2, [r3, #4]
 452:build/openmote-cc2538_armgcc/openapps/opencoap/opencoap.c ****       msg->length                      = 0;
 1204              		.loc 1 452 0
 1205 07d6 7B68     		ldr	r3, [r7, #4]
 1206 07d8 0022     		movs	r2, #0
 1207 07da 1A72     		strb	r2, [r3, #8]
 453:build/openmote-cc2538_armgcc/openapps/opencoap/opencoap.c ****       // set the CoAP header
 454:build/openmote-cc2538_armgcc/openapps/opencoap/opencoap.c ****       coap_header.TKL                  = 0;
 1208              		.loc 1 454 0
 1209 07dc 0023     		movs	r3, #0
 1210 07de 87F8BA30 		strb	r3, [r7, #186]
 455:build/openmote-cc2538_armgcc/openapps/opencoap/opencoap.c ****       if (securityReturnCode) {
 1211              		.loc 1 455 0
 1212 07e2 97F8CF30 		ldrb	r3, [r7, #207]	@ zero_extendqisi2
 1213 07e6 002B     		cmp	r3, #0
 1214 07e8 04D0     		beq	.L60
 456:build/openmote-cc2538_armgcc/openapps/opencoap/opencoap.c ****          coap_header.Code              = securityReturnCode;
 1215              		.loc 1 456 0
 1216 07ea 97F8CF30 		ldrb	r3, [r7, #207]
 1217 07ee 87F8BB30 		strb	r3, [r7, #187]
 1218 07f2 02E0     		b	.L59
 1219              	.L60:
 457:build/openmote-cc2538_armgcc/openapps/opencoap/opencoap.c ****       }
 458:build/openmote-cc2538_armgcc/openapps/opencoap/opencoap.c ****       else {
 459:build/openmote-cc2538_armgcc/openapps/opencoap/opencoap.c ****          coap_header.Code              = COAP_CODE_RESP_NOTFOUND;
 1220              		.loc 1 459 0
 1221 07f4 8423     		movs	r3, #132
 1222 07f6 87F8BB30 		strb	r3, [r7, #187]
 1223              	.L59:
 460:build/openmote-cc2538_armgcc/openapps/opencoap/opencoap.c ****       }
 461:build/openmote-cc2538_armgcc/openapps/opencoap/opencoap.c ****    }
 462:build/openmote-cc2538_armgcc/openapps/opencoap/opencoap.c ****    
 463:build/openmote-cc2538_armgcc/openapps/opencoap/opencoap.c ****    if (outcome==E_FAIL) {
 1224              		.loc 1 463 0
 1225 07fa 97F8E230 		ldrb	r3, [r7, #226]	@ zero_extendqisi2
 1226 07fe 012B     		cmp	r3, #1
 1227 0800 0ED1     		bne	.L61
 464:build/openmote-cc2538_armgcc/openapps/opencoap/opencoap.c ****       // reset packet payload (DO NOT DELETE, we will reuse same buffer for response)
 465:build/openmote-cc2538_armgcc/openapps/opencoap/opencoap.c ****       msg->payload                     = &(msg->packet[127]);
 1228              		.loc 1 465 0
 1229 0802 7B68     		ldr	r3, [r7, #4]
 1230 0804 03F23F12 		addw	r2, r3, #319
 1231 0808 7B68     		ldr	r3, [r7, #4]
 1232 080a 5A60     		str	r2, [r3, #4]
 466:build/openmote-cc2538_armgcc/openapps/opencoap/opencoap.c ****       msg->length                      = 0;
 1233              		.loc 1 466 0
 1234 080c 7B68     		ldr	r3, [r7, #4]
 1235 080e 0022     		movs	r2, #0
 1236 0810 1A72     		strb	r2, [r3, #8]
 467:build/openmote-cc2538_armgcc/openapps/opencoap/opencoap.c ****       // set the CoAP header
 468:build/openmote-cc2538_armgcc/openapps/opencoap/opencoap.c ****       coap_header.TKL                  = 0;
 1237              		.loc 1 468 0
 1238 0812 0023     		movs	r3, #0
 1239 0814 87F8BA30 		strb	r3, [r7, #186]
 469:build/openmote-cc2538_armgcc/openapps/opencoap/opencoap.c ****       coap_header.Code                 = securityReturnCode;
 1240              		.loc 1 469 0
 1241 0818 97F8CF30 		ldrb	r3, [r7, #207]
 1242 081c 87F8BB30 		strb	r3, [r7, #187]
 1243              	.L61:
 470:build/openmote-cc2538_armgcc/openapps/opencoap/opencoap.c ****    }
 471:build/openmote-cc2538_armgcc/openapps/opencoap/opencoap.c **** 
 472:build/openmote-cc2538_armgcc/openapps/opencoap/opencoap.c ****    if (coap_header.T == COAP_TYPE_CON) {
 1244              		.loc 1 472 0
 1245 0820 97F8B930 		ldrb	r3, [r7, #185]	@ zero_extendqisi2
 1246 0824 002B     		cmp	r3, #0
 1247 0826 03D1     		bne	.L62
 473:build/openmote-cc2538_armgcc/openapps/opencoap/opencoap.c ****        response_type = COAP_TYPE_ACK;
 1248              		.loc 1 473 0
 1249 0828 0223     		movs	r3, #2
 1250 082a 87F8E130 		strb	r3, [r7, #225]
 1251 082e 02E0     		b	.L63
 1252              	.L62:
 474:build/openmote-cc2538_armgcc/openapps/opencoap/opencoap.c ****    } else {
 475:build/openmote-cc2538_armgcc/openapps/opencoap/opencoap.c ****        response_type = COAP_TYPE_NON;
 1253              		.loc 1 475 0
 1254 0830 0123     		movs	r3, #1
 1255 0832 87F8E130 		strb	r3, [r7, #225]
 1256              	.L63:
 476:build/openmote-cc2538_armgcc/openapps/opencoap/opencoap.c ****    }
 477:build/openmote-cc2538_armgcc/openapps/opencoap/opencoap.c **** 
 478:build/openmote-cc2538_armgcc/openapps/opencoap/opencoap.c ****    //=== step 4. add the payload marker and encode options
 479:build/openmote-cc2538_armgcc/openapps/opencoap/opencoap.c **** 
 480:build/openmote-cc2538_armgcc/openapps/opencoap/opencoap.c ****    if (msg->length > 0 ) { // contains payload, add payload marker
 1257              		.loc 1 480 0
 1258 0836 7B68     		ldr	r3, [r7, #4]
 1259 0838 1B7A     		ldrb	r3, [r3, #8]	@ zero_extendqisi2
 1260 083a 002B     		cmp	r3, #0
 1261 083c 07D0     		beq	.L64
 481:build/openmote-cc2538_armgcc/openapps/opencoap/opencoap.c ****       packetfunctions_reserveHeaderSize(msg,1);
 1262              		.loc 1 481 0
 1263 083e 0121     		movs	r1, #1
 1264 0840 7868     		ldr	r0, [r7, #4]
 1265 0842 FFF7FEFF 		bl	packetfunctions_reserveHeaderSize
 482:build/openmote-cc2538_armgcc/openapps/opencoap/opencoap.c ****       msg->payload[0] = COAP_PAYLOAD_MARKER;
 1266              		.loc 1 482 0
 1267 0846 7B68     		ldr	r3, [r7, #4]
 1268 0848 5B68     		ldr	r3, [r3, #4]
 1269 084a FF22     		movs	r2, #255
 1270 084c 1A70     		strb	r2, [r3]
 1271              	.L64:
 483:build/openmote-cc2538_armgcc/openapps/opencoap/opencoap.c ****    }
 484:build/openmote-cc2538_armgcc/openapps/opencoap/opencoap.c ****       
 485:build/openmote-cc2538_armgcc/openapps/opencoap/opencoap.c ****    // once header is reserved, encode the options to the openqueue payload buffer
 486:build/openmote-cc2538_armgcc/openapps/opencoap/opencoap.c ****    opencoap_options_encode(msg, coap_outgoingOptions, coap_outgoingOptionsLen, class);
 1272              		.loc 1 486 0
 1273 084e BA7D     		ldrb	r2, [r7, #22]	@ zero_extendqisi2
 1274 0850 97F8CE30 		ldrb	r3, [r7, #206]	@ zero_extendqisi2
 1275 0854 07F11801 		add	r1, r7, #24
 1276 0858 7868     		ldr	r0, [r7, #4]
 1277 085a FFF7FEFF 		bl	opencoap_options_encode
 487:build/openmote-cc2538_armgcc/openapps/opencoap/opencoap.c **** 
 488:build/openmote-cc2538_armgcc/openapps/opencoap/opencoap.c ****    //=== step 5. send that packet back
 489:build/openmote-cc2538_armgcc/openapps/opencoap/opencoap.c ****    
 490:build/openmote-cc2538_armgcc/openapps/opencoap/opencoap.c ****    // fill in packet metadata
 491:build/openmote-cc2538_armgcc/openapps/opencoap/opencoap.c ****    if (found==TRUE) {
 1278              		.loc 1 491 0
 1279 085e 97F8E330 		ldrb	r3, [r7, #227]	@ zero_extendqisi2
 1280 0862 002B     		cmp	r3, #0
 1281 0864 05D0     		beq	.L65
 492:build/openmote-cc2538_armgcc/openapps/opencoap/opencoap.c ****       msg->creator                     = temp_desc->componentID;
 1282              		.loc 1 492 0
 1283 0866 D7F8E430 		ldr	r3, [r7, #228]
 1284 086a 1A7C     		ldrb	r2, [r3, #16]	@ zero_extendqisi2
 1285 086c 7B68     		ldr	r3, [r7, #4]
 1286 086e 1A70     		strb	r2, [r3]
 1287 0870 02E0     		b	.L66
 1288              	.L65:
 493:build/openmote-cc2538_armgcc/openapps/opencoap/opencoap.c ****    } else {
 494:build/openmote-cc2538_armgcc/openapps/opencoap/opencoap.c ****       msg->creator                     = COMPONENT_OPENCOAP;
 1289              		.loc 1 494 0
 1290 0872 7B68     		ldr	r3, [r7, #4]
 1291 0874 1A22     		movs	r2, #26
 1292 0876 1A70     		strb	r2, [r3]
 1293              	.L66:
 495:build/openmote-cc2538_armgcc/openapps/opencoap/opencoap.c ****    }
 496:build/openmote-cc2538_armgcc/openapps/opencoap/opencoap.c ****    msg->l4_protocol                    = IANA_UDP;
 1294              		.loc 1 496 0
 1295 0878 7B68     		ldr	r3, [r7, #4]
 1296 087a 1122     		movs	r2, #17
 1297 087c 9A73     		strb	r2, [r3, #14]
 497:build/openmote-cc2538_armgcc/openapps/opencoap/opencoap.c ****    temp_l4_destination_port            = msg->l4_destination_port;
 1298              		.loc 1 497 0
 1299 087e 7B68     		ldr	r3, [r7, #4]
 1300 0880 5B8A     		ldrh	r3, [r3, #18]	@ movhi
 1301 0882 A7F8C830 		strh	r3, [r7, #200]	@ movhi
 498:build/openmote-cc2538_armgcc/openapps/opencoap/opencoap.c ****    msg->l4_destination_port            = msg->l4_sourcePortORicmpv6Type;
 1302              		.loc 1 498 0
 1303 0886 7B68     		ldr	r3, [r7, #4]
 1304 0888 1A8A     		ldrh	r2, [r3, #16]
 1305 088a 7B68     		ldr	r3, [r7, #4]
 1306 088c 5A82     		strh	r2, [r3, #18]	@ movhi
 499:build/openmote-cc2538_armgcc/openapps/opencoap/opencoap.c ****    msg->l4_sourcePortORicmpv6Type      = temp_l4_destination_port;
 1307              		.loc 1 499 0
 1308 088e 7B68     		ldr	r3, [r7, #4]
 1309 0890 B7F8C820 		ldrh	r2, [r7, #200]	@ movhi
 1310 0894 1A82     		strh	r2, [r3, #16]	@ movhi
 500:build/openmote-cc2538_armgcc/openapps/opencoap/opencoap.c ****    
 501:build/openmote-cc2538_armgcc/openapps/opencoap/opencoap.c ****    // set destination address as the current source
 502:build/openmote-cc2538_armgcc/openapps/opencoap/opencoap.c ****    msg->l3_destinationAdd.type         = ADDR_128B;
 1311              		.loc 1 502 0
 1312 0896 7B68     		ldr	r3, [r7, #4]
 1313 0898 0322     		movs	r2, #3
 1314 089a 5A76     		strb	r2, [r3, #25]
 503:build/openmote-cc2538_armgcc/openapps/opencoap/opencoap.c ****    memcpy(&msg->l3_destinationAdd.addr_128b[0],&msg->l3_sourceAdd.addr_128b[0],LENGTH_ADDR128b);
 1315              		.loc 1 503 0
 1316 089c 7B68     		ldr	r3, [r7, #4]
 1317 089e 03F11A00 		add	r0, r3, #26
 1318 08a2 7B68     		ldr	r3, [r7, #4]
 1319 08a4 2B33     		adds	r3, r3, #43
 1320 08a6 1022     		movs	r2, #16
 1321 08a8 1946     		mov	r1, r3
 1322 08aa FFF7FEFF 		bl	memcpy
 504:build/openmote-cc2538_armgcc/openapps/opencoap/opencoap.c ****    
 505:build/openmote-cc2538_armgcc/openapps/opencoap/opencoap.c ****    // fill in CoAP header
 506:build/openmote-cc2538_armgcc/openapps/opencoap/opencoap.c ****    opencoap_header_encode(msg, 
 1323              		.loc 1 506 0
 1324 08ae 97F8BA40 		ldrb	r4, [r7, #186]	@ zero_extendqisi2
 1325 08b2 97F8BB30 		ldrb	r3, [r7, #187]	@ zero_extendqisi2
 1326 08b6 B7F8BC20 		ldrh	r2, [r7, #188]
 1327 08ba 97F8E100 		ldrb	r0, [r7, #225]	@ zero_extendqisi2
 1328 08be 07F1B801 		add	r1, r7, #184
 1329 08c2 0631     		adds	r1, r1, #6
 1330 08c4 0291     		str	r1, [sp, #8]
 1331 08c6 0192     		str	r2, [sp, #4]
 1332 08c8 0093     		str	r3, [sp]
 1333 08ca 2346     		mov	r3, r4
 1334 08cc 0246     		mov	r2, r0
 1335 08ce 0121     		movs	r1, #1
 1336 08d0 7868     		ldr	r0, [r7, #4]
 1337 08d2 FFF7FEFF 		bl	opencoap_header_encode
 507:build/openmote-cc2538_armgcc/openapps/opencoap/opencoap.c ****            COAP_VERSION, 
 508:build/openmote-cc2538_armgcc/openapps/opencoap/opencoap.c ****            response_type, 
 509:build/openmote-cc2538_armgcc/openapps/opencoap/opencoap.c ****            coap_header.TKL, 
 510:build/openmote-cc2538_armgcc/openapps/opencoap/opencoap.c ****            coap_header.Code, 
 511:build/openmote-cc2538_armgcc/openapps/opencoap/opencoap.c ****            coap_header.messageID, 
 512:build/openmote-cc2538_armgcc/openapps/opencoap/opencoap.c ****            &coap_header.token[0]);
 513:build/openmote-cc2538_armgcc/openapps/opencoap/opencoap.c ****    
 514:build/openmote-cc2538_armgcc/openapps/opencoap/opencoap.c ****    if ((openudp_send(msg))==E_FAIL) {
 1338              		.loc 1 514 0
 1339 08d6 7868     		ldr	r0, [r7, #4]
 1340 08d8 FFF7FEFF 		bl	openudp_send
 1341 08dc 0346     		mov	r3, r0
 1342 08de 012B     		cmp	r3, #1
 1343 08e0 0AD1     		bne	.L6
 515:build/openmote-cc2538_armgcc/openapps/opencoap/opencoap.c ****       openqueue_freePacketBuffer(msg);
 1344              		.loc 1 515 0
 1345 08e2 7868     		ldr	r0, [r7, #4]
 1346 08e4 FFF7FEFF 		bl	openqueue_freePacketBuffer
 1347 08e8 06E0     		b	.L6
 1348              	.L69:
 211:build/openmote-cc2538_armgcc/openapps/opencoap/opencoap.c ****        }
 1349              		.loc 1 211 0
 1350 08ea 00BF     		nop
 1351 08ec 04E0     		b	.L6
 1352              	.L70:
 221:build/openmote-cc2538_armgcc/openapps/opencoap/opencoap.c ****            }
 1353              		.loc 1 221 0
 1354 08ee 00BF     		nop
 1355 08f0 02E0     		b	.L6
 1356              	.L71:
 233:build/openmote-cc2538_armgcc/openapps/opencoap/opencoap.c ****            }
 1357              		.loc 1 233 0
 1358 08f2 00BF     		nop
 1359 08f4 00E0     		b	.L6
 1360              	.L76:
 396:build/openmote-cc2538_armgcc/openapps/opencoap/opencoap.c ****                     }
 1361              		.loc 1 396 0
 1362 08f6 00BF     		nop
 1363              	.L6:
 516:build/openmote-cc2538_armgcc/openapps/opencoap/opencoap.c ****    }
 517:build/openmote-cc2538_armgcc/openapps/opencoap/opencoap.c **** }
 1364              		.loc 1 517 0
 1365 08f8 EC37     		adds	r7, r7, #236
 1366              		.cfi_def_cfa_offset 12
 1367 08fa BD46     		mov	sp, r7
 1368              		.cfi_def_cfa_register 13
 1369              		@ sp needed
 1370 08fc 90BD     		pop	{r4, r7, pc}
 1371              		.cfi_endproc
 1372              	.LFE1:
 1374 08fe 00BF     		.align	2
 1375              		.global	opencoap_sendDone
 1376              		.thumb
 1377              		.thumb_func
 1379              	opencoap_sendDone:
 1380              	.LFB2:
 518:build/openmote-cc2538_armgcc/openapps/opencoap/opencoap.c **** 
 519:build/openmote-cc2538_armgcc/openapps/opencoap/opencoap.c **** /**
 520:build/openmote-cc2538_armgcc/openapps/opencoap/opencoap.c **** \brief Indicates that the CoAP response has been sent.
 521:build/openmote-cc2538_armgcc/openapps/opencoap/opencoap.c **** 
 522:build/openmote-cc2538_armgcc/openapps/opencoap/opencoap.c **** \param[in] msg A pointer to the message which was sent.
 523:build/openmote-cc2538_armgcc/openapps/opencoap/opencoap.c **** \param[in] error The outcome of the send function.
 524:build/openmote-cc2538_armgcc/openapps/opencoap/opencoap.c **** */
 525:build/openmote-cc2538_armgcc/openapps/opencoap/opencoap.c **** void opencoap_sendDone(OpenQueueEntry_t* msg, owerror_t error) {
 1381              		.loc 1 525 0
 1382              		.cfi_startproc
 1383              		@ args = 0, pretend = 0, frame = 16
 1384              		@ frame_needed = 1, uses_anonymous_args = 0
 1385 0900 80B5     		push	{r7, lr}
 1386              		.cfi_def_cfa_offset 8
 1387              		.cfi_offset 7, -8
 1388              		.cfi_offset 14, -4
 1389 0902 84B0     		sub	sp, sp, #16
 1390              		.cfi_def_cfa_offset 24
 1391 0904 00AF     		add	r7, sp, #0
 1392              		.cfi_def_cfa_register 7
 1393 0906 7860     		str	r0, [r7, #4]
 1394 0908 0B46     		mov	r3, r1
 1395 090a FB70     		strb	r3, [r7, #3]
 526:build/openmote-cc2538_armgcc/openapps/opencoap/opencoap.c ****    coap_resource_desc_t* temp_resource;
 527:build/openmote-cc2538_armgcc/openapps/opencoap/opencoap.c ****    
 528:build/openmote-cc2538_armgcc/openapps/opencoap/opencoap.c ****    // take ownership over that packet
 529:build/openmote-cc2538_armgcc/openapps/opencoap/opencoap.c ****    msg->owner = COMPONENT_OPENCOAP;
 1396              		.loc 1 529 0
 1397 090c 7B68     		ldr	r3, [r7, #4]
 1398 090e 1A22     		movs	r2, #26
 1399 0910 5A70     		strb	r2, [r3, #1]
 530:build/openmote-cc2538_armgcc/openapps/opencoap/opencoap.c ****    
 531:build/openmote-cc2538_armgcc/openapps/opencoap/opencoap.c ****    // indicate sendDone to creator of that packet
 532:build/openmote-cc2538_armgcc/openapps/opencoap/opencoap.c ****    //=== mine
 533:build/openmote-cc2538_armgcc/openapps/opencoap/opencoap.c ****    if (msg->creator==COMPONENT_OPENCOAP) {
 1400              		.loc 1 533 0
 1401 0912 7B68     		ldr	r3, [r7, #4]
 1402 0914 1B78     		ldrb	r3, [r3]	@ zero_extendqisi2
 1403 0916 1A2B     		cmp	r3, #26
 1404 0918 03D1     		bne	.L81
 534:build/openmote-cc2538_armgcc/openapps/opencoap/opencoap.c ****       openqueue_freePacketBuffer(msg);
 1405              		.loc 1 534 0
 1406 091a 7868     		ldr	r0, [r7, #4]
 1407 091c FFF7FEFF 		bl	openqueue_freePacketBuffer
 535:build/openmote-cc2538_armgcc/openapps/opencoap/opencoap.c ****       return;
 1408              		.loc 1 535 0
 1409 0920 23E0     		b	.L80
 1410              	.L81:
 536:build/openmote-cc2538_armgcc/openapps/opencoap/opencoap.c ****    }
 537:build/openmote-cc2538_armgcc/openapps/opencoap/opencoap.c ****    //=== someone else's
 538:build/openmote-cc2538_armgcc/openapps/opencoap/opencoap.c ****    temp_resource = opencoap_vars.resources;
 1411              		.loc 1 538 0
 1412 0922 134B     		ldr	r3, .L86
 1413 0924 1B69     		ldr	r3, [r3, #16]
 1414 0926 FB60     		str	r3, [r7, #12]
 539:build/openmote-cc2538_armgcc/openapps/opencoap/opencoap.c ****    while (temp_resource!=NULL) {
 1415              		.loc 1 539 0
 1416 0928 13E0     		b	.L83
 1417              	.L85:
 540:build/openmote-cc2538_armgcc/openapps/opencoap/opencoap.c ****       if (
 541:build/openmote-cc2538_armgcc/openapps/opencoap/opencoap.c ****          temp_resource->componentID==msg->creator &&
 1418              		.loc 1 541 0
 1419 092a FB68     		ldr	r3, [r7, #12]
 1420 092c 1A7C     		ldrb	r2, [r3, #16]	@ zero_extendqisi2
 1421 092e 7B68     		ldr	r3, [r7, #4]
 1422 0930 1B78     		ldrb	r3, [r3]	@ zero_extendqisi2
 540:build/openmote-cc2538_armgcc/openapps/opencoap/opencoap.c ****       if (
 1423              		.loc 1 540 0
 1424 0932 9A42     		cmp	r2, r3
 1425 0934 0AD1     		bne	.L84
 542:build/openmote-cc2538_armgcc/openapps/opencoap/opencoap.c ****          temp_resource->callbackSendDone!=NULL
 1426              		.loc 1 542 0
 1427 0936 FB68     		ldr	r3, [r7, #12]
 1428 0938 1B6A     		ldr	r3, [r3, #32]
 541:build/openmote-cc2538_armgcc/openapps/opencoap/opencoap.c ****          temp_resource->callbackSendDone!=NULL
 1429              		.loc 1 541 0
 1430 093a 002B     		cmp	r3, #0
 1431 093c 06D0     		beq	.L84
 543:build/openmote-cc2538_armgcc/openapps/opencoap/opencoap.c ****          ) {
 544:build/openmote-cc2538_armgcc/openapps/opencoap/opencoap.c ****          temp_resource->callbackSendDone(msg,error);
 1432              		.loc 1 544 0
 1433 093e FB68     		ldr	r3, [r7, #12]
 1434 0940 1B6A     		ldr	r3, [r3, #32]
 1435 0942 FA78     		ldrb	r2, [r7, #3]	@ zero_extendqisi2
 1436 0944 1146     		mov	r1, r2
 1437 0946 7868     		ldr	r0, [r7, #4]
 1438 0948 9847     		blx	r3
 545:build/openmote-cc2538_armgcc/openapps/opencoap/opencoap.c ****          return;
 1439              		.loc 1 545 0
 1440 094a 0EE0     		b	.L80
 1441              	.L84:
 546:build/openmote-cc2538_armgcc/openapps/opencoap/opencoap.c ****       }
 547:build/openmote-cc2538_armgcc/openapps/opencoap/opencoap.c ****       temp_resource = temp_resource->next;
 1442              		.loc 1 547 0
 1443 094c FB68     		ldr	r3, [r7, #12]
 1444 094e 5B6B     		ldr	r3, [r3, #52]
 1445 0950 FB60     		str	r3, [r7, #12]
 1446              	.L83:
 539:build/openmote-cc2538_armgcc/openapps/opencoap/opencoap.c ****       if (
 1447              		.loc 1 539 0
 1448 0952 FB68     		ldr	r3, [r7, #12]
 1449 0954 002B     		cmp	r3, #0
 1450 0956 E8D1     		bne	.L85
 548:build/openmote-cc2538_armgcc/openapps/opencoap/opencoap.c ****    }
 549:build/openmote-cc2538_armgcc/openapps/opencoap/opencoap.c ****    
 550:build/openmote-cc2538_armgcc/openapps/opencoap/opencoap.c ****    // if you get here, no valid creator was found
 551:build/openmote-cc2538_armgcc/openapps/opencoap/opencoap.c ****    
 552:build/openmote-cc2538_armgcc/openapps/opencoap/opencoap.c ****    openserial_printError(
 1451              		.loc 1 552 0
 1452 0958 0023     		movs	r3, #0
 1453 095a 0022     		movs	r2, #0
 1454 095c 2B21     		movs	r1, #43
 1455 095e 1A20     		movs	r0, #26
 1456 0960 FFF7FEFF 		bl	openserial_printError
 553:build/openmote-cc2538_armgcc/openapps/opencoap/opencoap.c ****       COMPONENT_OPENCOAP,ERR_UNEXPECTED_SENDDONE,
 554:build/openmote-cc2538_armgcc/openapps/opencoap/opencoap.c ****       (errorparameter_t)0,
 555:build/openmote-cc2538_armgcc/openapps/opencoap/opencoap.c ****       (errorparameter_t)0
 556:build/openmote-cc2538_armgcc/openapps/opencoap/opencoap.c ****    );
 557:build/openmote-cc2538_armgcc/openapps/opencoap/opencoap.c ****    openqueue_freePacketBuffer(msg);
 1457              		.loc 1 557 0
 1458 0964 7868     		ldr	r0, [r7, #4]
 1459 0966 FFF7FEFF 		bl	openqueue_freePacketBuffer
 1460              	.L80:
 558:build/openmote-cc2538_armgcc/openapps/opencoap/opencoap.c **** }
 1461              		.loc 1 558 0
 1462 096a 1037     		adds	r7, r7, #16
 1463              		.cfi_def_cfa_offset 8
 1464 096c BD46     		mov	sp, r7
 1465              		.cfi_def_cfa_register 13
 1466              		@ sp needed
 1467 096e 80BD     		pop	{r7, pc}
 1468              	.L87:
 1469              		.align	2
 1470              	.L86:
 1471 0970 00000000 		.word	opencoap_vars
 1472              		.cfi_endproc
 1473              	.LFE2:
 1475              		.align	2
 1476              		.global	opencoap_writeLinks
 1477              		.thumb
 1478              		.thumb_func
 1480              	opencoap_writeLinks:
 1481              	.LFB3:
 559:build/openmote-cc2538_armgcc/openapps/opencoap/opencoap.c **** 
 560:build/openmote-cc2538_armgcc/openapps/opencoap/opencoap.c **** //===== from CoAP resources
 561:build/openmote-cc2538_armgcc/openapps/opencoap/opencoap.c **** 
 562:build/openmote-cc2538_armgcc/openapps/opencoap/opencoap.c **** /**
 563:build/openmote-cc2538_armgcc/openapps/opencoap/opencoap.c **** \brief Writes the links to all the resources on this mote into the message.
 564:build/openmote-cc2538_armgcc/openapps/opencoap/opencoap.c **** 
 565:build/openmote-cc2538_armgcc/openapps/opencoap/opencoap.c **** \param[out] msg The messge to write the links to.
 566:build/openmote-cc2538_armgcc/openapps/opencoap/opencoap.c **** \param[in] componentID The componentID calling this function.
 567:build/openmote-cc2538_armgcc/openapps/opencoap/opencoap.c **** 
 568:build/openmote-cc2538_armgcc/openapps/opencoap/opencoap.c **** \post After this function returns, the msg contains 
 569:build/openmote-cc2538_armgcc/openapps/opencoap/opencoap.c **** */
 570:build/openmote-cc2538_armgcc/openapps/opencoap/opencoap.c **** void opencoap_writeLinks(OpenQueueEntry_t* msg, uint8_t componentID) {
 1482              		.loc 1 570 0
 1483              		.cfi_startproc
 1484              		@ args = 0, pretend = 0, frame = 16
 1485              		@ frame_needed = 1, uses_anonymous_args = 0
 1486 0974 80B5     		push	{r7, lr}
 1487              		.cfi_def_cfa_offset 8
 1488              		.cfi_offset 7, -8
 1489              		.cfi_offset 14, -4
 1490 0976 84B0     		sub	sp, sp, #16
 1491              		.cfi_def_cfa_offset 24
 1492 0978 00AF     		add	r7, sp, #0
 1493              		.cfi_def_cfa_register 7
 1494 097a 7860     		str	r0, [r7, #4]
 1495 097c 0B46     		mov	r3, r1
 1496 097e FB70     		strb	r3, [r7, #3]
 571:build/openmote-cc2538_armgcc/openapps/opencoap/opencoap.c ****    coap_resource_desc_t* temp_resource;
 572:build/openmote-cc2538_armgcc/openapps/opencoap/opencoap.c ****    
 573:build/openmote-cc2538_armgcc/openapps/opencoap/opencoap.c ****    // start with the first resource in the linked list
 574:build/openmote-cc2538_armgcc/openapps/opencoap/opencoap.c ****    temp_resource = opencoap_vars.resources;
 1497              		.loc 1 574 0
 1498 0980 364B     		ldr	r3, .L95
 1499 0982 1B69     		ldr	r3, [r3, #16]
 1500 0984 FB60     		str	r3, [r7, #12]
 575:build/openmote-cc2538_armgcc/openapps/opencoap/opencoap.c ****    
 576:build/openmote-cc2538_armgcc/openapps/opencoap/opencoap.c ****    // iterate through all resources
 577:build/openmote-cc2538_armgcc/openapps/opencoap/opencoap.c ****    while (temp_resource!=NULL) {
 1501              		.loc 1 577 0
 1502 0986 61E0     		b	.L89
 1503              	.L94:
 578:build/openmote-cc2538_armgcc/openapps/opencoap/opencoap.c ****       
 579:build/openmote-cc2538_armgcc/openapps/opencoap/opencoap.c ****       if (  
 580:build/openmote-cc2538_armgcc/openapps/opencoap/opencoap.c ****             (temp_resource->discoverable==TRUE) &&
 1504              		.loc 1 580 0
 1505 0988 FB68     		ldr	r3, [r7, #12]
 1506 098a 1B7E     		ldrb	r3, [r3, #24]	@ zero_extendqisi2
 579:build/openmote-cc2538_armgcc/openapps/opencoap/opencoap.c ****             (temp_resource->discoverable==TRUE) &&
 1507              		.loc 1 579 0
 1508 098c 002B     		cmp	r3, #0
 1509 098e 5AD0     		beq	.L90
 1510              		.loc 1 580 0
 1511 0990 FB78     		ldrb	r3, [r7, #3]	@ zero_extendqisi2
 1512 0992 212B     		cmp	r3, #33
 1513 0994 03D1     		bne	.L91
 581:build/openmote-cc2538_armgcc/openapps/opencoap/opencoap.c ****             (
 582:build/openmote-cc2538_armgcc/openapps/opencoap/opencoap.c ****                ((componentID==COMPONENT_CWELLKNOWN) && (temp_resource->path1len==0))
 1514              		.loc 1 582 0
 1515 0996 FB68     		ldr	r3, [r7, #12]
 1516 0998 1B7A     		ldrb	r3, [r3, #8]	@ zero_extendqisi2
 1517 099a 002B     		cmp	r3, #0
 1518 099c 08D0     		beq	.L92
 1519              	.L91:
 583:build/openmote-cc2538_armgcc/openapps/opencoap/opencoap.c ****                || 
 584:build/openmote-cc2538_armgcc/openapps/opencoap/opencoap.c ****                ((componentID==temp_resource->componentID) && (temp_resource->path1len!=0))
 1520              		.loc 1 584 0
 1521 099e FB68     		ldr	r3, [r7, #12]
 1522 09a0 1B7C     		ldrb	r3, [r3, #16]	@ zero_extendqisi2
 583:build/openmote-cc2538_armgcc/openapps/opencoap/opencoap.c ****                || 
 1523              		.loc 1 583 0
 1524 09a2 FA78     		ldrb	r2, [r7, #3]	@ zero_extendqisi2
 1525 09a4 9A42     		cmp	r2, r3
 1526 09a6 4ED1     		bne	.L90
 1527              		.loc 1 584 0
 1528 09a8 FB68     		ldr	r3, [r7, #12]
 1529 09aa 1B7A     		ldrb	r3, [r3, #8]	@ zero_extendqisi2
 1530 09ac 002B     		cmp	r3, #0
 1531 09ae 4AD0     		beq	.L90
 1532              	.L92:
 585:build/openmote-cc2538_armgcc/openapps/opencoap/opencoap.c ****             )
 586:build/openmote-cc2538_armgcc/openapps/opencoap/opencoap.c ****          ) {
 587:build/openmote-cc2538_armgcc/openapps/opencoap/opencoap.c ****           
 588:build/openmote-cc2538_armgcc/openapps/opencoap/opencoap.c ****          // write ending '>'
 589:build/openmote-cc2538_armgcc/openapps/opencoap/opencoap.c ****          packetfunctions_reserveHeaderSize(msg,1);
 1533              		.loc 1 589 0
 1534 09b0 0121     		movs	r1, #1
 1535 09b2 7868     		ldr	r0, [r7, #4]
 1536 09b4 FFF7FEFF 		bl	packetfunctions_reserveHeaderSize
 590:build/openmote-cc2538_armgcc/openapps/opencoap/opencoap.c ****          msg->payload[0] = '>';
 1537              		.loc 1 590 0
 1538 09b8 7B68     		ldr	r3, [r7, #4]
 1539 09ba 5B68     		ldr	r3, [r3, #4]
 1540 09bc 3E22     		movs	r2, #62
 1541 09be 1A70     		strb	r2, [r3]
 591:build/openmote-cc2538_armgcc/openapps/opencoap/opencoap.c ****          
 592:build/openmote-cc2538_armgcc/openapps/opencoap/opencoap.c ****          // write path1
 593:build/openmote-cc2538_armgcc/openapps/opencoap/opencoap.c ****          if (temp_resource->path1len>0) {
 1542              		.loc 1 593 0
 1543 09c0 FB68     		ldr	r3, [r7, #12]
 1544 09c2 1B7A     		ldrb	r3, [r3, #8]	@ zero_extendqisi2
 1545 09c4 002B     		cmp	r3, #0
 1546 09c6 16D0     		beq	.L93
 594:build/openmote-cc2538_armgcc/openapps/opencoap/opencoap.c ****             packetfunctions_reserveHeaderSize(msg,temp_resource->path1len);
 1547              		.loc 1 594 0
 1548 09c8 FB68     		ldr	r3, [r7, #12]
 1549 09ca 1B7A     		ldrb	r3, [r3, #8]	@ zero_extendqisi2
 1550 09cc 1946     		mov	r1, r3
 1551 09ce 7868     		ldr	r0, [r7, #4]
 1552 09d0 FFF7FEFF 		bl	packetfunctions_reserveHeaderSize
 595:build/openmote-cc2538_armgcc/openapps/opencoap/opencoap.c ****             memcpy(&msg->payload[0],temp_resource->path1val,temp_resource->path1len);
 1553              		.loc 1 595 0
 1554 09d4 7B68     		ldr	r3, [r7, #4]
 1555 09d6 5868     		ldr	r0, [r3, #4]
 1556 09d8 FB68     		ldr	r3, [r7, #12]
 1557 09da D968     		ldr	r1, [r3, #12]
 1558 09dc FB68     		ldr	r3, [r7, #12]
 1559 09de 1B7A     		ldrb	r3, [r3, #8]	@ zero_extendqisi2
 1560 09e0 1A46     		mov	r2, r3
 1561 09e2 FFF7FEFF 		bl	memcpy
 596:build/openmote-cc2538_armgcc/openapps/opencoap/opencoap.c ****             packetfunctions_reserveHeaderSize(msg,1);
 1562              		.loc 1 596 0
 1563 09e6 0121     		movs	r1, #1
 1564 09e8 7868     		ldr	r0, [r7, #4]
 1565 09ea FFF7FEFF 		bl	packetfunctions_reserveHeaderSize
 597:build/openmote-cc2538_armgcc/openapps/opencoap/opencoap.c ****             msg->payload[0] = '/';
 1566              		.loc 1 597 0
 1567 09ee 7B68     		ldr	r3, [r7, #4]
 1568 09f0 5B68     		ldr	r3, [r3, #4]
 1569 09f2 2F22     		movs	r2, #47
 1570 09f4 1A70     		strb	r2, [r3]
 1571              	.L93:
 598:build/openmote-cc2538_armgcc/openapps/opencoap/opencoap.c ****          }
 599:build/openmote-cc2538_armgcc/openapps/opencoap/opencoap.c ****          
 600:build/openmote-cc2538_armgcc/openapps/opencoap/opencoap.c ****          // write path0
 601:build/openmote-cc2538_armgcc/openapps/opencoap/opencoap.c ****          packetfunctions_reserveHeaderSize(msg,temp_resource->path0len);
 1572              		.loc 1 601 0
 1573 09f6 FB68     		ldr	r3, [r7, #12]
 1574 09f8 1B78     		ldrb	r3, [r3]	@ zero_extendqisi2
 1575 09fa 1946     		mov	r1, r3
 1576 09fc 7868     		ldr	r0, [r7, #4]
 1577 09fe FFF7FEFF 		bl	packetfunctions_reserveHeaderSize
 602:build/openmote-cc2538_armgcc/openapps/opencoap/opencoap.c ****          memcpy(msg->payload,temp_resource->path0val,temp_resource->path0len);
 1578              		.loc 1 602 0
 1579 0a02 7B68     		ldr	r3, [r7, #4]
 1580 0a04 5868     		ldr	r0, [r3, #4]
 1581 0a06 FB68     		ldr	r3, [r7, #12]
 1582 0a08 5968     		ldr	r1, [r3, #4]
 1583 0a0a FB68     		ldr	r3, [r7, #12]
 1584 0a0c 1B78     		ldrb	r3, [r3]	@ zero_extendqisi2
 1585 0a0e 1A46     		mov	r2, r3
 1586 0a10 FFF7FEFF 		bl	memcpy
 603:build/openmote-cc2538_armgcc/openapps/opencoap/opencoap.c ****          packetfunctions_reserveHeaderSize(msg,2);
 1587              		.loc 1 603 0
 1588 0a14 0221     		movs	r1, #2
 1589 0a16 7868     		ldr	r0, [r7, #4]
 1590 0a18 FFF7FEFF 		bl	packetfunctions_reserveHeaderSize
 604:build/openmote-cc2538_armgcc/openapps/opencoap/opencoap.c ****          msg->payload[1] = '/';
 1591              		.loc 1 604 0
 1592 0a1c 7B68     		ldr	r3, [r7, #4]
 1593 0a1e 5B68     		ldr	r3, [r3, #4]
 1594 0a20 0133     		adds	r3, r3, #1
 1595 0a22 2F22     		movs	r2, #47
 1596 0a24 1A70     		strb	r2, [r3]
 605:build/openmote-cc2538_armgcc/openapps/opencoap/opencoap.c ****          
 606:build/openmote-cc2538_armgcc/openapps/opencoap/opencoap.c ****          // write opening '>'
 607:build/openmote-cc2538_armgcc/openapps/opencoap/opencoap.c ****          msg->payload[0] = '<';
 1597              		.loc 1 607 0
 1598 0a26 7B68     		ldr	r3, [r7, #4]
 1599 0a28 5B68     		ldr	r3, [r3, #4]
 1600 0a2a 3C22     		movs	r2, #60
 1601 0a2c 1A70     		strb	r2, [r3]
 608:build/openmote-cc2538_armgcc/openapps/opencoap/opencoap.c ****          
 609:build/openmote-cc2538_armgcc/openapps/opencoap/opencoap.c ****          // write separator between links
 610:build/openmote-cc2538_armgcc/openapps/opencoap/opencoap.c ****          if (temp_resource->next!=NULL) {
 1602              		.loc 1 610 0
 1603 0a2e FB68     		ldr	r3, [r7, #12]
 1604 0a30 5B6B     		ldr	r3, [r3, #52]
 1605 0a32 002B     		cmp	r3, #0
 1606 0a34 07D0     		beq	.L90
 611:build/openmote-cc2538_armgcc/openapps/opencoap/opencoap.c ****             packetfunctions_reserveHeaderSize(msg,1);
 1607              		.loc 1 611 0
 1608 0a36 0121     		movs	r1, #1
 1609 0a38 7868     		ldr	r0, [r7, #4]
 1610 0a3a FFF7FEFF 		bl	packetfunctions_reserveHeaderSize
 612:build/openmote-cc2538_armgcc/openapps/opencoap/opencoap.c ****             msg->payload[0] = ',';
 1611              		.loc 1 612 0
 1612 0a3e 7B68     		ldr	r3, [r7, #4]
 1613 0a40 5B68     		ldr	r3, [r3, #4]
 1614 0a42 2C22     		movs	r2, #44
 1615 0a44 1A70     		strb	r2, [r3]
 1616              	.L90:
 613:build/openmote-cc2538_armgcc/openapps/opencoap/opencoap.c ****          }
 614:build/openmote-cc2538_armgcc/openapps/opencoap/opencoap.c ****       }
 615:build/openmote-cc2538_armgcc/openapps/opencoap/opencoap.c ****       // iterate to next resource
 616:build/openmote-cc2538_armgcc/openapps/opencoap/opencoap.c ****       temp_resource = temp_resource->next;
 1617              		.loc 1 616 0
 1618 0a46 FB68     		ldr	r3, [r7, #12]
 1619 0a48 5B6B     		ldr	r3, [r3, #52]
 1620 0a4a FB60     		str	r3, [r7, #12]
 1621              	.L89:
 577:build/openmote-cc2538_armgcc/openapps/opencoap/opencoap.c ****       
 1622              		.loc 1 577 0
 1623 0a4c FB68     		ldr	r3, [r7, #12]
 1624 0a4e 002B     		cmp	r3, #0
 1625 0a50 9AD1     		bne	.L94
 617:build/openmote-cc2538_armgcc/openapps/opencoap/opencoap.c ****    }
 618:build/openmote-cc2538_armgcc/openapps/opencoap/opencoap.c **** }
 1626              		.loc 1 618 0
 1627 0a52 00BF     		nop
 1628 0a54 1037     		adds	r7, r7, #16
 1629              		.cfi_def_cfa_offset 8
 1630 0a56 BD46     		mov	sp, r7
 1631              		.cfi_def_cfa_register 13
 1632              		@ sp needed
 1633 0a58 80BD     		pop	{r7, pc}
 1634              	.L96:
 1635 0a5a 00BF     		.align	2
 1636              	.L95:
 1637 0a5c 00000000 		.word	opencoap_vars
 1638              		.cfi_endproc
 1639              	.LFE3:
 1641              		.align	2
 1642              		.global	opencoap_register
 1643              		.thumb
 1644              		.thumb_func
 1646              	opencoap_register:
 1647              	.LFB4:
 619:build/openmote-cc2538_armgcc/openapps/opencoap/opencoap.c **** 
 620:build/openmote-cc2538_armgcc/openapps/opencoap/opencoap.c **** /**
 621:build/openmote-cc2538_armgcc/openapps/opencoap/opencoap.c **** \brief Register a new CoAP resource.
 622:build/openmote-cc2538_armgcc/openapps/opencoap/opencoap.c **** 
 623:build/openmote-cc2538_armgcc/openapps/opencoap/opencoap.c **** This function is called by a CoAP resource when it starts, allowing it to
 624:build/openmote-cc2538_armgcc/openapps/opencoap/opencoap.c **** receive data sent to that resource.
 625:build/openmote-cc2538_armgcc/openapps/opencoap/opencoap.c **** 
 626:build/openmote-cc2538_armgcc/openapps/opencoap/opencoap.c **** Registration consists in adding a new resource at the end of the linked list
 627:build/openmote-cc2538_armgcc/openapps/opencoap/opencoap.c **** of resources.
 628:build/openmote-cc2538_armgcc/openapps/opencoap/opencoap.c **** 
 629:build/openmote-cc2538_armgcc/openapps/opencoap/opencoap.c **** \param[in] desc The description of the CoAP resource.
 630:build/openmote-cc2538_armgcc/openapps/opencoap/opencoap.c **** */
 631:build/openmote-cc2538_armgcc/openapps/opencoap/opencoap.c **** void opencoap_register(coap_resource_desc_t* desc) {
 1648              		.loc 1 631 0
 1649              		.cfi_startproc
 1650              		@ args = 0, pretend = 0, frame = 16
 1651              		@ frame_needed = 1, uses_anonymous_args = 0
 1652              		@ link register save eliminated.
 1653 0a60 80B4     		push	{r7}
 1654              		.cfi_def_cfa_offset 4
 1655              		.cfi_offset 7, -4
 1656 0a62 85B0     		sub	sp, sp, #20
 1657              		.cfi_def_cfa_offset 24
 1658 0a64 00AF     		add	r7, sp, #0
 1659              		.cfi_def_cfa_register 7
 1660 0a66 7860     		str	r0, [r7, #4]
 632:build/openmote-cc2538_armgcc/openapps/opencoap/opencoap.c ****    coap_resource_desc_t* last_elem;
 633:build/openmote-cc2538_armgcc/openapps/opencoap/opencoap.c ****    
 634:build/openmote-cc2538_armgcc/openapps/opencoap/opencoap.c ****    // since this CoAP resource will be at the end of the list, its next element
 635:build/openmote-cc2538_armgcc/openapps/opencoap/opencoap.c ****    // should point to NULL, indicating the end of the linked list.
 636:build/openmote-cc2538_armgcc/openapps/opencoap/opencoap.c ****    desc->next = NULL;
 1661              		.loc 1 636 0
 1662 0a68 7B68     		ldr	r3, [r7, #4]
 1663 0a6a 0022     		movs	r2, #0
 1664 0a6c 5A63     		str	r2, [r3, #52]
 637:build/openmote-cc2538_armgcc/openapps/opencoap/opencoap.c ****    
 638:build/openmote-cc2538_armgcc/openapps/opencoap/opencoap.c ****    // if this is the first resource, simply have resources point to it
 639:build/openmote-cc2538_armgcc/openapps/opencoap/opencoap.c ****    if (opencoap_vars.resources==NULL) {
 1665              		.loc 1 639 0
 1666 0a6e 0D4B     		ldr	r3, .L102
 1667 0a70 1B69     		ldr	r3, [r3, #16]
 1668 0a72 002B     		cmp	r3, #0
 1669 0a74 03D1     		bne	.L98
 640:build/openmote-cc2538_armgcc/openapps/opencoap/opencoap.c ****       opencoap_vars.resources = desc;
 1670              		.loc 1 640 0
 1671 0a76 0B4A     		ldr	r2, .L102
 1672 0a78 7B68     		ldr	r3, [r7, #4]
 1673 0a7a 1361     		str	r3, [r2, #16]
 641:build/openmote-cc2538_armgcc/openapps/opencoap/opencoap.c ****       return;
 1674              		.loc 1 641 0
 1675 0a7c 0DE0     		b	.L97
 1676              	.L98:
 642:build/openmote-cc2538_armgcc/openapps/opencoap/opencoap.c ****    }
 643:build/openmote-cc2538_armgcc/openapps/opencoap/opencoap.c ****    
 644:build/openmote-cc2538_armgcc/openapps/opencoap/opencoap.c ****    // if not, add to the end of the resource linked list
 645:build/openmote-cc2538_armgcc/openapps/opencoap/opencoap.c ****    last_elem = opencoap_vars.resources;
 1677              		.loc 1 645 0
 1678 0a7e 094B     		ldr	r3, .L102
 1679 0a80 1B69     		ldr	r3, [r3, #16]
 1680 0a82 FB60     		str	r3, [r7, #12]
 646:build/openmote-cc2538_armgcc/openapps/opencoap/opencoap.c ****    while (last_elem->next!=NULL) {
 1681              		.loc 1 646 0
 1682 0a84 02E0     		b	.L100
 1683              	.L101:
 647:build/openmote-cc2538_armgcc/openapps/opencoap/opencoap.c ****       last_elem = last_elem->next;
 1684              		.loc 1 647 0
 1685 0a86 FB68     		ldr	r3, [r7, #12]
 1686 0a88 5B6B     		ldr	r3, [r3, #52]
 1687 0a8a FB60     		str	r3, [r7, #12]
 1688              	.L100:
 646:build/openmote-cc2538_armgcc/openapps/opencoap/opencoap.c ****    while (last_elem->next!=NULL) {
 1689              		.loc 1 646 0
 1690 0a8c FB68     		ldr	r3, [r7, #12]
 1691 0a8e 5B6B     		ldr	r3, [r3, #52]
 1692 0a90 002B     		cmp	r3, #0
 1693 0a92 F8D1     		bne	.L101
 648:build/openmote-cc2538_armgcc/openapps/opencoap/opencoap.c ****    }
 649:build/openmote-cc2538_armgcc/openapps/opencoap/opencoap.c ****    last_elem->next = desc;
 1694              		.loc 1 649 0
 1695 0a94 FB68     		ldr	r3, [r7, #12]
 1696 0a96 7A68     		ldr	r2, [r7, #4]
 1697 0a98 5A63     		str	r2, [r3, #52]
 1698              	.L97:
 650:build/openmote-cc2538_armgcc/openapps/opencoap/opencoap.c **** }
 1699              		.loc 1 650 0
 1700 0a9a 1437     		adds	r7, r7, #20
 1701              		.cfi_def_cfa_offset 4
 1702 0a9c BD46     		mov	sp, r7
 1703              		.cfi_def_cfa_register 13
 1704              		@ sp needed
 1705 0a9e 80BC     		pop	{r7}
 1706              		.cfi_restore 7
 1707              		.cfi_def_cfa_offset 0
 1708 0aa0 7047     		bx	lr
 1709              	.L103:
 1710 0aa2 00BF     		.align	2
 1711              	.L102:
 1712 0aa4 00000000 		.word	opencoap_vars
 1713              		.cfi_endproc
 1714              	.LFE4:
 1716              		.align	2
 1717              		.global	opencoap_send
 1718              		.thumb
 1719              		.thumb_func
 1721              	opencoap_send:
 1722              	.LFB5:
 651:build/openmote-cc2538_armgcc/openapps/opencoap/opencoap.c **** 
 652:build/openmote-cc2538_armgcc/openapps/opencoap/opencoap.c **** /**
 653:build/openmote-cc2538_armgcc/openapps/opencoap/opencoap.c **** \brief Send a CoAP request.
 654:build/openmote-cc2538_armgcc/openapps/opencoap/opencoap.c **** 
 655:build/openmote-cc2538_armgcc/openapps/opencoap/opencoap.c **** This function is called by a CoAP resource when it wants to send some data.
 656:build/openmote-cc2538_armgcc/openapps/opencoap/opencoap.c **** This function is NOT called for a response.
 657:build/openmote-cc2538_armgcc/openapps/opencoap/opencoap.c **** 
 658:build/openmote-cc2538_armgcc/openapps/opencoap/opencoap.c **** \param[in] msg The message to be sent. This messages should not contain the
 659:build/openmote-cc2538_armgcc/openapps/opencoap/opencoap.c ****    CoAP header.
 660:build/openmote-cc2538_armgcc/openapps/opencoap/opencoap.c **** \param[in] type The CoAP type of the message.
 661:build/openmote-cc2538_armgcc/openapps/opencoap/opencoap.c **** \param[in] code The CoAP code of the message.
 662:build/openmote-cc2538_armgcc/openapps/opencoap/opencoap.c **** \param[in] TKL  The Token Length of the message, sanitized to a max of COAP_MAX_TKL (8).
 663:build/openmote-cc2538_armgcc/openapps/opencoap/opencoap.c **** \param[in] options An array of sorted CoAP options.
 664:build/openmote-cc2538_armgcc/openapps/opencoap/opencoap.c **** \param[in] optionsLen The length of the options array.
 665:build/openmote-cc2538_armgcc/openapps/opencoap/opencoap.c **** \param[out] descSender A pointer to the description of the calling CoAP
 666:build/openmote-cc2538_armgcc/openapps/opencoap/opencoap.c ****    resource.
 667:build/openmote-cc2538_armgcc/openapps/opencoap/opencoap.c **** 
 668:build/openmote-cc2538_armgcc/openapps/opencoap/opencoap.c **** \post After returning, this function will have written the messageID and TOKEN
 669:build/openmote-cc2538_armgcc/openapps/opencoap/opencoap.c ****    used in the descSender parameter.
 670:build/openmote-cc2538_armgcc/openapps/opencoap/opencoap.c **** 
 671:build/openmote-cc2538_armgcc/openapps/opencoap/opencoap.c **** \return The outcome of sending the packet.
 672:build/openmote-cc2538_armgcc/openapps/opencoap/opencoap.c **** */
 673:build/openmote-cc2538_armgcc/openapps/opencoap/opencoap.c **** owerror_t opencoap_send(
 674:build/openmote-cc2538_armgcc/openapps/opencoap/opencoap.c ****       OpenQueueEntry_t*      msg,
 675:build/openmote-cc2538_armgcc/openapps/opencoap/opencoap.c ****       coap_type_t            type,
 676:build/openmote-cc2538_armgcc/openapps/opencoap/opencoap.c ****       coap_code_t            code,
 677:build/openmote-cc2538_armgcc/openapps/opencoap/opencoap.c ****       uint8_t                TKL,
 678:build/openmote-cc2538_armgcc/openapps/opencoap/opencoap.c ****       coap_option_iht*       options,
 679:build/openmote-cc2538_armgcc/openapps/opencoap/opencoap.c ****       uint8_t                optionsLen,
 680:build/openmote-cc2538_armgcc/openapps/opencoap/opencoap.c ****       coap_resource_desc_t*  descSender
 681:build/openmote-cc2538_armgcc/openapps/opencoap/opencoap.c ****    ) {
 1723              		.loc 1 681 0
 1724              		.cfi_startproc
 1725              		@ args = 12, pretend = 0, frame = 24
 1726              		@ frame_needed = 1, uses_anonymous_args = 0
 1727 0aa8 80B5     		push	{r7, lr}
 1728              		.cfi_def_cfa_offset 8
 1729              		.cfi_offset 7, -8
 1730              		.cfi_offset 14, -4
 1731 0aaa 8AB0     		sub	sp, sp, #40
 1732              		.cfi_def_cfa_offset 48
 1733 0aac 04AF     		add	r7, sp, #16
 1734              		.cfi_def_cfa 7, 32
 1735 0aae 7860     		str	r0, [r7, #4]
 1736 0ab0 0846     		mov	r0, r1
 1737 0ab2 1146     		mov	r1, r2
 1738 0ab4 1A46     		mov	r2, r3
 1739 0ab6 0346     		mov	r3, r0
 1740 0ab8 FB70     		strb	r3, [r7, #3]
 1741 0aba 0B46     		mov	r3, r1
 1742 0abc BB70     		strb	r3, [r7, #2]
 1743 0abe 1346     		mov	r3, r2
 1744 0ac0 7B70     		strb	r3, [r7, #1]
 682:build/openmote-cc2538_armgcc/openapps/opencoap/opencoap.c ****    uint16_t token;
 683:build/openmote-cc2538_armgcc/openapps/opencoap/opencoap.c ****    uint8_t tokenPos=0;
 1745              		.loc 1 683 0
 1746 0ac2 0023     		movs	r3, #0
 1747 0ac4 FB75     		strb	r3, [r7, #23]
 684:build/openmote-cc2538_armgcc/openapps/opencoap/opencoap.c ****    coap_header_iht* request;
 685:build/openmote-cc2538_armgcc/openapps/opencoap/opencoap.c ****    owerror_t ret;
 686:build/openmote-cc2538_armgcc/openapps/opencoap/opencoap.c ****    coap_option_class_t class;
 687:build/openmote-cc2538_armgcc/openapps/opencoap/opencoap.c **** 
 688:build/openmote-cc2538_armgcc/openapps/opencoap/opencoap.c ****    class = COAP_OPTION_CLASS_ALL;
 1748              		.loc 1 688 0
 1749 0ac6 0323     		movs	r3, #3
 1750 0ac8 BB75     		strb	r3, [r7, #22]
 689:build/openmote-cc2538_armgcc/openapps/opencoap/opencoap.c **** 
 690:build/openmote-cc2538_armgcc/openapps/opencoap/opencoap.c ****    // increment the (global) messageID
 691:build/openmote-cc2538_armgcc/openapps/opencoap/opencoap.c ****    if (opencoap_vars.messageID++ == 0xffff) {
 1751              		.loc 1 691 0
 1752 0aca 424B     		ldr	r3, .L112
 1753 0acc DB8A     		ldrh	r3, [r3, #22]
 1754 0ace 5A1C     		adds	r2, r3, #1
 1755 0ad0 91B2     		uxth	r1, r2
 1756 0ad2 404A     		ldr	r2, .L112
 1757 0ad4 D182     		strh	r1, [r2, #22]	@ movhi
 1758 0ad6 4FF6FF72 		movw	r2, #65535
 1759 0ada 9342     		cmp	r3, r2
 1760 0adc 02D1     		bne	.L105
 692:build/openmote-cc2538_armgcc/openapps/opencoap/opencoap.c ****       opencoap_vars.messageID = 0;
 1761              		.loc 1 692 0
 1762 0ade 3D4B     		ldr	r3, .L112
 1763 0ae0 0022     		movs	r2, #0
 1764 0ae2 DA82     		strh	r2, [r3, #22]	@ movhi
 1765              	.L105:
 693:build/openmote-cc2538_armgcc/openapps/opencoap/opencoap.c ****    }
 694:build/openmote-cc2538_armgcc/openapps/opencoap/opencoap.c ****    
 695:build/openmote-cc2538_armgcc/openapps/opencoap/opencoap.c ****    // take ownership over the packet
 696:build/openmote-cc2538_armgcc/openapps/opencoap/opencoap.c ****    msg->owner                       = COMPONENT_OPENCOAP;
 1766              		.loc 1 696 0
 1767 0ae4 7B68     		ldr	r3, [r7, #4]
 1768 0ae6 1A22     		movs	r2, #26
 1769 0ae8 5A70     		strb	r2, [r3, #1]
 697:build/openmote-cc2538_armgcc/openapps/opencoap/opencoap.c ****    
 698:build/openmote-cc2538_armgcc/openapps/opencoap/opencoap.c ****    // fill in packet metadata
 699:build/openmote-cc2538_armgcc/openapps/opencoap/opencoap.c ****    msg->l4_sourcePortORicmpv6Type   = WKP_UDP_COAP;
 1770              		.loc 1 699 0
 1771 0aea 7B68     		ldr	r3, [r7, #4]
 1772 0aec 41F23362 		movw	r2, #5683
 1773 0af0 1A82     		strh	r2, [r3, #16]	@ movhi
 700:build/openmote-cc2538_armgcc/openapps/opencoap/opencoap.c ****    
 701:build/openmote-cc2538_armgcc/openapps/opencoap/opencoap.c ****    // update the last_request header
 702:build/openmote-cc2538_armgcc/openapps/opencoap/opencoap.c ****    request                          = &descSender->last_request;
 1774              		.loc 1 702 0
 1775 0af2 BB6A     		ldr	r3, [r7, #40]
 1776 0af4 2433     		adds	r3, r3, #36
 1777 0af6 3B61     		str	r3, [r7, #16]
 703:build/openmote-cc2538_armgcc/openapps/opencoap/opencoap.c ****    request->T                       = type;
 1778              		.loc 1 703 0
 1779 0af8 3B69     		ldr	r3, [r7, #16]
 1780 0afa FA78     		ldrb	r2, [r7, #3]
 1781 0afc 5A70     		strb	r2, [r3, #1]
 704:build/openmote-cc2538_armgcc/openapps/opencoap/opencoap.c ****    request->Code                    = code;
 1782              		.loc 1 704 0
 1783 0afe 3B69     		ldr	r3, [r7, #16]
 1784 0b00 BA78     		ldrb	r2, [r7, #2]
 1785 0b02 DA70     		strb	r2, [r3, #3]
 705:build/openmote-cc2538_armgcc/openapps/opencoap/opencoap.c ****    request->messageID               = opencoap_vars.messageID;
 1786              		.loc 1 705 0
 1787 0b04 334B     		ldr	r3, .L112
 1788 0b06 DA8A     		ldrh	r2, [r3, #22]
 1789 0b08 3B69     		ldr	r3, [r7, #16]
 1790 0b0a 9A80     		strh	r2, [r3, #4]	@ movhi
 706:build/openmote-cc2538_armgcc/openapps/opencoap/opencoap.c ****    request->TKL                     = TKL<COAP_MAX_TKL ? TKL : COAP_MAX_TKL;
 1791              		.loc 1 706 0
 1792 0b0c 7B78     		ldrb	r3, [r7, #1]	@ zero_extendqisi2
 1793 0b0e 082B     		cmp	r3, #8
 1794 0b10 28BF     		it	cs
 1795 0b12 0823     		movcs	r3, #8
 1796 0b14 DAB2     		uxtb	r2, r3
 1797 0b16 3B69     		ldr	r3, [r7, #16]
 1798 0b18 9A70     		strb	r2, [r3, #2]
 707:build/openmote-cc2538_armgcc/openapps/opencoap/opencoap.c ****    
 708:build/openmote-cc2538_armgcc/openapps/opencoap/opencoap.c ****    while (tokenPos<request->TKL) {
 1799              		.loc 1 708 0
 1800 0b1a 10E0     		b	.L106
 1801              	.L107:
 709:build/openmote-cc2538_armgcc/openapps/opencoap/opencoap.c ****        token = openrandom_get16b();
 1802              		.loc 1 709 0
 1803 0b1c FFF7FEFF 		bl	openrandom_get16b
 1804 0b20 0346     		mov	r3, r0
 1805 0b22 BB81     		strh	r3, [r7, #12]	@ movhi
 710:build/openmote-cc2538_armgcc/openapps/opencoap/opencoap.c ****        memcpy(&request->token[tokenPos],&token,2);
 1806              		.loc 1 710 0
 1807 0b24 FB7D     		ldrb	r3, [r7, #23]	@ zero_extendqisi2
 1808 0b26 3A69     		ldr	r2, [r7, #16]
 1809 0b28 1344     		add	r3, r3, r2
 1810 0b2a 0633     		adds	r3, r3, #6
 1811 0b2c 07F10C01 		add	r1, r7, #12
 1812 0b30 0222     		movs	r2, #2
 1813 0b32 1846     		mov	r0, r3
 1814 0b34 FFF7FEFF 		bl	memcpy
 711:build/openmote-cc2538_armgcc/openapps/opencoap/opencoap.c ****        tokenPos+=2;
 1815              		.loc 1 711 0
 1816 0b38 FB7D     		ldrb	r3, [r7, #23]
 1817 0b3a 0233     		adds	r3, r3, #2
 1818 0b3c FB75     		strb	r3, [r7, #23]
 1819              	.L106:
 708:build/openmote-cc2538_armgcc/openapps/opencoap/opencoap.c ****        token = openrandom_get16b();
 1820              		.loc 1 708 0
 1821 0b3e 3B69     		ldr	r3, [r7, #16]
 1822 0b40 9B78     		ldrb	r3, [r3, #2]	@ zero_extendqisi2
 1823 0b42 FA7D     		ldrb	r2, [r7, #23]	@ zero_extendqisi2
 1824 0b44 9A42     		cmp	r2, r3
 1825 0b46 E9D3     		bcc	.L107
 712:build/openmote-cc2538_armgcc/openapps/opencoap/opencoap.c ****    }
 713:build/openmote-cc2538_armgcc/openapps/opencoap/opencoap.c **** 
 714:build/openmote-cc2538_armgcc/openapps/opencoap/opencoap.c ****    if (descSender->securityContext != NULL) { // security activated for the resource
 1826              		.loc 1 714 0
 1827 0b48 BB6A     		ldr	r3, [r7, #40]
 1828 0b4a 5B69     		ldr	r3, [r3, #20]
 1829 0b4c 002B     		cmp	r3, #0
 1830 0b4e 20D0     		beq	.L108
 715:build/openmote-cc2538_armgcc/openapps/opencoap/opencoap.c ****       // get new sequence number and save it
 716:build/openmote-cc2538_armgcc/openapps/opencoap/opencoap.c ****       request->oscoapSeqNum = openoscoap_get_sequence_number(descSender->securityContext);
 1831              		.loc 1 716 0
 1832 0b50 BB6A     		ldr	r3, [r7, #40]
 1833 0b52 5B69     		ldr	r3, [r3, #20]
 1834 0b54 1846     		mov	r0, r3
 1835 0b56 FFF7FEFF 		bl	openoscoap_get_sequence_number
 1836 0b5a 0346     		mov	r3, r0
 1837 0b5c 1A46     		mov	r2, r3
 1838 0b5e 3B69     		ldr	r3, [r7, #16]
 1839 0b60 DA81     		strh	r2, [r3, #14]	@ movhi
 717:build/openmote-cc2538_armgcc/openapps/opencoap/opencoap.c ****       // protect the message in the openqueue buffer
 718:build/openmote-cc2538_armgcc/openapps/opencoap/opencoap.c ****       ret = openoscoap_protect_message(
 1840              		.loc 1 718 0
 1841 0b62 BB6A     		ldr	r3, [r7, #40]
 1842 0b64 5869     		ldr	r0, [r3, #20]
 1843 0b66 3B69     		ldr	r3, [r7, #16]
 1844 0b68 DB89     		ldrh	r3, [r3, #14]
 1845 0b6a BA78     		ldrb	r2, [r7, #2]	@ zero_extendqisi2
 1846 0b6c 0293     		str	r3, [sp, #8]
 1847 0b6e 7B68     		ldr	r3, [r7, #4]
 1848 0b70 0193     		str	r3, [sp, #4]
 1849 0b72 97F82430 		ldrb	r3, [r7, #36]	@ zero_extendqisi2
 1850 0b76 0093     		str	r3, [sp]
 1851 0b78 3B6A     		ldr	r3, [r7, #32]
 1852 0b7a 0121     		movs	r1, #1
 1853 0b7c FFF7FEFF 		bl	openoscoap_protect_message
 1854 0b80 0346     		mov	r3, r0
 1855 0b82 FB73     		strb	r3, [r7, #15]
 719:build/openmote-cc2538_armgcc/openapps/opencoap/opencoap.c ****               descSender->securityContext,
 720:build/openmote-cc2538_armgcc/openapps/opencoap/opencoap.c ****               COAP_VERSION,
 721:build/openmote-cc2538_armgcc/openapps/opencoap/opencoap.c ****               code,
 722:build/openmote-cc2538_armgcc/openapps/opencoap/opencoap.c ****               options,
 723:build/openmote-cc2538_armgcc/openapps/opencoap/opencoap.c ****               optionsLen,
 724:build/openmote-cc2538_armgcc/openapps/opencoap/opencoap.c ****               msg,
 725:build/openmote-cc2538_armgcc/openapps/opencoap/opencoap.c ****               request->oscoapSeqNum);
 726:build/openmote-cc2538_armgcc/openapps/opencoap/opencoap.c **** 
 727:build/openmote-cc2538_armgcc/openapps/opencoap/opencoap.c ****       if (ret != E_SUCCESS) {
 1856              		.loc 1 727 0
 1857 0b84 FB7B     		ldrb	r3, [r7, #15]	@ zero_extendqisi2
 1858 0b86 002B     		cmp	r3, #0
 1859 0b88 01D0     		beq	.L109
 728:build/openmote-cc2538_armgcc/openapps/opencoap/opencoap.c ****          return E_FAIL;
 1860              		.loc 1 728 0
 1861 0b8a 0123     		movs	r3, #1
 1862 0b8c 1DE0     		b	.L111
 1863              	.L109:
 729:build/openmote-cc2538_armgcc/openapps/opencoap/opencoap.c ****       }
 730:build/openmote-cc2538_armgcc/openapps/opencoap/opencoap.c ****       class = COAP_OPTION_CLASS_U;
 1864              		.loc 1 730 0
 1865 0b8e 0223     		movs	r3, #2
 1866 0b90 BB75     		strb	r3, [r7, #22]
 1867              	.L108:
 731:build/openmote-cc2538_armgcc/openapps/opencoap/opencoap.c ****    }
 732:build/openmote-cc2538_armgcc/openapps/opencoap/opencoap.c ****       
 733:build/openmote-cc2538_armgcc/openapps/opencoap/opencoap.c ****    // once header is reserved, encode the options to the openqueue payload buffer
 734:build/openmote-cc2538_armgcc/openapps/opencoap/opencoap.c ****    opencoap_options_encode(msg, 
 1868              		.loc 1 734 0
 1869 0b92 BB7D     		ldrb	r3, [r7, #22]	@ zero_extendqisi2
 1870 0b94 97F82420 		ldrb	r2, [r7, #36]	@ zero_extendqisi2
 1871 0b98 396A     		ldr	r1, [r7, #32]
 1872 0b9a 7868     		ldr	r0, [r7, #4]
 1873 0b9c FFF7FEFF 		bl	opencoap_options_encode
 735:build/openmote-cc2538_armgcc/openapps/opencoap/opencoap.c ****            options, 
 736:build/openmote-cc2538_armgcc/openapps/opencoap/opencoap.c ****            optionsLen, 
 737:build/openmote-cc2538_armgcc/openapps/opencoap/opencoap.c ****            class);
 738:build/openmote-cc2538_armgcc/openapps/opencoap/opencoap.c **** 
 739:build/openmote-cc2538_armgcc/openapps/opencoap/opencoap.c ****    // pre-pend CoAP header (version,type,TKL,code,messageID,Token)
 740:build/openmote-cc2538_armgcc/openapps/opencoap/opencoap.c ****    opencoap_header_encode(msg, COAP_VERSION, type, request->TKL, code, request->messageID, request-
 1874              		.loc 1 740 0
 1875 0ba0 3B69     		ldr	r3, [r7, #16]
 1876 0ba2 9878     		ldrb	r0, [r3, #2]	@ zero_extendqisi2
 1877 0ba4 3B69     		ldr	r3, [r7, #16]
 1878 0ba6 9B88     		ldrh	r3, [r3, #4]
 1879 0ba8 3A69     		ldr	r2, [r7, #16]
 1880 0baa 0632     		adds	r2, r2, #6
 1881 0bac F978     		ldrb	r1, [r7, #3]	@ zero_extendqisi2
 1882 0bae 0292     		str	r2, [sp, #8]
 1883 0bb0 0193     		str	r3, [sp, #4]
 1884 0bb2 BB78     		ldrb	r3, [r7, #2]	@ zero_extendqisi2
 1885 0bb4 0093     		str	r3, [sp]
 1886 0bb6 0346     		mov	r3, r0
 1887 0bb8 0A46     		mov	r2, r1
 1888 0bba 0121     		movs	r1, #1
 1889 0bbc 7868     		ldr	r0, [r7, #4]
 1890 0bbe FFF7FEFF 		bl	opencoap_header_encode
 741:build/openmote-cc2538_armgcc/openapps/opencoap/opencoap.c **** 
 742:build/openmote-cc2538_armgcc/openapps/opencoap/opencoap.c ****    return openudp_send(msg);
 1891              		.loc 1 742 0
 1892 0bc2 7868     		ldr	r0, [r7, #4]
 1893 0bc4 FFF7FEFF 		bl	openudp_send
 1894 0bc8 0346     		mov	r3, r0
 1895              	.L111:
 743:build/openmote-cc2538_armgcc/openapps/opencoap/opencoap.c **** }
 1896              		.loc 1 743 0 discriminator 1
 1897 0bca 1846     		mov	r0, r3
 1898 0bcc 1837     		adds	r7, r7, #24
 1899              		.cfi_def_cfa_offset 8
 1900 0bce BD46     		mov	sp, r7
 1901              		.cfi_def_cfa_register 13
 1902              		@ sp needed
 1903 0bd0 80BD     		pop	{r7, pc}
 1904              	.L113:
 1905 0bd2 00BF     		.align	2
 1906              	.L112:
 1907 0bd4 00000000 		.word	opencoap_vars
 1908              		.cfi_endproc
 1909              	.LFE5:
 1911              		.align	2
 1912              		.global	opencoap_get_option_class
 1913              		.thumb
 1914              		.thumb_func
 1916              	opencoap_get_option_class:
 1917              	.LFB6:
 744:build/openmote-cc2538_armgcc/openapps/opencoap/opencoap.c **** 
 745:build/openmote-cc2538_armgcc/openapps/opencoap/opencoap.c **** /**
 746:build/openmote-cc2538_armgcc/openapps/opencoap/opencoap.c **** \brief Lookup the OSCOAP class for a given option.
 747:build/openmote-cc2538_armgcc/openapps/opencoap/opencoap.c **** 
 748:build/openmote-cc2538_armgcc/openapps/opencoap/opencoap.c **** This function is called to resolve the OSCOAP class of the passed option.
 749:build/openmote-cc2538_armgcc/openapps/opencoap/opencoap.c **** CLASS_E options get encrypted, CLASS_I options are integrity protected,
 750:build/openmote-cc2538_armgcc/openapps/opencoap/opencoap.c **** and CLASS_U options are unprotected by OSCOAP, if security is activated.
 751:build/openmote-cc2538_armgcc/openapps/opencoap/opencoap.c **** 
 752:build/openmote-cc2538_armgcc/openapps/opencoap/opencoap.c **** \param[in] type The CoAP option type that needs to be resolved.
 753:build/openmote-cc2538_armgcc/openapps/opencoap/opencoap.c **** */
 754:build/openmote-cc2538_armgcc/openapps/opencoap/opencoap.c **** coap_option_class_t opencoap_get_option_class(coap_option_t type) {
 1918              		.loc 1 754 0
 1919              		.cfi_startproc
 1920              		@ args = 0, pretend = 0, frame = 8
 1921              		@ frame_needed = 1, uses_anonymous_args = 0
 1922              		@ link register save eliminated.
 1923 0bd8 80B4     		push	{r7}
 1924              		.cfi_def_cfa_offset 4
 1925              		.cfi_offset 7, -4
 1926 0bda 83B0     		sub	sp, sp, #12
 1927              		.cfi_def_cfa_offset 16
 1928 0bdc 00AF     		add	r7, sp, #0
 1929              		.cfi_def_cfa_register 7
 1930 0bde 0346     		mov	r3, r0
 1931 0be0 FB71     		strb	r3, [r7, #7]
 755:build/openmote-cc2538_armgcc/openapps/opencoap/opencoap.c ****     switch(type) {
 1932              		.loc 1 755 0
 1933 0be2 FB79     		ldrb	r3, [r7, #7]	@ zero_extendqisi2
 1934 0be4 013B     		subs	r3, r3, #1
 1935 0be6 262B     		cmp	r3, #38
 1936 0be8 54D8     		bhi	.L115
 1937 0bea 01A2     		adr	r2, .L117
 1938 0bec 52F823F0 		ldr	pc, [r2, r3, lsl #2]
 1939              		.p2align 2
 1940              	.L117:
 1941 0bf0 8D0C0000 		.word	.L116+1
 1942 0bf4 950C0000 		.word	.L115+1
 1943 0bf8 910C0000 		.word	.L118+1
 1944 0bfc 8D0C0000 		.word	.L116+1
 1945 0c00 8D0C0000 		.word	.L116+1
 1946 0c04 950C0000 		.word	.L115+1
 1947 0c08 910C0000 		.word	.L118+1
 1948 0c0c 8D0C0000 		.word	.L116+1
 1949 0c10 950C0000 		.word	.L115+1
 1950 0c14 950C0000 		.word	.L115+1
 1951 0c18 8D0C0000 		.word	.L116+1
 1952 0c1c 8D0C0000 		.word	.L116+1
 1953 0c20 950C0000 		.word	.L115+1
 1954 0c24 8D0C0000 		.word	.L116+1
 1955 0c28 8D0C0000 		.word	.L116+1
 1956 0c2c 8D0C0000 		.word	.L116+1
 1957 0c30 950C0000 		.word	.L115+1
 1958 0c34 950C0000 		.word	.L115+1
 1959 0c38 950C0000 		.word	.L115+1
 1960 0c3c 8D0C0000 		.word	.L116+1
 1961 0c40 910C0000 		.word	.L118+1
 1962 0c44 950C0000 		.word	.L115+1
 1963 0c48 950C0000 		.word	.L115+1
 1964 0c4c 950C0000 		.word	.L115+1
 1965 0c50 950C0000 		.word	.L115+1
 1966 0c54 950C0000 		.word	.L115+1
 1967 0c58 950C0000 		.word	.L115+1
 1968 0c5c 950C0000 		.word	.L115+1
 1969 0c60 950C0000 		.word	.L115+1
 1970 0c64 950C0000 		.word	.L115+1
 1971 0c68 950C0000 		.word	.L115+1
 1972 0c6c 950C0000 		.word	.L115+1
 1973 0c70 950C0000 		.word	.L115+1
 1974 0c74 950C0000 		.word	.L115+1
 1975 0c78 910C0000 		.word	.L118+1
 1976 0c7c 950C0000 		.word	.L115+1
 1977 0c80 950C0000 		.word	.L115+1
 1978 0c84 950C0000 		.word	.L115+1
 1979 0c88 910C0000 		.word	.L118+1
 1980              		.p2align 1
 1981              	.L116:
 756:build/openmote-cc2538_armgcc/openapps/opencoap/opencoap.c ****         // class E options
 757:build/openmote-cc2538_armgcc/openapps/opencoap/opencoap.c ****         case COAP_OPTION_NUM_IFMATCH:
 758:build/openmote-cc2538_armgcc/openapps/opencoap/opencoap.c ****         case COAP_OPTION_NUM_ETAG:
 759:build/openmote-cc2538_armgcc/openapps/opencoap/opencoap.c ****         case COAP_OPTION_NUM_IFNONEMATCH:
 760:build/openmote-cc2538_armgcc/openapps/opencoap/opencoap.c ****         case COAP_OPTION_NUM_LOCATIONPATH:
 761:build/openmote-cc2538_armgcc/openapps/opencoap/opencoap.c ****         case COAP_OPTION_NUM_URIPATH:
 762:build/openmote-cc2538_armgcc/openapps/opencoap/opencoap.c ****         case COAP_OPTION_NUM_CONTENTFORMAT:
 763:build/openmote-cc2538_armgcc/openapps/opencoap/opencoap.c ****         case COAP_OPTION_NUM_MAXAGE:
 764:build/openmote-cc2538_armgcc/openapps/opencoap/opencoap.c ****         case COAP_OPTION_NUM_URIQUERY:
 765:build/openmote-cc2538_armgcc/openapps/opencoap/opencoap.c ****         case COAP_OPTION_NUM_ACCEPT:
 766:build/openmote-cc2538_armgcc/openapps/opencoap/opencoap.c ****         case COAP_OPTION_NUM_LOCATIONQUERY:
 767:build/openmote-cc2538_armgcc/openapps/opencoap/opencoap.c ****             return COAP_OPTION_CLASS_E;
 1982              		.loc 1 767 0
 1983 0c8c 0023     		movs	r3, #0
 1984 0c8e 02E0     		b	.L119
 1985              	.L118:
 768:build/openmote-cc2538_armgcc/openapps/opencoap/opencoap.c ****         // class I options none supported
 769:build/openmote-cc2538_armgcc/openapps/opencoap/opencoap.c ****         
 770:build/openmote-cc2538_armgcc/openapps/opencoap/opencoap.c ****         //class U options
 771:build/openmote-cc2538_armgcc/openapps/opencoap/opencoap.c ****         case COAP_OPTION_NUM_URIHOST:
 772:build/openmote-cc2538_armgcc/openapps/opencoap/opencoap.c ****         case COAP_OPTION_NUM_URIPORT:
 773:build/openmote-cc2538_armgcc/openapps/opencoap/opencoap.c ****         case COAP_OPTION_NUM_PROXYURI:
 774:build/openmote-cc2538_armgcc/openapps/opencoap/opencoap.c ****         case COAP_OPTION_NUM_PROXYSCHEME:
 775:build/openmote-cc2538_armgcc/openapps/opencoap/opencoap.c ****         case COAP_OPTION_NUM_OBJECTSECURITY:
 776:build/openmote-cc2538_armgcc/openapps/opencoap/opencoap.c ****             return COAP_OPTION_CLASS_U;
 1986              		.loc 1 776 0
 1987 0c90 0223     		movs	r3, #2
 1988 0c92 00E0     		b	.L119
 1989              	.L115:
 777:build/openmote-cc2538_armgcc/openapps/opencoap/opencoap.c ****         default:
 778:build/openmote-cc2538_armgcc/openapps/opencoap/opencoap.c ****             return COAP_OPTION_CLASS_U;    
 1990              		.loc 1 778 0
 1991 0c94 0223     		movs	r3, #2
 1992              	.L119:
 779:build/openmote-cc2538_armgcc/openapps/opencoap/opencoap.c ****     }
 780:build/openmote-cc2538_armgcc/openapps/opencoap/opencoap.c **** }
 1993              		.loc 1 780 0
 1994 0c96 1846     		mov	r0, r3
 1995 0c98 0C37     		adds	r7, r7, #12
 1996              		.cfi_def_cfa_offset 4
 1997 0c9a BD46     		mov	sp, r7
 1998              		.cfi_def_cfa_register 13
 1999              		@ sp needed
 2000 0c9c 80BC     		pop	{r7}
 2001              		.cfi_restore 7
 2002              		.cfi_def_cfa_offset 0
 2003 0c9e 7047     		bx	lr
 2004              		.cfi_endproc
 2005              	.LFE6:
 2007              		.align	2
 2008              		.global	opencoap_options_encode
 2009              		.thumb
 2010              		.thumb_func
 2012              	opencoap_options_encode:
 2013              	.LFB7:
 781:build/openmote-cc2538_armgcc/openapps/opencoap/opencoap.c **** 
 782:build/openmote-cc2538_armgcc/openapps/opencoap/opencoap.c **** owerror_t opencoap_options_encode(
 783:build/openmote-cc2538_armgcc/openapps/opencoap/opencoap.c ****         OpenQueueEntry_t*       msg,
 784:build/openmote-cc2538_armgcc/openapps/opencoap/opencoap.c ****         coap_option_iht*        options,
 785:build/openmote-cc2538_armgcc/openapps/opencoap/opencoap.c ****         uint8_t                 optionsLen,
 786:build/openmote-cc2538_armgcc/openapps/opencoap/opencoap.c ****         coap_option_class_t     class
 787:build/openmote-cc2538_armgcc/openapps/opencoap/opencoap.c ****         ) {
 2014              		.loc 1 787 0
 2015              		.cfi_startproc
 2016              		@ args = 0, pretend = 0, frame = 40
 2017              		@ frame_needed = 1, uses_anonymous_args = 0
 2018 0ca0 80B5     		push	{r7, lr}
 2019              		.cfi_def_cfa_offset 8
 2020              		.cfi_offset 7, -8
 2021              		.cfi_offset 14, -4
 2022 0ca2 8AB0     		sub	sp, sp, #40
 2023              		.cfi_def_cfa_offset 48
 2024 0ca4 00AF     		add	r7, sp, #0
 2025              		.cfi_def_cfa_register 7
 2026 0ca6 F860     		str	r0, [r7, #12]
 2027 0ca8 B960     		str	r1, [r7, #8]
 2028 0caa 1146     		mov	r1, r2
 2029 0cac 1A46     		mov	r2, r3
 2030 0cae 0B46     		mov	r3, r1
 2031 0cb0 FB71     		strb	r3, [r7, #7]
 2032 0cb2 1346     		mov	r3, r2
 2033 0cb4 BB71     		strb	r3, [r7, #6]
 788:build/openmote-cc2538_armgcc/openapps/opencoap/opencoap.c **** 
 789:build/openmote-cc2538_armgcc/openapps/opencoap/opencoap.c ****     uint8_t i;
 790:build/openmote-cc2538_armgcc/openapps/opencoap/opencoap.c ****     uint8_t ii;
 791:build/openmote-cc2538_armgcc/openapps/opencoap/opencoap.c ****     uint32_t delta;
 792:build/openmote-cc2538_armgcc/openapps/opencoap/opencoap.c ****     uint8_t optionDelta;
 793:build/openmote-cc2538_armgcc/openapps/opencoap/opencoap.c ****     uint8_t optionDeltaExt[2];
 794:build/openmote-cc2538_armgcc/openapps/opencoap/opencoap.c ****     uint8_t optionDeltaExtLen;
 795:build/openmote-cc2538_armgcc/openapps/opencoap/opencoap.c ****     uint8_t optionLength;
 796:build/openmote-cc2538_armgcc/openapps/opencoap/opencoap.c ****     uint8_t optionLengthExt[2];
 797:build/openmote-cc2538_armgcc/openapps/opencoap/opencoap.c ****     uint8_t optionLengthExtLen;
 798:build/openmote-cc2538_armgcc/openapps/opencoap/opencoap.c ****     coap_option_t previousOptionNum;
 799:build/openmote-cc2538_armgcc/openapps/opencoap/opencoap.c **** 
 800:build/openmote-cc2538_armgcc/openapps/opencoap/opencoap.c ****     // encode options in reversed order
 801:build/openmote-cc2538_armgcc/openapps/opencoap/opencoap.c ****     if (options != NULL && optionsLen != 0) {
 2034              		.loc 1 801 0
 2035 0cb6 BB68     		ldr	r3, [r7, #8]
 2036 0cb8 002B     		cmp	r3, #0
 2037 0cba 00F00181 		beq	.L121
 2038              		.loc 1 801 0 is_stmt 0 discriminator 1
 2039 0cbe FB79     		ldrb	r3, [r7, #7]	@ zero_extendqisi2
 2040 0cc0 002B     		cmp	r3, #0
 2041 0cc2 00F0FD80 		beq	.L121
 802:build/openmote-cc2538_armgcc/openapps/opencoap/opencoap.c ****         for (i = optionsLen ; i-- > 0 ; ) {
 2042              		.loc 1 802 0 is_stmt 1
 2043 0cc6 FB79     		ldrb	r3, [r7, #7]
 2044 0cc8 87F82730 		strb	r3, [r7, #39]
 2045 0ccc F0E0     		b	.L122
 2046              	.L136:
 803:build/openmote-cc2538_armgcc/openapps/opencoap/opencoap.c ****             // skip option if inappropriate class
 804:build/openmote-cc2538_armgcc/openapps/opencoap/opencoap.c ****             if (class != opencoap_get_option_class(options[i].type) && 
 2047              		.loc 1 804 0
 2048 0cce 97F82730 		ldrb	r3, [r7, #39]	@ zero_extendqisi2
 2049 0cd2 DB00     		lsls	r3, r3, #3
 2050 0cd4 BA68     		ldr	r2, [r7, #8]
 2051 0cd6 1344     		add	r3, r3, r2
 2052 0cd8 1B78     		ldrb	r3, [r3]	@ zero_extendqisi2
 2053 0cda 1846     		mov	r0, r3
 2054 0cdc FFF7FEFF 		bl	opencoap_get_option_class
 2055 0ce0 0346     		mov	r3, r0
 2056 0ce2 1A46     		mov	r2, r3
 2057 0ce4 BB79     		ldrb	r3, [r7, #6]	@ zero_extendqisi2
 2058 0ce6 9342     		cmp	r3, r2
 2059 0ce8 03D0     		beq	.L123
 2060              		.loc 1 804 0 is_stmt 0 discriminator 1
 2061 0cea BB79     		ldrb	r3, [r7, #6]	@ zero_extendqisi2
 2062 0cec 032B     		cmp	r3, #3
 2063 0cee 00D0     		beq	.L123
 805:build/openmote-cc2538_armgcc/openapps/opencoap/opencoap.c ****                 class != COAP_OPTION_CLASS_ALL) {
 806:build/openmote-cc2538_armgcc/openapps/opencoap/opencoap.c ****                 continue;
 2064              		.loc 1 806 0 is_stmt 1
 2065 0cf0 DEE0     		b	.L122
 2066              	.L123:
 807:build/openmote-cc2538_armgcc/openapps/opencoap/opencoap.c ****             }
 808:build/openmote-cc2538_armgcc/openapps/opencoap/opencoap.c ****             
 809:build/openmote-cc2538_armgcc/openapps/opencoap/opencoap.c ****             // loop to find the previous option to which delta should be calculated
 810:build/openmote-cc2538_armgcc/openapps/opencoap/opencoap.c ****             previousOptionNum = COAP_OPTION_NONE;
 2067              		.loc 1 810 0
 2068 0cf2 0023     		movs	r3, #0
 2069 0cf4 87F82130 		strb	r3, [r7, #33]
 811:build/openmote-cc2538_armgcc/openapps/opencoap/opencoap.c ****             for (ii = i ; ii-- > 0 ; ) {
 2070              		.loc 1 811 0
 2071 0cf8 97F82730 		ldrb	r3, [r7, #39]
 2072 0cfc 87F82630 		strb	r3, [r7, #38]
 2073 0d00 1AE0     		b	.L124
 2074              	.L127:
 812:build/openmote-cc2538_armgcc/openapps/opencoap/opencoap.c ****                 if (class != opencoap_get_option_class(options[ii].type) && 
 2075              		.loc 1 812 0
 2076 0d02 97F82630 		ldrb	r3, [r7, #38]	@ zero_extendqisi2
 2077 0d06 DB00     		lsls	r3, r3, #3
 2078 0d08 BA68     		ldr	r2, [r7, #8]
 2079 0d0a 1344     		add	r3, r3, r2
 2080 0d0c 1B78     		ldrb	r3, [r3]	@ zero_extendqisi2
 2081 0d0e 1846     		mov	r0, r3
 2082 0d10 FFF7FEFF 		bl	opencoap_get_option_class
 2083 0d14 0346     		mov	r3, r0
 2084 0d16 1A46     		mov	r2, r3
 2085 0d18 BB79     		ldrb	r3, [r7, #6]	@ zero_extendqisi2
 2086 0d1a 9342     		cmp	r3, r2
 2087 0d1c 03D0     		beq	.L125
 2088              		.loc 1 812 0 is_stmt 0 discriminator 1
 2089 0d1e BB79     		ldrb	r3, [r7, #6]	@ zero_extendqisi2
 2090 0d20 032B     		cmp	r3, #3
 2091 0d22 00D0     		beq	.L125
 813:build/openmote-cc2538_armgcc/openapps/opencoap/opencoap.c ****                     class != COAP_OPTION_CLASS_ALL) {
 814:build/openmote-cc2538_armgcc/openapps/opencoap/opencoap.c ****                     continue;
 2092              		.loc 1 814 0 is_stmt 1
 2093 0d24 08E0     		b	.L124
 2094              	.L125:
 815:build/openmote-cc2538_armgcc/openapps/opencoap/opencoap.c ****                 }
 816:build/openmote-cc2538_armgcc/openapps/opencoap/opencoap.c ****                 else {
 817:build/openmote-cc2538_armgcc/openapps/opencoap/opencoap.c ****                     previousOptionNum = options[ii].type;
 2095              		.loc 1 817 0
 2096 0d26 97F82630 		ldrb	r3, [r7, #38]	@ zero_extendqisi2
 2097 0d2a DB00     		lsls	r3, r3, #3
 2098 0d2c BA68     		ldr	r2, [r7, #8]
 2099 0d2e 1344     		add	r3, r3, r2
 2100 0d30 1B78     		ldrb	r3, [r3]
 2101 0d32 87F82130 		strb	r3, [r7, #33]
 818:build/openmote-cc2538_armgcc/openapps/opencoap/opencoap.c ****                     break;
 2102              		.loc 1 818 0
 2103 0d36 06E0     		b	.L126
 2104              	.L124:
 811:build/openmote-cc2538_armgcc/openapps/opencoap/opencoap.c ****                 if (class != opencoap_get_option_class(options[ii].type) && 
 2105              		.loc 1 811 0 discriminator 1
 2106 0d38 97F82630 		ldrb	r3, [r7, #38]	@ zero_extendqisi2
 2107 0d3c 5A1E     		subs	r2, r3, #1
 2108 0d3e 87F82620 		strb	r2, [r7, #38]
 2109 0d42 002B     		cmp	r3, #0
 2110 0d44 DDD1     		bne	.L127
 2111              	.L126:
 819:build/openmote-cc2538_armgcc/openapps/opencoap/opencoap.c ****                 }
 820:build/openmote-cc2538_armgcc/openapps/opencoap/opencoap.c ****             }
 821:build/openmote-cc2538_armgcc/openapps/opencoap/opencoap.c **** 
 822:build/openmote-cc2538_armgcc/openapps/opencoap/opencoap.c ****             if (previousOptionNum > options[i].type) {
 2112              		.loc 1 822 0
 2113 0d46 97F82730 		ldrb	r3, [r7, #39]	@ zero_extendqisi2
 2114 0d4a DB00     		lsls	r3, r3, #3
 2115 0d4c BA68     		ldr	r2, [r7, #8]
 2116 0d4e 1344     		add	r3, r3, r2
 2117 0d50 1B78     		ldrb	r3, [r3]	@ zero_extendqisi2
 2118 0d52 97F82120 		ldrb	r2, [r7, #33]	@ zero_extendqisi2
 2119 0d56 9A42     		cmp	r2, r3
 2120 0d58 01D9     		bls	.L128
 823:build/openmote-cc2538_armgcc/openapps/opencoap/opencoap.c ****                 return E_FAIL; // we require the options to be sorted
 2121              		.loc 1 823 0
 2122 0d5a 0123     		movs	r3, #1
 2123 0d5c B1E0     		b	.L137
 2124              	.L128:
 824:build/openmote-cc2538_armgcc/openapps/opencoap/opencoap.c ****             }
 825:build/openmote-cc2538_armgcc/openapps/opencoap/opencoap.c ****             delta = options[i].type - previousOptionNum;
 2125              		.loc 1 825 0
 2126 0d5e 97F82730 		ldrb	r3, [r7, #39]	@ zero_extendqisi2
 2127 0d62 DB00     		lsls	r3, r3, #3
 2128 0d64 BA68     		ldr	r2, [r7, #8]
 2129 0d66 1344     		add	r3, r3, r2
 2130 0d68 1B78     		ldrb	r3, [r3]	@ zero_extendqisi2
 2131 0d6a 1A46     		mov	r2, r3
 2132 0d6c 97F82130 		ldrb	r3, [r7, #33]	@ zero_extendqisi2
 2133 0d70 D31A     		subs	r3, r2, r3
 2134 0d72 FB61     		str	r3, [r7, #28]
 826:build/openmote-cc2538_armgcc/openapps/opencoap/opencoap.c **** 
 827:build/openmote-cc2538_armgcc/openapps/opencoap/opencoap.c ****             if (delta <= 12) {
 2135              		.loc 1 827 0
 2136 0d74 FB69     		ldr	r3, [r7, #28]
 2137 0d76 0C2B     		cmp	r3, #12
 2138 0d78 06D8     		bhi	.L130
 828:build/openmote-cc2538_armgcc/openapps/opencoap/opencoap.c ****                 optionDelta = (uint8_t) delta;
 2139              		.loc 1 828 0
 2140 0d7a FB69     		ldr	r3, [r7, #28]
 2141 0d7c 87F82530 		strb	r3, [r7, #37]
 829:build/openmote-cc2538_armgcc/openapps/opencoap/opencoap.c ****                 optionDeltaExtLen = 0; 
 2142              		.loc 1 829 0
 2143 0d80 0023     		movs	r3, #0
 2144 0d82 87F82430 		strb	r3, [r7, #36]
 2145 0d86 27E0     		b	.L131
 2146              	.L130:
 830:build/openmote-cc2538_armgcc/openapps/opencoap/opencoap.c ****             }
 831:build/openmote-cc2538_armgcc/openapps/opencoap/opencoap.c ****             else if (delta <= 0xff + 13) {
 2147              		.loc 1 831 0
 2148 0d88 FB69     		ldr	r3, [r7, #28]
 2149 0d8a B3F5867F 		cmp	r3, #268
 2150 0d8e 0BD8     		bhi	.L132
 832:build/openmote-cc2538_armgcc/openapps/opencoap/opencoap.c ****                 optionDelta = 13;
 2151              		.loc 1 832 0
 2152 0d90 0D23     		movs	r3, #13
 2153 0d92 87F82530 		strb	r3, [r7, #37]
 833:build/openmote-cc2538_armgcc/openapps/opencoap/opencoap.c ****                 optionDeltaExt[0] = (uint8_t) delta - 13;
 2154              		.loc 1 833 0
 2155 0d96 FB69     		ldr	r3, [r7, #28]
 2156 0d98 DBB2     		uxtb	r3, r3
 2157 0d9a 0D3B     		subs	r3, r3, #13
 2158 0d9c DBB2     		uxtb	r3, r3
 2159 0d9e 3B76     		strb	r3, [r7, #24]
 834:build/openmote-cc2538_armgcc/openapps/opencoap/opencoap.c ****                 optionDeltaExtLen = 1;
 2160              		.loc 1 834 0
 2161 0da0 0123     		movs	r3, #1
 2162 0da2 87F82430 		strb	r3, [r7, #36]
 2163 0da6 17E0     		b	.L131
 2164              	.L132:
 835:build/openmote-cc2538_armgcc/openapps/opencoap/opencoap.c ****             }
 836:build/openmote-cc2538_armgcc/openapps/opencoap/opencoap.c ****             else if (delta <= 0xffff + 269) {
 2165              		.loc 1 836 0
 2166 0da8 FB69     		ldr	r3, [r7, #28]
 2167 0daa 484A     		ldr	r2, .L138
 2168 0dac 9342     		cmp	r3, r2
 2169 0dae 11D8     		bhi	.L133
 837:build/openmote-cc2538_armgcc/openapps/opencoap/opencoap.c ****                 optionDelta = 14;
 2170              		.loc 1 837 0
 2171 0db0 0E23     		movs	r3, #14
 2172 0db2 87F82530 		strb	r3, [r7, #37]
 838:build/openmote-cc2538_armgcc/openapps/opencoap/opencoap.c ****                 packetfunctions_htons((uint16_t) delta - 269, optionDeltaExt); 
 2173              		.loc 1 838 0
 2174 0db6 FB69     		ldr	r3, [r7, #28]
 2175 0db8 9BB2     		uxth	r3, r3
 2176 0dba A3F20D13 		subw	r3, r3, #269
 2177 0dbe 9BB2     		uxth	r3, r3
 2178 0dc0 07F11802 		add	r2, r7, #24
 2179 0dc4 1146     		mov	r1, r2
 2180 0dc6 1846     		mov	r0, r3
 2181 0dc8 FFF7FEFF 		bl	packetfunctions_htons
 839:build/openmote-cc2538_armgcc/openapps/opencoap/opencoap.c ****                 optionDeltaExtLen = 2;
 2182              		.loc 1 839 0
 2183 0dcc 0223     		movs	r3, #2
 2184 0dce 87F82430 		strb	r3, [r7, #36]
 2185 0dd2 01E0     		b	.L131
 2186              	.L133:
 840:build/openmote-cc2538_armgcc/openapps/opencoap/opencoap.c ****             }
 841:build/openmote-cc2538_armgcc/openapps/opencoap/opencoap.c ****             else {
 842:build/openmote-cc2538_armgcc/openapps/opencoap/opencoap.c ****                 return E_FAIL;
 2187              		.loc 1 842 0
 2188 0dd4 0123     		movs	r3, #1
 2189 0dd6 74E0     		b	.L137
 2190              	.L131:
 843:build/openmote-cc2538_armgcc/openapps/opencoap/opencoap.c ****             }
 844:build/openmote-cc2538_armgcc/openapps/opencoap/opencoap.c **** 
 845:build/openmote-cc2538_armgcc/openapps/opencoap/opencoap.c ****             if (options[i].length <= 12) {
 2191              		.loc 1 845 0
 2192 0dd8 97F82730 		ldrb	r3, [r7, #39]	@ zero_extendqisi2
 2193 0ddc DB00     		lsls	r3, r3, #3
 2194 0dde BA68     		ldr	r2, [r7, #8]
 2195 0de0 1344     		add	r3, r3, r2
 2196 0de2 5B78     		ldrb	r3, [r3, #1]	@ zero_extendqisi2
 2197 0de4 0C2B     		cmp	r3, #12
 2198 0de6 0BD8     		bhi	.L134
 846:build/openmote-cc2538_armgcc/openapps/opencoap/opencoap.c ****                 optionLength = options[i].length;
 2199              		.loc 1 846 0
 2200 0de8 97F82730 		ldrb	r3, [r7, #39]	@ zero_extendqisi2
 2201 0dec DB00     		lsls	r3, r3, #3
 2202 0dee BA68     		ldr	r2, [r7, #8]
 2203 0df0 1344     		add	r3, r3, r2
 2204 0df2 5B78     		ldrb	r3, [r3, #1]
 2205 0df4 87F82330 		strb	r3, [r7, #35]
 847:build/openmote-cc2538_armgcc/openapps/opencoap/opencoap.c ****                 optionLengthExtLen = 0;
 2206              		.loc 1 847 0
 2207 0df8 0023     		movs	r3, #0
 2208 0dfa 87F82230 		strb	r3, [r7, #34]
 2209 0dfe 0EE0     		b	.L135
 2210              	.L134:
 848:build/openmote-cc2538_armgcc/openapps/opencoap/opencoap.c ****             }
 849:build/openmote-cc2538_armgcc/openapps/opencoap/opencoap.c ****             else { 
 850:build/openmote-cc2538_armgcc/openapps/opencoap/opencoap.c ****                 // we do not support fragmentation so option length cannot be larger
 851:build/openmote-cc2538_armgcc/openapps/opencoap/opencoap.c ****                 // than 0xff. therefore, we default to the case where optionLength = 13.
 852:build/openmote-cc2538_armgcc/openapps/opencoap/opencoap.c ****                 // see RFC7252 Section 3.1 for more details.
 853:build/openmote-cc2538_armgcc/openapps/opencoap/opencoap.c ****                 optionLength = 13;
 2211              		.loc 1 853 0
 2212 0e00 0D23     		movs	r3, #13
 2213 0e02 87F82330 		strb	r3, [r7, #35]
 854:build/openmote-cc2538_armgcc/openapps/opencoap/opencoap.c ****                 optionLengthExt[0] = options[i].length - 13;
 2214              		.loc 1 854 0
 2215 0e06 97F82730 		ldrb	r3, [r7, #39]	@ zero_extendqisi2
 2216 0e0a DB00     		lsls	r3, r3, #3
 2217 0e0c BA68     		ldr	r2, [r7, #8]
 2218 0e0e 1344     		add	r3, r3, r2
 2219 0e10 5B78     		ldrb	r3, [r3, #1]	@ zero_extendqisi2
 2220 0e12 0D3B     		subs	r3, r3, #13
 2221 0e14 DBB2     		uxtb	r3, r3
 2222 0e16 3B75     		strb	r3, [r7, #20]
 855:build/openmote-cc2538_armgcc/openapps/opencoap/opencoap.c ****                 optionLengthExtLen = 1;
 2223              		.loc 1 855 0
 2224 0e18 0123     		movs	r3, #1
 2225 0e1a 87F82230 		strb	r3, [r7, #34]
 2226              	.L135:
 856:build/openmote-cc2538_armgcc/openapps/opencoap/opencoap.c ****             }
 857:build/openmote-cc2538_armgcc/openapps/opencoap/opencoap.c ****             
 858:build/openmote-cc2538_armgcc/openapps/opencoap/opencoap.c ****             // write to packet in reversed order
 859:build/openmote-cc2538_armgcc/openapps/opencoap/opencoap.c ****             packetfunctions_reserveHeaderSize(msg, options[i].length);
 2227              		.loc 1 859 0
 2228 0e1e 97F82730 		ldrb	r3, [r7, #39]	@ zero_extendqisi2
 2229 0e22 DB00     		lsls	r3, r3, #3
 2230 0e24 BA68     		ldr	r2, [r7, #8]
 2231 0e26 1344     		add	r3, r3, r2
 2232 0e28 5B78     		ldrb	r3, [r3, #1]	@ zero_extendqisi2
 2233 0e2a 1946     		mov	r1, r3
 2234 0e2c F868     		ldr	r0, [r7, #12]
 2235 0e2e FFF7FEFF 		bl	packetfunctions_reserveHeaderSize
 860:build/openmote-cc2538_armgcc/openapps/opencoap/opencoap.c ****             memcpy(&msg->payload[0], options[i].pValue, options[i].length);
 2236              		.loc 1 860 0
 2237 0e32 FB68     		ldr	r3, [r7, #12]
 2238 0e34 5868     		ldr	r0, [r3, #4]
 2239 0e36 97F82730 		ldrb	r3, [r7, #39]	@ zero_extendqisi2
 2240 0e3a DB00     		lsls	r3, r3, #3
 2241 0e3c BA68     		ldr	r2, [r7, #8]
 2242 0e3e 1344     		add	r3, r3, r2
 2243 0e40 5968     		ldr	r1, [r3, #4]
 2244 0e42 97F82730 		ldrb	r3, [r7, #39]	@ zero_extendqisi2
 2245 0e46 DB00     		lsls	r3, r3, #3
 2246 0e48 BA68     		ldr	r2, [r7, #8]
 2247 0e4a 1344     		add	r3, r3, r2
 2248 0e4c 5B78     		ldrb	r3, [r3, #1]	@ zero_extendqisi2
 2249 0e4e 1A46     		mov	r2, r3
 2250 0e50 FFF7FEFF 		bl	memcpy
 861:build/openmote-cc2538_armgcc/openapps/opencoap/opencoap.c ****             
 862:build/openmote-cc2538_armgcc/openapps/opencoap/opencoap.c ****             packetfunctions_reserveHeaderSize(msg, optionLengthExtLen);
 2251              		.loc 1 862 0
 2252 0e54 97F82230 		ldrb	r3, [r7, #34]	@ zero_extendqisi2
 2253 0e58 1946     		mov	r1, r3
 2254 0e5a F868     		ldr	r0, [r7, #12]
 2255 0e5c FFF7FEFF 		bl	packetfunctions_reserveHeaderSize
 863:build/openmote-cc2538_armgcc/openapps/opencoap/opencoap.c ****             memcpy(&msg->payload[0], optionLengthExt, optionLengthExtLen);
 2256              		.loc 1 863 0
 2257 0e60 FB68     		ldr	r3, [r7, #12]
 2258 0e62 5B68     		ldr	r3, [r3, #4]
 2259 0e64 97F82220 		ldrb	r2, [r7, #34]	@ zero_extendqisi2
 2260 0e68 07F11401 		add	r1, r7, #20
 2261 0e6c 1846     		mov	r0, r3
 2262 0e6e FFF7FEFF 		bl	memcpy
 864:build/openmote-cc2538_armgcc/openapps/opencoap/opencoap.c **** 
 865:build/openmote-cc2538_armgcc/openapps/opencoap/opencoap.c ****             packetfunctions_reserveHeaderSize(msg, optionDeltaExtLen);
 2263              		.loc 1 865 0
 2264 0e72 97F82430 		ldrb	r3, [r7, #36]	@ zero_extendqisi2
 2265 0e76 1946     		mov	r1, r3
 2266 0e78 F868     		ldr	r0, [r7, #12]
 2267 0e7a FFF7FEFF 		bl	packetfunctions_reserveHeaderSize
 866:build/openmote-cc2538_armgcc/openapps/opencoap/opencoap.c ****             memcpy(&msg->payload[0], optionDeltaExt, optionDeltaExtLen);
 2268              		.loc 1 866 0
 2269 0e7e FB68     		ldr	r3, [r7, #12]
 2270 0e80 5B68     		ldr	r3, [r3, #4]
 2271 0e82 97F82420 		ldrb	r2, [r7, #36]	@ zero_extendqisi2
 2272 0e86 07F11801 		add	r1, r7, #24
 2273 0e8a 1846     		mov	r0, r3
 2274 0e8c FFF7FEFF 		bl	memcpy
 867:build/openmote-cc2538_armgcc/openapps/opencoap/opencoap.c **** 
 868:build/openmote-cc2538_armgcc/openapps/opencoap/opencoap.c ****             packetfunctions_reserveHeaderSize(msg, 1);
 2275              		.loc 1 868 0
 2276 0e90 0121     		movs	r1, #1
 2277 0e92 F868     		ldr	r0, [r7, #12]
 2278 0e94 FFF7FEFF 		bl	packetfunctions_reserveHeaderSize
 869:build/openmote-cc2538_armgcc/openapps/opencoap/opencoap.c ****             msg->payload[0] = (optionDelta << 4) | optionLength;
 2279              		.loc 1 869 0
 2280 0e98 FB68     		ldr	r3, [r7, #12]
 2281 0e9a 5B68     		ldr	r3, [r3, #4]
 2282 0e9c 97F82520 		ldrb	r2, [r7, #37]	@ zero_extendqisi2
 2283 0ea0 1201     		lsls	r2, r2, #4
 2284 0ea2 51B2     		sxtb	r1, r2
 2285 0ea4 97F92320 		ldrsb	r2, [r7, #35]
 2286 0ea8 0A43     		orrs	r2, r2, r1
 2287 0eaa 52B2     		sxtb	r2, r2
 2288 0eac D2B2     		uxtb	r2, r2
 2289 0eae 1A70     		strb	r2, [r3]
 2290              	.L122:
 802:build/openmote-cc2538_armgcc/openapps/opencoap/opencoap.c ****             // skip option if inappropriate class
 2291              		.loc 1 802 0 discriminator 1
 2292 0eb0 97F82730 		ldrb	r3, [r7, #39]	@ zero_extendqisi2
 2293 0eb4 5A1E     		subs	r2, r3, #1
 2294 0eb6 87F82720 		strb	r2, [r7, #39]
 2295 0eba 002B     		cmp	r3, #0
 2296 0ebc 7FF407AF 		bne	.L136
 2297              	.L121:
 870:build/openmote-cc2538_armgcc/openapps/opencoap/opencoap.c ****         }
 871:build/openmote-cc2538_armgcc/openapps/opencoap/opencoap.c ****     }
 872:build/openmote-cc2538_armgcc/openapps/opencoap/opencoap.c ****     return E_SUCCESS;
 2298              		.loc 1 872 0
 2299 0ec0 0023     		movs	r3, #0
 2300              	.L137:
 873:build/openmote-cc2538_armgcc/openapps/opencoap/opencoap.c **** }
 2301              		.loc 1 873 0 discriminator 1
 2302 0ec2 1846     		mov	r0, r3
 2303 0ec4 2837     		adds	r7, r7, #40
 2304              		.cfi_def_cfa_offset 8
 2305 0ec6 BD46     		mov	sp, r7
 2306              		.cfi_def_cfa_register 13
 2307              		@ sp needed
 2308 0ec8 80BD     		pop	{r7, pc}
 2309              	.L139:
 2310 0eca 00BF     		.align	2
 2311              	.L138:
 2312 0ecc 0C010100 		.word	65804
 2313              		.cfi_endproc
 2314              	.LFE7:
 2316              		.align	2
 2317              		.global	opencoap_find_option
 2318              		.thumb
 2319              		.thumb_func
 2321              	opencoap_find_option:
 2322              	.LFB8:
 874:build/openmote-cc2538_armgcc/openapps/opencoap/opencoap.c **** 
 875:build/openmote-cc2538_armgcc/openapps/opencoap/opencoap.c **** 
 876:build/openmote-cc2538_armgcc/openapps/opencoap/opencoap.c **** 
 877:build/openmote-cc2538_armgcc/openapps/opencoap/opencoap.c **** uint8_t opencoap_find_option(coap_option_iht* array, uint8_t arrayLen, coap_option_t option, uint8_
 2323              		.loc 1 877 0
 2324              		.cfi_startproc
 2325              		@ args = 0, pretend = 0, frame = 24
 2326              		@ frame_needed = 1, uses_anonymous_args = 0
 2327              		@ link register save eliminated.
 2328 0ed0 80B4     		push	{r7}
 2329              		.cfi_def_cfa_offset 4
 2330              		.cfi_offset 7, -4
 2331 0ed2 87B0     		sub	sp, sp, #28
 2332              		.cfi_def_cfa_offset 32
 2333 0ed4 00AF     		add	r7, sp, #0
 2334              		.cfi_def_cfa_register 7
 2335 0ed6 F860     		str	r0, [r7, #12]
 2336 0ed8 7B60     		str	r3, [r7, #4]
 2337 0eda 0B46     		mov	r3, r1
 2338 0edc FB72     		strb	r3, [r7, #11]
 2339 0ede 1346     		mov	r3, r2
 2340 0ee0 BB72     		strb	r3, [r7, #10]
 878:build/openmote-cc2538_armgcc/openapps/opencoap/opencoap.c ****   uint8_t i;
 879:build/openmote-cc2538_armgcc/openapps/opencoap/opencoap.c ****   uint8_t j;
 880:build/openmote-cc2538_armgcc/openapps/opencoap/opencoap.c ****   bool found;
 881:build/openmote-cc2538_armgcc/openapps/opencoap/opencoap.c ****    
 882:build/openmote-cc2538_armgcc/openapps/opencoap/opencoap.c ****   //init local variables
 883:build/openmote-cc2538_armgcc/openapps/opencoap/opencoap.c ****   j = 0;
 2341              		.loc 1 883 0
 2342 0ee2 0023     		movs	r3, #0
 2343 0ee4 BB75     		strb	r3, [r7, #22]
 884:build/openmote-cc2538_armgcc/openapps/opencoap/opencoap.c ****   found = FALSE;
 2344              		.loc 1 884 0
 2345 0ee6 0023     		movs	r3, #0
 2346 0ee8 7B75     		strb	r3, [r7, #21]
 885:build/openmote-cc2538_armgcc/openapps/opencoap/opencoap.c ****   
 886:build/openmote-cc2538_armgcc/openapps/opencoap/opencoap.c ****   for (i=0; i< arrayLen; i++){
 2347              		.loc 1 886 0
 2348 0eea 0023     		movs	r3, #0
 2349 0eec FB75     		strb	r3, [r7, #23]
 2350 0eee 1BE0     		b	.L141
 2351              	.L145:
 887:build/openmote-cc2538_armgcc/openapps/opencoap/opencoap.c ****     if (array[i].type == option) {
 2352              		.loc 1 887 0
 2353 0ef0 FB7D     		ldrb	r3, [r7, #23]	@ zero_extendqisi2
 2354 0ef2 DB00     		lsls	r3, r3, #3
 2355 0ef4 FA68     		ldr	r2, [r7, #12]
 2356 0ef6 1344     		add	r3, r3, r2
 2357 0ef8 1B78     		ldrb	r3, [r3]	@ zero_extendqisi2
 2358 0efa BA7A     		ldrb	r2, [r7, #10]	@ zero_extendqisi2
 2359 0efc 9A42     		cmp	r2, r3
 2360 0efe 10D1     		bne	.L142
 888:build/openmote-cc2538_armgcc/openapps/opencoap/opencoap.c ****       // validate if startIndex is already set
 889:build/openmote-cc2538_armgcc/openapps/opencoap/opencoap.c ****       if (found == FALSE) {
 2361              		.loc 1 889 0
 2362 0f00 7B7D     		ldrb	r3, [r7, #21]
 2363 0f02 83F00103 		eor	r3, r3, #1
 2364 0f06 DBB2     		uxtb	r3, r3
 2365 0f08 002B     		cmp	r3, #0
 2366 0f0a 07D0     		beq	.L143
 890:build/openmote-cc2538_armgcc/openapps/opencoap/opencoap.c ****         if (startIndex != NULL) {
 2367              		.loc 1 890 0
 2368 0f0c 7B68     		ldr	r3, [r7, #4]
 2369 0f0e 002B     		cmp	r3, #0
 2370 0f10 02D0     		beq	.L144
 891:build/openmote-cc2538_armgcc/openapps/opencoap/opencoap.c ****            *startIndex = i;
 2371              		.loc 1 891 0
 2372 0f12 7B68     		ldr	r3, [r7, #4]
 2373 0f14 FA7D     		ldrb	r2, [r7, #23]
 2374 0f16 1A70     		strb	r2, [r3]
 2375              	.L144:
 892:build/openmote-cc2538_armgcc/openapps/opencoap/opencoap.c ****         }
 893:build/openmote-cc2538_armgcc/openapps/opencoap/opencoap.c ****         found = TRUE;
 2376              		.loc 1 893 0
 2377 0f18 0123     		movs	r3, #1
 2378 0f1a 7B75     		strb	r3, [r7, #21]
 2379              	.L143:
 894:build/openmote-cc2538_armgcc/openapps/opencoap/opencoap.c ****       }
 895:build/openmote-cc2538_armgcc/openapps/opencoap/opencoap.c ****       //increment option counter
 896:build/openmote-cc2538_armgcc/openapps/opencoap/opencoap.c ****       j++;
 2380              		.loc 1 896 0
 2381 0f1c BB7D     		ldrb	r3, [r7, #22]	@ zero_extendqisi2
 2382 0f1e 0133     		adds	r3, r3, #1
 2383 0f20 BB75     		strb	r3, [r7, #22]
 2384              	.L142:
 886:build/openmote-cc2538_armgcc/openapps/opencoap/opencoap.c ****     if (array[i].type == option) {
 2385              		.loc 1 886 0 discriminator 2
 2386 0f22 FB7D     		ldrb	r3, [r7, #23]	@ zero_extendqisi2
 2387 0f24 0133     		adds	r3, r3, #1
 2388 0f26 FB75     		strb	r3, [r7, #23]
 2389              	.L141:
 886:build/openmote-cc2538_armgcc/openapps/opencoap/opencoap.c ****     if (array[i].type == option) {
 2390              		.loc 1 886 0 is_stmt 0 discriminator 1
 2391 0f28 FA7D     		ldrb	r2, [r7, #23]	@ zero_extendqisi2
 2392 0f2a FB7A     		ldrb	r3, [r7, #11]	@ zero_extendqisi2
 2393 0f2c 9A42     		cmp	r2, r3
 2394 0f2e DFD3     		bcc	.L145
 897:build/openmote-cc2538_armgcc/openapps/opencoap/opencoap.c ****     }
 898:build/openmote-cc2538_armgcc/openapps/opencoap/opencoap.c ****   }
 899:build/openmote-cc2538_armgcc/openapps/opencoap/opencoap.c ****   
 900:build/openmote-cc2538_armgcc/openapps/opencoap/opencoap.c ****   // option not found
 901:build/openmote-cc2538_armgcc/openapps/opencoap/opencoap.c ****   if (found == FALSE) {
 2395              		.loc 1 901 0 is_stmt 1
 2396 0f30 7B7D     		ldrb	r3, [r7, #21]
 2397 0f32 83F00103 		eor	r3, r3, #1
 2398 0f36 DBB2     		uxtb	r3, r3
 2399 0f38 002B     		cmp	r3, #0
 2400 0f3a 05D0     		beq	.L146
 902:build/openmote-cc2538_armgcc/openapps/opencoap/opencoap.c ****     if (startIndex != NULL) {
 2401              		.loc 1 902 0
 2402 0f3c 7B68     		ldr	r3, [r7, #4]
 2403 0f3e 002B     		cmp	r3, #0
 2404 0f40 02D0     		beq	.L146
 903:build/openmote-cc2538_armgcc/openapps/opencoap/opencoap.c ****        *startIndex = 0;
 2405              		.loc 1 903 0
 2406 0f42 7B68     		ldr	r3, [r7, #4]
 2407 0f44 0022     		movs	r2, #0
 2408 0f46 1A70     		strb	r2, [r3]
 2409              	.L146:
 904:build/openmote-cc2538_armgcc/openapps/opencoap/opencoap.c ****     }
 905:build/openmote-cc2538_armgcc/openapps/opencoap/opencoap.c ****   }
 906:build/openmote-cc2538_armgcc/openapps/opencoap/opencoap.c ****   
 907:build/openmote-cc2538_armgcc/openapps/opencoap/opencoap.c ****   return j;
 2410              		.loc 1 907 0
 2411 0f48 BB7D     		ldrb	r3, [r7, #22]	@ zero_extendqisi2
 908:build/openmote-cc2538_armgcc/openapps/opencoap/opencoap.c ****   
 909:build/openmote-cc2538_armgcc/openapps/opencoap/opencoap.c **** }
 2412              		.loc 1 909 0
 2413 0f4a 1846     		mov	r0, r3
 2414 0f4c 1C37     		adds	r7, r7, #28
 2415              		.cfi_def_cfa_offset 4
 2416 0f4e BD46     		mov	sp, r7
 2417              		.cfi_def_cfa_register 13
 2418              		@ sp needed
 2419 0f50 80BC     		pop	{r7}
 2420              		.cfi_restore 7
 2421              		.cfi_def_cfa_offset 0
 2422 0f52 7047     		bx	lr
 2423              		.cfi_endproc
 2424              	.LFE8:
 2426              		.align	2
 2427              		.global	opencoap_options_parse
 2428              		.thumb
 2429              		.thumb_func
 2431              	opencoap_options_parse:
 2432              	.LFB9:
 910:build/openmote-cc2538_armgcc/openapps/opencoap/opencoap.c **** 
 911:build/openmote-cc2538_armgcc/openapps/opencoap/opencoap.c **** //=========================== private =========================================
 912:build/openmote-cc2538_armgcc/openapps/opencoap/opencoap.c **** 
 913:build/openmote-cc2538_armgcc/openapps/opencoap/opencoap.c **** uint8_t opencoap_options_parse(
 914:build/openmote-cc2538_armgcc/openapps/opencoap/opencoap.c ****         uint8_t*                buffer,
 915:build/openmote-cc2538_armgcc/openapps/opencoap/opencoap.c ****         uint8_t                 bufferLen,
 916:build/openmote-cc2538_armgcc/openapps/opencoap/opencoap.c ****         coap_option_iht*        options,
 917:build/openmote-cc2538_armgcc/openapps/opencoap/opencoap.c ****         uint8_t*                optionsLen
 918:build/openmote-cc2538_armgcc/openapps/opencoap/opencoap.c ****         ) {
 2433              		.loc 1 918 0
 2434              		.cfi_startproc
 2435              		@ args = 0, pretend = 0, frame = 24
 2436              		@ frame_needed = 1, uses_anonymous_args = 0
 2437 0f54 80B5     		push	{r7, lr}
 2438              		.cfi_def_cfa_offset 8
 2439              		.cfi_offset 7, -8
 2440              		.cfi_offset 14, -4
 2441 0f56 86B0     		sub	sp, sp, #24
 2442              		.cfi_def_cfa_offset 32
 2443 0f58 00AF     		add	r7, sp, #0
 2444              		.cfi_def_cfa_register 7
 2445 0f5a F860     		str	r0, [r7, #12]
 2446 0f5c 7A60     		str	r2, [r7, #4]
 2447 0f5e 3B60     		str	r3, [r7]
 2448 0f60 0B46     		mov	r3, r1
 2449 0f62 FB72     		strb	r3, [r7, #11]
 919:build/openmote-cc2538_armgcc/openapps/opencoap/opencoap.c **** 
 920:build/openmote-cc2538_armgcc/openapps/opencoap/opencoap.c ****     uint8_t index;
 921:build/openmote-cc2538_armgcc/openapps/opencoap/opencoap.c ****     uint8_t i;
 922:build/openmote-cc2538_armgcc/openapps/opencoap/opencoap.c ****     coap_option_t lastOption;
 923:build/openmote-cc2538_armgcc/openapps/opencoap/opencoap.c ****     coap_option_t optionDelta;
 924:build/openmote-cc2538_armgcc/openapps/opencoap/opencoap.c ****     uint8_t optionLength;
 925:build/openmote-cc2538_armgcc/openapps/opencoap/opencoap.c ****     uint8_t numOptions;
 926:build/openmote-cc2538_armgcc/openapps/opencoap/opencoap.c **** 
 927:build/openmote-cc2538_armgcc/openapps/opencoap/opencoap.c ****     index = 0;
 2450              		.loc 1 927 0
 2451 0f64 0023     		movs	r3, #0
 2452 0f66 FB75     		strb	r3, [r7, #23]
 928:build/openmote-cc2538_armgcc/openapps/opencoap/opencoap.c ****     numOptions = 0;
 2453              		.loc 1 928 0
 2454 0f68 0023     		movs	r3, #0
 2455 0f6a BB74     		strb	r3, [r7, #18]
 929:build/openmote-cc2538_armgcc/openapps/opencoap/opencoap.c **** 
 930:build/openmote-cc2538_armgcc/openapps/opencoap/opencoap.c ****     // initialize the coap_incomingOptions
 931:build/openmote-cc2538_armgcc/openapps/opencoap/opencoap.c ****     for (i=0;i<*optionsLen;i++) {
 2456              		.loc 1 931 0
 2457 0f6c 0023     		movs	r3, #0
 2458 0f6e BB75     		strb	r3, [r7, #22]
 2459 0f70 14E0     		b	.L149
 2460              	.L150:
 932:build/openmote-cc2538_armgcc/openapps/opencoap/opencoap.c ****         options[i].type = COAP_OPTION_NONE;
 2461              		.loc 1 932 0 discriminator 3
 2462 0f72 BB7D     		ldrb	r3, [r7, #22]	@ zero_extendqisi2
 2463 0f74 DB00     		lsls	r3, r3, #3
 2464 0f76 7A68     		ldr	r2, [r7, #4]
 2465 0f78 1344     		add	r3, r3, r2
 2466 0f7a 0022     		movs	r2, #0
 2467 0f7c 1A70     		strb	r2, [r3]
 933:build/openmote-cc2538_armgcc/openapps/opencoap/opencoap.c ****         options[i].length = 0;
 2468              		.loc 1 933 0 discriminator 3
 2469 0f7e BB7D     		ldrb	r3, [r7, #22]	@ zero_extendqisi2
 2470 0f80 DB00     		lsls	r3, r3, #3
 2471 0f82 7A68     		ldr	r2, [r7, #4]
 2472 0f84 1344     		add	r3, r3, r2
 2473 0f86 0022     		movs	r2, #0
 2474 0f88 5A70     		strb	r2, [r3, #1]
 934:build/openmote-cc2538_armgcc/openapps/opencoap/opencoap.c ****         options[i].pValue = NULL;
 2475              		.loc 1 934 0 discriminator 3
 2476 0f8a BB7D     		ldrb	r3, [r7, #22]	@ zero_extendqisi2
 2477 0f8c DB00     		lsls	r3, r3, #3
 2478 0f8e 7A68     		ldr	r2, [r7, #4]
 2479 0f90 1344     		add	r3, r3, r2
 2480 0f92 0022     		movs	r2, #0
 2481 0f94 5A60     		str	r2, [r3, #4]
 931:build/openmote-cc2538_armgcc/openapps/opencoap/opencoap.c ****         options[i].type = COAP_OPTION_NONE;
 2482              		.loc 1 931 0 discriminator 3
 2483 0f96 BB7D     		ldrb	r3, [r7, #22]	@ zero_extendqisi2
 2484 0f98 0133     		adds	r3, r3, #1
 2485 0f9a BB75     		strb	r3, [r7, #22]
 2486              	.L149:
 931:build/openmote-cc2538_armgcc/openapps/opencoap/opencoap.c ****         options[i].type = COAP_OPTION_NONE;
 2487              		.loc 1 931 0 is_stmt 0 discriminator 1
 2488 0f9c 3B68     		ldr	r3, [r7]
 2489 0f9e 1B78     		ldrb	r3, [r3]	@ zero_extendqisi2
 2490 0fa0 BA7D     		ldrb	r2, [r7, #22]	@ zero_extendqisi2
 2491 0fa2 9A42     		cmp	r2, r3
 2492 0fa4 E5D3     		bcc	.L150
 935:build/openmote-cc2538_armgcc/openapps/opencoap/opencoap.c ****     }
 936:build/openmote-cc2538_armgcc/openapps/opencoap/opencoap.c ****    
 937:build/openmote-cc2538_armgcc/openapps/opencoap/opencoap.c ****     lastOption = COAP_OPTION_NONE;
 2493              		.loc 1 937 0 is_stmt 1
 2494 0fa6 0023     		movs	r3, #0
 2495 0fa8 7B75     		strb	r3, [r7, #21]
 938:build/openmote-cc2538_armgcc/openapps/opencoap/opencoap.c ****     for (i = 0; i < *optionsLen; i++) {
 2496              		.loc 1 938 0
 2497 0faa 0023     		movs	r3, #0
 2498 0fac BB75     		strb	r3, [r7, #22]
 2499 0fae 7AE0     		b	.L151
 2500              	.L162:
 939:build/openmote-cc2538_armgcc/openapps/opencoap/opencoap.c ****       
 940:build/openmote-cc2538_armgcc/openapps/opencoap/opencoap.c ****         // detect when done parsing options
 941:build/openmote-cc2538_armgcc/openapps/opencoap/opencoap.c ****         if (buffer[index]==COAP_PAYLOAD_MARKER) {
 2501              		.loc 1 941 0
 2502 0fb0 FB7D     		ldrb	r3, [r7, #23]	@ zero_extendqisi2
 2503 0fb2 FA68     		ldr	r2, [r7, #12]
 2504 0fb4 1344     		add	r3, r3, r2
 2505 0fb6 1B78     		ldrb	r3, [r3]	@ zero_extendqisi2
 2506 0fb8 FF2B     		cmp	r3, #255
 2507 0fba 03D1     		bne	.L152
 942:build/openmote-cc2538_armgcc/openapps/opencoap/opencoap.c ****             // found the payload marker, done parsing options.
 943:build/openmote-cc2538_armgcc/openapps/opencoap/opencoap.c ****             index++; // skip marker and stop parsing options
 2508              		.loc 1 943 0
 2509 0fbc FB7D     		ldrb	r3, [r7, #23]	@ zero_extendqisi2
 2510 0fbe 0133     		adds	r3, r3, #1
 2511 0fc0 FB75     		strb	r3, [r7, #23]
 944:build/openmote-cc2538_armgcc/openapps/opencoap/opencoap.c ****             break;
 2512              		.loc 1 944 0
 2513 0fc2 7EE0     		b	.L153
 2514              	.L152:
 945:build/openmote-cc2538_armgcc/openapps/opencoap/opencoap.c ****         }
 946:build/openmote-cc2538_armgcc/openapps/opencoap/opencoap.c ****         if (bufferLen<=index) {
 2515              		.loc 1 946 0
 2516 0fc4 FA7A     		ldrb	r2, [r7, #11]	@ zero_extendqisi2
 2517 0fc6 FB7D     		ldrb	r3, [r7, #23]	@ zero_extendqisi2
 2518 0fc8 9A42     		cmp	r2, r3
 2519 0fca 73D9     		bls	.L164
 947:build/openmote-cc2538_armgcc/openapps/opencoap/opencoap.c ****              // end of message, no payload
 948:build/openmote-cc2538_armgcc/openapps/opencoap/opencoap.c ****             break;
 949:build/openmote-cc2538_armgcc/openapps/opencoap/opencoap.c ****         }
 950:build/openmote-cc2538_armgcc/openapps/opencoap/opencoap.c **** 
 951:build/openmote-cc2538_armgcc/openapps/opencoap/opencoap.c ****         optionDelta = ((buffer[index] & 0xf0) >> 4);
 2520              		.loc 1 951 0
 2521 0fcc FB7D     		ldrb	r3, [r7, #23]	@ zero_extendqisi2
 2522 0fce FA68     		ldr	r2, [r7, #12]
 2523 0fd0 1344     		add	r3, r3, r2
 2524 0fd2 1B78     		ldrb	r3, [r3]	@ zero_extendqisi2
 2525 0fd4 1B09     		lsrs	r3, r3, #4
 2526 0fd6 3B75     		strb	r3, [r7, #20]
 952:build/openmote-cc2538_armgcc/openapps/opencoap/opencoap.c ****         optionLength = (buffer[index] & 0x0f);
 2527              		.loc 1 952 0
 2528 0fd8 FB7D     		ldrb	r3, [r7, #23]	@ zero_extendqisi2
 2529 0fda FA68     		ldr	r2, [r7, #12]
 2530 0fdc 1344     		add	r3, r3, r2
 2531 0fde 1B78     		ldrb	r3, [r3]	@ zero_extendqisi2
 2532 0fe0 03F00F03 		and	r3, r3, #15
 2533 0fe4 FB74     		strb	r3, [r7, #19]
 953:build/openmote-cc2538_armgcc/openapps/opencoap/opencoap.c **** 
 954:build/openmote-cc2538_armgcc/openapps/opencoap/opencoap.c ****         index++;
 2534              		.loc 1 954 0
 2535 0fe6 FB7D     		ldrb	r3, [r7, #23]	@ zero_extendqisi2
 2536 0fe8 0133     		adds	r3, r3, #1
 2537 0fea FB75     		strb	r3, [r7, #23]
 955:build/openmote-cc2538_armgcc/openapps/opencoap/opencoap.c **** 
 956:build/openmote-cc2538_armgcc/openapps/opencoap/opencoap.c ****         if (optionDelta <= 12) {
 2538              		.loc 1 956 0
 2539 0fec 3B7D     		ldrb	r3, [r7, #20]	@ zero_extendqisi2
 2540 0fee 0C2B     		cmp	r3, #12
 2541 0ff0 1CD9     		bls	.L155
 957:build/openmote-cc2538_armgcc/openapps/opencoap/opencoap.c ****         }
 958:build/openmote-cc2538_armgcc/openapps/opencoap/opencoap.c ****         else if (optionDelta == 13) {
 2542              		.loc 1 958 0
 2543 0ff2 3B7D     		ldrb	r3, [r7, #20]	@ zero_extendqisi2
 2544 0ff4 0D2B     		cmp	r3, #13
 2545 0ff6 09D1     		bne	.L156
 959:build/openmote-cc2538_armgcc/openapps/opencoap/opencoap.c ****             optionDelta = buffer[index] + 13;
 2546              		.loc 1 959 0
 2547 0ff8 FB7D     		ldrb	r3, [r7, #23]	@ zero_extendqisi2
 2548 0ffa FA68     		ldr	r2, [r7, #12]
 2549 0ffc 1344     		add	r3, r3, r2
 2550 0ffe 1B78     		ldrb	r3, [r3]	@ zero_extendqisi2
 2551 1000 0D33     		adds	r3, r3, #13
 2552 1002 3B75     		strb	r3, [r7, #20]
 960:build/openmote-cc2538_armgcc/openapps/opencoap/opencoap.c ****             index++;
 2553              		.loc 1 960 0
 2554 1004 FB7D     		ldrb	r3, [r7, #23]	@ zero_extendqisi2
 2555 1006 0133     		adds	r3, r3, #1
 2556 1008 FB75     		strb	r3, [r7, #23]
 2557 100a 0FE0     		b	.L155
 2558              	.L156:
 961:build/openmote-cc2538_armgcc/openapps/opencoap/opencoap.c ****         }
 962:build/openmote-cc2538_armgcc/openapps/opencoap/opencoap.c ****         else if (optionDelta == 14) {
 2559              		.loc 1 962 0
 2560 100c 3B7D     		ldrb	r3, [r7, #20]	@ zero_extendqisi2
 2561 100e 0E2B     		cmp	r3, #14
 2562 1010 52D1     		bne	.L165
 963:build/openmote-cc2538_armgcc/openapps/opencoap/opencoap.c ****             optionDelta = (coap_option_t) (packetfunctions_ntohs(&buffer[index]) + 269);
 2563              		.loc 1 963 0
 2564 1012 FB7D     		ldrb	r3, [r7, #23]	@ zero_extendqisi2
 2565 1014 FA68     		ldr	r2, [r7, #12]
 2566 1016 1344     		add	r3, r3, r2
 2567 1018 1846     		mov	r0, r3
 2568 101a FFF7FEFF 		bl	packetfunctions_ntohs
 2569 101e 0346     		mov	r3, r0
 2570 1020 DBB2     		uxtb	r3, r3
 2571 1022 0D33     		adds	r3, r3, #13
 2572 1024 3B75     		strb	r3, [r7, #20]
 964:build/openmote-cc2538_armgcc/openapps/opencoap/opencoap.c ****             index += 2;
 2573              		.loc 1 964 0
 2574 1026 FB7D     		ldrb	r3, [r7, #23]
 2575 1028 0233     		adds	r3, r3, #2
 2576 102a FB75     		strb	r3, [r7, #23]
 2577              	.L155:
 965:build/openmote-cc2538_armgcc/openapps/opencoap/opencoap.c ****         }
 966:build/openmote-cc2538_armgcc/openapps/opencoap/opencoap.c ****         else {
 967:build/openmote-cc2538_armgcc/openapps/opencoap/opencoap.c ****             break;
 968:build/openmote-cc2538_armgcc/openapps/opencoap/opencoap.c ****         }
 969:build/openmote-cc2538_armgcc/openapps/opencoap/opencoap.c **** 
 970:build/openmote-cc2538_armgcc/openapps/opencoap/opencoap.c ****         if (optionLength <= 12) {
 2578              		.loc 1 970 0
 2579 102c FB7C     		ldrb	r3, [r7, #19]	@ zero_extendqisi2
 2580 102e 0C2B     		cmp	r3, #12
 2581 1030 0BD9     		bls	.L158
 971:build/openmote-cc2538_armgcc/openapps/opencoap/opencoap.c **** 
 972:build/openmote-cc2538_armgcc/openapps/opencoap/opencoap.c ****         }
 973:build/openmote-cc2538_armgcc/openapps/opencoap/opencoap.c ****         else if (optionLength == 13) {
 2582              		.loc 1 973 0
 2583 1032 FB7C     		ldrb	r3, [r7, #19]	@ zero_extendqisi2
 2584 1034 0D2B     		cmp	r3, #13
 2585 1036 41D1     		bne	.L166
 974:build/openmote-cc2538_armgcc/openapps/opencoap/opencoap.c ****             optionLength = buffer[index] + 13;
 2586              		.loc 1 974 0
 2587 1038 FB7D     		ldrb	r3, [r7, #23]	@ zero_extendqisi2
 2588 103a FA68     		ldr	r2, [r7, #12]
 2589 103c 1344     		add	r3, r3, r2
 2590 103e 1B78     		ldrb	r3, [r3]	@ zero_extendqisi2
 2591 1040 0D33     		adds	r3, r3, #13
 2592 1042 FB74     		strb	r3, [r7, #19]
 975:build/openmote-cc2538_armgcc/openapps/opencoap/opencoap.c ****             index++;
 2593              		.loc 1 975 0
 2594 1044 FB7D     		ldrb	r3, [r7, #23]	@ zero_extendqisi2
 2595 1046 0133     		adds	r3, r3, #1
 2596 1048 FB75     		strb	r3, [r7, #23]
 2597              	.L158:
 976:build/openmote-cc2538_armgcc/openapps/opencoap/opencoap.c ****         }
 977:build/openmote-cc2538_armgcc/openapps/opencoap/opencoap.c ****         else {
 978:build/openmote-cc2538_armgcc/openapps/opencoap/opencoap.c ****             // case 14 not supported
 979:build/openmote-cc2538_armgcc/openapps/opencoap/opencoap.c ****             break;
 980:build/openmote-cc2538_armgcc/openapps/opencoap/opencoap.c ****         }
 981:build/openmote-cc2538_armgcc/openapps/opencoap/opencoap.c **** 
 982:build/openmote-cc2538_armgcc/openapps/opencoap/opencoap.c ****         if (bufferLen <= index) {
 2598              		.loc 1 982 0
 2599 104a FA7A     		ldrb	r2, [r7, #11]	@ zero_extendqisi2
 2600 104c FB7D     		ldrb	r3, [r7, #23]	@ zero_extendqisi2
 2601 104e 9A42     		cmp	r2, r3
 2602 1050 36D9     		bls	.L167
 983:build/openmote-cc2538_armgcc/openapps/opencoap/opencoap.c ****             break;
 984:build/openmote-cc2538_armgcc/openapps/opencoap/opencoap.c ****         }
 985:build/openmote-cc2538_armgcc/openapps/opencoap/opencoap.c ****          
 986:build/openmote-cc2538_armgcc/openapps/opencoap/opencoap.c ****         // create new option
 987:build/openmote-cc2538_armgcc/openapps/opencoap/opencoap.c ****         options[i].type = lastOption + optionDelta;
 2603              		.loc 1 987 0
 2604 1052 BB7D     		ldrb	r3, [r7, #22]	@ zero_extendqisi2
 2605 1054 DB00     		lsls	r3, r3, #3
 2606 1056 7A68     		ldr	r2, [r7, #4]
 2607 1058 1344     		add	r3, r3, r2
 2608 105a 797D     		ldrb	r1, [r7, #21]
 2609 105c 3A7D     		ldrb	r2, [r7, #20]
 2610 105e 0A44     		add	r2, r2, r1
 2611 1060 D2B2     		uxtb	r2, r2
 2612 1062 1A70     		strb	r2, [r3]
 988:build/openmote-cc2538_armgcc/openapps/opencoap/opencoap.c ****         options[i].length = optionLength;
 2613              		.loc 1 988 0
 2614 1064 BB7D     		ldrb	r3, [r7, #22]	@ zero_extendqisi2
 2615 1066 DB00     		lsls	r3, r3, #3
 2616 1068 7A68     		ldr	r2, [r7, #4]
 2617 106a 1344     		add	r3, r3, r2
 2618 106c FA7C     		ldrb	r2, [r7, #19]
 2619 106e 5A70     		strb	r2, [r3, #1]
 989:build/openmote-cc2538_armgcc/openapps/opencoap/opencoap.c ****         if (optionLength) {
 2620              		.loc 1 989 0
 2621 1070 FB7C     		ldrb	r3, [r7, #19]	@ zero_extendqisi2
 2622 1072 002B     		cmp	r3, #0
 2623 1074 07D0     		beq	.L161
 990:build/openmote-cc2538_armgcc/openapps/opencoap/opencoap.c ****             options[i].pValue = &(buffer[index]);
 2624              		.loc 1 990 0
 2625 1076 BB7D     		ldrb	r3, [r7, #22]	@ zero_extendqisi2
 2626 1078 DB00     		lsls	r3, r3, #3
 2627 107a 7A68     		ldr	r2, [r7, #4]
 2628 107c 1344     		add	r3, r3, r2
 2629 107e FA7D     		ldrb	r2, [r7, #23]	@ zero_extendqisi2
 2630 1080 F968     		ldr	r1, [r7, #12]
 2631 1082 0A44     		add	r2, r2, r1
 2632 1084 5A60     		str	r2, [r3, #4]
 2633              	.L161:
 991:build/openmote-cc2538_armgcc/openapps/opencoap/opencoap.c ****         }
 992:build/openmote-cc2538_armgcc/openapps/opencoap/opencoap.c ****         index += optionLength;
 2634              		.loc 1 992 0 discriminator 2
 2635 1086 FA7D     		ldrb	r2, [r7, #23]
 2636 1088 FB7C     		ldrb	r3, [r7, #19]
 2637 108a 1344     		add	r3, r3, r2
 2638 108c FB75     		strb	r3, [r7, #23]
 993:build/openmote-cc2538_armgcc/openapps/opencoap/opencoap.c ****         lastOption = options[i].type;
 2639              		.loc 1 993 0 discriminator 2
 2640 108e BB7D     		ldrb	r3, [r7, #22]	@ zero_extendqisi2
 2641 1090 DB00     		lsls	r3, r3, #3
 2642 1092 7A68     		ldr	r2, [r7, #4]
 2643 1094 1344     		add	r3, r3, r2
 2644 1096 1B78     		ldrb	r3, [r3]
 2645 1098 7B75     		strb	r3, [r7, #21]
 994:build/openmote-cc2538_armgcc/openapps/opencoap/opencoap.c ****         numOptions++;
 2646              		.loc 1 994 0 discriminator 2
 2647 109a BB7C     		ldrb	r3, [r7, #18]	@ zero_extendqisi2
 2648 109c 0133     		adds	r3, r3, #1
 2649 109e BB74     		strb	r3, [r7, #18]
 938:build/openmote-cc2538_armgcc/openapps/opencoap/opencoap.c ****       
 2650              		.loc 1 938 0 discriminator 2
 2651 10a0 BB7D     		ldrb	r3, [r7, #22]	@ zero_extendqisi2
 2652 10a2 0133     		adds	r3, r3, #1
 2653 10a4 BB75     		strb	r3, [r7, #22]
 2654              	.L151:
 938:build/openmote-cc2538_armgcc/openapps/opencoap/opencoap.c ****       
 2655              		.loc 1 938 0 is_stmt 0 discriminator 1
 2656 10a6 3B68     		ldr	r3, [r7]
 2657 10a8 1B78     		ldrb	r3, [r3]	@ zero_extendqisi2
 2658 10aa BA7D     		ldrb	r2, [r7, #22]	@ zero_extendqisi2
 2659 10ac 9A42     		cmp	r2, r3
 2660 10ae FFF47FAF 		bcc	.L162
 2661 10b2 06E0     		b	.L153
 2662              	.L164:
 948:build/openmote-cc2538_armgcc/openapps/opencoap/opencoap.c ****         }
 2663              		.loc 1 948 0 is_stmt 1
 2664 10b4 00BF     		nop
 2665 10b6 04E0     		b	.L153
 2666              	.L165:
 967:build/openmote-cc2538_armgcc/openapps/opencoap/opencoap.c ****         }
 2667              		.loc 1 967 0
 2668 10b8 00BF     		nop
 2669 10ba 02E0     		b	.L153
 2670              	.L166:
 979:build/openmote-cc2538_armgcc/openapps/opencoap/opencoap.c ****         }
 2671              		.loc 1 979 0
 2672 10bc 00BF     		nop
 2673 10be 00E0     		b	.L153
 2674              	.L167:
 983:build/openmote-cc2538_armgcc/openapps/opencoap/opencoap.c ****         }
 2675              		.loc 1 983 0
 2676 10c0 00BF     		nop
 2677              	.L153:
 995:build/openmote-cc2538_armgcc/openapps/opencoap/opencoap.c ****     }
 996:build/openmote-cc2538_armgcc/openapps/opencoap/opencoap.c ****     *optionsLen = numOptions;
 2678              		.loc 1 996 0
 2679 10c2 3B68     		ldr	r3, [r7]
 2680 10c4 BA7C     		ldrb	r2, [r7, #18]
 2681 10c6 1A70     		strb	r2, [r3]
 997:build/openmote-cc2538_armgcc/openapps/opencoap/opencoap.c ****     return index;
 2682              		.loc 1 997 0
 2683 10c8 FB7D     		ldrb	r3, [r7, #23]	@ zero_extendqisi2
 998:build/openmote-cc2538_armgcc/openapps/opencoap/opencoap.c **** }
 2684              		.loc 1 998 0
 2685 10ca 1846     		mov	r0, r3
 2686 10cc 1837     		adds	r7, r7, #24
 2687              		.cfi_def_cfa_offset 8
 2688 10ce BD46     		mov	sp, r7
 2689              		.cfi_def_cfa_register 13
 2690              		@ sp needed
 2691 10d0 80BD     		pop	{r7, pc}
 2692              		.cfi_endproc
 2693              	.LFE9:
 2695              		.section	.rodata
 2696              		.align	2
 2697              	.LC0:
 2698 0098 636F6170 		.ascii	"coap\000"
 2698      00
 2699 009d 000000   		.align	2
 2700              	.LC1:
 2701 00a0 36746973 		.ascii	"6tisch.arpa\000"
 2701      63682E61 
 2701      72706100 
 2702              		.text
 2703 10d2 00BF     		.align	2
 2704              		.global	opencoap_handle_proxy_scheme
 2705              		.thumb
 2706              		.thumb_func
 2708              	opencoap_handle_proxy_scheme:
 2709              	.LFB10:
 999:build/openmote-cc2538_armgcc/openapps/opencoap/opencoap.c **** 
1000:build/openmote-cc2538_armgcc/openapps/opencoap/opencoap.c **** void opencoap_handle_proxy_scheme(OpenQueueEntry_t *msg,
1001:build/openmote-cc2538_armgcc/openapps/opencoap/opencoap.c ****         coap_header_iht* header,
1002:build/openmote-cc2538_armgcc/openapps/opencoap/opencoap.c ****         coap_option_iht* incomingOptions, 
1003:build/openmote-cc2538_armgcc/openapps/opencoap/opencoap.c ****         uint8_t incomingOptionsLen) {
 2710              		.loc 1 1003 0
 2711              		.cfi_startproc
 2712              		@ args = 0, pretend = 0, frame = 152
 2713              		@ frame_needed = 1, uses_anonymous_args = 0
 2714 10d4 80B5     		push	{r7, lr}
 2715              		.cfi_def_cfa_offset 8
 2716              		.cfi_offset 7, -8
 2717              		.cfi_offset 14, -4
 2718 10d6 A8B0     		sub	sp, sp, #160
 2719              		.cfi_def_cfa_offset 168
 2720 10d8 02AF     		add	r7, sp, #8
 2721              		.cfi_def_cfa 7, 160
 2722 10da F860     		str	r0, [r7, #12]
 2723 10dc B960     		str	r1, [r7, #8]
 2724 10de 7A60     		str	r2, [r7, #4]
 2725 10e0 FB70     		strb	r3, [r7, #3]
1004:build/openmote-cc2538_armgcc/openapps/opencoap/opencoap.c ****    
1005:build/openmote-cc2538_armgcc/openapps/opencoap/opencoap.c ****     uint8_t i;
1006:build/openmote-cc2538_armgcc/openapps/opencoap/opencoap.c ****     coap_option_iht outgoingOptions[MAX_COAP_OPTIONS];
1007:build/openmote-cc2538_armgcc/openapps/opencoap/opencoap.c ****     uint8_t outgoingOptionsLen;
1008:build/openmote-cc2538_armgcc/openapps/opencoap/opencoap.c ****     uint8_t option_count;
1009:build/openmote-cc2538_armgcc/openapps/opencoap/opencoap.c ****     uint8_t option_index;
1010:build/openmote-cc2538_armgcc/openapps/opencoap/opencoap.c ****     coap_option_iht *uriHost;
1011:build/openmote-cc2538_armgcc/openapps/opencoap/opencoap.c ****     coap_option_iht *proxyScheme;
1012:build/openmote-cc2538_armgcc/openapps/opencoap/opencoap.c ****     const uint8_t proxySchemeCoap[] = "coap";
 2726              		.loc 1 1012 0
 2727 10e2 744A     		ldr	r2, .L189
 2728 10e4 07F13003 		add	r3, r7, #48
 2729 10e8 92E80300 		ldmia	r2, {r0, r1}
 2730 10ec 1860     		str	r0, [r3]
 2731 10ee 0433     		adds	r3, r3, #4
 2732 10f0 1970     		strb	r1, [r3]
1013:build/openmote-cc2538_armgcc/openapps/opencoap/opencoap.c ****     const uint8_t uriHost6tisch[] = "6tisch.arpa";
 2733              		.loc 1 1013 0
 2734 10f2 714A     		ldr	r2, .L189+4
 2735 10f4 07F12403 		add	r3, r7, #36
 2736 10f8 07CA     		ldmia	r2, {r0, r1, r2}
 2737 10fa 83E80700 		stmia	r3, {r0, r1, r2}
1014:build/openmote-cc2538_armgcc/openapps/opencoap/opencoap.c ****     open_addr_t JRCaddress;
1015:build/openmote-cc2538_armgcc/openapps/opencoap/opencoap.c **** 
1016:build/openmote-cc2538_armgcc/openapps/opencoap/opencoap.c ****     // verify that Proxy Scheme is set to coap
1017:build/openmote-cc2538_armgcc/openapps/opencoap/opencoap.c ****     option_count = opencoap_find_option(incomingOptions, incomingOptionsLen, COAP_OPTION_NUM_PROXYS
 2738              		.loc 1 1017 0
 2739 10fe 07F13703 		add	r3, r7, #55
 2740 1102 F978     		ldrb	r1, [r7, #3]	@ zero_extendqisi2
 2741 1104 2722     		movs	r2, #39
 2742 1106 7868     		ldr	r0, [r7, #4]
 2743 1108 FFF7FEFF 		bl	opencoap_find_option
 2744 110c 0346     		mov	r3, r0
 2745 110e 87F88B30 		strb	r3, [r7, #139]
1018:build/openmote-cc2538_armgcc/openapps/opencoap/opencoap.c ****     if(option_count >= 1) {
 2746              		.loc 1 1018 0
 2747 1112 97F88B30 		ldrb	r3, [r7, #139]	@ zero_extendqisi2
 2748 1116 002B     		cmp	r3, #0
 2749 1118 07D0     		beq	.L169
1019:build/openmote-cc2538_armgcc/openapps/opencoap/opencoap.c ****       proxyScheme = &incomingOptions[option_index];
 2750              		.loc 1 1019 0
 2751 111a 97F83730 		ldrb	r3, [r7, #55]	@ zero_extendqisi2
 2752 111e DB00     		lsls	r3, r3, #3
 2753 1120 7A68     		ldr	r2, [r7, #4]
 2754 1122 1344     		add	r3, r3, r2
 2755 1124 C7F88C30 		str	r3, [r7, #140]
 2756 1128 02E0     		b	.L170
 2757              	.L169:
1020:build/openmote-cc2538_armgcc/openapps/opencoap/opencoap.c ****     } else {
1021:build/openmote-cc2538_armgcc/openapps/opencoap/opencoap.c ****       proxyScheme = NULL;
 2758              		.loc 1 1021 0
 2759 112a 0023     		movs	r3, #0
 2760 112c C7F88C30 		str	r3, [r7, #140]
 2761              	.L170:
1022:build/openmote-cc2538_armgcc/openapps/opencoap/opencoap.c ****     }
1023:build/openmote-cc2538_armgcc/openapps/opencoap/opencoap.c ****     if (memcmp(proxySchemeCoap, proxyScheme->pValue, sizeof(proxySchemeCoap)-1) != 0) {
 2762              		.loc 1 1023 0
 2763 1130 D7F88C30 		ldr	r3, [r7, #140]
 2764 1134 5968     		ldr	r1, [r3, #4]
 2765 1136 07F13003 		add	r3, r7, #48
 2766 113a 0422     		movs	r2, #4
 2767 113c 1846     		mov	r0, r3
 2768 113e FFF7FEFF 		bl	memcmp
 2769 1142 0346     		mov	r3, r0
 2770 1144 002B     		cmp	r3, #0
 2771 1146 40F0AA80 		bne	.L184
1024:build/openmote-cc2538_armgcc/openapps/opencoap/opencoap.c ****         return;
1025:build/openmote-cc2538_armgcc/openapps/opencoap/opencoap.c ****     }
1026:build/openmote-cc2538_armgcc/openapps/opencoap/opencoap.c **** 
1027:build/openmote-cc2538_armgcc/openapps/opencoap/opencoap.c ****     // verify that UriHost is set to "6tisch.arpa"
1028:build/openmote-cc2538_armgcc/openapps/opencoap/opencoap.c ****     option_count = opencoap_find_option(incomingOptions, incomingOptionsLen, COAP_OPTION_NUM_URIHOS
 2772              		.loc 1 1028 0
 2773 114a 07F13703 		add	r3, r7, #55
 2774 114e F978     		ldrb	r1, [r7, #3]	@ zero_extendqisi2
 2775 1150 0322     		movs	r2, #3
 2776 1152 7868     		ldr	r0, [r7, #4]
 2777 1154 FFF7FEFF 		bl	opencoap_find_option
 2778 1158 0346     		mov	r3, r0
 2779 115a 87F88B30 		strb	r3, [r7, #139]
1029:build/openmote-cc2538_armgcc/openapps/opencoap/opencoap.c ****     if(option_count >= 1) {
 2780              		.loc 1 1029 0
 2781 115e 97F88B30 		ldrb	r3, [r7, #139]	@ zero_extendqisi2
 2782 1162 002B     		cmp	r3, #0
 2783 1164 07D0     		beq	.L173
1030:build/openmote-cc2538_armgcc/openapps/opencoap/opencoap.c ****       uriHost = &incomingOptions[option_index];
 2784              		.loc 1 1030 0
 2785 1166 97F83730 		ldrb	r3, [r7, #55]	@ zero_extendqisi2
 2786 116a DB00     		lsls	r3, r3, #3
 2787 116c 7A68     		ldr	r2, [r7, #4]
 2788 116e 1344     		add	r3, r3, r2
 2789 1170 C7F89030 		str	r3, [r7, #144]
 2790 1174 02E0     		b	.L174
 2791              	.L173:
1031:build/openmote-cc2538_armgcc/openapps/opencoap/opencoap.c ****     } else {
1032:build/openmote-cc2538_armgcc/openapps/opencoap/opencoap.c ****       uriHost = NULL;
 2792              		.loc 1 1032 0
 2793 1176 0023     		movs	r3, #0
 2794 1178 C7F89030 		str	r3, [r7, #144]
 2795              	.L174:
1033:build/openmote-cc2538_armgcc/openapps/opencoap/opencoap.c ****     }
1034:build/openmote-cc2538_armgcc/openapps/opencoap/opencoap.c ****     if (uriHost) {
 2796              		.loc 1 1034 0
 2797 117c D7F89030 		ldr	r3, [r7, #144]
 2798 1180 002B     		cmp	r3, #0
 2799 1182 00F08E80 		beq	.L185
1035:build/openmote-cc2538_armgcc/openapps/opencoap/opencoap.c ****         if (memcmp(uriHost6tisch, uriHost->pValue, sizeof(uriHost6tisch)-1) != 0) {
 2800              		.loc 1 1035 0
 2801 1186 D7F89030 		ldr	r3, [r7, #144]
 2802 118a 5968     		ldr	r1, [r3, #4]
 2803 118c 07F12403 		add	r3, r7, #36
 2804 1190 0B22     		movs	r2, #11
 2805 1192 1846     		mov	r0, r3
 2806 1194 FFF7FEFF 		bl	memcmp
 2807 1198 0346     		mov	r3, r0
 2808 119a 002B     		cmp	r3, #0
 2809 119c 40F08380 		bne	.L186
1036:build/openmote-cc2538_armgcc/openapps/opencoap/opencoap.c ****             return;
1037:build/openmote-cc2538_armgcc/openapps/opencoap/opencoap.c ****         }
1038:build/openmote-cc2538_armgcc/openapps/opencoap/opencoap.c ****     }
1039:build/openmote-cc2538_armgcc/openapps/opencoap/opencoap.c ****     else {
1040:build/openmote-cc2538_armgcc/openapps/opencoap/opencoap.c ****         return;
1041:build/openmote-cc2538_armgcc/openapps/opencoap/opencoap.c ****     }
1042:build/openmote-cc2538_armgcc/openapps/opencoap/opencoap.c **** 
1043:build/openmote-cc2538_armgcc/openapps/opencoap/opencoap.c ****     outgoingOptionsLen = 0;
 2810              		.loc 1 1043 0
 2811 11a0 0023     		movs	r3, #0
 2812 11a2 87F89630 		strb	r3, [r7, #150]
1044:build/openmote-cc2538_armgcc/openapps/opencoap/opencoap.c **** 
1045:build/openmote-cc2538_armgcc/openapps/opencoap/opencoap.c ****     // process options
1046:build/openmote-cc2538_armgcc/openapps/opencoap/opencoap.c ****     for (i = 0; i < incomingOptionsLen; i++) {
 2813              		.loc 1 1046 0
 2814 11a6 0023     		movs	r3, #0
 2815 11a8 87F89730 		strb	r3, [r7, #151]
 2816 11ac 45E0     		b	.L177
 2817              	.L181:
1047:build/openmote-cc2538_armgcc/openapps/opencoap/opencoap.c ****         if (incomingOptions[i].type == COAP_OPTION_NUM_PROXYSCHEME ||
 2818              		.loc 1 1047 0
 2819 11ae 97F89730 		ldrb	r3, [r7, #151]	@ zero_extendqisi2
 2820 11b2 DB00     		lsls	r3, r3, #3
 2821 11b4 7A68     		ldr	r2, [r7, #4]
 2822 11b6 1344     		add	r3, r3, r2
 2823 11b8 1B78     		ldrb	r3, [r3]	@ zero_extendqisi2
 2824 11ba 272B     		cmp	r3, #39
 2825 11bc 37D0     		beq	.L187
1048:build/openmote-cc2538_armgcc/openapps/opencoap/opencoap.c ****                 incomingOptions[i].type == COAP_OPTION_NUM_URIHOST) {
 2826              		.loc 1 1048 0 discriminator 1
 2827 11be 97F89730 		ldrb	r3, [r7, #151]	@ zero_extendqisi2
 2828 11c2 DB00     		lsls	r3, r3, #3
 2829 11c4 7A68     		ldr	r2, [r7, #4]
 2830 11c6 1344     		add	r3, r3, r2
 2831 11c8 1B78     		ldrb	r3, [r3]	@ zero_extendqisi2
1047:build/openmote-cc2538_armgcc/openapps/opencoap/opencoap.c ****         if (incomingOptions[i].type == COAP_OPTION_NUM_PROXYSCHEME ||
 2832              		.loc 1 1047 0 discriminator 1
 2833 11ca 032B     		cmp	r3, #3
 2834 11cc 2FD0     		beq	.L187
1049:build/openmote-cc2538_armgcc/openapps/opencoap/opencoap.c ****             continue;
1050:build/openmote-cc2538_armgcc/openapps/opencoap/opencoap.c ****         }
1051:build/openmote-cc2538_armgcc/openapps/opencoap/opencoap.c ****         outgoingOptions[outgoingOptionsLen].type = incomingOptions[i].type;
 2835              		.loc 1 1051 0
 2836 11ce 97F89630 		ldrb	r3, [r7, #150]	@ zero_extendqisi2
 2837 11d2 97F89720 		ldrb	r2, [r7, #151]	@ zero_extendqisi2
 2838 11d6 D200     		lsls	r2, r2, #3
 2839 11d8 7968     		ldr	r1, [r7, #4]
 2840 11da 0A44     		add	r2, r2, r1
 2841 11dc 1278     		ldrb	r2, [r2]	@ zero_extendqisi2
 2842 11de DB00     		lsls	r3, r3, #3
 2843 11e0 07F19801 		add	r1, r7, #152
 2844 11e4 0B44     		add	r3, r3, r1
 2845 11e6 03F8602C 		strb	r2, [r3, #-96]
1052:build/openmote-cc2538_armgcc/openapps/opencoap/opencoap.c ****         outgoingOptions[outgoingOptionsLen].length = incomingOptions[i].length;
 2846              		.loc 1 1052 0
 2847 11ea 97F89630 		ldrb	r3, [r7, #150]	@ zero_extendqisi2
 2848 11ee 97F89720 		ldrb	r2, [r7, #151]	@ zero_extendqisi2
 2849 11f2 D200     		lsls	r2, r2, #3
 2850 11f4 7968     		ldr	r1, [r7, #4]
 2851 11f6 0A44     		add	r2, r2, r1
 2852 11f8 5278     		ldrb	r2, [r2, #1]	@ zero_extendqisi2
 2853 11fa DB00     		lsls	r3, r3, #3
 2854 11fc 07F19801 		add	r1, r7, #152
 2855 1200 0B44     		add	r3, r3, r1
 2856 1202 03F85F2C 		strb	r2, [r3, #-95]
1053:build/openmote-cc2538_armgcc/openapps/opencoap/opencoap.c ****         outgoingOptions[outgoingOptionsLen].pValue = incomingOptions[i].pValue;
 2857              		.loc 1 1053 0
 2858 1206 97F89630 		ldrb	r3, [r7, #150]	@ zero_extendqisi2
 2859 120a 97F89720 		ldrb	r2, [r7, #151]	@ zero_extendqisi2
 2860 120e D200     		lsls	r2, r2, #3
 2861 1210 7968     		ldr	r1, [r7, #4]
 2862 1212 0A44     		add	r2, r2, r1
 2863 1214 5268     		ldr	r2, [r2, #4]
 2864 1216 DB00     		lsls	r3, r3, #3
 2865 1218 07F19801 		add	r1, r7, #152
 2866 121c 0B44     		add	r3, r3, r1
 2867 121e 43F85C2C 		str	r2, [r3, #-92]
1054:build/openmote-cc2538_armgcc/openapps/opencoap/opencoap.c ****         outgoingOptionsLen++;
 2868              		.loc 1 1054 0
 2869 1222 97F89630 		ldrb	r3, [r7, #150]	@ zero_extendqisi2
 2870 1226 0133     		adds	r3, r3, #1
 2871 1228 87F89630 		strb	r3, [r7, #150]
 2872 122c 00E0     		b	.L180
 2873              	.L187:
1049:build/openmote-cc2538_armgcc/openapps/opencoap/opencoap.c ****         }
 2874              		.loc 1 1049 0
 2875 122e 00BF     		nop
 2876              	.L180:
1046:build/openmote-cc2538_armgcc/openapps/opencoap/opencoap.c ****         if (incomingOptions[i].type == COAP_OPTION_NUM_PROXYSCHEME ||
 2877              		.loc 1 1046 0 discriminator 2
 2878 1230 97F89730 		ldrb	r3, [r7, #151]	@ zero_extendqisi2
 2879 1234 0133     		adds	r3, r3, #1
 2880 1236 87F89730 		strb	r3, [r7, #151]
 2881              	.L177:
1046:build/openmote-cc2538_armgcc/openapps/opencoap/opencoap.c ****         if (incomingOptions[i].type == COAP_OPTION_NUM_PROXYSCHEME ||
 2882              		.loc 1 1046 0 is_stmt 0 discriminator 1
 2883 123a 97F89720 		ldrb	r2, [r7, #151]	@ zero_extendqisi2
 2884 123e FB78     		ldrb	r3, [r7, #3]	@ zero_extendqisi2
 2885 1240 9A42     		cmp	r2, r3
 2886 1242 B4D3     		bcc	.L181
1055:build/openmote-cc2538_armgcc/openapps/opencoap/opencoap.c ****     }
1056:build/openmote-cc2538_armgcc/openapps/opencoap/opencoap.c **** 
1057:build/openmote-cc2538_armgcc/openapps/opencoap/opencoap.c ****     opencoap_add_stateless_proxy_option(&outgoingOptions[outgoingOptionsLen++], 
 2887              		.loc 1 1057 0 is_stmt 1
 2888 1244 97F89630 		ldrb	r3, [r7, #150]	@ zero_extendqisi2
 2889 1248 5A1C     		adds	r2, r3, #1
 2890 124a 87F89620 		strb	r2, [r7, #150]
 2891 124e 07F13802 		add	r2, r7, #56
 2892 1252 DB00     		lsls	r3, r3, #3
 2893 1254 D018     		adds	r0, r2, r3
 2894 1256 FB68     		ldr	r3, [r7, #12]
 2895 1258 03F13301 		add	r1, r3, #51
 2896 125c FB68     		ldr	r3, [r7, #12]
 2897 125e 1B8A     		ldrh	r3, [r3, #16]
 2898 1260 0822     		movs	r2, #8
 2899 1262 FFF7FEFF 		bl	opencoap_add_stateless_proxy_option
1058:build/openmote-cc2538_armgcc/openapps/opencoap/opencoap.c ****         &msg->l3_sourceAdd.addr_128b[8],
1059:build/openmote-cc2538_armgcc/openapps/opencoap/opencoap.c ****         8, 
1060:build/openmote-cc2538_armgcc/openapps/opencoap/opencoap.c ****         msg->l4_sourcePortORicmpv6Type); 
1061:build/openmote-cc2538_armgcc/openapps/opencoap/opencoap.c **** 
1062:build/openmote-cc2538_armgcc/openapps/opencoap/opencoap.c ****     // the JRC is co-located with DAG root, get the address from RPL module
1063:build/openmote-cc2538_armgcc/openapps/opencoap/opencoap.c ****     JRCaddress.type = ADDR_128B;
 2900              		.loc 1 1063 0
 2901 1266 0323     		movs	r3, #3
 2902 1268 3B74     		strb	r3, [r7, #16]
1064:build/openmote-cc2538_armgcc/openapps/opencoap/opencoap.c ****     if (icmpv6rpl_getRPLDODAGid(JRCaddress.addr_128b) == E_SUCCESS) {
 2903              		.loc 1 1064 0
 2904 126a 07F11003 		add	r3, r7, #16
 2905 126e 0133     		adds	r3, r3, #1
 2906 1270 1846     		mov	r0, r3
 2907 1272 FFF7FEFF 		bl	icmpv6rpl_getRPLDODAGid
 2908 1276 0346     		mov	r3, r0
 2909 1278 002B     		cmp	r3, #0
 2910 127a 16D1     		bne	.L188
1065:build/openmote-cc2538_armgcc/openapps/opencoap/opencoap.c ****         opencoap_forward_message(msg, header, outgoingOptions, outgoingOptionsLen, &JRCaddress, WKP
 2911              		.loc 1 1065 0
 2912 127c 97F89610 		ldrb	r1, [r7, #150]	@ zero_extendqisi2
 2913 1280 07F13802 		add	r2, r7, #56
 2914 1284 41F23363 		movw	r3, #5683
 2915 1288 0193     		str	r3, [sp, #4]
 2916 128a 07F11003 		add	r3, r7, #16
 2917 128e 0093     		str	r3, [sp]
 2918 1290 0B46     		mov	r3, r1
 2919 1292 B968     		ldr	r1, [r7, #8]
 2920 1294 F868     		ldr	r0, [r7, #12]
 2921 1296 FFF7FEFF 		bl	opencoap_forward_message
1066:build/openmote-cc2538_armgcc/openapps/opencoap/opencoap.c ****     }
1067:build/openmote-cc2538_armgcc/openapps/opencoap/opencoap.c ****     return;
 2922              		.loc 1 1067 0
 2923 129a 00BF     		nop
 2924 129c 05E0     		b	.L188
 2925              	.L184:
1024:build/openmote-cc2538_armgcc/openapps/opencoap/opencoap.c ****     }
 2926              		.loc 1 1024 0
 2927 129e 00BF     		nop
 2928 12a0 04E0     		b	.L168
 2929              	.L185:
1040:build/openmote-cc2538_armgcc/openapps/opencoap/opencoap.c ****     }
 2930              		.loc 1 1040 0
 2931 12a2 00BF     		nop
 2932 12a4 02E0     		b	.L168
 2933              	.L186:
1036:build/openmote-cc2538_armgcc/openapps/opencoap/opencoap.c ****         }
 2934              		.loc 1 1036 0
 2935 12a6 00BF     		nop
 2936 12a8 00E0     		b	.L168
 2937              	.L188:
 2938              		.loc 1 1067 0
 2939 12aa 00BF     		nop
 2940              	.L168:
1068:build/openmote-cc2538_armgcc/openapps/opencoap/opencoap.c **** }
 2941              		.loc 1 1068 0
 2942 12ac 9837     		adds	r7, r7, #152
 2943              		.cfi_def_cfa_offset 8
 2944 12ae BD46     		mov	sp, r7
 2945              		.cfi_def_cfa_register 13
 2946              		@ sp needed
 2947 12b0 80BD     		pop	{r7, pc}
 2948              	.L190:
 2949 12b2 00BF     		.align	2
 2950              	.L189:
 2951 12b4 98000000 		.word	.LC0
 2952 12b8 A0000000 		.word	.LC1
 2953              		.cfi_endproc
 2954              	.LFE10:
 2956              		.align	2
 2957              		.global	opencoap_handle_stateless_proxy
 2958              		.thumb
 2959              		.thumb_func
 2961              	opencoap_handle_stateless_proxy:
 2962              	.LFB11:
1069:build/openmote-cc2538_armgcc/openapps/opencoap/opencoap.c **** 
1070:build/openmote-cc2538_armgcc/openapps/opencoap/opencoap.c **** void opencoap_handle_stateless_proxy(OpenQueueEntry_t *msg,
1071:build/openmote-cc2538_armgcc/openapps/opencoap/opencoap.c ****         coap_header_iht* header,
1072:build/openmote-cc2538_armgcc/openapps/opencoap/opencoap.c ****         coap_option_iht* incomingOptions, 
1073:build/openmote-cc2538_armgcc/openapps/opencoap/opencoap.c ****         uint8_t incomingOptionsLen) {
 2963              		.loc 1 1073 0
 2964              		.cfi_startproc
 2965              		@ args = 0, pretend = 0, frame = 168
 2966              		@ frame_needed = 1, uses_anonymous_args = 0
 2967 12bc 80B5     		push	{r7, lr}
 2968              		.cfi_def_cfa_offset 8
 2969              		.cfi_offset 7, -8
 2970              		.cfi_offset 14, -4
 2971 12be ACB0     		sub	sp, sp, #176
 2972              		.cfi_def_cfa_offset 184
 2973 12c0 02AF     		add	r7, sp, #8
 2974              		.cfi_def_cfa 7, 176
 2975 12c2 F860     		str	r0, [r7, #12]
 2976 12c4 B960     		str	r1, [r7, #8]
 2977 12c6 7A60     		str	r2, [r7, #4]
 2978 12c8 FB70     		strb	r3, [r7, #3]
1074:build/openmote-cc2538_armgcc/openapps/opencoap/opencoap.c ****     uint16_t portNumber;
1075:build/openmote-cc2538_armgcc/openapps/opencoap/opencoap.c ****     coap_option_iht* statelessProxy;
1076:build/openmote-cc2538_armgcc/openapps/opencoap/opencoap.c ****     uint8_t i;
1077:build/openmote-cc2538_armgcc/openapps/opencoap/opencoap.c ****     coap_option_iht outgoingOptions[MAX_COAP_OPTIONS];
1078:build/openmote-cc2538_armgcc/openapps/opencoap/opencoap.c ****     uint8_t outgoingOptionsLen;
1079:build/openmote-cc2538_armgcc/openapps/opencoap/opencoap.c ****     uint8_t                   option_count;
1080:build/openmote-cc2538_armgcc/openapps/opencoap/opencoap.c ****     uint8_t                   option_index;
1081:build/openmote-cc2538_armgcc/openapps/opencoap/opencoap.c ****     open_addr_t eui64;
1082:build/openmote-cc2538_armgcc/openapps/opencoap/opencoap.c ****     open_addr_t destIP;
1083:build/openmote-cc2538_armgcc/openapps/opencoap/opencoap.c ****     open_addr_t link_local_prefix;
1084:build/openmote-cc2538_armgcc/openapps/opencoap/opencoap.c **** 
1085:build/openmote-cc2538_armgcc/openapps/opencoap/opencoap.c ****     option_count = opencoap_find_option(incomingOptions, incomingOptionsLen, COAP_OPTION_NUM_STATEL
 2979              		.loc 1 1085 0
 2980 12ca 07F14B03 		add	r3, r7, #75
 2981 12ce F978     		ldrb	r1, [r7, #3]	@ zero_extendqisi2
 2982 12d0 2822     		movs	r2, #40
 2983 12d2 7868     		ldr	r0, [r7, #4]
 2984 12d4 FFF7FEFF 		bl	opencoap_find_option
 2985 12d8 0346     		mov	r3, r0
 2986 12da 87F89D30 		strb	r3, [r7, #157]
1086:build/openmote-cc2538_armgcc/openapps/opencoap/opencoap.c ****     if(option_count >= 1)
 2987              		.loc 1 1086 0
 2988 12de 97F89D30 		ldrb	r3, [r7, #157]	@ zero_extendqisi2
 2989 12e2 002B     		cmp	r3, #0
 2990 12e4 07D0     		beq	.L192
1087:build/openmote-cc2538_armgcc/openapps/opencoap/opencoap.c ****     {
1088:build/openmote-cc2538_armgcc/openapps/opencoap/opencoap.c ****       statelessProxy = &incomingOptions[option_index];
 2991              		.loc 1 1088 0
 2992 12e6 97F84B30 		ldrb	r3, [r7, #75]	@ zero_extendqisi2
 2993 12ea DB00     		lsls	r3, r3, #3
 2994 12ec 7A68     		ldr	r2, [r7, #4]
 2995 12ee 1344     		add	r3, r3, r2
 2996 12f0 C7F8A030 		str	r3, [r7, #160]
 2997 12f4 02E0     		b	.L193
 2998              	.L192:
1089:build/openmote-cc2538_armgcc/openapps/opencoap/opencoap.c ****     }
1090:build/openmote-cc2538_armgcc/openapps/opencoap/opencoap.c ****     else
1091:build/openmote-cc2538_armgcc/openapps/opencoap/opencoap.c ****     {
1092:build/openmote-cc2538_armgcc/openapps/opencoap/opencoap.c ****       statelessProxy = NULL;
 2999              		.loc 1 1092 0
 3000 12f6 0023     		movs	r3, #0
 3001 12f8 C7F8A030 		str	r3, [r7, #160]
 3002              	.L193:
1093:build/openmote-cc2538_armgcc/openapps/opencoap/opencoap.c ****     }
1094:build/openmote-cc2538_armgcc/openapps/opencoap/opencoap.c ****     if (statelessProxy == NULL) {    
 3003              		.loc 1 1094 0
 3004 12fc D7F8A030 		ldr	r3, [r7, #160]
 3005 1300 002B     		cmp	r3, #0
 3006 1302 00F09B80 		beq	.L205
1095:build/openmote-cc2538_armgcc/openapps/opencoap/opencoap.c ****         return;
1096:build/openmote-cc2538_armgcc/openapps/opencoap/opencoap.c ****     }
1097:build/openmote-cc2538_armgcc/openapps/opencoap/opencoap.c ****     // parse the value of Stateless Proxy
1098:build/openmote-cc2538_armgcc/openapps/opencoap/opencoap.c ****     if (statelessProxy->length < 8) {
 3007              		.loc 1 1098 0
 3008 1306 D7F8A030 		ldr	r3, [r7, #160]
 3009 130a 5B78     		ldrb	r3, [r3, #1]	@ zero_extendqisi2
 3010 130c 072B     		cmp	r3, #7
 3011 130e 40F29780 		bls	.L206
1099:build/openmote-cc2538_armgcc/openapps/opencoap/opencoap.c ****         return;
1100:build/openmote-cc2538_armgcc/openapps/opencoap/opencoap.c ****     }
1101:build/openmote-cc2538_armgcc/openapps/opencoap/opencoap.c ****     eui64.type = ADDR_64B;
 3012              		.loc 1 1101 0
 3013 1312 0223     		movs	r3, #2
 3014 1314 87F83830 		strb	r3, [r7, #56]
1102:build/openmote-cc2538_armgcc/openapps/opencoap/opencoap.c ****     memcpy(eui64.addr_64b, statelessProxy->pValue, 8);
 3015              		.loc 1 1102 0
 3016 1318 D7F8A030 		ldr	r3, [r7, #160]
 3017 131c 5A68     		ldr	r2, [r3, #4]
 3018 131e 07F13903 		add	r3, r7, #57
 3019 1322 1168     		ldr	r1, [r2]	@ unaligned
 3020 1324 5268     		ldr	r2, [r2, #4]	@ unaligned
 3021 1326 1960     		str	r1, [r3]	@ unaligned
 3022 1328 5A60     		str	r2, [r3, #4]	@ unaligned
1103:build/openmote-cc2538_armgcc/openapps/opencoap/opencoap.c **** 
1104:build/openmote-cc2538_armgcc/openapps/opencoap/opencoap.c ****     // use link-local prefix to forward the response
1105:build/openmote-cc2538_armgcc/openapps/opencoap/opencoap.c ****     memset(&link_local_prefix, 0x00, sizeof(open_addr_t));
 3023              		.loc 1 1105 0
 3024 132a 07F11003 		add	r3, r7, #16
 3025 132e 1122     		movs	r2, #17
 3026 1330 0021     		movs	r1, #0
 3027 1332 1846     		mov	r0, r3
 3028 1334 FFF7FEFF 		bl	memset
1106:build/openmote-cc2538_armgcc/openapps/opencoap/opencoap.c ****     link_local_prefix.type = ADDR_PREFIX;
 3029              		.loc 1 1106 0
 3030 1338 0523     		movs	r3, #5
 3031 133a 3B74     		strb	r3, [r7, #16]
1107:build/openmote-cc2538_armgcc/openapps/opencoap/opencoap.c ****     link_local_prefix.prefix[0] = 0xfe;
 3032              		.loc 1 1107 0
 3033 133c FE23     		movs	r3, #254
 3034 133e 7B74     		strb	r3, [r7, #17]
1108:build/openmote-cc2538_armgcc/openapps/opencoap/opencoap.c ****     link_local_prefix.prefix[1] = 0x80;
 3035              		.loc 1 1108 0
 3036 1340 8023     		movs	r3, #128
 3037 1342 BB74     		strb	r3, [r7, #18]
1109:build/openmote-cc2538_armgcc/openapps/opencoap/opencoap.c **** 
1110:build/openmote-cc2538_armgcc/openapps/opencoap/opencoap.c ****     packetfunctions_mac64bToIp128b(&link_local_prefix, &eui64, &destIP);
 3038              		.loc 1 1110 0
 3039 1344 07F12402 		add	r2, r7, #36
 3040 1348 07F13801 		add	r1, r7, #56
 3041 134c 07F11003 		add	r3, r7, #16
 3042 1350 1846     		mov	r0, r3
 3043 1352 FFF7FEFF 		bl	packetfunctions_mac64bToIp128b
1111:build/openmote-cc2538_armgcc/openapps/opencoap/opencoap.c **** 
1112:build/openmote-cc2538_armgcc/openapps/opencoap/opencoap.c ****     if (statelessProxy->length == 10) {
 3044              		.loc 1 1112 0
 3045 1356 D7F8A030 		ldr	r3, [r7, #160]
 3046 135a 5B78     		ldrb	r3, [r3, #1]	@ zero_extendqisi2
 3047 135c 0A2B     		cmp	r3, #10
 3048 135e 0AD1     		bne	.L197
1113:build/openmote-cc2538_armgcc/openapps/opencoap/opencoap.c ****         portNumber = packetfunctions_ntohs(&statelessProxy->pValue[8]);
 3049              		.loc 1 1113 0
 3050 1360 D7F8A030 		ldr	r3, [r7, #160]
 3051 1364 5B68     		ldr	r3, [r3, #4]
 3052 1366 0833     		adds	r3, r3, #8
 3053 1368 1846     		mov	r0, r3
 3054 136a FFF7FEFF 		bl	packetfunctions_ntohs
 3055 136e 0346     		mov	r3, r0
 3056 1370 A7F8A630 		strh	r3, [r7, #166]	@ movhi
 3057 1374 08E0     		b	.L198
 3058              	.L197:
1114:build/openmote-cc2538_armgcc/openapps/opencoap/opencoap.c ****     }
1115:build/openmote-cc2538_armgcc/openapps/opencoap/opencoap.c ****     else if (statelessProxy->length == 8) {
 3059              		.loc 1 1115 0
 3060 1376 D7F8A030 		ldr	r3, [r7, #160]
 3061 137a 5B78     		ldrb	r3, [r3, #1]	@ zero_extendqisi2
 3062 137c 082B     		cmp	r3, #8
 3063 137e 61D1     		bne	.L207
1116:build/openmote-cc2538_armgcc/openapps/opencoap/opencoap.c ****         portNumber = WKP_UDP_COAP;
 3064              		.loc 1 1116 0
 3065 1380 41F23363 		movw	r3, #5683
 3066 1384 A7F8A630 		strh	r3, [r7, #166]	@ movhi
 3067              	.L198:
1117:build/openmote-cc2538_armgcc/openapps/opencoap/opencoap.c ****     }
1118:build/openmote-cc2538_armgcc/openapps/opencoap/opencoap.c ****     else {
1119:build/openmote-cc2538_armgcc/openapps/opencoap/opencoap.c ****         // unsupported
1120:build/openmote-cc2538_armgcc/openapps/opencoap/opencoap.c ****         return;
1121:build/openmote-cc2538_armgcc/openapps/opencoap/opencoap.c ****     }
1122:build/openmote-cc2538_armgcc/openapps/opencoap/opencoap.c **** 
1123:build/openmote-cc2538_armgcc/openapps/opencoap/opencoap.c ****     outgoingOptionsLen = 0;
 3068              		.loc 1 1123 0
 3069 1388 0023     		movs	r3, #0
 3070 138a 87F89E30 		strb	r3, [r7, #158]
1124:build/openmote-cc2538_armgcc/openapps/opencoap/opencoap.c ****  
1125:build/openmote-cc2538_armgcc/openapps/opencoap/opencoap.c ****     // process options
1126:build/openmote-cc2538_armgcc/openapps/opencoap/opencoap.c ****     for (i = 0; i < incomingOptionsLen; i++) {
 3071              		.loc 1 1126 0
 3072 138e 0023     		movs	r3, #0
 3073 1390 87F89F30 		strb	r3, [r7, #159]
 3074 1394 3DE0     		b	.L200
 3075              	.L203:
1127:build/openmote-cc2538_armgcc/openapps/opencoap/opencoap.c ****         if (incomingOptions[i].type == COAP_OPTION_NUM_STATELESSPROXY) {
 3076              		.loc 1 1127 0
 3077 1396 97F89F30 		ldrb	r3, [r7, #159]	@ zero_extendqisi2
 3078 139a DB00     		lsls	r3, r3, #3
 3079 139c 7A68     		ldr	r2, [r7, #4]
 3080 139e 1344     		add	r3, r3, r2
 3081 13a0 1B78     		ldrb	r3, [r3]	@ zero_extendqisi2
 3082 13a2 282B     		cmp	r3, #40
 3083 13a4 2FD0     		beq	.L208
1128:build/openmote-cc2538_armgcc/openapps/opencoap/opencoap.c ****             continue;
1129:build/openmote-cc2538_armgcc/openapps/opencoap/opencoap.c ****         }
1130:build/openmote-cc2538_armgcc/openapps/opencoap/opencoap.c ****         outgoingOptions[outgoingOptionsLen].type = incomingOptions[i].type;
 3084              		.loc 1 1130 0
 3085 13a6 97F89E30 		ldrb	r3, [r7, #158]	@ zero_extendqisi2
 3086 13aa 97F89F20 		ldrb	r2, [r7, #159]	@ zero_extendqisi2
 3087 13ae D200     		lsls	r2, r2, #3
 3088 13b0 7968     		ldr	r1, [r7, #4]
 3089 13b2 0A44     		add	r2, r2, r1
 3090 13b4 1278     		ldrb	r2, [r2]	@ zero_extendqisi2
 3091 13b6 DB00     		lsls	r3, r3, #3
 3092 13b8 07F1A801 		add	r1, r7, #168
 3093 13bc 0B44     		add	r3, r3, r1
 3094 13be 03F85C2C 		strb	r2, [r3, #-92]
1131:build/openmote-cc2538_armgcc/openapps/opencoap/opencoap.c ****         outgoingOptions[outgoingOptionsLen].length = incomingOptions[i].length;
 3095              		.loc 1 1131 0
 3096 13c2 97F89E30 		ldrb	r3, [r7, #158]	@ zero_extendqisi2
 3097 13c6 97F89F20 		ldrb	r2, [r7, #159]	@ zero_extendqisi2
 3098 13ca D200     		lsls	r2, r2, #3
 3099 13cc 7968     		ldr	r1, [r7, #4]
 3100 13ce 0A44     		add	r2, r2, r1
 3101 13d0 5278     		ldrb	r2, [r2, #1]	@ zero_extendqisi2
 3102 13d2 DB00     		lsls	r3, r3, #3
 3103 13d4 07F1A801 		add	r1, r7, #168
 3104 13d8 0B44     		add	r3, r3, r1
 3105 13da 03F85B2C 		strb	r2, [r3, #-91]
1132:build/openmote-cc2538_armgcc/openapps/opencoap/opencoap.c ****         outgoingOptions[outgoingOptionsLen].pValue = incomingOptions[i].pValue;
 3106              		.loc 1 1132 0
 3107 13de 97F89E30 		ldrb	r3, [r7, #158]	@ zero_extendqisi2
 3108 13e2 97F89F20 		ldrb	r2, [r7, #159]	@ zero_extendqisi2
 3109 13e6 D200     		lsls	r2, r2, #3
 3110 13e8 7968     		ldr	r1, [r7, #4]
 3111 13ea 0A44     		add	r2, r2, r1
 3112 13ec 5268     		ldr	r2, [r2, #4]
 3113 13ee DB00     		lsls	r3, r3, #3
 3114 13f0 07F1A801 		add	r1, r7, #168
 3115 13f4 0B44     		add	r3, r3, r1
 3116 13f6 43F8582C 		str	r2, [r3, #-88]
1133:build/openmote-cc2538_armgcc/openapps/opencoap/opencoap.c ****         outgoingOptionsLen++;
 3117              		.loc 1 1133 0
 3118 13fa 97F89E30 		ldrb	r3, [r7, #158]	@ zero_extendqisi2
 3119 13fe 0133     		adds	r3, r3, #1
 3120 1400 87F89E30 		strb	r3, [r7, #158]
 3121 1404 00E0     		b	.L202
 3122              	.L208:
1128:build/openmote-cc2538_armgcc/openapps/opencoap/opencoap.c ****         }
 3123              		.loc 1 1128 0
 3124 1406 00BF     		nop
 3125              	.L202:
1126:build/openmote-cc2538_armgcc/openapps/opencoap/opencoap.c ****         if (incomingOptions[i].type == COAP_OPTION_NUM_STATELESSPROXY) {
 3126              		.loc 1 1126 0 discriminator 2
 3127 1408 97F89F30 		ldrb	r3, [r7, #159]	@ zero_extendqisi2
 3128 140c 0133     		adds	r3, r3, #1
 3129 140e 87F89F30 		strb	r3, [r7, #159]
 3130              	.L200:
1126:build/openmote-cc2538_armgcc/openapps/opencoap/opencoap.c ****         if (incomingOptions[i].type == COAP_OPTION_NUM_STATELESSPROXY) {
 3131              		.loc 1 1126 0 is_stmt 0 discriminator 1
 3132 1412 97F89F20 		ldrb	r2, [r7, #159]	@ zero_extendqisi2
 3133 1416 FB78     		ldrb	r3, [r7, #3]	@ zero_extendqisi2
 3134 1418 9A42     		cmp	r2, r3
 3135 141a BCD3     		bcc	.L203
1134:build/openmote-cc2538_armgcc/openapps/opencoap/opencoap.c ****     }
1135:build/openmote-cc2538_armgcc/openapps/opencoap/opencoap.c **** 
1136:build/openmote-cc2538_armgcc/openapps/opencoap/opencoap.c ****     opencoap_forward_message(msg, header, outgoingOptions, outgoingOptionsLen, &destIP, portNumber)
 3136              		.loc 1 1136 0 is_stmt 1
 3137 141c 97F89E10 		ldrb	r1, [r7, #158]	@ zero_extendqisi2
 3138 1420 07F14C02 		add	r2, r7, #76
 3139 1424 B7F8A630 		ldrh	r3, [r7, #166]
 3140 1428 0193     		str	r3, [sp, #4]
 3141 142a 07F12403 		add	r3, r7, #36
 3142 142e 0093     		str	r3, [sp]
 3143 1430 0B46     		mov	r3, r1
 3144 1432 B968     		ldr	r1, [r7, #8]
 3145 1434 F868     		ldr	r0, [r7, #12]
 3146 1436 FFF7FEFF 		bl	opencoap_forward_message
 3147 143a 04E0     		b	.L191
 3148              	.L205:
1095:build/openmote-cc2538_armgcc/openapps/opencoap/opencoap.c ****     }
 3149              		.loc 1 1095 0
 3150 143c 00BF     		nop
 3151 143e 02E0     		b	.L191
 3152              	.L206:
1099:build/openmote-cc2538_armgcc/openapps/opencoap/opencoap.c ****     }
 3153              		.loc 1 1099 0
 3154 1440 00BF     		nop
 3155 1442 00E0     		b	.L191
 3156              	.L207:
1120:build/openmote-cc2538_armgcc/openapps/opencoap/opencoap.c ****     }
 3157              		.loc 1 1120 0
 3158 1444 00BF     		nop
 3159              	.L191:
1137:build/openmote-cc2538_armgcc/openapps/opencoap/opencoap.c **** }
 3160              		.loc 1 1137 0
 3161 1446 A837     		adds	r7, r7, #168
 3162              		.cfi_def_cfa_offset 8
 3163 1448 BD46     		mov	sp, r7
 3164              		.cfi_def_cfa_register 13
 3165              		@ sp needed
 3166 144a 80BD     		pop	{r7, pc}
 3167              		.cfi_endproc
 3168              	.LFE11:
 3170              		.align	2
 3171              		.global	opencoap_header_encode
 3172              		.thumb
 3173              		.thumb_func
 3175              	opencoap_header_encode:
 3176              	.LFB12:
1138:build/openmote-cc2538_armgcc/openapps/opencoap/opencoap.c **** 
1139:build/openmote-cc2538_armgcc/openapps/opencoap/opencoap.c **** void opencoap_header_encode(OpenQueueEntry_t *msg, 
1140:build/openmote-cc2538_armgcc/openapps/opencoap/opencoap.c ****         uint8_t version, 
1141:build/openmote-cc2538_armgcc/openapps/opencoap/opencoap.c ****         coap_type_t type, 
1142:build/openmote-cc2538_armgcc/openapps/opencoap/opencoap.c ****         uint8_t TKL, 
1143:build/openmote-cc2538_armgcc/openapps/opencoap/opencoap.c ****         coap_code_t code, 
1144:build/openmote-cc2538_armgcc/openapps/opencoap/opencoap.c ****         uint16_t messageID, 
1145:build/openmote-cc2538_armgcc/openapps/opencoap/opencoap.c ****         uint8_t *token) {
 3177              		.loc 1 1145 0
 3178              		.cfi_startproc
 3179              		@ args = 12, pretend = 0, frame = 8
 3180              		@ frame_needed = 1, uses_anonymous_args = 0
 3181 144c 80B5     		push	{r7, lr}
 3182              		.cfi_def_cfa_offset 8
 3183              		.cfi_offset 7, -8
 3184              		.cfi_offset 14, -4
 3185 144e 82B0     		sub	sp, sp, #8
 3186              		.cfi_def_cfa_offset 16
 3187 1450 00AF     		add	r7, sp, #0
 3188              		.cfi_def_cfa_register 7
 3189 1452 7860     		str	r0, [r7, #4]
 3190 1454 0846     		mov	r0, r1
 3191 1456 1146     		mov	r1, r2
 3192 1458 1A46     		mov	r2, r3
 3193 145a 0346     		mov	r3, r0
 3194 145c FB70     		strb	r3, [r7, #3]
 3195 145e 0B46     		mov	r3, r1
 3196 1460 BB70     		strb	r3, [r7, #2]
 3197 1462 1346     		mov	r3, r2
 3198 1464 7B70     		strb	r3, [r7, #1]
1146:build/openmote-cc2538_armgcc/openapps/opencoap/opencoap.c ****    // pre-pend CoAP header (version,type,TKL,code,messageID,Token)
1147:build/openmote-cc2538_armgcc/openapps/opencoap/opencoap.c ****    packetfunctions_reserveHeaderSize(msg,4+TKL);
 3199              		.loc 1 1147 0
 3200 1466 7B78     		ldrb	r3, [r7, #1]
 3201 1468 0433     		adds	r3, r3, #4
 3202 146a DBB2     		uxtb	r3, r3
 3203 146c 1946     		mov	r1, r3
 3204 146e 7868     		ldr	r0, [r7, #4]
 3205 1470 FFF7FEFF 		bl	packetfunctions_reserveHeaderSize
1148:build/openmote-cc2538_armgcc/openapps/opencoap/opencoap.c ****    msg->payload[0]                  = (version        << 6) |
 3206              		.loc 1 1148 0
 3207 1474 7B68     		ldr	r3, [r7, #4]
 3208 1476 5B68     		ldr	r3, [r3, #4]
 3209 1478 FA78     		ldrb	r2, [r7, #3]	@ zero_extendqisi2
 3210 147a 9201     		lsls	r2, r2, #6
 3211 147c 51B2     		sxtb	r1, r2
1149:build/openmote-cc2538_armgcc/openapps/opencoap/opencoap.c ****                                       (type           << 4) |
 3212              		.loc 1 1149 0
 3213 147e BA78     		ldrb	r2, [r7, #2]	@ zero_extendqisi2
 3214 1480 1201     		lsls	r2, r2, #4
1148:build/openmote-cc2538_armgcc/openapps/opencoap/opencoap.c ****    msg->payload[0]                  = (version        << 6) |
 3215              		.loc 1 1148 0
 3216 1482 52B2     		sxtb	r2, r2
 3217 1484 0A43     		orrs	r2, r2, r1
 3218 1486 51B2     		sxtb	r1, r2
 3219 1488 97F90120 		ldrsb	r2, [r7, #1]
 3220 148c 0A43     		orrs	r2, r2, r1
 3221 148e 52B2     		sxtb	r2, r2
 3222 1490 D2B2     		uxtb	r2, r2
 3223 1492 1A70     		strb	r2, [r3]
1150:build/openmote-cc2538_armgcc/openapps/opencoap/opencoap.c ****                                       (TKL            << 0);
1151:build/openmote-cc2538_armgcc/openapps/opencoap/opencoap.c ****    msg->payload[1]                  = code;
 3224              		.loc 1 1151 0
 3225 1494 7B68     		ldr	r3, [r7, #4]
 3226 1496 5B68     		ldr	r3, [r3, #4]
 3227 1498 0133     		adds	r3, r3, #1
 3228 149a 3A7C     		ldrb	r2, [r7, #16]
 3229 149c 1A70     		strb	r2, [r3]
1152:build/openmote-cc2538_armgcc/openapps/opencoap/opencoap.c ****    msg->payload[2]                  = (messageID>>8) & 0xff;
 3230              		.loc 1 1152 0
 3231 149e 7B68     		ldr	r3, [r7, #4]
 3232 14a0 5B68     		ldr	r3, [r3, #4]
 3233 14a2 0233     		adds	r3, r3, #2
 3234 14a4 BA8A     		ldrh	r2, [r7, #20]
 3235 14a6 120A     		lsrs	r2, r2, #8
 3236 14a8 92B2     		uxth	r2, r2
 3237 14aa D2B2     		uxtb	r2, r2
 3238 14ac 1A70     		strb	r2, [r3]
1153:build/openmote-cc2538_armgcc/openapps/opencoap/opencoap.c ****    msg->payload[3]                  = (messageID>>0) & 0xff;
 3239              		.loc 1 1153 0
 3240 14ae 7B68     		ldr	r3, [r7, #4]
 3241 14b0 5B68     		ldr	r3, [r3, #4]
 3242 14b2 0333     		adds	r3, r3, #3
 3243 14b4 BA8A     		ldrh	r2, [r7, #20]	@ movhi
 3244 14b6 D2B2     		uxtb	r2, r2
 3245 14b8 1A70     		strb	r2, [r3]
1154:build/openmote-cc2538_armgcc/openapps/opencoap/opencoap.c **** 
1155:build/openmote-cc2538_armgcc/openapps/opencoap/opencoap.c ****    memcpy(&msg->payload[4],token,TKL);
 3246              		.loc 1 1155 0
 3247 14ba 7B68     		ldr	r3, [r7, #4]
 3248 14bc 5B68     		ldr	r3, [r3, #4]
 3249 14be 0433     		adds	r3, r3, #4
 3250 14c0 7A78     		ldrb	r2, [r7, #1]	@ zero_extendqisi2
 3251 14c2 B969     		ldr	r1, [r7, #24]
 3252 14c4 1846     		mov	r0, r3
 3253 14c6 FFF7FEFF 		bl	memcpy
1156:build/openmote-cc2538_armgcc/openapps/opencoap/opencoap.c **** }
 3254              		.loc 1 1156 0
 3255 14ca 00BF     		nop
 3256 14cc 0837     		adds	r7, r7, #8
 3257              		.cfi_def_cfa_offset 8
 3258 14ce BD46     		mov	sp, r7
 3259              		.cfi_def_cfa_register 13
 3260              		@ sp needed
 3261 14d0 80BD     		pop	{r7, pc}
 3262              		.cfi_endproc
 3263              	.LFE12:
 3265 14d2 00BF     		.align	2
 3266              		.global	opencoap_add_stateless_proxy_option
 3267              		.thumb
 3268              		.thumb_func
 3270              	opencoap_add_stateless_proxy_option:
 3271              	.LFB13:
1157:build/openmote-cc2538_armgcc/openapps/opencoap/opencoap.c **** 
1158:build/openmote-cc2538_armgcc/openapps/opencoap/opencoap.c **** void opencoap_add_stateless_proxy_option(coap_option_iht* option, 
1159:build/openmote-cc2538_armgcc/openapps/opencoap/opencoap.c ****         uint8_t* address, 
1160:build/openmote-cc2538_armgcc/openapps/opencoap/opencoap.c ****         uint8_t addressLen, 
1161:build/openmote-cc2538_armgcc/openapps/opencoap/opencoap.c ****         uint16_t portNumber) {
 3272              		.loc 1 1161 0
 3273              		.cfi_startproc
 3274              		@ args = 0, pretend = 0, frame = 24
 3275              		@ frame_needed = 1, uses_anonymous_args = 0
 3276 14d4 80B5     		push	{r7, lr}
 3277              		.cfi_def_cfa_offset 8
 3278              		.cfi_offset 7, -8
 3279              		.cfi_offset 14, -4
 3280 14d6 86B0     		sub	sp, sp, #24
 3281              		.cfi_def_cfa_offset 32
 3282 14d8 00AF     		add	r7, sp, #0
 3283              		.cfi_def_cfa_register 7
 3284 14da F860     		str	r0, [r7, #12]
 3285 14dc B960     		str	r1, [r7, #8]
 3286 14de 1146     		mov	r1, r2
 3287 14e0 1A46     		mov	r2, r3
 3288 14e2 0B46     		mov	r3, r1
 3289 14e4 FB71     		strb	r3, [r7, #7]
 3290 14e6 1346     		mov	r3, r2	@ movhi
 3291 14e8 BB80     		strh	r3, [r7, #4]	@ movhi
1162:build/openmote-cc2538_armgcc/openapps/opencoap/opencoap.c ****     uint8_t len;
1163:build/openmote-cc2538_armgcc/openapps/opencoap/opencoap.c **** 
1164:build/openmote-cc2538_armgcc/openapps/opencoap/opencoap.c ****     // FIXME due to the lack of space in the 802.15.4 frame
1165:build/openmote-cc2538_armgcc/openapps/opencoap/opencoap.c ****     // we do not encrypt and authenticate the Stateless-Proxy state
1166:build/openmote-cc2538_armgcc/openapps/opencoap/opencoap.c ****     
1167:build/openmote-cc2538_armgcc/openapps/opencoap/opencoap.c ****     len = 0;
 3292              		.loc 1 1167 0
 3293 14ea 0023     		movs	r3, #0
 3294 14ec FB75     		strb	r3, [r7, #23]
1168:build/openmote-cc2538_armgcc/openapps/opencoap/opencoap.c ****     
1169:build/openmote-cc2538_armgcc/openapps/opencoap/opencoap.c ****     // next bytes are address
