   1              		.syntax unified
   2              		.cpu cortex-m3
   3              		.fpu softvfp
   4              		.eabi_attribute 20, 1
   5              		.eabi_attribute 21, 1
   6              		.eabi_attribute 23, 3
   7              		.eabi_attribute 24, 1
   8              		.eabi_attribute 25, 1
   9              		.eabi_attribute 26, 1
  10              		.eabi_attribute 30, 6
  11              		.eabi_attribute 34, 1
  12              		.eabi_attribute 18, 4
  13              		.thumb
  14              		.syntax unified
  15              		.file	"packetfunctions.c"
  16              		.text
  17              	.Ltext0:
  18              		.cfi_sections	.debug_frame
  19              		.section	.rodata
  20              		.align	2
  23              	rreg_uriquery:
  24 0000 683D7563 		.ascii	"h=ucb\000"
  24      6200
  25 0006 0000     		.align	2
  28              	infoBoardname:
  29 0008 43433235 		.ascii	"CC2538\000"
  29      333800
  30 000f 00       		.align	2
  33              	infouCName:
  34 0010 43433235 		.ascii	"CC2538\000"
  34      333800
  35 0017 00       		.align	2
  38              	infoRadioName:
  39 0018 43433235 		.ascii	"CC2538 SoC\000"
  39      33382053 
  39      6F4300
  40 0023 00       		.align	2
  43              	infoStackName:
  44 0024 4F70656E 		.ascii	"OpenWSN \000"
  44      57534E20 
  44      00
  45 002d 000000   		.align	2
  48              	linklocalprefix:
  49 0030 FE       		.byte	-2
  50 0031 80       		.byte	-128
  51 0032 00       		.byte	0
  52 0033 00       		.byte	0
  53 0034 00       		.byte	0
  54 0035 00       		.byte	0
  55 0036 00       		.byte	0
  56 0037 00       		.byte	0
  57              		.text
  58              		.align	2
  59              		.global	packetfunctions_ip128bToMac64b
  60              		.thumb
  61              		.thumb_func
  63              	packetfunctions_ip128bToMac64b:
  64              	.LFB0:
  65              		.file 1 "build/openmote-cc2538_armgcc/openstack/cross-layers/packetfunctions.c"
   1:build/openmote-cc2538_armgcc/openstack/cross-layers/packetfunctions.c **** #include "packetfunctions.h"
   2:build/openmote-cc2538_armgcc/openstack/cross-layers/packetfunctions.c **** #include "openserial.h"
   3:build/openmote-cc2538_armgcc/openstack/cross-layers/packetfunctions.c **** #include "idmanager.h"
   4:build/openmote-cc2538_armgcc/openstack/cross-layers/packetfunctions.c **** 
   5:build/openmote-cc2538_armgcc/openstack/cross-layers/packetfunctions.c **** //=========================== variables =======================================
   6:build/openmote-cc2538_armgcc/openstack/cross-layers/packetfunctions.c **** 
   7:build/openmote-cc2538_armgcc/openstack/cross-layers/packetfunctions.c **** //=========================== prototypes ======================================
   8:build/openmote-cc2538_armgcc/openstack/cross-layers/packetfunctions.c **** 
   9:build/openmote-cc2538_armgcc/openstack/cross-layers/packetfunctions.c **** void onesComplementSum(uint8_t* global_sum, uint8_t* ptr, int length);
  10:build/openmote-cc2538_armgcc/openstack/cross-layers/packetfunctions.c **** 
  11:build/openmote-cc2538_armgcc/openstack/cross-layers/packetfunctions.c **** //=========================== public ==========================================
  12:build/openmote-cc2538_armgcc/openstack/cross-layers/packetfunctions.c **** 
  13:build/openmote-cc2538_armgcc/openstack/cross-layers/packetfunctions.c **** //======= address translation
  14:build/openmote-cc2538_armgcc/openstack/cross-layers/packetfunctions.c **** 
  15:build/openmote-cc2538_armgcc/openstack/cross-layers/packetfunctions.c **** //assuming an ip128b is a concatenation of prefix64b followed by a mac64b
  16:build/openmote-cc2538_armgcc/openstack/cross-layers/packetfunctions.c **** void packetfunctions_ip128bToMac64b(
  17:build/openmote-cc2538_armgcc/openstack/cross-layers/packetfunctions.c ****       open_addr_t* ip128b,
  18:build/openmote-cc2538_armgcc/openstack/cross-layers/packetfunctions.c ****       open_addr_t* prefix64btoWrite,
  19:build/openmote-cc2538_armgcc/openstack/cross-layers/packetfunctions.c ****       open_addr_t* mac64btoWrite) {
  66              		.loc 1 19 0
  67              		.cfi_startproc
  68              		@ args = 0, pretend = 0, frame = 16
  69              		@ frame_needed = 1, uses_anonymous_args = 0
  70 0000 80B5     		push	{r7, lr}
  71              		.cfi_def_cfa_offset 8
  72              		.cfi_offset 7, -8
  73              		.cfi_offset 14, -4
  74 0002 84B0     		sub	sp, sp, #16
  75              		.cfi_def_cfa_offset 24
  76 0004 00AF     		add	r7, sp, #0
  77              		.cfi_def_cfa_register 7
  78 0006 F860     		str	r0, [r7, #12]
  79 0008 B960     		str	r1, [r7, #8]
  80 000a 7A60     		str	r2, [r7, #4]
  20:build/openmote-cc2538_armgcc/openstack/cross-layers/packetfunctions.c ****    if (ip128b->type!=ADDR_128B) {
  81              		.loc 1 20 0
  82 000c FB68     		ldr	r3, [r7, #12]
  83 000e 1B78     		ldrb	r3, [r3]	@ zero_extendqisi2
  84 0010 032B     		cmp	r3, #3
  85 0012 0BD0     		beq	.L2
  21:build/openmote-cc2538_armgcc/openstack/cross-layers/packetfunctions.c ****       openserial_printCritical(COMPONENT_PACKETFUNCTIONS,ERR_WRONG_ADDR_TYPE,
  22:build/openmote-cc2538_armgcc/openstack/cross-layers/packetfunctions.c ****                             (errorparameter_t)ip128b->type,
  86              		.loc 1 22 0
  87 0014 FB68     		ldr	r3, [r7, #12]
  88 0016 1B78     		ldrb	r3, [r3]	@ zero_extendqisi2
  21:build/openmote-cc2538_armgcc/openstack/cross-layers/packetfunctions.c ****       openserial_printCritical(COMPONENT_PACKETFUNCTIONS,ERR_WRONG_ADDR_TYPE,
  89              		.loc 1 21 0
  90 0018 9AB2     		uxth	r2, r3
  91 001a 0023     		movs	r3, #0
  92 001c 3121     		movs	r1, #49
  93 001e 0520     		movs	r0, #5
  94 0020 FFF7FEFF 		bl	openserial_printCritical
  23:build/openmote-cc2538_armgcc/openstack/cross-layers/packetfunctions.c ****                             (errorparameter_t)0);
  24:build/openmote-cc2538_armgcc/openstack/cross-layers/packetfunctions.c ****       mac64btoWrite->type=ADDR_NONE;
  95              		.loc 1 24 0
  96 0024 7B68     		ldr	r3, [r7, #4]
  97 0026 0022     		movs	r2, #0
  98 0028 1A70     		strb	r2, [r3]
  25:build/openmote-cc2538_armgcc/openstack/cross-layers/packetfunctions.c ****       return;
  99              		.loc 1 25 0
 100 002a 15E0     		b	.L1
 101              	.L2:
  26:build/openmote-cc2538_armgcc/openstack/cross-layers/packetfunctions.c ****    }
  27:build/openmote-cc2538_armgcc/openstack/cross-layers/packetfunctions.c ****    prefix64btoWrite->type=ADDR_PREFIX;
 102              		.loc 1 27 0
 103 002c BB68     		ldr	r3, [r7, #8]
 104 002e 0522     		movs	r2, #5
 105 0030 1A70     		strb	r2, [r3]
  28:build/openmote-cc2538_armgcc/openstack/cross-layers/packetfunctions.c ****    memcpy(prefix64btoWrite->prefix, &(ip128b->addr_128b[0]), 8);
 106              		.loc 1 28 0
 107 0032 BB68     		ldr	r3, [r7, #8]
 108 0034 581C     		adds	r0, r3, #1
 109 0036 FB68     		ldr	r3, [r7, #12]
 110 0038 0133     		adds	r3, r3, #1
 111 003a 0822     		movs	r2, #8
 112 003c 1946     		mov	r1, r3
 113 003e FFF7FEFF 		bl	memcpy
  29:build/openmote-cc2538_armgcc/openstack/cross-layers/packetfunctions.c ****    mac64btoWrite->type=ADDR_64B;
 114              		.loc 1 29 0
 115 0042 7B68     		ldr	r3, [r7, #4]
 116 0044 0222     		movs	r2, #2
 117 0046 1A70     		strb	r2, [r3]
  30:build/openmote-cc2538_armgcc/openstack/cross-layers/packetfunctions.c ****    memcpy(mac64btoWrite->addr_64b , &(ip128b->addr_128b[8]), 8);
 118              		.loc 1 30 0
 119 0048 7B68     		ldr	r3, [r7, #4]
 120 004a 581C     		adds	r0, r3, #1
 121 004c FB68     		ldr	r3, [r7, #12]
 122 004e 0933     		adds	r3, r3, #9
 123 0050 0822     		movs	r2, #8
 124 0052 1946     		mov	r1, r3
 125 0054 FFF7FEFF 		bl	memcpy
 126              	.L1:
  31:build/openmote-cc2538_armgcc/openstack/cross-layers/packetfunctions.c **** }
 127              		.loc 1 31 0
 128 0058 1037     		adds	r7, r7, #16
 129              		.cfi_def_cfa_offset 8
 130 005a BD46     		mov	sp, r7
 131              		.cfi_def_cfa_register 13
 132              		@ sp needed
 133 005c 80BD     		pop	{r7, pc}
 134              		.cfi_endproc
 135              	.LFE0:
 137 005e 00BF     		.align	2
 138              		.global	packetfunctions_mac64bToIp128b
 139              		.thumb
 140              		.thumb_func
 142              	packetfunctions_mac64bToIp128b:
 143              	.LFB1:
  32:build/openmote-cc2538_armgcc/openstack/cross-layers/packetfunctions.c **** void packetfunctions_mac64bToIp128b(
  33:build/openmote-cc2538_armgcc/openstack/cross-layers/packetfunctions.c ****       open_addr_t* prefix64b,
  34:build/openmote-cc2538_armgcc/openstack/cross-layers/packetfunctions.c ****       open_addr_t* mac64b,
  35:build/openmote-cc2538_armgcc/openstack/cross-layers/packetfunctions.c ****       open_addr_t* ip128bToWrite) {
 144              		.loc 1 35 0
 145              		.cfi_startproc
 146              		@ args = 0, pretend = 0, frame = 16
 147              		@ frame_needed = 1, uses_anonymous_args = 0
 148 0060 80B5     		push	{r7, lr}
 149              		.cfi_def_cfa_offset 8
 150              		.cfi_offset 7, -8
 151              		.cfi_offset 14, -4
 152 0062 84B0     		sub	sp, sp, #16
 153              		.cfi_def_cfa_offset 24
 154 0064 00AF     		add	r7, sp, #0
 155              		.cfi_def_cfa_register 7
 156 0066 F860     		str	r0, [r7, #12]
 157 0068 B960     		str	r1, [r7, #8]
 158 006a 7A60     		str	r2, [r7, #4]
  36:build/openmote-cc2538_armgcc/openstack/cross-layers/packetfunctions.c ****    if (prefix64b->type!=ADDR_PREFIX || mac64b->type!=ADDR_64B) {
 159              		.loc 1 36 0
 160 006c FB68     		ldr	r3, [r7, #12]
 161 006e 1B78     		ldrb	r3, [r3]	@ zero_extendqisi2
 162 0070 052B     		cmp	r3, #5
 163 0072 03D1     		bne	.L5
 164              		.loc 1 36 0 is_stmt 0 discriminator 1
 165 0074 BB68     		ldr	r3, [r7, #8]
 166 0076 1B78     		ldrb	r3, [r3]	@ zero_extendqisi2
 167 0078 022B     		cmp	r3, #2
 168 007a 0BD0     		beq	.L6
 169              	.L5:
  37:build/openmote-cc2538_armgcc/openstack/cross-layers/packetfunctions.c ****       openserial_printCritical(COMPONENT_PACKETFUNCTIONS,ERR_WRONG_ADDR_TYPE,
  38:build/openmote-cc2538_armgcc/openstack/cross-layers/packetfunctions.c ****                             (errorparameter_t)prefix64b->type,
 170              		.loc 1 38 0 is_stmt 1
 171 007c FB68     		ldr	r3, [r7, #12]
 172 007e 1B78     		ldrb	r3, [r3]	@ zero_extendqisi2
  37:build/openmote-cc2538_armgcc/openstack/cross-layers/packetfunctions.c ****       openserial_printCritical(COMPONENT_PACKETFUNCTIONS,ERR_WRONG_ADDR_TYPE,
 173              		.loc 1 37 0
 174 0080 9AB2     		uxth	r2, r3
 175 0082 0123     		movs	r3, #1
 176 0084 3121     		movs	r1, #49
 177 0086 0520     		movs	r0, #5
 178 0088 FFF7FEFF 		bl	openserial_printCritical
  39:build/openmote-cc2538_armgcc/openstack/cross-layers/packetfunctions.c ****                             (errorparameter_t)1);
  40:build/openmote-cc2538_armgcc/openstack/cross-layers/packetfunctions.c ****       ip128bToWrite->type=ADDR_NONE;
 179              		.loc 1 40 0
 180 008c 7B68     		ldr	r3, [r7, #4]
 181 008e 0022     		movs	r2, #0
 182 0090 1A70     		strb	r2, [r3]
  41:build/openmote-cc2538_armgcc/openstack/cross-layers/packetfunctions.c ****       return;
 183              		.loc 1 41 0
 184 0092 13E0     		b	.L4
 185              	.L6:
  42:build/openmote-cc2538_armgcc/openstack/cross-layers/packetfunctions.c ****    }
  43:build/openmote-cc2538_armgcc/openstack/cross-layers/packetfunctions.c ****    ip128bToWrite->type=ADDR_128B;
 186              		.loc 1 43 0
 187 0094 7B68     		ldr	r3, [r7, #4]
 188 0096 0322     		movs	r2, #3
 189 0098 1A70     		strb	r2, [r3]
  44:build/openmote-cc2538_armgcc/openstack/cross-layers/packetfunctions.c ****    memcpy(&(ip128bToWrite->addr_128b[0]), &(prefix64b->prefix[0]), 8);
 190              		.loc 1 44 0
 191 009a 7B68     		ldr	r3, [r7, #4]
 192 009c 581C     		adds	r0, r3, #1
 193 009e FB68     		ldr	r3, [r7, #12]
 194 00a0 0133     		adds	r3, r3, #1
 195 00a2 0822     		movs	r2, #8
 196 00a4 1946     		mov	r1, r3
 197 00a6 FFF7FEFF 		bl	memcpy
  45:build/openmote-cc2538_armgcc/openstack/cross-layers/packetfunctions.c ****    memcpy(&(ip128bToWrite->addr_128b[8]), &(mac64b->addr_64b[0]),  8);
 198              		.loc 1 45 0
 199 00aa 7B68     		ldr	r3, [r7, #4]
 200 00ac 03F10900 		add	r0, r3, #9
 201 00b0 BB68     		ldr	r3, [r7, #8]
 202 00b2 0133     		adds	r3, r3, #1
 203 00b4 0822     		movs	r2, #8
 204 00b6 1946     		mov	r1, r3
 205 00b8 FFF7FEFF 		bl	memcpy
 206              	.L4:
  46:build/openmote-cc2538_armgcc/openstack/cross-layers/packetfunctions.c **** }
 207              		.loc 1 46 0
 208 00bc 1037     		adds	r7, r7, #16
 209              		.cfi_def_cfa_offset 8
 210 00be BD46     		mov	sp, r7
 211              		.cfi_def_cfa_register 13
 212              		@ sp needed
 213 00c0 80BD     		pop	{r7, pc}
 214              		.cfi_endproc
 215              	.LFE1:
 217 00c2 00BF     		.align	2
 218              		.global	packetfunctions_mac64bToMac16b
 219              		.thumb
 220              		.thumb_func
 222              	packetfunctions_mac64bToMac16b:
 223              	.LFB2:
  47:build/openmote-cc2538_armgcc/openstack/cross-layers/packetfunctions.c **** 
  48:build/openmote-cc2538_armgcc/openstack/cross-layers/packetfunctions.c **** //assuming an mac16b is lower 2B of mac64b
  49:build/openmote-cc2538_armgcc/openstack/cross-layers/packetfunctions.c **** void packetfunctions_mac64bToMac16b(open_addr_t* mac64b, open_addr_t* mac16btoWrite) {
 224              		.loc 1 49 0
 225              		.cfi_startproc
 226              		@ args = 0, pretend = 0, frame = 8
 227              		@ frame_needed = 1, uses_anonymous_args = 0
 228 00c4 80B5     		push	{r7, lr}
 229              		.cfi_def_cfa_offset 8
 230              		.cfi_offset 7, -8
 231              		.cfi_offset 14, -4
 232 00c6 82B0     		sub	sp, sp, #8
 233              		.cfi_def_cfa_offset 16
 234 00c8 00AF     		add	r7, sp, #0
 235              		.cfi_def_cfa_register 7
 236 00ca 7860     		str	r0, [r7, #4]
 237 00cc 3960     		str	r1, [r7]
  50:build/openmote-cc2538_armgcc/openstack/cross-layers/packetfunctions.c ****    if (mac64b->type!=ADDR_64B) {
 238              		.loc 1 50 0
 239 00ce 7B68     		ldr	r3, [r7, #4]
 240 00d0 1B78     		ldrb	r3, [r3]	@ zero_extendqisi2
 241 00d2 022B     		cmp	r3, #2
 242 00d4 0BD0     		beq	.L9
  51:build/openmote-cc2538_armgcc/openstack/cross-layers/packetfunctions.c ****       openserial_printCritical(COMPONENT_PACKETFUNCTIONS,ERR_WRONG_ADDR_TYPE,
  52:build/openmote-cc2538_armgcc/openstack/cross-layers/packetfunctions.c ****                             (errorparameter_t)mac64b->type,
 243              		.loc 1 52 0
 244 00d6 7B68     		ldr	r3, [r7, #4]
 245 00d8 1B78     		ldrb	r3, [r3]	@ zero_extendqisi2
  51:build/openmote-cc2538_armgcc/openstack/cross-layers/packetfunctions.c ****       openserial_printCritical(COMPONENT_PACKETFUNCTIONS,ERR_WRONG_ADDR_TYPE,
 246              		.loc 1 51 0
 247 00da 9AB2     		uxth	r2, r3
 248 00dc 0223     		movs	r3, #2
 249 00de 3121     		movs	r1, #49
 250 00e0 0520     		movs	r0, #5
 251 00e2 FFF7FEFF 		bl	openserial_printCritical
  53:build/openmote-cc2538_armgcc/openstack/cross-layers/packetfunctions.c ****                             (errorparameter_t)2);
  54:build/openmote-cc2538_armgcc/openstack/cross-layers/packetfunctions.c ****       mac16btoWrite->type=ADDR_NONE;
 252              		.loc 1 54 0
 253 00e6 3B68     		ldr	r3, [r7]
 254 00e8 0022     		movs	r2, #0
 255 00ea 1A70     		strb	r2, [r3]
  55:build/openmote-cc2538_armgcc/openstack/cross-layers/packetfunctions.c ****       return;
 256              		.loc 1 55 0
 257 00ec 0AE0     		b	.L8
 258              	.L9:
  56:build/openmote-cc2538_armgcc/openstack/cross-layers/packetfunctions.c ****    }
  57:build/openmote-cc2538_armgcc/openstack/cross-layers/packetfunctions.c ****    mac16btoWrite->type = ADDR_16B;
 259              		.loc 1 57 0
 260 00ee 3B68     		ldr	r3, [r7]
 261 00f0 0122     		movs	r2, #1
 262 00f2 1A70     		strb	r2, [r3]
  58:build/openmote-cc2538_armgcc/openstack/cross-layers/packetfunctions.c ****    mac16btoWrite->addr_16b[0] = mac64b->addr_64b[6];
 263              		.loc 1 58 0
 264 00f4 7B68     		ldr	r3, [r7, #4]
 265 00f6 DA79     		ldrb	r2, [r3, #7]	@ zero_extendqisi2
 266 00f8 3B68     		ldr	r3, [r7]
 267 00fa 5A70     		strb	r2, [r3, #1]
  59:build/openmote-cc2538_armgcc/openstack/cross-layers/packetfunctions.c ****    mac16btoWrite->addr_16b[1] = mac64b->addr_64b[7];
 268              		.loc 1 59 0
 269 00fc 7B68     		ldr	r3, [r7, #4]
 270 00fe 1A7A     		ldrb	r2, [r3, #8]	@ zero_extendqisi2
 271 0100 3B68     		ldr	r3, [r7]
 272 0102 9A70     		strb	r2, [r3, #2]
 273              	.L8:
  60:build/openmote-cc2538_armgcc/openstack/cross-layers/packetfunctions.c **** }
 274              		.loc 1 60 0
 275 0104 0837     		adds	r7, r7, #8
 276              		.cfi_def_cfa_offset 8
 277 0106 BD46     		mov	sp, r7
 278              		.cfi_def_cfa_register 13
 279              		@ sp needed
 280 0108 80BD     		pop	{r7, pc}
 281              		.cfi_endproc
 282              	.LFE2:
 284 010a 00BF     		.align	2
 285              		.global	packetfunctions_mac16bToMac64b
 286              		.thumb
 287              		.thumb_func
 289              	packetfunctions_mac16bToMac64b:
 290              	.LFB3:
  61:build/openmote-cc2538_armgcc/openstack/cross-layers/packetfunctions.c **** void packetfunctions_mac16bToMac64b(open_addr_t* mac16b, open_addr_t* mac64btoWrite) {
 291              		.loc 1 61 0
 292              		.cfi_startproc
 293              		@ args = 0, pretend = 0, frame = 8
 294              		@ frame_needed = 1, uses_anonymous_args = 0
 295 010c 80B5     		push	{r7, lr}
 296              		.cfi_def_cfa_offset 8
 297              		.cfi_offset 7, -8
 298              		.cfi_offset 14, -4
 299 010e 82B0     		sub	sp, sp, #8
 300              		.cfi_def_cfa_offset 16
 301 0110 00AF     		add	r7, sp, #0
 302              		.cfi_def_cfa_register 7
 303 0112 7860     		str	r0, [r7, #4]
 304 0114 3960     		str	r1, [r7]
  62:build/openmote-cc2538_armgcc/openstack/cross-layers/packetfunctions.c ****    if (mac16b->type!=ADDR_16B) {
 305              		.loc 1 62 0
 306 0116 7B68     		ldr	r3, [r7, #4]
 307 0118 1B78     		ldrb	r3, [r3]	@ zero_extendqisi2
 308 011a 012B     		cmp	r3, #1
 309 011c 0BD0     		beq	.L12
  63:build/openmote-cc2538_armgcc/openstack/cross-layers/packetfunctions.c ****       openserial_printCritical(COMPONENT_PACKETFUNCTIONS,ERR_WRONG_ADDR_TYPE,
  64:build/openmote-cc2538_armgcc/openstack/cross-layers/packetfunctions.c ****                             (errorparameter_t)mac16b->type,
 310              		.loc 1 64 0
 311 011e 7B68     		ldr	r3, [r7, #4]
 312 0120 1B78     		ldrb	r3, [r3]	@ zero_extendqisi2
  63:build/openmote-cc2538_armgcc/openstack/cross-layers/packetfunctions.c ****       openserial_printCritical(COMPONENT_PACKETFUNCTIONS,ERR_WRONG_ADDR_TYPE,
 313              		.loc 1 63 0
 314 0122 9AB2     		uxth	r2, r3
 315 0124 0323     		movs	r3, #3
 316 0126 3121     		movs	r1, #49
 317 0128 0520     		movs	r0, #5
 318 012a FFF7FEFF 		bl	openserial_printCritical
  65:build/openmote-cc2538_armgcc/openstack/cross-layers/packetfunctions.c ****                             (errorparameter_t)3);
  66:build/openmote-cc2538_armgcc/openstack/cross-layers/packetfunctions.c ****       mac64btoWrite->type=ADDR_NONE;
 319              		.loc 1 66 0
 320 012e 3B68     		ldr	r3, [r7]
 321 0130 0022     		movs	r2, #0
 322 0132 1A70     		strb	r2, [r3]
  67:build/openmote-cc2538_armgcc/openstack/cross-layers/packetfunctions.c ****       return;
 323              		.loc 1 67 0
 324 0134 1CE0     		b	.L11
 325              	.L12:
  68:build/openmote-cc2538_armgcc/openstack/cross-layers/packetfunctions.c ****    }
  69:build/openmote-cc2538_armgcc/openstack/cross-layers/packetfunctions.c ****    mac64btoWrite->type = ADDR_64B;
 326              		.loc 1 69 0
 327 0136 3B68     		ldr	r3, [r7]
 328 0138 0222     		movs	r2, #2
 329 013a 1A70     		strb	r2, [r3]
  70:build/openmote-cc2538_armgcc/openstack/cross-layers/packetfunctions.c ****    mac64btoWrite->addr_64b[0] = 0;
 330              		.loc 1 70 0
 331 013c 3B68     		ldr	r3, [r7]
 332 013e 0022     		movs	r2, #0
 333 0140 5A70     		strb	r2, [r3, #1]
  71:build/openmote-cc2538_armgcc/openstack/cross-layers/packetfunctions.c ****    mac64btoWrite->addr_64b[1] = 0;
 334              		.loc 1 71 0
 335 0142 3B68     		ldr	r3, [r7]
 336 0144 0022     		movs	r2, #0
 337 0146 9A70     		strb	r2, [r3, #2]
  72:build/openmote-cc2538_armgcc/openstack/cross-layers/packetfunctions.c ****    mac64btoWrite->addr_64b[2] = 0;
 338              		.loc 1 72 0
 339 0148 3B68     		ldr	r3, [r7]
 340 014a 0022     		movs	r2, #0
 341 014c DA70     		strb	r2, [r3, #3]
  73:build/openmote-cc2538_armgcc/openstack/cross-layers/packetfunctions.c ****    mac64btoWrite->addr_64b[3] = 0;
 342              		.loc 1 73 0
 343 014e 3B68     		ldr	r3, [r7]
 344 0150 0022     		movs	r2, #0
 345 0152 1A71     		strb	r2, [r3, #4]
  74:build/openmote-cc2538_armgcc/openstack/cross-layers/packetfunctions.c ****    mac64btoWrite->addr_64b[4] = 0;
 346              		.loc 1 74 0
 347 0154 3B68     		ldr	r3, [r7]
 348 0156 0022     		movs	r2, #0
 349 0158 5A71     		strb	r2, [r3, #5]
  75:build/openmote-cc2538_armgcc/openstack/cross-layers/packetfunctions.c ****    mac64btoWrite->addr_64b[5] = 0;
 350              		.loc 1 75 0
 351 015a 3B68     		ldr	r3, [r7]
 352 015c 0022     		movs	r2, #0
 353 015e 9A71     		strb	r2, [r3, #6]
  76:build/openmote-cc2538_armgcc/openstack/cross-layers/packetfunctions.c ****    mac64btoWrite->addr_64b[6] = mac16b->addr_16b[0];
 354              		.loc 1 76 0
 355 0160 7B68     		ldr	r3, [r7, #4]
 356 0162 5A78     		ldrb	r2, [r3, #1]	@ zero_extendqisi2
 357 0164 3B68     		ldr	r3, [r7]
 358 0166 DA71     		strb	r2, [r3, #7]
  77:build/openmote-cc2538_armgcc/openstack/cross-layers/packetfunctions.c ****    mac64btoWrite->addr_64b[7] = mac16b->addr_16b[1];
 359              		.loc 1 77 0
 360 0168 7B68     		ldr	r3, [r7, #4]
 361 016a 9A78     		ldrb	r2, [r3, #2]	@ zero_extendqisi2
 362 016c 3B68     		ldr	r3, [r7]
 363 016e 1A72     		strb	r2, [r3, #8]
 364              	.L11:
  78:build/openmote-cc2538_armgcc/openstack/cross-layers/packetfunctions.c **** }
 365              		.loc 1 78 0
 366 0170 0837     		adds	r7, r7, #8
 367              		.cfi_def_cfa_offset 8
 368 0172 BD46     		mov	sp, r7
 369              		.cfi_def_cfa_register 13
 370              		@ sp needed
 371 0174 80BD     		pop	{r7, pc}
 372              		.cfi_endproc
 373              	.LFE3:
 375 0176 00BF     		.align	2
 376              		.global	packetfunctions_isBroadcastMulticast
 377              		.thumb
 378              		.thumb_func
 380              	packetfunctions_isBroadcastMulticast:
 381              	.LFB4:
  79:build/openmote-cc2538_armgcc/openstack/cross-layers/packetfunctions.c **** 
  80:build/openmote-cc2538_armgcc/openstack/cross-layers/packetfunctions.c **** //======= address recognition
  81:build/openmote-cc2538_armgcc/openstack/cross-layers/packetfunctions.c **** 
  82:build/openmote-cc2538_armgcc/openstack/cross-layers/packetfunctions.c **** bool packetfunctions_isBroadcastMulticast(open_addr_t* address) {
 382              		.loc 1 82 0
 383              		.cfi_startproc
 384              		@ args = 0, pretend = 0, frame = 16
 385              		@ frame_needed = 1, uses_anonymous_args = 0
 386 0178 80B5     		push	{r7, lr}
 387              		.cfi_def_cfa_offset 8
 388              		.cfi_offset 7, -8
 389              		.cfi_offset 14, -4
 390 017a 84B0     		sub	sp, sp, #16
 391              		.cfi_def_cfa_offset 24
 392 017c 00AF     		add	r7, sp, #0
 393              		.cfi_def_cfa_register 7
 394 017e 7860     		str	r0, [r7, #4]
  83:build/openmote-cc2538_armgcc/openstack/cross-layers/packetfunctions.c ****     uint8_t i;
  84:build/openmote-cc2538_armgcc/openstack/cross-layers/packetfunctions.c ****     uint8_t address_length;
  85:build/openmote-cc2538_armgcc/openstack/cross-layers/packetfunctions.c ****     
  86:build/openmote-cc2538_armgcc/openstack/cross-layers/packetfunctions.c ****     // anycast type
  87:build/openmote-cc2538_armgcc/openstack/cross-layers/packetfunctions.c ****     if (address->type==ADDR_ANYCAST) {
 395              		.loc 1 87 0
 396 0180 7B68     		ldr	r3, [r7, #4]
 397 0182 1B78     		ldrb	r3, [r3]	@ zero_extendqisi2
 398 0184 062B     		cmp	r3, #6
 399 0186 01D1     		bne	.L15
  88:build/openmote-cc2538_armgcc/openstack/cross-layers/packetfunctions.c ****         return TRUE;
 400              		.loc 1 88 0
 401 0188 0123     		movs	r3, #1
 402 018a 35E0     		b	.L16
 403              	.L15:
  89:build/openmote-cc2538_armgcc/openstack/cross-layers/packetfunctions.c ****     }
  90:build/openmote-cc2538_armgcc/openstack/cross-layers/packetfunctions.c ****     
  91:build/openmote-cc2538_armgcc/openstack/cross-layers/packetfunctions.c ****     //IPv6 multicast
  92:build/openmote-cc2538_armgcc/openstack/cross-layers/packetfunctions.c ****     if (address->type==ADDR_128B) {
 404              		.loc 1 92 0
 405 018c 7B68     		ldr	r3, [r7, #4]
 406 018e 1B78     		ldrb	r3, [r3]	@ zero_extendqisi2
 407 0190 032B     		cmp	r3, #3
 408 0192 07D1     		bne	.L17
  93:build/openmote-cc2538_armgcc/openstack/cross-layers/packetfunctions.c ****         if (address->addr_128b[0]==0xff) {
 409              		.loc 1 93 0
 410 0194 7B68     		ldr	r3, [r7, #4]
 411 0196 5B78     		ldrb	r3, [r3, #1]	@ zero_extendqisi2
 412 0198 FF2B     		cmp	r3, #255
 413 019a 01D1     		bne	.L18
  94:build/openmote-cc2538_armgcc/openstack/cross-layers/packetfunctions.c ****             return TRUE;
 414              		.loc 1 94 0
 415 019c 0123     		movs	r3, #1
 416 019e 2BE0     		b	.L16
 417              	.L18:
  95:build/openmote-cc2538_armgcc/openstack/cross-layers/packetfunctions.c ****         } else {
  96:build/openmote-cc2538_armgcc/openstack/cross-layers/packetfunctions.c ****             return FALSE;
 418              		.loc 1 96 0
 419 01a0 0023     		movs	r3, #0
 420 01a2 29E0     		b	.L16
 421              	.L17:
  97:build/openmote-cc2538_armgcc/openstack/cross-layers/packetfunctions.c ****         }
  98:build/openmote-cc2538_armgcc/openstack/cross-layers/packetfunctions.c ****     }
  99:build/openmote-cc2538_armgcc/openstack/cross-layers/packetfunctions.c ****     
 100:build/openmote-cc2538_armgcc/openstack/cross-layers/packetfunctions.c ****     //15.4 broadcast
 101:build/openmote-cc2538_armgcc/openstack/cross-layers/packetfunctions.c ****     switch (address->type) {
 422              		.loc 1 101 0
 423 01a4 7B68     		ldr	r3, [r7, #4]
 424 01a6 1B78     		ldrb	r3, [r3]	@ zero_extendqisi2
 425 01a8 012B     		cmp	r3, #1
 426 01aa 02D0     		beq	.L20
 427 01ac 022B     		cmp	r3, #2
 428 01ae 03D0     		beq	.L21
 429 01b0 05E0     		b	.L26
 430              	.L20:
 102:build/openmote-cc2538_armgcc/openstack/cross-layers/packetfunctions.c ****         case ADDR_16B:
 103:build/openmote-cc2538_armgcc/openstack/cross-layers/packetfunctions.c ****             address_length = 2;
 431              		.loc 1 103 0
 432 01b2 0223     		movs	r3, #2
 433 01b4 BB73     		strb	r3, [r7, #14]
 104:build/openmote-cc2538_armgcc/openstack/cross-layers/packetfunctions.c ****             break;
 434              		.loc 1 104 0
 435 01b6 0CE0     		b	.L22
 436              	.L21:
 105:build/openmote-cc2538_armgcc/openstack/cross-layers/packetfunctions.c ****         case ADDR_64B:
 106:build/openmote-cc2538_armgcc/openstack/cross-layers/packetfunctions.c ****             address_length = 8;
 437              		.loc 1 106 0
 438 01b8 0823     		movs	r3, #8
 439 01ba BB73     		strb	r3, [r7, #14]
 107:build/openmote-cc2538_armgcc/openstack/cross-layers/packetfunctions.c ****             break;
 440              		.loc 1 107 0
 441 01bc 09E0     		b	.L22
 442              	.L26:
 108:build/openmote-cc2538_armgcc/openstack/cross-layers/packetfunctions.c ****         default:
 109:build/openmote-cc2538_armgcc/openstack/cross-layers/packetfunctions.c ****             openserial_printCritical(COMPONENT_PACKETFUNCTIONS,ERR_WRONG_ADDR_TYPE,
 110:build/openmote-cc2538_armgcc/openstack/cross-layers/packetfunctions.c ****                                (errorparameter_t)address->type,
 443              		.loc 1 110 0
 444 01be 7B68     		ldr	r3, [r7, #4]
 445 01c0 1B78     		ldrb	r3, [r3]	@ zero_extendqisi2
 109:build/openmote-cc2538_armgcc/openstack/cross-layers/packetfunctions.c ****                                (errorparameter_t)address->type,
 446              		.loc 1 109 0
 447 01c2 9AB2     		uxth	r2, r3
 448 01c4 0423     		movs	r3, #4
 449 01c6 3121     		movs	r1, #49
 450 01c8 0520     		movs	r0, #5
 451 01ca FFF7FEFF 		bl	openserial_printCritical
 111:build/openmote-cc2538_armgcc/openstack/cross-layers/packetfunctions.c ****                                (errorparameter_t)4);
 112:build/openmote-cc2538_armgcc/openstack/cross-layers/packetfunctions.c ****             return FALSE;
 452              		.loc 1 112 0
 453 01ce 0023     		movs	r3, #0
 454 01d0 12E0     		b	.L16
 455              	.L22:
 113:build/openmote-cc2538_armgcc/openstack/cross-layers/packetfunctions.c ****     }
 114:build/openmote-cc2538_armgcc/openstack/cross-layers/packetfunctions.c ****     for (i=0;i<address_length;i++) {
 456              		.loc 1 114 0
 457 01d2 0023     		movs	r3, #0
 458 01d4 FB73     		strb	r3, [r7, #15]
 459 01d6 0AE0     		b	.L23
 460              	.L25:
 115:build/openmote-cc2538_armgcc/openstack/cross-layers/packetfunctions.c ****         if (address->addr_128b[i]!=0xFF) {
 461              		.loc 1 115 0
 462 01d8 FB7B     		ldrb	r3, [r7, #15]	@ zero_extendqisi2
 463 01da 7A68     		ldr	r2, [r7, #4]
 464 01dc 1344     		add	r3, r3, r2
 465 01de 5B78     		ldrb	r3, [r3, #1]	@ zero_extendqisi2
 466 01e0 FF2B     		cmp	r3, #255
 467 01e2 01D0     		beq	.L24
 116:build/openmote-cc2538_armgcc/openstack/cross-layers/packetfunctions.c ****             return FALSE;
 468              		.loc 1 116 0
 469 01e4 0023     		movs	r3, #0
 470 01e6 07E0     		b	.L16
 471              	.L24:
 114:build/openmote-cc2538_armgcc/openstack/cross-layers/packetfunctions.c ****         if (address->addr_128b[i]!=0xFF) {
 472              		.loc 1 114 0 discriminator 2
 473 01e8 FB7B     		ldrb	r3, [r7, #15]	@ zero_extendqisi2
 474 01ea 0133     		adds	r3, r3, #1
 475 01ec FB73     		strb	r3, [r7, #15]
 476              	.L23:
 114:build/openmote-cc2538_armgcc/openstack/cross-layers/packetfunctions.c ****         if (address->addr_128b[i]!=0xFF) {
 477              		.loc 1 114 0 is_stmt 0 discriminator 1
 478 01ee FA7B     		ldrb	r2, [r7, #15]	@ zero_extendqisi2
 479 01f0 BB7B     		ldrb	r3, [r7, #14]	@ zero_extendqisi2
 480 01f2 9A42     		cmp	r2, r3
 481 01f4 F0D3     		bcc	.L25
 117:build/openmote-cc2538_armgcc/openstack/cross-layers/packetfunctions.c ****         }
 118:build/openmote-cc2538_armgcc/openstack/cross-layers/packetfunctions.c ****     }    
 119:build/openmote-cc2538_armgcc/openstack/cross-layers/packetfunctions.c ****     return TRUE;
 482              		.loc 1 119 0 is_stmt 1
 483 01f6 0123     		movs	r3, #1
 484              	.L16:
 120:build/openmote-cc2538_armgcc/openstack/cross-layers/packetfunctions.c **** }
 485              		.loc 1 120 0
 486 01f8 1846     		mov	r0, r3
 487 01fa 1037     		adds	r7, r7, #16
 488              		.cfi_def_cfa_offset 8
 489 01fc BD46     		mov	sp, r7
 490              		.cfi_def_cfa_register 13
 491              		@ sp needed
 492 01fe 80BD     		pop	{r7, pc}
 493              		.cfi_endproc
 494              	.LFE4:
 496              		.align	2
 497              		.global	packetfunctions_isAllRoutersMulticast
 498              		.thumb
 499              		.thumb_func
 501              	packetfunctions_isAllRoutersMulticast:
 502              	.LFB5:
 121:build/openmote-cc2538_armgcc/openstack/cross-layers/packetfunctions.c **** 
 122:build/openmote-cc2538_armgcc/openstack/cross-layers/packetfunctions.c **** bool packetfunctions_isAllRoutersMulticast(open_addr_t* address) {
 503              		.loc 1 122 0
 504              		.cfi_startproc
 505              		@ args = 0, pretend = 0, frame = 8
 506              		@ frame_needed = 1, uses_anonymous_args = 0
 507              		@ link register save eliminated.
 508 0200 80B4     		push	{r7}
 509              		.cfi_def_cfa_offset 4
 510              		.cfi_offset 7, -4
 511 0202 83B0     		sub	sp, sp, #12
 512              		.cfi_def_cfa_offset 16
 513 0204 00AF     		add	r7, sp, #0
 514              		.cfi_def_cfa_register 7
 515 0206 7860     		str	r0, [r7, #4]
 123:build/openmote-cc2538_armgcc/openstack/cross-layers/packetfunctions.c ****    if (
 124:build/openmote-cc2538_armgcc/openstack/cross-layers/packetfunctions.c ****       address->type          == ADDR_128B &&
 516              		.loc 1 124 0
 517 0208 7B68     		ldr	r3, [r7, #4]
 518 020a 1B78     		ldrb	r3, [r3]	@ zero_extendqisi2
 123:build/openmote-cc2538_armgcc/openstack/cross-layers/packetfunctions.c ****    if (
 519              		.loc 1 123 0
 520 020c 032B     		cmp	r3, #3
 521 020e 41D1     		bne	.L28
 125:build/openmote-cc2538_armgcc/openstack/cross-layers/packetfunctions.c ****       address->addr_128b[0]  == 0xff &&
 522              		.loc 1 125 0
 523 0210 7B68     		ldr	r3, [r7, #4]
 524 0212 5B78     		ldrb	r3, [r3, #1]	@ zero_extendqisi2
 124:build/openmote-cc2538_armgcc/openstack/cross-layers/packetfunctions.c ****       address->addr_128b[0]  == 0xff &&
 525              		.loc 1 124 0
 526 0214 FF2B     		cmp	r3, #255
 527 0216 3DD1     		bne	.L28
 126:build/openmote-cc2538_armgcc/openstack/cross-layers/packetfunctions.c ****       address->addr_128b[1]  == 0x02 &&
 528              		.loc 1 126 0
 529 0218 7B68     		ldr	r3, [r7, #4]
 530 021a 9B78     		ldrb	r3, [r3, #2]	@ zero_extendqisi2
 125:build/openmote-cc2538_armgcc/openstack/cross-layers/packetfunctions.c ****       address->addr_128b[0]  == 0xff &&
 531              		.loc 1 125 0
 532 021c 022B     		cmp	r3, #2
 533 021e 39D1     		bne	.L28
 127:build/openmote-cc2538_armgcc/openstack/cross-layers/packetfunctions.c ****       address->addr_128b[2]  == 0x00 &&
 534              		.loc 1 127 0
 535 0220 7B68     		ldr	r3, [r7, #4]
 536 0222 DB78     		ldrb	r3, [r3, #3]	@ zero_extendqisi2
 126:build/openmote-cc2538_armgcc/openstack/cross-layers/packetfunctions.c ****       address->addr_128b[1]  == 0x02 &&
 537              		.loc 1 126 0
 538 0224 002B     		cmp	r3, #0
 539 0226 35D1     		bne	.L28
 128:build/openmote-cc2538_armgcc/openstack/cross-layers/packetfunctions.c ****       address->addr_128b[3]  == 0x00 &&
 540              		.loc 1 128 0
 541 0228 7B68     		ldr	r3, [r7, #4]
 542 022a 1B79     		ldrb	r3, [r3, #4]	@ zero_extendqisi2
 127:build/openmote-cc2538_armgcc/openstack/cross-layers/packetfunctions.c ****       address->addr_128b[2]  == 0x00 &&
 543              		.loc 1 127 0
 544 022c 002B     		cmp	r3, #0
 545 022e 31D1     		bne	.L28
 129:build/openmote-cc2538_armgcc/openstack/cross-layers/packetfunctions.c ****       address->addr_128b[4]  == 0x00 &&
 546              		.loc 1 129 0
 547 0230 7B68     		ldr	r3, [r7, #4]
 548 0232 5B79     		ldrb	r3, [r3, #5]	@ zero_extendqisi2
 128:build/openmote-cc2538_armgcc/openstack/cross-layers/packetfunctions.c ****       address->addr_128b[3]  == 0x00 &&
 549              		.loc 1 128 0
 550 0234 002B     		cmp	r3, #0
 551 0236 2DD1     		bne	.L28
 130:build/openmote-cc2538_armgcc/openstack/cross-layers/packetfunctions.c ****       address->addr_128b[5]  == 0x00 &&
 552              		.loc 1 130 0
 553 0238 7B68     		ldr	r3, [r7, #4]
 554 023a 9B79     		ldrb	r3, [r3, #6]	@ zero_extendqisi2
 129:build/openmote-cc2538_armgcc/openstack/cross-layers/packetfunctions.c ****       address->addr_128b[4]  == 0x00 &&
 555              		.loc 1 129 0
 556 023c 002B     		cmp	r3, #0
 557 023e 29D1     		bne	.L28
 131:build/openmote-cc2538_armgcc/openstack/cross-layers/packetfunctions.c ****       address->addr_128b[6]  == 0x00 &&
 558              		.loc 1 131 0
 559 0240 7B68     		ldr	r3, [r7, #4]
 560 0242 DB79     		ldrb	r3, [r3, #7]	@ zero_extendqisi2
 130:build/openmote-cc2538_armgcc/openstack/cross-layers/packetfunctions.c ****       address->addr_128b[5]  == 0x00 &&
 561              		.loc 1 130 0
 562 0244 002B     		cmp	r3, #0
 563 0246 25D1     		bne	.L28
 132:build/openmote-cc2538_armgcc/openstack/cross-layers/packetfunctions.c ****       address->addr_128b[7]  == 0x00 &&
 564              		.loc 1 132 0
 565 0248 7B68     		ldr	r3, [r7, #4]
 566 024a 1B7A     		ldrb	r3, [r3, #8]	@ zero_extendqisi2
 131:build/openmote-cc2538_armgcc/openstack/cross-layers/packetfunctions.c ****       address->addr_128b[6]  == 0x00 &&
 567              		.loc 1 131 0
 568 024c 002B     		cmp	r3, #0
 569 024e 21D1     		bne	.L28
 133:build/openmote-cc2538_armgcc/openstack/cross-layers/packetfunctions.c ****       address->addr_128b[8]  == 0x00 &&
 570              		.loc 1 133 0
 571 0250 7B68     		ldr	r3, [r7, #4]
 572 0252 5B7A     		ldrb	r3, [r3, #9]	@ zero_extendqisi2
 132:build/openmote-cc2538_armgcc/openstack/cross-layers/packetfunctions.c ****       address->addr_128b[7]  == 0x00 &&
 573              		.loc 1 132 0
 574 0254 002B     		cmp	r3, #0
 575 0256 1DD1     		bne	.L28
 134:build/openmote-cc2538_armgcc/openstack/cross-layers/packetfunctions.c ****       address->addr_128b[9]  == 0x00 &&
 576              		.loc 1 134 0
 577 0258 7B68     		ldr	r3, [r7, #4]
 578 025a 9B7A     		ldrb	r3, [r3, #10]	@ zero_extendqisi2
 133:build/openmote-cc2538_armgcc/openstack/cross-layers/packetfunctions.c ****       address->addr_128b[8]  == 0x00 &&
 579              		.loc 1 133 0
 580 025c 002B     		cmp	r3, #0
 581 025e 19D1     		bne	.L28
 135:build/openmote-cc2538_armgcc/openstack/cross-layers/packetfunctions.c ****       address->addr_128b[10] == 0x00 &&
 582              		.loc 1 135 0
 583 0260 7B68     		ldr	r3, [r7, #4]
 584 0262 DB7A     		ldrb	r3, [r3, #11]	@ zero_extendqisi2
 134:build/openmote-cc2538_armgcc/openstack/cross-layers/packetfunctions.c ****       address->addr_128b[9]  == 0x00 &&
 585              		.loc 1 134 0
 586 0264 002B     		cmp	r3, #0
 587 0266 15D1     		bne	.L28
 136:build/openmote-cc2538_armgcc/openstack/cross-layers/packetfunctions.c ****       address->addr_128b[11] == 0x00 &&
 588              		.loc 1 136 0
 589 0268 7B68     		ldr	r3, [r7, #4]
 590 026a 1B7B     		ldrb	r3, [r3, #12]	@ zero_extendqisi2
 135:build/openmote-cc2538_armgcc/openstack/cross-layers/packetfunctions.c ****       address->addr_128b[10] == 0x00 &&
 591              		.loc 1 135 0
 592 026c 002B     		cmp	r3, #0
 593 026e 11D1     		bne	.L28
 137:build/openmote-cc2538_armgcc/openstack/cross-layers/packetfunctions.c ****       address->addr_128b[12] == 0x00 &&
 594              		.loc 1 137 0
 595 0270 7B68     		ldr	r3, [r7, #4]
 596 0272 5B7B     		ldrb	r3, [r3, #13]	@ zero_extendqisi2
 136:build/openmote-cc2538_armgcc/openstack/cross-layers/packetfunctions.c ****       address->addr_128b[11] == 0x00 &&
 597              		.loc 1 136 0
 598 0274 002B     		cmp	r3, #0
 599 0276 0DD1     		bne	.L28
 138:build/openmote-cc2538_armgcc/openstack/cross-layers/packetfunctions.c ****       address->addr_128b[13] == 0x00 &&
 600              		.loc 1 138 0
 601 0278 7B68     		ldr	r3, [r7, #4]
 602 027a 9B7B     		ldrb	r3, [r3, #14]	@ zero_extendqisi2
 137:build/openmote-cc2538_armgcc/openstack/cross-layers/packetfunctions.c ****       address->addr_128b[12] == 0x00 &&
 603              		.loc 1 137 0
 604 027c 002B     		cmp	r3, #0
 605 027e 09D1     		bne	.L28
 139:build/openmote-cc2538_armgcc/openstack/cross-layers/packetfunctions.c ****       address->addr_128b[14] == 0x00 &&
 606              		.loc 1 139 0
 607 0280 7B68     		ldr	r3, [r7, #4]
 608 0282 DB7B     		ldrb	r3, [r3, #15]	@ zero_extendqisi2
 138:build/openmote-cc2538_armgcc/openstack/cross-layers/packetfunctions.c ****       address->addr_128b[13] == 0x00 &&
 609              		.loc 1 138 0
 610 0284 002B     		cmp	r3, #0
 611 0286 05D1     		bne	.L28
 140:build/openmote-cc2538_armgcc/openstack/cross-layers/packetfunctions.c ****       address->addr_128b[15] == 0x1a
 612              		.loc 1 140 0
 613 0288 7B68     		ldr	r3, [r7, #4]
 614 028a 1B7C     		ldrb	r3, [r3, #16]	@ zero_extendqisi2
 139:build/openmote-cc2538_armgcc/openstack/cross-layers/packetfunctions.c ****       address->addr_128b[14] == 0x00 &&
 615              		.loc 1 139 0
 616 028c 1A2B     		cmp	r3, #26
 617 028e 01D1     		bne	.L28
 141:build/openmote-cc2538_armgcc/openstack/cross-layers/packetfunctions.c ****    ) {
 142:build/openmote-cc2538_armgcc/openstack/cross-layers/packetfunctions.c ****       return TRUE;
 618              		.loc 1 142 0
 619 0290 0123     		movs	r3, #1
 620 0292 00E0     		b	.L29
 621              	.L28:
 143:build/openmote-cc2538_armgcc/openstack/cross-layers/packetfunctions.c ****    }
 144:build/openmote-cc2538_armgcc/openstack/cross-layers/packetfunctions.c ****    return FALSE;
 622              		.loc 1 144 0
 623 0294 0023     		movs	r3, #0
 624              	.L29:
 145:build/openmote-cc2538_armgcc/openstack/cross-layers/packetfunctions.c **** }
 625              		.loc 1 145 0
 626 0296 1846     		mov	r0, r3
 627 0298 0C37     		adds	r7, r7, #12
 628              		.cfi_def_cfa_offset 4
 629 029a BD46     		mov	sp, r7
 630              		.cfi_def_cfa_register 13
 631              		@ sp needed
 632 029c 80BC     		pop	{r7}
 633              		.cfi_restore 7
 634              		.cfi_def_cfa_offset 0
 635 029e 7047     		bx	lr
 636              		.cfi_endproc
 637              	.LFE5:
 639              		.align	2
 640              		.global	packetfunctions_isAllHostsMulticast
 641              		.thumb
 642              		.thumb_func
 644              	packetfunctions_isAllHostsMulticast:
 645              	.LFB6:
 146:build/openmote-cc2538_armgcc/openstack/cross-layers/packetfunctions.c **** 
 147:build/openmote-cc2538_armgcc/openstack/cross-layers/packetfunctions.c **** bool packetfunctions_isAllHostsMulticast(open_addr_t* address) {
 646              		.loc 1 147 0
 647              		.cfi_startproc
 648              		@ args = 0, pretend = 0, frame = 8
 649              		@ frame_needed = 1, uses_anonymous_args = 0
 650              		@ link register save eliminated.
 651 02a0 80B4     		push	{r7}
 652              		.cfi_def_cfa_offset 4
 653              		.cfi_offset 7, -4
 654 02a2 83B0     		sub	sp, sp, #12
 655              		.cfi_def_cfa_offset 16
 656 02a4 00AF     		add	r7, sp, #0
 657              		.cfi_def_cfa_register 7
 658 02a6 7860     		str	r0, [r7, #4]
 148:build/openmote-cc2538_armgcc/openstack/cross-layers/packetfunctions.c ****    if (
 149:build/openmote-cc2538_armgcc/openstack/cross-layers/packetfunctions.c ****       address->type          == ADDR_128B &&
 659              		.loc 1 149 0
 660 02a8 7B68     		ldr	r3, [r7, #4]
 661 02aa 1B78     		ldrb	r3, [r3]	@ zero_extendqisi2
 148:build/openmote-cc2538_armgcc/openstack/cross-layers/packetfunctions.c ****    if (
 662              		.loc 1 148 0
 663 02ac 032B     		cmp	r3, #3
 664 02ae 41D1     		bne	.L31
 150:build/openmote-cc2538_armgcc/openstack/cross-layers/packetfunctions.c ****       address->addr_128b[0]  == 0xff &&
 665              		.loc 1 150 0
 666 02b0 7B68     		ldr	r3, [r7, #4]
 667 02b2 5B78     		ldrb	r3, [r3, #1]	@ zero_extendqisi2
 149:build/openmote-cc2538_armgcc/openstack/cross-layers/packetfunctions.c ****       address->addr_128b[0]  == 0xff &&
 668              		.loc 1 149 0
 669 02b4 FF2B     		cmp	r3, #255
 670 02b6 3DD1     		bne	.L31
 151:build/openmote-cc2538_armgcc/openstack/cross-layers/packetfunctions.c ****       address->addr_128b[1]  == 0x02 &&
 671              		.loc 1 151 0
 672 02b8 7B68     		ldr	r3, [r7, #4]
 673 02ba 9B78     		ldrb	r3, [r3, #2]	@ zero_extendqisi2
 150:build/openmote-cc2538_armgcc/openstack/cross-layers/packetfunctions.c ****       address->addr_128b[0]  == 0xff &&
 674              		.loc 1 150 0
 675 02bc 022B     		cmp	r3, #2
 676 02be 39D1     		bne	.L31
 152:build/openmote-cc2538_armgcc/openstack/cross-layers/packetfunctions.c ****       address->addr_128b[2]  == 0x00 &&
 677              		.loc 1 152 0
 678 02c0 7B68     		ldr	r3, [r7, #4]
 679 02c2 DB78     		ldrb	r3, [r3, #3]	@ zero_extendqisi2
 151:build/openmote-cc2538_armgcc/openstack/cross-layers/packetfunctions.c ****       address->addr_128b[1]  == 0x02 &&
 680              		.loc 1 151 0
 681 02c4 002B     		cmp	r3, #0
 682 02c6 35D1     		bne	.L31
 153:build/openmote-cc2538_armgcc/openstack/cross-layers/packetfunctions.c ****       address->addr_128b[3]  == 0x00 &&
 683              		.loc 1 153 0
 684 02c8 7B68     		ldr	r3, [r7, #4]
 685 02ca 1B79     		ldrb	r3, [r3, #4]	@ zero_extendqisi2
 152:build/openmote-cc2538_armgcc/openstack/cross-layers/packetfunctions.c ****       address->addr_128b[2]  == 0x00 &&
 686              		.loc 1 152 0
 687 02cc 002B     		cmp	r3, #0
 688 02ce 31D1     		bne	.L31
 154:build/openmote-cc2538_armgcc/openstack/cross-layers/packetfunctions.c ****       address->addr_128b[4]  == 0x00 &&
 689              		.loc 1 154 0
 690 02d0 7B68     		ldr	r3, [r7, #4]
 691 02d2 5B79     		ldrb	r3, [r3, #5]	@ zero_extendqisi2
 153:build/openmote-cc2538_armgcc/openstack/cross-layers/packetfunctions.c ****       address->addr_128b[3]  == 0x00 &&
 692              		.loc 1 153 0
 693 02d4 002B     		cmp	r3, #0
 694 02d6 2DD1     		bne	.L31
 155:build/openmote-cc2538_armgcc/openstack/cross-layers/packetfunctions.c ****       address->addr_128b[5]  == 0x00 &&
 695              		.loc 1 155 0
 696 02d8 7B68     		ldr	r3, [r7, #4]
 697 02da 9B79     		ldrb	r3, [r3, #6]	@ zero_extendqisi2
 154:build/openmote-cc2538_armgcc/openstack/cross-layers/packetfunctions.c ****       address->addr_128b[4]  == 0x00 &&
 698              		.loc 1 154 0
 699 02dc 002B     		cmp	r3, #0
 700 02de 29D1     		bne	.L31
 156:build/openmote-cc2538_armgcc/openstack/cross-layers/packetfunctions.c ****       address->addr_128b[6]  == 0x00 &&
 701              		.loc 1 156 0
 702 02e0 7B68     		ldr	r3, [r7, #4]
 703 02e2 DB79     		ldrb	r3, [r3, #7]	@ zero_extendqisi2
 155:build/openmote-cc2538_armgcc/openstack/cross-layers/packetfunctions.c ****       address->addr_128b[5]  == 0x00 &&
 704              		.loc 1 155 0
 705 02e4 002B     		cmp	r3, #0
 706 02e6 25D1     		bne	.L31
 157:build/openmote-cc2538_armgcc/openstack/cross-layers/packetfunctions.c ****       address->addr_128b[7]  == 0x00 &&
 707              		.loc 1 157 0
 708 02e8 7B68     		ldr	r3, [r7, #4]
 709 02ea 1B7A     		ldrb	r3, [r3, #8]	@ zero_extendqisi2
 156:build/openmote-cc2538_armgcc/openstack/cross-layers/packetfunctions.c ****       address->addr_128b[6]  == 0x00 &&
 710              		.loc 1 156 0
 711 02ec 002B     		cmp	r3, #0
 712 02ee 21D1     		bne	.L31
 158:build/openmote-cc2538_armgcc/openstack/cross-layers/packetfunctions.c ****       address->addr_128b[8]  == 0x00 &&
 713              		.loc 1 158 0
 714 02f0 7B68     		ldr	r3, [r7, #4]
 715 02f2 5B7A     		ldrb	r3, [r3, #9]	@ zero_extendqisi2
 157:build/openmote-cc2538_armgcc/openstack/cross-layers/packetfunctions.c ****       address->addr_128b[7]  == 0x00 &&
 716              		.loc 1 157 0
 717 02f4 002B     		cmp	r3, #0
 718 02f6 1DD1     		bne	.L31
 159:build/openmote-cc2538_armgcc/openstack/cross-layers/packetfunctions.c ****       address->addr_128b[9]  == 0x00 &&
 719              		.loc 1 159 0
 720 02f8 7B68     		ldr	r3, [r7, #4]
 721 02fa 9B7A     		ldrb	r3, [r3, #10]	@ zero_extendqisi2
 158:build/openmote-cc2538_armgcc/openstack/cross-layers/packetfunctions.c ****       address->addr_128b[8]  == 0x00 &&
 722              		.loc 1 158 0
 723 02fc 002B     		cmp	r3, #0
 724 02fe 19D1     		bne	.L31
 160:build/openmote-cc2538_armgcc/openstack/cross-layers/packetfunctions.c ****       address->addr_128b[10] == 0x00 &&
 725              		.loc 1 160 0
 726 0300 7B68     		ldr	r3, [r7, #4]
 727 0302 DB7A     		ldrb	r3, [r3, #11]	@ zero_extendqisi2
 159:build/openmote-cc2538_armgcc/openstack/cross-layers/packetfunctions.c ****       address->addr_128b[9]  == 0x00 &&
 728              		.loc 1 159 0
 729 0304 002B     		cmp	r3, #0
 730 0306 15D1     		bne	.L31
 161:build/openmote-cc2538_armgcc/openstack/cross-layers/packetfunctions.c ****       address->addr_128b[11] == 0x00 &&
 731              		.loc 1 161 0
 732 0308 7B68     		ldr	r3, [r7, #4]
 733 030a 1B7B     		ldrb	r3, [r3, #12]	@ zero_extendqisi2
 160:build/openmote-cc2538_armgcc/openstack/cross-layers/packetfunctions.c ****       address->addr_128b[10] == 0x00 &&
 734              		.loc 1 160 0
 735 030c 002B     		cmp	r3, #0
 736 030e 11D1     		bne	.L31
 162:build/openmote-cc2538_armgcc/openstack/cross-layers/packetfunctions.c ****       address->addr_128b[12] == 0x00 &&
 737              		.loc 1 162 0
 738 0310 7B68     		ldr	r3, [r7, #4]
 739 0312 5B7B     		ldrb	r3, [r3, #13]	@ zero_extendqisi2
 161:build/openmote-cc2538_armgcc/openstack/cross-layers/packetfunctions.c ****       address->addr_128b[11] == 0x00 &&
 740              		.loc 1 161 0
 741 0314 002B     		cmp	r3, #0
 742 0316 0DD1     		bne	.L31
 163:build/openmote-cc2538_armgcc/openstack/cross-layers/packetfunctions.c ****       address->addr_128b[13] == 0x00 &&
 743              		.loc 1 163 0
 744 0318 7B68     		ldr	r3, [r7, #4]
 745 031a 9B7B     		ldrb	r3, [r3, #14]	@ zero_extendqisi2
 162:build/openmote-cc2538_armgcc/openstack/cross-layers/packetfunctions.c ****       address->addr_128b[12] == 0x00 &&
 746              		.loc 1 162 0
 747 031c 002B     		cmp	r3, #0
 748 031e 09D1     		bne	.L31
 164:build/openmote-cc2538_armgcc/openstack/cross-layers/packetfunctions.c ****       address->addr_128b[14] == 0x00 &&
 749              		.loc 1 164 0
 750 0320 7B68     		ldr	r3, [r7, #4]
 751 0322 DB7B     		ldrb	r3, [r3, #15]	@ zero_extendqisi2
 163:build/openmote-cc2538_armgcc/openstack/cross-layers/packetfunctions.c ****       address->addr_128b[13] == 0x00 &&
 752              		.loc 1 163 0
 753 0324 002B     		cmp	r3, #0
 754 0326 05D1     		bne	.L31
 165:build/openmote-cc2538_armgcc/openstack/cross-layers/packetfunctions.c ****       address->addr_128b[15] == 0x01
 755              		.loc 1 165 0
 756 0328 7B68     		ldr	r3, [r7, #4]
 757 032a 1B7C     		ldrb	r3, [r3, #16]	@ zero_extendqisi2
 164:build/openmote-cc2538_armgcc/openstack/cross-layers/packetfunctions.c ****       address->addr_128b[14] == 0x00 &&
 758              		.loc 1 164 0
 759 032c 012B     		cmp	r3, #1
 760 032e 01D1     		bne	.L31
 166:build/openmote-cc2538_armgcc/openstack/cross-layers/packetfunctions.c ****    ) {
 167:build/openmote-cc2538_armgcc/openstack/cross-layers/packetfunctions.c ****       return TRUE;
 761              		.loc 1 167 0
 762 0330 0123     		movs	r3, #1
 763 0332 00E0     		b	.L32
 764              	.L31:
 168:build/openmote-cc2538_armgcc/openstack/cross-layers/packetfunctions.c ****    }
 169:build/openmote-cc2538_armgcc/openstack/cross-layers/packetfunctions.c ****    return FALSE;
 765              		.loc 1 169 0
 766 0334 0023     		movs	r3, #0
 767              	.L32:
 170:build/openmote-cc2538_armgcc/openstack/cross-layers/packetfunctions.c **** }
 768              		.loc 1 170 0
 769 0336 1846     		mov	r0, r3
 770 0338 0C37     		adds	r7, r7, #12
 771              		.cfi_def_cfa_offset 4
 772 033a BD46     		mov	sp, r7
 773              		.cfi_def_cfa_register 13
 774              		@ sp needed
 775 033c 80BC     		pop	{r7}
 776              		.cfi_restore 7
 777              		.cfi_def_cfa_offset 0
 778 033e 7047     		bx	lr
 779              		.cfi_endproc
 780              	.LFE6:
 782              		.align	2
 783              		.global	packetfunctions_isLinkLocal
 784              		.thumb
 785              		.thumb_func
 787              	packetfunctions_isLinkLocal:
 788              	.LFB7:
 171:build/openmote-cc2538_armgcc/openstack/cross-layers/packetfunctions.c **** 
 172:build/openmote-cc2538_armgcc/openstack/cross-layers/packetfunctions.c **** bool packetfunctions_isLinkLocal(open_addr_t* address) {
 789              		.loc 1 172 0
 790              		.cfi_startproc
 791              		@ args = 0, pretend = 0, frame = 8
 792              		@ frame_needed = 1, uses_anonymous_args = 0
 793              		@ link register save eliminated.
 794 0340 80B4     		push	{r7}
 795              		.cfi_def_cfa_offset 4
 796              		.cfi_offset 7, -4
 797 0342 83B0     		sub	sp, sp, #12
 798              		.cfi_def_cfa_offset 16
 799 0344 00AF     		add	r7, sp, #0
 800              		.cfi_def_cfa_register 7
 801 0346 7860     		str	r0, [r7, #4]
 173:build/openmote-cc2538_armgcc/openstack/cross-layers/packetfunctions.c ****     if (
 174:build/openmote-cc2538_armgcc/openstack/cross-layers/packetfunctions.c ****       address->type          == ADDR_128B &&
 802              		.loc 1 174 0
 803 0348 7B68     		ldr	r3, [r7, #4]
 804 034a 1B78     		ldrb	r3, [r3]	@ zero_extendqisi2
 173:build/openmote-cc2538_armgcc/openstack/cross-layers/packetfunctions.c ****     if (
 805              		.loc 1 173 0
 806 034c 032B     		cmp	r3, #3
 807 034e 21D1     		bne	.L34
 175:build/openmote-cc2538_armgcc/openstack/cross-layers/packetfunctions.c ****       address->addr_128b[0]  == 0xfe &&
 808              		.loc 1 175 0
 809 0350 7B68     		ldr	r3, [r7, #4]
 810 0352 5B78     		ldrb	r3, [r3, #1]	@ zero_extendqisi2
 174:build/openmote-cc2538_armgcc/openstack/cross-layers/packetfunctions.c ****       address->addr_128b[0]  == 0xfe &&
 811              		.loc 1 174 0
 812 0354 FE2B     		cmp	r3, #254
 813 0356 1DD1     		bne	.L34
 176:build/openmote-cc2538_armgcc/openstack/cross-layers/packetfunctions.c ****       address->addr_128b[1]  == 0x80 &&
 814              		.loc 1 176 0
 815 0358 7B68     		ldr	r3, [r7, #4]
 816 035a 9B78     		ldrb	r3, [r3, #2]	@ zero_extendqisi2
 175:build/openmote-cc2538_armgcc/openstack/cross-layers/packetfunctions.c ****       address->addr_128b[0]  == 0xfe &&
 817              		.loc 1 175 0
 818 035c 802B     		cmp	r3, #128
 819 035e 19D1     		bne	.L34
 177:build/openmote-cc2538_armgcc/openstack/cross-layers/packetfunctions.c ****       address->addr_128b[2]  == 0x00 &&
 820              		.loc 1 177 0
 821 0360 7B68     		ldr	r3, [r7, #4]
 822 0362 DB78     		ldrb	r3, [r3, #3]	@ zero_extendqisi2
 176:build/openmote-cc2538_armgcc/openstack/cross-layers/packetfunctions.c ****       address->addr_128b[1]  == 0x80 &&
 823              		.loc 1 176 0
 824 0364 002B     		cmp	r3, #0
 825 0366 15D1     		bne	.L34
 178:build/openmote-cc2538_armgcc/openstack/cross-layers/packetfunctions.c ****       address->addr_128b[3]  == 0x00 &&
 826              		.loc 1 178 0
 827 0368 7B68     		ldr	r3, [r7, #4]
 828 036a 1B79     		ldrb	r3, [r3, #4]	@ zero_extendqisi2
 177:build/openmote-cc2538_armgcc/openstack/cross-layers/packetfunctions.c ****       address->addr_128b[2]  == 0x00 &&
 829              		.loc 1 177 0
 830 036c 002B     		cmp	r3, #0
 831 036e 11D1     		bne	.L34
 179:build/openmote-cc2538_armgcc/openstack/cross-layers/packetfunctions.c ****       address->addr_128b[4]  == 0x00 &&
 832              		.loc 1 179 0
 833 0370 7B68     		ldr	r3, [r7, #4]
 834 0372 5B79     		ldrb	r3, [r3, #5]	@ zero_extendqisi2
 178:build/openmote-cc2538_armgcc/openstack/cross-layers/packetfunctions.c ****       address->addr_128b[3]  == 0x00 &&
 835              		.loc 1 178 0
 836 0374 002B     		cmp	r3, #0
 837 0376 0DD1     		bne	.L34
 180:build/openmote-cc2538_armgcc/openstack/cross-layers/packetfunctions.c ****       address->addr_128b[5]  == 0x00 &&
 838              		.loc 1 180 0
 839 0378 7B68     		ldr	r3, [r7, #4]
 840 037a 9B79     		ldrb	r3, [r3, #6]	@ zero_extendqisi2
 179:build/openmote-cc2538_armgcc/openstack/cross-layers/packetfunctions.c ****       address->addr_128b[4]  == 0x00 &&
 841              		.loc 1 179 0
 842 037c 002B     		cmp	r3, #0
 843 037e 09D1     		bne	.L34
 181:build/openmote-cc2538_armgcc/openstack/cross-layers/packetfunctions.c ****       address->addr_128b[6]  == 0x00 &&
 844              		.loc 1 181 0
 845 0380 7B68     		ldr	r3, [r7, #4]
 846 0382 DB79     		ldrb	r3, [r3, #7]	@ zero_extendqisi2
 180:build/openmote-cc2538_armgcc/openstack/cross-layers/packetfunctions.c ****       address->addr_128b[5]  == 0x00 &&
 847              		.loc 1 180 0
 848 0384 002B     		cmp	r3, #0
 849 0386 05D1     		bne	.L34
 182:build/openmote-cc2538_armgcc/openstack/cross-layers/packetfunctions.c ****       address->addr_128b[7]  == 0x00 
 850              		.loc 1 182 0
 851 0388 7B68     		ldr	r3, [r7, #4]
 852 038a 1B7A     		ldrb	r3, [r3, #8]	@ zero_extendqisi2
 181:build/openmote-cc2538_armgcc/openstack/cross-layers/packetfunctions.c ****       address->addr_128b[6]  == 0x00 &&
 853              		.loc 1 181 0
 854 038c 002B     		cmp	r3, #0
 855 038e 01D1     		bne	.L34
 183:build/openmote-cc2538_armgcc/openstack/cross-layers/packetfunctions.c ****    ) {
 184:build/openmote-cc2538_armgcc/openstack/cross-layers/packetfunctions.c ****       return TRUE;
 856              		.loc 1 184 0
 857 0390 0123     		movs	r3, #1
 858 0392 00E0     		b	.L35
 859              	.L34:
 185:build/openmote-cc2538_armgcc/openstack/cross-layers/packetfunctions.c ****    }
 186:build/openmote-cc2538_armgcc/openstack/cross-layers/packetfunctions.c ****    return FALSE;
 860              		.loc 1 186 0
 861 0394 0023     		movs	r3, #0
 862              	.L35:
 187:build/openmote-cc2538_armgcc/openstack/cross-layers/packetfunctions.c **** }
 863              		.loc 1 187 0
 864 0396 1846     		mov	r0, r3
 865 0398 0C37     		adds	r7, r7, #12
 866              		.cfi_def_cfa_offset 4
 867 039a BD46     		mov	sp, r7
 868              		.cfi_def_cfa_register 13
 869              		@ sp needed
 870 039c 80BC     		pop	{r7}
 871              		.cfi_restore 7
 872              		.cfi_def_cfa_offset 0
 873 039e 7047     		bx	lr
 874              		.cfi_endproc
 875              	.LFE7:
 877              		.align	2
 878              		.global	packetfunctions_sameAddress
 879              		.thumb
 880              		.thumb_func
 882              	packetfunctions_sameAddress:
 883              	.LFB8:
 188:build/openmote-cc2538_armgcc/openstack/cross-layers/packetfunctions.c **** 
 189:build/openmote-cc2538_armgcc/openstack/cross-layers/packetfunctions.c **** bool packetfunctions_sameAddress(open_addr_t* address_1, open_addr_t* address_2) {
 884              		.loc 1 189 0
 885              		.cfi_startproc
 886              		@ args = 0, pretend = 0, frame = 16
 887              		@ frame_needed = 1, uses_anonymous_args = 0
 888 03a0 80B5     		push	{r7, lr}
 889              		.cfi_def_cfa_offset 8
 890              		.cfi_offset 7, -8
 891              		.cfi_offset 14, -4
 892 03a2 84B0     		sub	sp, sp, #16
 893              		.cfi_def_cfa_offset 24
 894 03a4 00AF     		add	r7, sp, #0
 895              		.cfi_def_cfa_register 7
 896 03a6 7860     		str	r0, [r7, #4]
 897 03a8 3960     		str	r1, [r7]
 190:build/openmote-cc2538_armgcc/openstack/cross-layers/packetfunctions.c ****    uint8_t address_length;
 191:build/openmote-cc2538_armgcc/openstack/cross-layers/packetfunctions.c ****    
 192:build/openmote-cc2538_armgcc/openstack/cross-layers/packetfunctions.c ****    //printf("is address %d, equal to %d \n", address_1->addr_64b[7],address_2->addr_64b[7]);
 193:build/openmote-cc2538_armgcc/openstack/cross-layers/packetfunctions.c **** 
 194:build/openmote-cc2538_armgcc/openstack/cross-layers/packetfunctions.c ****    if (address_1->type!=address_2->type) {
 898              		.loc 1 194 0
 899 03aa 7B68     		ldr	r3, [r7, #4]
 900 03ac 1A78     		ldrb	r2, [r3]	@ zero_extendqisi2
 901 03ae 3B68     		ldr	r3, [r7]
 902 03b0 1B78     		ldrb	r3, [r3]	@ zero_extendqisi2
 903 03b2 9A42     		cmp	r2, r3
 904 03b4 01D0     		beq	.L37
 195:build/openmote-cc2538_armgcc/openstack/cross-layers/packetfunctions.c **** 	  //printf("NO\n");
 196:build/openmote-cc2538_armgcc/openstack/cross-layers/packetfunctions.c ****       return FALSE;
 905              		.loc 1 196 0
 906 03b6 0023     		movs	r3, #0
 907 03b8 35E0     		b	.L38
 908              	.L37:
 197:build/openmote-cc2538_armgcc/openstack/cross-layers/packetfunctions.c ****    }
 198:build/openmote-cc2538_armgcc/openstack/cross-layers/packetfunctions.c ****    switch (address_1->type) {
 909              		.loc 1 198 0
 910 03ba 7B68     		ldr	r3, [r7, #4]
 911 03bc 1B78     		ldrb	r3, [r3]	@ zero_extendqisi2
 912 03be 013B     		subs	r3, r3, #1
 913 03c0 052B     		cmp	r3, #5
 914 03c2 18D8     		bhi	.L39
 915 03c4 01A2     		adr	r2, .L41
 916 03c6 52F823F0 		ldr	pc, [r2, r3, lsl #2]
 917 03ca 00BF     		.p2align 2
 918              	.L41:
 919 03cc E5030000 		.word	.L40+1
 920 03d0 EB030000 		.word	.L42+1
 921 03d4 F1030000 		.word	.L43+1
 922 03d8 E5030000 		.word	.L40+1
 923 03dc EB030000 		.word	.L42+1
 924 03e0 F1030000 		.word	.L43+1
 925              		.p2align 1
 926              	.L40:
 199:build/openmote-cc2538_armgcc/openstack/cross-layers/packetfunctions.c ****       case ADDR_16B:
 200:build/openmote-cc2538_armgcc/openstack/cross-layers/packetfunctions.c ****       case ADDR_PANID:
 201:build/openmote-cc2538_armgcc/openstack/cross-layers/packetfunctions.c ****          address_length = 2;
 927              		.loc 1 201 0
 928 03e4 0223     		movs	r3, #2
 929 03e6 FB73     		strb	r3, [r7, #15]
 202:build/openmote-cc2538_armgcc/openstack/cross-layers/packetfunctions.c ****          break;
 930              		.loc 1 202 0
 931 03e8 0FE0     		b	.L44
 932              	.L42:
 203:build/openmote-cc2538_armgcc/openstack/cross-layers/packetfunctions.c ****       case ADDR_64B:
 204:build/openmote-cc2538_armgcc/openstack/cross-layers/packetfunctions.c ****       case ADDR_PREFIX:
 205:build/openmote-cc2538_armgcc/openstack/cross-layers/packetfunctions.c ****          address_length = 8;
 933              		.loc 1 205 0
 934 03ea 0823     		movs	r3, #8
 935 03ec FB73     		strb	r3, [r7, #15]
 206:build/openmote-cc2538_armgcc/openstack/cross-layers/packetfunctions.c ****          break;
 936              		.loc 1 206 0
 937 03ee 0CE0     		b	.L44
 938              	.L43:
 207:build/openmote-cc2538_armgcc/openstack/cross-layers/packetfunctions.c ****       case ADDR_128B:
 208:build/openmote-cc2538_armgcc/openstack/cross-layers/packetfunctions.c ****       case ADDR_ANYCAST:
 209:build/openmote-cc2538_armgcc/openstack/cross-layers/packetfunctions.c ****          address_length = 16;
 939              		.loc 1 209 0
 940 03f0 1023     		movs	r3, #16
 941 03f2 FB73     		strb	r3, [r7, #15]
 210:build/openmote-cc2538_armgcc/openstack/cross-layers/packetfunctions.c ****          break;
 942              		.loc 1 210 0
 943 03f4 09E0     		b	.L44
 944              	.L39:
 211:build/openmote-cc2538_armgcc/openstack/cross-layers/packetfunctions.c ****     
 212:build/openmote-cc2538_armgcc/openstack/cross-layers/packetfunctions.c ****       default:
 213:build/openmote-cc2538_armgcc/openstack/cross-layers/packetfunctions.c ****          openserial_printCritical(COMPONENT_PACKETFUNCTIONS,ERR_WRONG_ADDR_TYPE,
 214:build/openmote-cc2538_armgcc/openstack/cross-layers/packetfunctions.c ****                                (errorparameter_t)address_1->type,
 945              		.loc 1 214 0
 946 03f6 7B68     		ldr	r3, [r7, #4]
 947 03f8 1B78     		ldrb	r3, [r3]	@ zero_extendqisi2
 213:build/openmote-cc2538_armgcc/openstack/cross-layers/packetfunctions.c ****                                (errorparameter_t)address_1->type,
 948              		.loc 1 213 0
 949 03fa 9AB2     		uxth	r2, r3
 950 03fc 0523     		movs	r3, #5
 951 03fe 3121     		movs	r1, #49
 952 0400 0520     		movs	r0, #5
 953 0402 FFF7FEFF 		bl	openserial_printCritical
 215:build/openmote-cc2538_armgcc/openstack/cross-layers/packetfunctions.c ****                                (errorparameter_t)5);
 216:build/openmote-cc2538_armgcc/openstack/cross-layers/packetfunctions.c ****          return FALSE;
 954              		.loc 1 216 0
 955 0406 0023     		movs	r3, #0
 956 0408 0DE0     		b	.L38
 957              	.L44:
 217:build/openmote-cc2538_armgcc/openstack/cross-layers/packetfunctions.c ****    }
 218:build/openmote-cc2538_armgcc/openstack/cross-layers/packetfunctions.c ****    if (memcmp((void*)address_1->addr_128b,(void*)address_2->addr_128b,address_length)==0) {
 958              		.loc 1 218 0
 959 040a 7B68     		ldr	r3, [r7, #4]
 960 040c 581C     		adds	r0, r3, #1
 961 040e 3B68     		ldr	r3, [r7]
 962 0410 0133     		adds	r3, r3, #1
 963 0412 FA7B     		ldrb	r2, [r7, #15]	@ zero_extendqisi2
 964 0414 1946     		mov	r1, r3
 965 0416 FFF7FEFF 		bl	memcmp
 966 041a 0346     		mov	r3, r0
 967 041c 002B     		cmp	r3, #0
 968 041e 01D1     		bne	.L45
 219:build/openmote-cc2538_armgcc/openstack/cross-layers/packetfunctions.c **** 	   //printf("YES\n");
 220:build/openmote-cc2538_armgcc/openstack/cross-layers/packetfunctions.c ****       return TRUE;
 969              		.loc 1 220 0
 970 0420 0123     		movs	r3, #1
 971 0422 00E0     		b	.L38
 972              	.L45:
 221:build/openmote-cc2538_armgcc/openstack/cross-layers/packetfunctions.c ****    }
 222:build/openmote-cc2538_armgcc/openstack/cross-layers/packetfunctions.c ****    //printf("NO\n");
 223:build/openmote-cc2538_armgcc/openstack/cross-layers/packetfunctions.c ****    return FALSE;
 973              		.loc 1 223 0
 974 0424 0023     		movs	r3, #0
 975              	.L38:
 224:build/openmote-cc2538_armgcc/openstack/cross-layers/packetfunctions.c **** }
 976              		.loc 1 224 0
 977 0426 1846     		mov	r0, r3
 978 0428 1037     		adds	r7, r7, #16
 979              		.cfi_def_cfa_offset 8
 980 042a BD46     		mov	sp, r7
 981              		.cfi_def_cfa_register 13
 982              		@ sp needed
 983 042c 80BD     		pop	{r7, pc}
 984              		.cfi_endproc
 985              	.LFE8:
 987 042e 00BF     		.align	2
 988              		.global	packetfunctions_readAddress
 989              		.thumb
 990              		.thumb_func
 992              	packetfunctions_readAddress:
 993              	.LFB9:
 225:build/openmote-cc2538_armgcc/openstack/cross-layers/packetfunctions.c **** 
 226:build/openmote-cc2538_armgcc/openstack/cross-layers/packetfunctions.c **** //======= address read/write
 227:build/openmote-cc2538_armgcc/openstack/cross-layers/packetfunctions.c **** 
 228:build/openmote-cc2538_armgcc/openstack/cross-layers/packetfunctions.c **** void packetfunctions_readAddress(uint8_t* payload, uint8_t type, open_addr_t* writeToAddress, bool 
 994              		.loc 1 228 0
 995              		.cfi_startproc
 996              		@ args = 0, pretend = 0, frame = 24
 997              		@ frame_needed = 1, uses_anonymous_args = 0
 998 0430 80B5     		push	{r7, lr}
 999              		.cfi_def_cfa_offset 8
 1000              		.cfi_offset 7, -8
 1001              		.cfi_offset 14, -4
 1002 0432 86B0     		sub	sp, sp, #24
 1003              		.cfi_def_cfa_offset 32
 1004 0434 00AF     		add	r7, sp, #0
 1005              		.cfi_def_cfa_register 7
 1006 0436 F860     		str	r0, [r7, #12]
 1007 0438 7A60     		str	r2, [r7, #4]
 1008 043a 1A46     		mov	r2, r3
 1009 043c 0B46     		mov	r3, r1
 1010 043e FB72     		strb	r3, [r7, #11]
 1011 0440 1346     		mov	r3, r2
 1012 0442 BB72     		strb	r3, [r7, #10]
 229:build/openmote-cc2538_armgcc/openstack/cross-layers/packetfunctions.c ****    uint8_t i;
 230:build/openmote-cc2538_armgcc/openstack/cross-layers/packetfunctions.c ****    uint8_t address_length;
 231:build/openmote-cc2538_armgcc/openstack/cross-layers/packetfunctions.c ****    
 232:build/openmote-cc2538_armgcc/openstack/cross-layers/packetfunctions.c ****    writeToAddress->type = type;
 1013              		.loc 1 232 0
 1014 0444 7B68     		ldr	r3, [r7, #4]
 1015 0446 FA7A     		ldrb	r2, [r7, #11]
 1016 0448 1A70     		strb	r2, [r3]
 233:build/openmote-cc2538_armgcc/openstack/cross-layers/packetfunctions.c ****    switch (type) {
 1017              		.loc 1 233 0
 1018 044a FB7A     		ldrb	r3, [r7, #11]	@ zero_extendqisi2
 1019 044c 013B     		subs	r3, r3, #1
 1020 044e 042B     		cmp	r3, #4
 1021 0450 15D8     		bhi	.L47
 1022 0452 01A2     		adr	r2, .L49
 1023 0454 52F823F0 		ldr	pc, [r2, r3, lsl #2]
 1024              		.p2align 2
 1025              	.L49:
 1026 0458 6D040000 		.word	.L48+1
 1027 045c 73040000 		.word	.L50+1
 1028 0460 79040000 		.word	.L51+1
 1029 0464 6D040000 		.word	.L48+1
 1030 0468 73040000 		.word	.L50+1
 1031              		.p2align 1
 1032              	.L48:
 234:build/openmote-cc2538_armgcc/openstack/cross-layers/packetfunctions.c ****       case ADDR_16B:
 235:build/openmote-cc2538_armgcc/openstack/cross-layers/packetfunctions.c ****       case ADDR_PANID:
 236:build/openmote-cc2538_armgcc/openstack/cross-layers/packetfunctions.c ****          address_length = 2;
 1033              		.loc 1 236 0
 1034 046c 0223     		movs	r3, #2
 1035 046e BB75     		strb	r3, [r7, #22]
 237:build/openmote-cc2538_armgcc/openstack/cross-layers/packetfunctions.c ****          break;
 1036              		.loc 1 237 0
 1037 0470 0DE0     		b	.L52
 1038              	.L50:
 238:build/openmote-cc2538_armgcc/openstack/cross-layers/packetfunctions.c ****       case ADDR_64B:
 239:build/openmote-cc2538_armgcc/openstack/cross-layers/packetfunctions.c ****       case ADDR_PREFIX:
 240:build/openmote-cc2538_armgcc/openstack/cross-layers/packetfunctions.c ****          address_length = 8;
 1039              		.loc 1 240 0
 1040 0472 0823     		movs	r3, #8
 1041 0474 BB75     		strb	r3, [r7, #22]
 241:build/openmote-cc2538_armgcc/openstack/cross-layers/packetfunctions.c ****          break;
 1042              		.loc 1 241 0
 1043 0476 0AE0     		b	.L52
 1044              	.L51:
 242:build/openmote-cc2538_armgcc/openstack/cross-layers/packetfunctions.c ****       case ADDR_128B:
 243:build/openmote-cc2538_armgcc/openstack/cross-layers/packetfunctions.c ****          address_length = 16;
 1045              		.loc 1 243 0
 1046 0478 1023     		movs	r3, #16
 1047 047a BB75     		strb	r3, [r7, #22]
 244:build/openmote-cc2538_armgcc/openstack/cross-layers/packetfunctions.c ****          break;
 1048              		.loc 1 244 0
 1049 047c 07E0     		b	.L52
 1050              	.L47:
 245:build/openmote-cc2538_armgcc/openstack/cross-layers/packetfunctions.c ****       default:
 246:build/openmote-cc2538_armgcc/openstack/cross-layers/packetfunctions.c ****          openserial_printCritical(COMPONENT_PACKETFUNCTIONS,ERR_WRONG_ADDR_TYPE,
 1051              		.loc 1 246 0
 1052 047e FB7A     		ldrb	r3, [r7, #11]	@ zero_extendqisi2
 1053 0480 9AB2     		uxth	r2, r3
 1054 0482 0623     		movs	r3, #6
 1055 0484 3121     		movs	r1, #49
 1056 0486 0520     		movs	r0, #5
 1057 0488 FFF7FEFF 		bl	openserial_printCritical
 247:build/openmote-cc2538_armgcc/openstack/cross-layers/packetfunctions.c ****                                (errorparameter_t)type,
 248:build/openmote-cc2538_armgcc/openstack/cross-layers/packetfunctions.c ****                                (errorparameter_t)6);
 249:build/openmote-cc2538_armgcc/openstack/cross-layers/packetfunctions.c ****          return;
 1058              		.loc 1 249 0
 1059 048c 22E0     		b	.L46
 1060              	.L52:
 250:build/openmote-cc2538_armgcc/openstack/cross-layers/packetfunctions.c ****    }
 251:build/openmote-cc2538_armgcc/openstack/cross-layers/packetfunctions.c ****    
 252:build/openmote-cc2538_armgcc/openstack/cross-layers/packetfunctions.c ****    for (i=0;i<address_length;i++) {
 1061              		.loc 1 252 0
 1062 048e 0023     		movs	r3, #0
 1063 0490 FB75     		strb	r3, [r7, #23]
 1064 0492 1BE0     		b	.L54
 1065              	.L57:
 253:build/openmote-cc2538_armgcc/openstack/cross-layers/packetfunctions.c ****       if (littleEndian) {
 1066              		.loc 1 253 0
 1067 0494 BB7A     		ldrb	r3, [r7, #10]	@ zero_extendqisi2
 1068 0496 002B     		cmp	r3, #0
 1069 0498 0CD0     		beq	.L55
 254:build/openmote-cc2538_armgcc/openstack/cross-layers/packetfunctions.c ****          writeToAddress->addr_128b[address_length-1-i] = *(payload+i);
 1070              		.loc 1 254 0
 1071 049a BB7D     		ldrb	r3, [r7, #22]	@ zero_extendqisi2
 1072 049c 5A1E     		subs	r2, r3, #1
 1073 049e FB7D     		ldrb	r3, [r7, #23]	@ zero_extendqisi2
 1074 04a0 D31A     		subs	r3, r2, r3
 1075 04a2 FA7D     		ldrb	r2, [r7, #23]	@ zero_extendqisi2
 1076 04a4 F968     		ldr	r1, [r7, #12]
 1077 04a6 0A44     		add	r2, r2, r1
 1078 04a8 1178     		ldrb	r1, [r2]	@ zero_extendqisi2
 1079 04aa 7A68     		ldr	r2, [r7, #4]
 1080 04ac 1344     		add	r3, r3, r2
 1081 04ae 0A46     		mov	r2, r1
 1082 04b0 5A70     		strb	r2, [r3, #1]
 1083 04b2 08E0     		b	.L56
 1084              	.L55:
 255:build/openmote-cc2538_armgcc/openstack/cross-layers/packetfunctions.c ****       } else {
 256:build/openmote-cc2538_armgcc/openstack/cross-layers/packetfunctions.c ****          writeToAddress->addr_128b[i]   = *(payload+i);
 1085              		.loc 1 256 0
 1086 04b4 FB7D     		ldrb	r3, [r7, #23]	@ zero_extendqisi2
 1087 04b6 FA7D     		ldrb	r2, [r7, #23]	@ zero_extendqisi2
 1088 04b8 F968     		ldr	r1, [r7, #12]
 1089 04ba 0A44     		add	r2, r2, r1
 1090 04bc 1178     		ldrb	r1, [r2]	@ zero_extendqisi2
 1091 04be 7A68     		ldr	r2, [r7, #4]
 1092 04c0 1344     		add	r3, r3, r2
 1093 04c2 0A46     		mov	r2, r1
 1094 04c4 5A70     		strb	r2, [r3, #1]
 1095              	.L56:
 252:build/openmote-cc2538_armgcc/openstack/cross-layers/packetfunctions.c ****       if (littleEndian) {
 1096              		.loc 1 252 0 discriminator 2
 1097 04c6 FB7D     		ldrb	r3, [r7, #23]	@ zero_extendqisi2
 1098 04c8 0133     		adds	r3, r3, #1
 1099 04ca FB75     		strb	r3, [r7, #23]
 1100              	.L54:
 252:build/openmote-cc2538_armgcc/openstack/cross-layers/packetfunctions.c ****       if (littleEndian) {
 1101              		.loc 1 252 0 is_stmt 0 discriminator 1
 1102 04cc FA7D     		ldrb	r2, [r7, #23]	@ zero_extendqisi2
 1103 04ce BB7D     		ldrb	r3, [r7, #22]	@ zero_extendqisi2
 1104 04d0 9A42     		cmp	r2, r3
 1105 04d2 DFD3     		bcc	.L57
 1106              	.L46:
 257:build/openmote-cc2538_armgcc/openstack/cross-layers/packetfunctions.c ****       }
 258:build/openmote-cc2538_armgcc/openstack/cross-layers/packetfunctions.c ****    }
 259:build/openmote-cc2538_armgcc/openstack/cross-layers/packetfunctions.c **** }
 1107              		.loc 1 259 0 is_stmt 1
 1108 04d4 1837     		adds	r7, r7, #24
 1109              		.cfi_def_cfa_offset 8
 1110 04d6 BD46     		mov	sp, r7
 1111              		.cfi_def_cfa_register 13
 1112              		@ sp needed
 1113 04d8 80BD     		pop	{r7, pc}
 1114              		.cfi_endproc
 1115              	.LFE9:
 1117 04da 00BF     		.align	2
 1118              		.global	packetfunctions_writeAddress
 1119              		.thumb
 1120              		.thumb_func
 1122              	packetfunctions_writeAddress:
 1123              	.LFB10:
 260:build/openmote-cc2538_armgcc/openstack/cross-layers/packetfunctions.c **** 
 261:build/openmote-cc2538_armgcc/openstack/cross-layers/packetfunctions.c **** void packetfunctions_writeAddress(OpenQueueEntry_t* msg, open_addr_t* address, bool littleEndian) {
 1124              		.loc 1 261 0
 1125              		.cfi_startproc
 1126              		@ args = 0, pretend = 0, frame = 24
 1127              		@ frame_needed = 1, uses_anonymous_args = 0
 1128 04dc 80B5     		push	{r7, lr}
 1129              		.cfi_def_cfa_offset 8
 1130              		.cfi_offset 7, -8
 1131              		.cfi_offset 14, -4
 1132 04de 86B0     		sub	sp, sp, #24
 1133              		.cfi_def_cfa_offset 32
 1134 04e0 00AF     		add	r7, sp, #0
 1135              		.cfi_def_cfa_register 7
 1136 04e2 F860     		str	r0, [r7, #12]
 1137 04e4 B960     		str	r1, [r7, #8]
 1138 04e6 1346     		mov	r3, r2
 1139 04e8 FB71     		strb	r3, [r7, #7]
 262:build/openmote-cc2538_armgcc/openstack/cross-layers/packetfunctions.c ****    uint8_t i;
 263:build/openmote-cc2538_armgcc/openstack/cross-layers/packetfunctions.c ****    uint8_t address_length;
 264:build/openmote-cc2538_armgcc/openstack/cross-layers/packetfunctions.c ****    
 265:build/openmote-cc2538_armgcc/openstack/cross-layers/packetfunctions.c ****    switch (address->type) {
 1140              		.loc 1 265 0
 1141 04ea BB68     		ldr	r3, [r7, #8]
 1142 04ec 1B78     		ldrb	r3, [r3]	@ zero_extendqisi2
 1143 04ee 013B     		subs	r3, r3, #1
 1144 04f0 042B     		cmp	r3, #4
 1145 04f2 16D8     		bhi	.L59
 1146 04f4 01A2     		adr	r2, .L61
 1147 04f6 52F823F0 		ldr	pc, [r2, r3, lsl #2]
 1148 04fa 00BF     		.p2align 2
 1149              	.L61:
 1150 04fc 11050000 		.word	.L60+1
 1151 0500 17050000 		.word	.L62+1
 1152 0504 1D050000 		.word	.L63+1
 1153 0508 11050000 		.word	.L60+1
 1154 050c 17050000 		.word	.L62+1
 1155              		.p2align 1
 1156              	.L60:
 266:build/openmote-cc2538_armgcc/openstack/cross-layers/packetfunctions.c ****       case ADDR_16B:
 267:build/openmote-cc2538_armgcc/openstack/cross-layers/packetfunctions.c ****       case ADDR_PANID:
 268:build/openmote-cc2538_armgcc/openstack/cross-layers/packetfunctions.c ****          address_length = 2;
 1157              		.loc 1 268 0
 1158 0510 0223     		movs	r3, #2
 1159 0512 BB75     		strb	r3, [r7, #22]
 269:build/openmote-cc2538_armgcc/openstack/cross-layers/packetfunctions.c ****          break;
 1160              		.loc 1 269 0
 1161 0514 0EE0     		b	.L64
 1162              	.L62:
 270:build/openmote-cc2538_armgcc/openstack/cross-layers/packetfunctions.c ****       case ADDR_64B:
 271:build/openmote-cc2538_armgcc/openstack/cross-layers/packetfunctions.c ****       case ADDR_PREFIX:
 272:build/openmote-cc2538_armgcc/openstack/cross-layers/packetfunctions.c ****          address_length = 8;
 1163              		.loc 1 272 0
 1164 0516 0823     		movs	r3, #8
 1165 0518 BB75     		strb	r3, [r7, #22]
 273:build/openmote-cc2538_armgcc/openstack/cross-layers/packetfunctions.c ****          break;
 1166              		.loc 1 273 0
 1167 051a 0BE0     		b	.L64
 1168              	.L63:
 274:build/openmote-cc2538_armgcc/openstack/cross-layers/packetfunctions.c ****       case ADDR_128B:
 275:build/openmote-cc2538_armgcc/openstack/cross-layers/packetfunctions.c ****          address_length = 16;
 1169              		.loc 1 275 0
 1170 051c 1023     		movs	r3, #16
 1171 051e BB75     		strb	r3, [r7, #22]
 276:build/openmote-cc2538_armgcc/openstack/cross-layers/packetfunctions.c ****          break;
 1172              		.loc 1 276 0
 1173 0520 08E0     		b	.L64
 1174              	.L59:
 277:build/openmote-cc2538_armgcc/openstack/cross-layers/packetfunctions.c ****       default:
 278:build/openmote-cc2538_armgcc/openstack/cross-layers/packetfunctions.c ****          openserial_printCritical(COMPONENT_PACKETFUNCTIONS,ERR_WRONG_ADDR_TYPE,
 279:build/openmote-cc2538_armgcc/openstack/cross-layers/packetfunctions.c ****                                (errorparameter_t)address->type,
 1175              		.loc 1 279 0
 1176 0522 BB68     		ldr	r3, [r7, #8]
 1177 0524 1B78     		ldrb	r3, [r3]	@ zero_extendqisi2
 278:build/openmote-cc2538_armgcc/openstack/cross-layers/packetfunctions.c ****                                (errorparameter_t)address->type,
 1178              		.loc 1 278 0
 1179 0526 9AB2     		uxth	r2, r3
 1180 0528 0723     		movs	r3, #7
 1181 052a 3121     		movs	r1, #49
 1182 052c 0520     		movs	r0, #5
 1183 052e FFF7FEFF 		bl	openserial_printCritical
 280:build/openmote-cc2538_armgcc/openstack/cross-layers/packetfunctions.c ****                                (errorparameter_t)7);
 281:build/openmote-cc2538_armgcc/openstack/cross-layers/packetfunctions.c ****          return;
 1184              		.loc 1 281 0
 1185 0532 29E0     		b	.L58
 1186              	.L64:
 282:build/openmote-cc2538_armgcc/openstack/cross-layers/packetfunctions.c ****    }
 283:build/openmote-cc2538_armgcc/openstack/cross-layers/packetfunctions.c ****    
 284:build/openmote-cc2538_armgcc/openstack/cross-layers/packetfunctions.c ****    for (i=0;i<address_length;i++) {
 1187              		.loc 1 284 0
 1188 0534 0023     		movs	r3, #0
 1189 0536 FB75     		strb	r3, [r7, #23]
 1190 0538 22E0     		b	.L66
 1191              	.L69:
 285:build/openmote-cc2538_armgcc/openstack/cross-layers/packetfunctions.c ****       msg->payload      -= sizeof(uint8_t);
 1192              		.loc 1 285 0
 1193 053a FB68     		ldr	r3, [r7, #12]
 1194 053c 5B68     		ldr	r3, [r3, #4]
 1195 053e 5A1E     		subs	r2, r3, #1
 1196 0540 FB68     		ldr	r3, [r7, #12]
 1197 0542 5A60     		str	r2, [r3, #4]
 286:build/openmote-cc2538_armgcc/openstack/cross-layers/packetfunctions.c ****       msg->length       += sizeof(uint8_t);
 1198              		.loc 1 286 0
 1199 0544 FB68     		ldr	r3, [r7, #12]
 1200 0546 1B7A     		ldrb	r3, [r3, #8]	@ zero_extendqisi2
 1201 0548 0133     		adds	r3, r3, #1
 1202 054a DAB2     		uxtb	r2, r3
 1203 054c FB68     		ldr	r3, [r7, #12]
 1204 054e 1A72     		strb	r2, [r3, #8]
 287:build/openmote-cc2538_armgcc/openstack/cross-layers/packetfunctions.c ****       if (littleEndian) {
 1205              		.loc 1 287 0
 1206 0550 FB79     		ldrb	r3, [r7, #7]	@ zero_extendqisi2
 1207 0552 002B     		cmp	r3, #0
 1208 0554 07D0     		beq	.L67
 288:build/openmote-cc2538_armgcc/openstack/cross-layers/packetfunctions.c ****          *((uint8_t*)(msg->payload)) = address->addr_128b[i];
 1209              		.loc 1 288 0
 1210 0556 FB68     		ldr	r3, [r7, #12]
 1211 0558 5B68     		ldr	r3, [r3, #4]
 1212 055a FA7D     		ldrb	r2, [r7, #23]	@ zero_extendqisi2
 1213 055c B968     		ldr	r1, [r7, #8]
 1214 055e 0A44     		add	r2, r2, r1
 1215 0560 5278     		ldrb	r2, [r2, #1]	@ zero_extendqisi2
 1216 0562 1A70     		strb	r2, [r3]
 1217 0564 09E0     		b	.L68
 1218              	.L67:
 289:build/openmote-cc2538_armgcc/openstack/cross-layers/packetfunctions.c ****       } else {
 290:build/openmote-cc2538_armgcc/openstack/cross-layers/packetfunctions.c ****          *((uint8_t*)(msg->payload)) = address->addr_128b[address_length-1-i];
 1219              		.loc 1 290 0
 1220 0566 FB68     		ldr	r3, [r7, #12]
 1221 0568 5B68     		ldr	r3, [r3, #4]
 1222 056a BA7D     		ldrb	r2, [r7, #22]	@ zero_extendqisi2
 1223 056c 511E     		subs	r1, r2, #1
 1224 056e FA7D     		ldrb	r2, [r7, #23]	@ zero_extendqisi2
 1225 0570 8A1A     		subs	r2, r1, r2
 1226 0572 B968     		ldr	r1, [r7, #8]
 1227 0574 0A44     		add	r2, r2, r1
 1228 0576 5278     		ldrb	r2, [r2, #1]	@ zero_extendqisi2
 1229 0578 1A70     		strb	r2, [r3]
 1230              	.L68:
 284:build/openmote-cc2538_armgcc/openstack/cross-layers/packetfunctions.c ****       msg->payload      -= sizeof(uint8_t);
 1231              		.loc 1 284 0 discriminator 2
 1232 057a FB7D     		ldrb	r3, [r7, #23]	@ zero_extendqisi2
 1233 057c 0133     		adds	r3, r3, #1
 1234 057e FB75     		strb	r3, [r7, #23]
 1235              	.L66:
 284:build/openmote-cc2538_armgcc/openstack/cross-layers/packetfunctions.c ****       msg->payload      -= sizeof(uint8_t);
 1236              		.loc 1 284 0 is_stmt 0 discriminator 1
 1237 0580 FA7D     		ldrb	r2, [r7, #23]	@ zero_extendqisi2
 1238 0582 BB7D     		ldrb	r3, [r7, #22]	@ zero_extendqisi2
 1239 0584 9A42     		cmp	r2, r3
 1240 0586 D8D3     		bcc	.L69
 1241              	.L58:
 291:build/openmote-cc2538_armgcc/openstack/cross-layers/packetfunctions.c ****       }
 292:build/openmote-cc2538_armgcc/openstack/cross-layers/packetfunctions.c ****    }
 293:build/openmote-cc2538_armgcc/openstack/cross-layers/packetfunctions.c **** }
 1242              		.loc 1 293 0 is_stmt 1
 1243 0588 1837     		adds	r7, r7, #24
 1244              		.cfi_def_cfa_offset 8
 1245 058a BD46     		mov	sp, r7
 1246              		.cfi_def_cfa_register 13
 1247              		@ sp needed
 1248 058c 80BD     		pop	{r7, pc}
 1249              		.cfi_endproc
 1250              	.LFE10:
 1252 058e 00BF     		.align	2
 1253              		.global	packetfunctions_reserveHeaderSize
 1254              		.thumb
 1255              		.thumb_func
 1257              	packetfunctions_reserveHeaderSize:
 1258              	.LFB11:
 294:build/openmote-cc2538_armgcc/openstack/cross-layers/packetfunctions.c **** 
 295:build/openmote-cc2538_armgcc/openstack/cross-layers/packetfunctions.c **** //======= reserving/tossing headers
 296:build/openmote-cc2538_armgcc/openstack/cross-layers/packetfunctions.c **** 
 297:build/openmote-cc2538_armgcc/openstack/cross-layers/packetfunctions.c **** void packetfunctions_reserveHeaderSize(OpenQueueEntry_t* pkt, uint8_t header_length) {
 1259              		.loc 1 297 0
 1260              		.cfi_startproc
 1261              		@ args = 0, pretend = 0, frame = 8
 1262              		@ frame_needed = 1, uses_anonymous_args = 0
 1263 0590 80B5     		push	{r7, lr}
 1264              		.cfi_def_cfa_offset 8
 1265              		.cfi_offset 7, -8
 1266              		.cfi_offset 14, -4
 1267 0592 82B0     		sub	sp, sp, #8
 1268              		.cfi_def_cfa_offset 16
 1269 0594 00AF     		add	r7, sp, #0
 1270              		.cfi_def_cfa_register 7
 1271 0596 7860     		str	r0, [r7, #4]
 1272 0598 0B46     		mov	r3, r1
 1273 059a FB70     		strb	r3, [r7, #3]
 298:build/openmote-cc2538_armgcc/openstack/cross-layers/packetfunctions.c ****    pkt->payload -= header_length;
 1274              		.loc 1 298 0
 1275 059c 7B68     		ldr	r3, [r7, #4]
 1276 059e 5A68     		ldr	r2, [r3, #4]
 1277 05a0 FB78     		ldrb	r3, [r7, #3]	@ zero_extendqisi2
 1278 05a2 5B42     		negs	r3, r3
 1279 05a4 1A44     		add	r2, r2, r3
 1280 05a6 7B68     		ldr	r3, [r7, #4]
 1281 05a8 5A60     		str	r2, [r3, #4]
 299:build/openmote-cc2538_armgcc/openstack/cross-layers/packetfunctions.c ****    pkt->length  += header_length;
 1282              		.loc 1 299 0
 1283 05aa 7B68     		ldr	r3, [r7, #4]
 1284 05ac 1A7A     		ldrb	r2, [r3, #8]	@ zero_extendqisi2
 1285 05ae FB78     		ldrb	r3, [r7, #3]
 1286 05b0 1344     		add	r3, r3, r2
 1287 05b2 DAB2     		uxtb	r2, r3
 1288 05b4 7B68     		ldr	r3, [r7, #4]
 1289 05b6 1A72     		strb	r2, [r3, #8]
 300:build/openmote-cc2538_armgcc/openstack/cross-layers/packetfunctions.c ****    if ( (uint8_t*)(pkt->payload) < (uint8_t*)(pkt->packet) ) {
 1290              		.loc 1 300 0
 1291 05b8 7B68     		ldr	r3, [r7, #4]
 1292 05ba 5A68     		ldr	r2, [r3, #4]
 1293 05bc 7B68     		ldr	r3, [r7, #4]
 1294 05be C033     		adds	r3, r3, #192
 1295 05c0 9A42     		cmp	r2, r3
 1296 05c2 07D2     		bcs	.L72
 301:build/openmote-cc2538_armgcc/openstack/cross-layers/packetfunctions.c ****       openserial_printCritical(COMPONENT_PACKETFUNCTIONS,ERR_HEADER_TOO_LONG,
 302:build/openmote-cc2538_armgcc/openstack/cross-layers/packetfunctions.c ****                             (errorparameter_t)0,
 303:build/openmote-cc2538_armgcc/openstack/cross-layers/packetfunctions.c ****                             (errorparameter_t)pkt->length);
 1297              		.loc 1 303 0
 1298 05c4 7B68     		ldr	r3, [r7, #4]
 1299 05c6 1B7A     		ldrb	r3, [r3, #8]	@ zero_extendqisi2
 301:build/openmote-cc2538_armgcc/openstack/cross-layers/packetfunctions.c ****       openserial_printCritical(COMPONENT_PACKETFUNCTIONS,ERR_HEADER_TOO_LONG,
 1300              		.loc 1 301 0
 1301 05c8 9BB2     		uxth	r3, r3
 1302 05ca 0022     		movs	r2, #0
 1303 05cc 3321     		movs	r1, #51
 1304 05ce 0520     		movs	r0, #5
 1305 05d0 FFF7FEFF 		bl	openserial_printCritical
 1306              	.L72:
 304:build/openmote-cc2538_armgcc/openstack/cross-layers/packetfunctions.c ****    }
 305:build/openmote-cc2538_armgcc/openstack/cross-layers/packetfunctions.c **** }
 1307              		.loc 1 305 0
 1308 05d4 00BF     		nop
 1309 05d6 0837     		adds	r7, r7, #8
 1310              		.cfi_def_cfa_offset 8
 1311 05d8 BD46     		mov	sp, r7
 1312              		.cfi_def_cfa_register 13
 1313              		@ sp needed
 1314 05da 80BD     		pop	{r7, pc}
 1315              		.cfi_endproc
 1316              	.LFE11:
 1318              		.align	2
 1319              		.global	packetfunctions_tossHeader
 1320              		.thumb
 1321              		.thumb_func
 1323              	packetfunctions_tossHeader:
 1324              	.LFB12:
 306:build/openmote-cc2538_armgcc/openstack/cross-layers/packetfunctions.c **** 
 307:build/openmote-cc2538_armgcc/openstack/cross-layers/packetfunctions.c **** void packetfunctions_tossHeader(OpenQueueEntry_t* pkt, uint8_t header_length) {
 1325              		.loc 1 307 0
 1326              		.cfi_startproc
 1327              		@ args = 0, pretend = 0, frame = 8
 1328              		@ frame_needed = 1, uses_anonymous_args = 0
 1329 05dc 80B5     		push	{r7, lr}
 1330              		.cfi_def_cfa_offset 8
 1331              		.cfi_offset 7, -8
 1332              		.cfi_offset 14, -4
 1333 05de 82B0     		sub	sp, sp, #8
 1334              		.cfi_def_cfa_offset 16
 1335 05e0 00AF     		add	r7, sp, #0
 1336              		.cfi_def_cfa_register 7
 1337 05e2 7860     		str	r0, [r7, #4]
 1338 05e4 0B46     		mov	r3, r1
 1339 05e6 FB70     		strb	r3, [r7, #3]
 308:build/openmote-cc2538_armgcc/openstack/cross-layers/packetfunctions.c **** 
 309:build/openmote-cc2538_armgcc/openstack/cross-layers/packetfunctions.c ****    pkt->payload += header_length;
 1340              		.loc 1 309 0
 1341 05e8 7B68     		ldr	r3, [r7, #4]
 1342 05ea 5A68     		ldr	r2, [r3, #4]
 1343 05ec FB78     		ldrb	r3, [r7, #3]	@ zero_extendqisi2
 1344 05ee 1A44     		add	r2, r2, r3
 1345 05f0 7B68     		ldr	r3, [r7, #4]
 1346 05f2 5A60     		str	r2, [r3, #4]
 310:build/openmote-cc2538_armgcc/openstack/cross-layers/packetfunctions.c ****    pkt->length  -= header_length;
 1347              		.loc 1 310 0
 1348 05f4 7B68     		ldr	r3, [r7, #4]
 1349 05f6 1A7A     		ldrb	r2, [r3, #8]	@ zero_extendqisi2
 1350 05f8 FB78     		ldrb	r3, [r7, #3]
 1351 05fa D31A     		subs	r3, r2, r3
 1352 05fc DAB2     		uxtb	r2, r3
 1353 05fe 7B68     		ldr	r3, [r7, #4]
 1354 0600 1A72     		strb	r2, [r3, #8]
 311:build/openmote-cc2538_armgcc/openstack/cross-layers/packetfunctions.c ****    if ( (uint8_t*)(pkt->payload) > (uint8_t*)(pkt->packet+127) ) {
 1355              		.loc 1 311 0
 1356 0602 7B68     		ldr	r3, [r7, #4]
 1357 0604 5A68     		ldr	r2, [r3, #4]
 1358 0606 7B68     		ldr	r3, [r7, #4]
 1359 0608 C033     		adds	r3, r3, #192
 1360 060a 7F33     		adds	r3, r3, #127
 1361 060c 9A42     		cmp	r2, r3
 1362 060e 07D9     		bls	.L75
 312:build/openmote-cc2538_armgcc/openstack/cross-layers/packetfunctions.c ****       openserial_printError(COMPONENT_PACKETFUNCTIONS,ERR_HEADER_TOO_LONG,
 313:build/openmote-cc2538_armgcc/openstack/cross-layers/packetfunctions.c ****                             (errorparameter_t)1,
 314:build/openmote-cc2538_armgcc/openstack/cross-layers/packetfunctions.c ****                             (errorparameter_t)pkt->length);
 1363              		.loc 1 314 0
 1364 0610 7B68     		ldr	r3, [r7, #4]
 1365 0612 1B7A     		ldrb	r3, [r3, #8]	@ zero_extendqisi2
 312:build/openmote-cc2538_armgcc/openstack/cross-layers/packetfunctions.c ****       openserial_printError(COMPONENT_PACKETFUNCTIONS,ERR_HEADER_TOO_LONG,
 1366              		.loc 1 312 0
 1367 0614 9BB2     		uxth	r3, r3
 1368 0616 0122     		movs	r2, #1
 1369 0618 3321     		movs	r1, #51
 1370 061a 0520     		movs	r0, #5
 1371 061c FFF7FEFF 		bl	openserial_printError
 1372              	.L75:
 315:build/openmote-cc2538_armgcc/openstack/cross-layers/packetfunctions.c ****    }
 316:build/openmote-cc2538_armgcc/openstack/cross-layers/packetfunctions.c **** }
 1373              		.loc 1 316 0
 1374 0620 00BF     		nop
 1375 0622 0837     		adds	r7, r7, #8
 1376              		.cfi_def_cfa_offset 8
 1377 0624 BD46     		mov	sp, r7
 1378              		.cfi_def_cfa_register 13
 1379              		@ sp needed
 1380 0626 80BD     		pop	{r7, pc}
 1381              		.cfi_endproc
 1382              	.LFE12:
 1384              		.align	2
 1385              		.global	packetfunctions_reserveFooterSize
 1386              		.thumb
 1387              		.thumb_func
 1389              	packetfunctions_reserveFooterSize:
 1390              	.LFB13:
 317:build/openmote-cc2538_armgcc/openstack/cross-layers/packetfunctions.c **** 
 318:build/openmote-cc2538_armgcc/openstack/cross-layers/packetfunctions.c **** void packetfunctions_reserveFooterSize(OpenQueueEntry_t* pkt, uint8_t header_length) {
 1391              		.loc 1 318 0
 1392              		.cfi_startproc
 1393              		@ args = 0, pretend = 0, frame = 8
 1394              		@ frame_needed = 1, uses_anonymous_args = 0
 1395 0628 80B5     		push	{r7, lr}
 1396              		.cfi_def_cfa_offset 8
 1397              		.cfi_offset 7, -8
 1398              		.cfi_offset 14, -4
 1399 062a 82B0     		sub	sp, sp, #8
 1400              		.cfi_def_cfa_offset 16
 1401 062c 00AF     		add	r7, sp, #0
 1402              		.cfi_def_cfa_register 7
 1403 062e 7860     		str	r0, [r7, #4]
 1404 0630 0B46     		mov	r3, r1
 1405 0632 FB70     		strb	r3, [r7, #3]
 319:build/openmote-cc2538_armgcc/openstack/cross-layers/packetfunctions.c ****    pkt->length  += header_length;
 1406              		.loc 1 319 0
 1407 0634 7B68     		ldr	r3, [r7, #4]
 1408 0636 1A7A     		ldrb	r2, [r3, #8]	@ zero_extendqisi2
 1409 0638 FB78     		ldrb	r3, [r7, #3]
 1410 063a 1344     		add	r3, r3, r2
 1411 063c DAB2     		uxtb	r2, r3
 1412 063e 7B68     		ldr	r3, [r7, #4]
 1413 0640 1A72     		strb	r2, [r3, #8]
 320:build/openmote-cc2538_armgcc/openstack/cross-layers/packetfunctions.c ****    if (pkt->length>127) {
 1414              		.loc 1 320 0
 1415 0642 7B68     		ldr	r3, [r7, #4]
 1416 0644 1B7A     		ldrb	r3, [r3, #8]	@ zero_extendqisi2
 1417 0646 5BB2     		sxtb	r3, r3
 1418 0648 002B     		cmp	r3, #0
 1419 064a 07DA     		bge	.L78
 321:build/openmote-cc2538_armgcc/openstack/cross-layers/packetfunctions.c ****       openserial_printError(COMPONENT_PACKETFUNCTIONS,ERR_HEADER_TOO_LONG,
 322:build/openmote-cc2538_armgcc/openstack/cross-layers/packetfunctions.c ****                             (errorparameter_t)2,
 323:build/openmote-cc2538_armgcc/openstack/cross-layers/packetfunctions.c ****                             (errorparameter_t)pkt->length);
 1420              		.loc 1 323 0
 1421 064c 7B68     		ldr	r3, [r7, #4]
 1422 064e 1B7A     		ldrb	r3, [r3, #8]	@ zero_extendqisi2
 321:build/openmote-cc2538_armgcc/openstack/cross-layers/packetfunctions.c ****       openserial_printError(COMPONENT_PACKETFUNCTIONS,ERR_HEADER_TOO_LONG,
 1423              		.loc 1 321 0
 1424 0650 9BB2     		uxth	r3, r3
 1425 0652 0222     		movs	r2, #2
 1426 0654 3321     		movs	r1, #51
 1427 0656 0520     		movs	r0, #5
 1428 0658 FFF7FEFF 		bl	openserial_printError
 1429              	.L78:
 324:build/openmote-cc2538_armgcc/openstack/cross-layers/packetfunctions.c ****    }
 325:build/openmote-cc2538_armgcc/openstack/cross-layers/packetfunctions.c **** }
 1430              		.loc 1 325 0
 1431 065c 00BF     		nop
 1432 065e 0837     		adds	r7, r7, #8
 1433              		.cfi_def_cfa_offset 8
 1434 0660 BD46     		mov	sp, r7
 1435              		.cfi_def_cfa_register 13
 1436              		@ sp needed
 1437 0662 80BD     		pop	{r7, pc}
 1438              		.cfi_endproc
 1439              	.LFE13:
 1441              		.align	2
 1442              		.global	packetfunctions_tossFooter
 1443              		.thumb
 1444              		.thumb_func
 1446              	packetfunctions_tossFooter:
 1447              	.LFB14:
 326:build/openmote-cc2538_armgcc/openstack/cross-layers/packetfunctions.c **** 
 327:build/openmote-cc2538_armgcc/openstack/cross-layers/packetfunctions.c **** void packetfunctions_tossFooter(OpenQueueEntry_t* pkt, uint8_t header_length) {
 1448              		.loc 1 327 0
 1449              		.cfi_startproc
 1450              		@ args = 0, pretend = 0, frame = 8
 1451              		@ frame_needed = 1, uses_anonymous_args = 0
 1452 0664 80B5     		push	{r7, lr}
 1453              		.cfi_def_cfa_offset 8
 1454              		.cfi_offset 7, -8
 1455              		.cfi_offset 14, -4
 1456 0666 82B0     		sub	sp, sp, #8
 1457              		.cfi_def_cfa_offset 16
 1458 0668 00AF     		add	r7, sp, #0
 1459              		.cfi_def_cfa_register 7
 1460 066a 7860     		str	r0, [r7, #4]
 1461 066c 0B46     		mov	r3, r1
 1462 066e FB70     		strb	r3, [r7, #3]
 328:build/openmote-cc2538_armgcc/openstack/cross-layers/packetfunctions.c ****    pkt->length  -= header_length;
 1463              		.loc 1 328 0
 1464 0670 7B68     		ldr	r3, [r7, #4]
 1465 0672 1A7A     		ldrb	r2, [r3, #8]	@ zero_extendqisi2
 1466 0674 FB78     		ldrb	r3, [r7, #3]
 1467 0676 D31A     		subs	r3, r2, r3
 1468 0678 DAB2     		uxtb	r2, r3
 1469 067a 7B68     		ldr	r3, [r7, #4]
 1470 067c 1A72     		strb	r2, [r3, #8]
 329:build/openmote-cc2538_armgcc/openstack/cross-layers/packetfunctions.c ****    if (pkt->length>128) {//wraps around, so a negative value will be >128
 1471              		.loc 1 329 0
 1472 067e 7B68     		ldr	r3, [r7, #4]
 1473 0680 1B7A     		ldrb	r3, [r3, #8]	@ zero_extendqisi2
 1474 0682 802B     		cmp	r3, #128
 1475 0684 07D9     		bls	.L81
 330:build/openmote-cc2538_armgcc/openstack/cross-layers/packetfunctions.c ****       openserial_printError(COMPONENT_PACKETFUNCTIONS,ERR_HEADER_TOO_LONG,
 331:build/openmote-cc2538_armgcc/openstack/cross-layers/packetfunctions.c ****                             (errorparameter_t)3,
 332:build/openmote-cc2538_armgcc/openstack/cross-layers/packetfunctions.c ****                             (errorparameter_t)pkt->length);
 1476              		.loc 1 332 0
 1477 0686 7B68     		ldr	r3, [r7, #4]
 1478 0688 1B7A     		ldrb	r3, [r3, #8]	@ zero_extendqisi2
 330:build/openmote-cc2538_armgcc/openstack/cross-layers/packetfunctions.c ****       openserial_printError(COMPONENT_PACKETFUNCTIONS,ERR_HEADER_TOO_LONG,
 1479              		.loc 1 330 0
 1480 068a 9BB2     		uxth	r3, r3
 1481 068c 0322     		movs	r2, #3
 1482 068e 3321     		movs	r1, #51
 1483 0690 0520     		movs	r0, #5
 1484 0692 FFF7FEFF 		bl	openserial_printError
 1485              	.L81:
 333:build/openmote-cc2538_armgcc/openstack/cross-layers/packetfunctions.c ****    }
 334:build/openmote-cc2538_armgcc/openstack/cross-layers/packetfunctions.c **** }
 1486              		.loc 1 334 0
 1487 0696 00BF     		nop
 1488 0698 0837     		adds	r7, r7, #8
 1489              		.cfi_def_cfa_offset 8
 1490 069a BD46     		mov	sp, r7
 1491              		.cfi_def_cfa_register 13
 1492              		@ sp needed
 1493 069c 80BD     		pop	{r7, pc}
 1494              		.cfi_endproc
 1495              	.LFE14:
 1497 069e 00BF     		.align	2
 1498              		.global	packetfunctions_duplicatePacket
 1499              		.thumb
 1500              		.thumb_func
 1502              	packetfunctions_duplicatePacket:
 1503              	.LFB15:
 335:build/openmote-cc2538_armgcc/openstack/cross-layers/packetfunctions.c **** 
 336:build/openmote-cc2538_armgcc/openstack/cross-layers/packetfunctions.c **** //======= packet duplication
 337:build/openmote-cc2538_armgcc/openstack/cross-layers/packetfunctions.c **** // function duplicates a frame from one OpenQueueEntry structure to the other,
 338:build/openmote-cc2538_armgcc/openstack/cross-layers/packetfunctions.c **** // updating pointers to the new memory location. Used to make a local copy of
 339:build/openmote-cc2538_armgcc/openstack/cross-layers/packetfunctions.c **** // the frame before transmission (where it can possibly be encrypted). 
 340:build/openmote-cc2538_armgcc/openstack/cross-layers/packetfunctions.c **** void packetfunctions_duplicatePacket(OpenQueueEntry_t* dst, OpenQueueEntry_t* src) {
 1504              		.loc 1 340 0
 1505              		.cfi_startproc
 1506              		@ args = 0, pretend = 0, frame = 8
 1507              		@ frame_needed = 1, uses_anonymous_args = 0
 1508 06a0 80B5     		push	{r7, lr}
 1509              		.cfi_def_cfa_offset 8
 1510              		.cfi_offset 7, -8
 1511              		.cfi_offset 14, -4
 1512 06a2 82B0     		sub	sp, sp, #8
 1513              		.cfi_def_cfa_offset 16
 1514 06a4 00AF     		add	r7, sp, #0
 1515              		.cfi_def_cfa_register 7
 1516 06a6 7860     		str	r0, [r7, #4]
 1517 06a8 3960     		str	r1, [r7]
 341:build/openmote-cc2538_armgcc/openstack/cross-layers/packetfunctions.c ****    // make a copy of the frame
 342:build/openmote-cc2538_armgcc/openstack/cross-layers/packetfunctions.c ****    memcpy(dst, src, sizeof(OpenQueueEntry_t));
 1518              		.loc 1 342 0
 1519 06aa 4FF4A272 		mov	r2, #324
 1520 06ae 3968     		ldr	r1, [r7]
 1521 06b0 7868     		ldr	r0, [r7, #4]
 1522 06b2 FFF7FEFF 		bl	memcpy
 343:build/openmote-cc2538_armgcc/openstack/cross-layers/packetfunctions.c **** 
 344:build/openmote-cc2538_armgcc/openstack/cross-layers/packetfunctions.c ****    // Calculate where payload starts in the buffer
 345:build/openmote-cc2538_armgcc/openstack/cross-layers/packetfunctions.c ****    dst->payload = &dst->packet[src->payload - src->packet]; // update pointers
 1523              		.loc 1 345 0
 1524 06b6 3B68     		ldr	r3, [r7]
 1525 06b8 5B68     		ldr	r3, [r3, #4]
 1526 06ba 1A46     		mov	r2, r3
 1527 06bc 3B68     		ldr	r3, [r7]
 1528 06be C033     		adds	r3, r3, #192
 1529 06c0 D31A     		subs	r3, r2, r3
 1530 06c2 C033     		adds	r3, r3, #192
 1531 06c4 7A68     		ldr	r2, [r7, #4]
 1532 06c6 1A44     		add	r2, r2, r3
 1533 06c8 7B68     		ldr	r3, [r7, #4]
 1534 06ca 5A60     		str	r2, [r3, #4]
 346:build/openmote-cc2538_armgcc/openstack/cross-layers/packetfunctions.c **** 
 347:build/openmote-cc2538_armgcc/openstack/cross-layers/packetfunctions.c ****    // update l2_FrameCounter pointer
 348:build/openmote-cc2538_armgcc/openstack/cross-layers/packetfunctions.c ****    dst->l2_FrameCounter = dst->payload + (src->l2_FrameCounter - src->payload);
 1535              		.loc 1 348 0
 1536 06cc 7B68     		ldr	r3, [r7, #4]
 1537 06ce 5B68     		ldr	r3, [r3, #4]
 1538 06d0 3A68     		ldr	r2, [r7]
 1539 06d2 D2F8B820 		ldr	r2, [r2, #184]
 1540 06d6 1146     		mov	r1, r2
 1541 06d8 3A68     		ldr	r2, [r7]
 1542 06da 5268     		ldr	r2, [r2, #4]
 1543 06dc 8A1A     		subs	r2, r1, r2
 1544 06de 1A44     		add	r2, r2, r3
 1545 06e0 7B68     		ldr	r3, [r7, #4]
 1546 06e2 C3F8B820 		str	r2, [r3, #184]
 349:build/openmote-cc2538_armgcc/openstack/cross-layers/packetfunctions.c **** 
 350:build/openmote-cc2538_armgcc/openstack/cross-layers/packetfunctions.c ****    // update l2_ASNpayload pointer
 351:build/openmote-cc2538_armgcc/openstack/cross-layers/packetfunctions.c ****    dst->l2_ASNpayload = dst->payload + (src->l2_ASNpayload - src->payload);
 1547              		.loc 1 351 0
 1548 06e6 7B68     		ldr	r3, [r7, #4]
 1549 06e8 5B68     		ldr	r3, [r3, #4]
 1550 06ea 3A68     		ldr	r2, [r7]
 1551 06ec D2F89420 		ldr	r2, [r2, #148]
 1552 06f0 1146     		mov	r1, r2
 1553 06f2 3A68     		ldr	r2, [r7]
 1554 06f4 5268     		ldr	r2, [r2, #4]
 1555 06f6 8A1A     		subs	r2, r1, r2
 1556 06f8 1A44     		add	r2, r2, r3
 1557 06fa 7B68     		ldr	r3, [r7, #4]
 1558 06fc C3F89420 		str	r2, [r3, #148]
 352:build/openmote-cc2538_armgcc/openstack/cross-layers/packetfunctions.c **** 
 353:build/openmote-cc2538_armgcc/openstack/cross-layers/packetfunctions.c ****    // update l2_payload pointer
 354:build/openmote-cc2538_armgcc/openstack/cross-layers/packetfunctions.c ****    dst->l2_payload = dst->payload + (src->l2_payload - src->payload);
 1559              		.loc 1 354 0
 1560 0700 7B68     		ldr	r3, [r7, #4]
 1561 0702 5B68     		ldr	r3, [r3, #4]
 1562 0704 3A68     		ldr	r2, [r7]
 1563 0706 926D     		ldr	r2, [r2, #88]
 1564 0708 1146     		mov	r1, r2
 1565 070a 3A68     		ldr	r2, [r7]
 1566 070c 5268     		ldr	r2, [r2, #4]
 1567 070e 8A1A     		subs	r2, r1, r2
 1568 0710 1A44     		add	r2, r2, r3
 1569 0712 7B68     		ldr	r3, [r7, #4]
 1570 0714 9A65     		str	r2, [r3, #88]
 355:build/openmote-cc2538_armgcc/openstack/cross-layers/packetfunctions.c **** 
 356:build/openmote-cc2538_armgcc/openstack/cross-layers/packetfunctions.c ****    // update l4_payload pointer
 357:build/openmote-cc2538_armgcc/openstack/cross-layers/packetfunctions.c ****    dst->l4_payload = dst->payload + (src->l4_payload - src->payload);
 1571              		.loc 1 357 0
 1572 0716 7B68     		ldr	r3, [r7, #4]
 1573 0718 5B68     		ldr	r3, [r3, #4]
 1574 071a 3A68     		ldr	r2, [r7]
 1575 071c 5269     		ldr	r2, [r2, #20]
 1576 071e 1146     		mov	r1, r2
 1577 0720 3A68     		ldr	r2, [r7]
 1578 0722 5268     		ldr	r2, [r2, #4]
 1579 0724 8A1A     		subs	r2, r1, r2
 1580 0726 1A44     		add	r2, r2, r3
 1581 0728 7B68     		ldr	r3, [r7, #4]
 1582 072a 5A61     		str	r2, [r3, #20]
 358:build/openmote-cc2538_armgcc/openstack/cross-layers/packetfunctions.c **** }
 1583              		.loc 1 358 0
 1584 072c 00BF     		nop
 1585 072e 0837     		adds	r7, r7, #8
 1586              		.cfi_def_cfa_offset 8
 1587 0730 BD46     		mov	sp, r7
 1588              		.cfi_def_cfa_register 13
 1589              		@ sp needed
 1590 0732 80BD     		pop	{r7, pc}
 1591              		.cfi_endproc
 1592              	.LFE15:
 1594              		.align	2
 1595              		.global	packetfunctions_calculateCRC
 1596              		.thumb
 1597              		.thumb_func
 1599              	packetfunctions_calculateCRC:
 1600              	.LFB16:
 359:build/openmote-cc2538_armgcc/openstack/cross-layers/packetfunctions.c **** 
 360:build/openmote-cc2538_armgcc/openstack/cross-layers/packetfunctions.c **** //======= CRC calculation
 361:build/openmote-cc2538_armgcc/openstack/cross-layers/packetfunctions.c **** 
 362:build/openmote-cc2538_armgcc/openstack/cross-layers/packetfunctions.c **** void packetfunctions_calculateCRC(OpenQueueEntry_t* msg) {
 1601              		.loc 1 362 0
 1602              		.cfi_startproc
 1603              		@ args = 0, pretend = 0, frame = 16
 1604              		@ frame_needed = 1, uses_anonymous_args = 0
 1605              		@ link register save eliminated.
 1606 0734 80B4     		push	{r7}
 1607              		.cfi_def_cfa_offset 4
 1608              		.cfi_offset 7, -4
 1609 0736 85B0     		sub	sp, sp, #20
 1610              		.cfi_def_cfa_offset 24
 1611 0738 00AF     		add	r7, sp, #0
 1612              		.cfi_def_cfa_register 7
 1613 073a 7860     		str	r0, [r7, #4]
 363:build/openmote-cc2538_armgcc/openstack/cross-layers/packetfunctions.c ****    uint16_t crc;
 364:build/openmote-cc2538_armgcc/openstack/cross-layers/packetfunctions.c ****    uint8_t  i;
 365:build/openmote-cc2538_armgcc/openstack/cross-layers/packetfunctions.c ****    uint8_t  count;
 366:build/openmote-cc2538_armgcc/openstack/cross-layers/packetfunctions.c ****    crc = 0;
 1614              		.loc 1 366 0
 1615 073c 0023     		movs	r3, #0
 1616 073e FB81     		strh	r3, [r7, #14]	@ movhi
 367:build/openmote-cc2538_armgcc/openstack/cross-layers/packetfunctions.c ****    for (count=1;count<msg->length-2;count++) {
 1617              		.loc 1 367 0
 1618 0740 0123     		movs	r3, #1
 1619 0742 3B73     		strb	r3, [r7, #12]
 1620 0744 23E0     		b	.L84
 1621              	.L89:
 368:build/openmote-cc2538_armgcc/openstack/cross-layers/packetfunctions.c ****       crc = crc ^ (uint8_t)*(msg->payload+count);
 1622              		.loc 1 368 0
 1623 0746 7B68     		ldr	r3, [r7, #4]
 1624 0748 5A68     		ldr	r2, [r3, #4]
 1625 074a 3B7B     		ldrb	r3, [r7, #12]	@ zero_extendqisi2
 1626 074c 1344     		add	r3, r3, r2
 1627 074e 1B78     		ldrb	r3, [r3]	@ zero_extendqisi2
 1628 0750 9AB2     		uxth	r2, r3
 1629 0752 FB89     		ldrh	r3, [r7, #14]	@ movhi
 1630 0754 5340     		eors	r3, r3, r2
 1631 0756 FB81     		strh	r3, [r7, #14]	@ movhi
 369:build/openmote-cc2538_armgcc/openstack/cross-layers/packetfunctions.c ****       //crc = crc ^ (uint16_t)*ptr++ << 8;
 370:build/openmote-cc2538_armgcc/openstack/cross-layers/packetfunctions.c ****       for (i=0;i<8;i++) {
 1632              		.loc 1 370 0
 1633 0758 0023     		movs	r3, #0
 1634 075a 7B73     		strb	r3, [r7, #13]
 1635 075c 11E0     		b	.L85
 1636              	.L88:
 371:build/openmote-cc2538_armgcc/openstack/cross-layers/packetfunctions.c ****          if (crc & 0x1) {
 1637              		.loc 1 371 0
 1638 075e FB89     		ldrh	r3, [r7, #14]
 1639 0760 03F00103 		and	r3, r3, #1
 1640 0764 002B     		cmp	r3, #0
 1641 0766 06D0     		beq	.L86
 372:build/openmote-cc2538_armgcc/openstack/cross-layers/packetfunctions.c ****             crc = crc >> 1 ^ 0x8408;
 1642              		.loc 1 372 0
 1643 0768 FB89     		ldrh	r3, [r7, #14]
 1644 076a 5B08     		lsrs	r3, r3, #1
 1645 076c 9AB2     		uxth	r2, r3
 1646 076e 174B     		ldr	r3, .L90
 1647 0770 5340     		eors	r3, r3, r2
 1648 0772 FB81     		strh	r3, [r7, #14]	@ movhi
 1649 0774 02E0     		b	.L87
 1650              	.L86:
 373:build/openmote-cc2538_armgcc/openstack/cross-layers/packetfunctions.c ****          } else {
 374:build/openmote-cc2538_armgcc/openstack/cross-layers/packetfunctions.c ****             crc = crc >> 1;
 1651              		.loc 1 374 0
 1652 0776 FB89     		ldrh	r3, [r7, #14]
 1653 0778 5B08     		lsrs	r3, r3, #1
 1654 077a FB81     		strh	r3, [r7, #14]	@ movhi
 1655              	.L87:
 370:build/openmote-cc2538_armgcc/openstack/cross-layers/packetfunctions.c ****          if (crc & 0x1) {
 1656              		.loc 1 370 0 discriminator 2
 1657 077c 7B7B     		ldrb	r3, [r7, #13]	@ zero_extendqisi2
 1658 077e 0133     		adds	r3, r3, #1
 1659 0780 7B73     		strb	r3, [r7, #13]
 1660              	.L85:
 370:build/openmote-cc2538_armgcc/openstack/cross-layers/packetfunctions.c ****          if (crc & 0x1) {
 1661              		.loc 1 370 0 is_stmt 0 discriminator 1
 1662 0782 7B7B     		ldrb	r3, [r7, #13]	@ zero_extendqisi2
 1663 0784 072B     		cmp	r3, #7
 1664 0786 EAD9     		bls	.L88
 367:build/openmote-cc2538_armgcc/openstack/cross-layers/packetfunctions.c ****       crc = crc ^ (uint8_t)*(msg->payload+count);
 1665              		.loc 1 367 0 is_stmt 1 discriminator 2
 1666 0788 3B7B     		ldrb	r3, [r7, #12]	@ zero_extendqisi2
 1667 078a 0133     		adds	r3, r3, #1
 1668 078c 3B73     		strb	r3, [r7, #12]
 1669              	.L84:
 367:build/openmote-cc2538_armgcc/openstack/cross-layers/packetfunctions.c ****       crc = crc ^ (uint8_t)*(msg->payload+count);
 1670              		.loc 1 367 0 is_stmt 0 discriminator 1
 1671 078e 3A7B     		ldrb	r2, [r7, #12]	@ zero_extendqisi2
 1672 0790 7B68     		ldr	r3, [r7, #4]
 1673 0792 1B7A     		ldrb	r3, [r3, #8]	@ zero_extendqisi2
 1674 0794 023B     		subs	r3, r3, #2
 1675 0796 9A42     		cmp	r2, r3
 1676 0798 D5DB     		blt	.L89
 375:build/openmote-cc2538_armgcc/openstack/cross-layers/packetfunctions.c ****          }
 376:build/openmote-cc2538_armgcc/openstack/cross-layers/packetfunctions.c ****       }
 377:build/openmote-cc2538_armgcc/openstack/cross-layers/packetfunctions.c ****    }
 378:build/openmote-cc2538_armgcc/openstack/cross-layers/packetfunctions.c ****    *(msg->payload+(msg->length-2)) = crc%256;
 1677              		.loc 1 378 0 is_stmt 1
 1678 079a 7B68     		ldr	r3, [r7, #4]
 1679 079c 5A68     		ldr	r2, [r3, #4]
 1680 079e 7B68     		ldr	r3, [r7, #4]
 1681 07a0 1B7A     		ldrb	r3, [r3, #8]	@ zero_extendqisi2
 1682 07a2 023B     		subs	r3, r3, #2
 1683 07a4 1344     		add	r3, r3, r2
 1684 07a6 FA89     		ldrh	r2, [r7, #14]	@ movhi
 1685 07a8 D2B2     		uxtb	r2, r2
 1686 07aa 1A70     		strb	r2, [r3]
 379:build/openmote-cc2538_armgcc/openstack/cross-layers/packetfunctions.c ****    *(msg->payload+(msg->length-1)) = crc/256;
 1687              		.loc 1 379 0
 1688 07ac 7B68     		ldr	r3, [r7, #4]
 1689 07ae 5A68     		ldr	r2, [r3, #4]
 1690 07b0 7B68     		ldr	r3, [r7, #4]
 1691 07b2 1B7A     		ldrb	r3, [r3, #8]	@ zero_extendqisi2
 1692 07b4 013B     		subs	r3, r3, #1
 1693 07b6 1344     		add	r3, r3, r2
 1694 07b8 FA89     		ldrh	r2, [r7, #14]
 1695 07ba 120A     		lsrs	r2, r2, #8
 1696 07bc 92B2     		uxth	r2, r2
 1697 07be D2B2     		uxtb	r2, r2
 1698 07c0 1A70     		strb	r2, [r3]
 380:build/openmote-cc2538_armgcc/openstack/cross-layers/packetfunctions.c **** }
 1699              		.loc 1 380 0
 1700 07c2 00BF     		nop
 1701 07c4 1437     		adds	r7, r7, #20
 1702              		.cfi_def_cfa_offset 4
 1703 07c6 BD46     		mov	sp, r7
 1704              		.cfi_def_cfa_register 13
 1705              		@ sp needed
 1706 07c8 80BC     		pop	{r7}
 1707              		.cfi_restore 7
 1708              		.cfi_def_cfa_offset 0
 1709 07ca 7047     		bx	lr
 1710              	.L91:
 1711              		.align	2
 1712              	.L90:
 1713 07cc 0884FFFF 		.word	-31736
 1714              		.cfi_endproc
 1715              	.LFE16:
 1717              		.align	2
 1718              		.global	packetfunctions_checkCRC
 1719              		.thumb
 1720              		.thumb_func
 1722              	packetfunctions_checkCRC:
 1723              	.LFB17:
 381:build/openmote-cc2538_armgcc/openstack/cross-layers/packetfunctions.c **** 
 382:build/openmote-cc2538_armgcc/openstack/cross-layers/packetfunctions.c **** bool packetfunctions_checkCRC(OpenQueueEntry_t* msg) {
 1724              		.loc 1 382 0
 1725              		.cfi_startproc
 1726              		@ args = 0, pretend = 0, frame = 16
 1727              		@ frame_needed = 1, uses_anonymous_args = 0
 1728              		@ link register save eliminated.
 1729 07d0 80B4     		push	{r7}
 1730              		.cfi_def_cfa_offset 4
 1731              		.cfi_offset 7, -4
 1732 07d2 85B0     		sub	sp, sp, #20
 1733              		.cfi_def_cfa_offset 24
 1734 07d4 00AF     		add	r7, sp, #0
 1735              		.cfi_def_cfa_register 7
 1736 07d6 7860     		str	r0, [r7, #4]
 383:build/openmote-cc2538_armgcc/openstack/cross-layers/packetfunctions.c ****    uint16_t crc;
 384:build/openmote-cc2538_armgcc/openstack/cross-layers/packetfunctions.c ****    uint8_t  i;
 385:build/openmote-cc2538_armgcc/openstack/cross-layers/packetfunctions.c ****    uint8_t  count;
 386:build/openmote-cc2538_armgcc/openstack/cross-layers/packetfunctions.c ****    crc = 0;
 1737              		.loc 1 386 0
 1738 07d8 0023     		movs	r3, #0
 1739 07da FB81     		strh	r3, [r7, #14]	@ movhi
 387:build/openmote-cc2538_armgcc/openstack/cross-layers/packetfunctions.c ****    for (count=0;count<msg->length-2;count++) {
 1740              		.loc 1 387 0
 1741 07dc 0023     		movs	r3, #0
 1742 07de 3B73     		strb	r3, [r7, #12]
 1743 07e0 23E0     		b	.L93
 1744              	.L98:
 388:build/openmote-cc2538_armgcc/openstack/cross-layers/packetfunctions.c ****       crc = crc ^ (uint8_t)*(msg->payload+count);
 1745              		.loc 1 388 0
 1746 07e2 7B68     		ldr	r3, [r7, #4]
 1747 07e4 5A68     		ldr	r2, [r3, #4]
 1748 07e6 3B7B     		ldrb	r3, [r7, #12]	@ zero_extendqisi2
 1749 07e8 1344     		add	r3, r3, r2
 1750 07ea 1B78     		ldrb	r3, [r3]	@ zero_extendqisi2
 1751 07ec 9AB2     		uxth	r2, r3
 1752 07ee FB89     		ldrh	r3, [r7, #14]	@ movhi
 1753 07f0 5340     		eors	r3, r3, r2
 1754 07f2 FB81     		strh	r3, [r7, #14]	@ movhi
 389:build/openmote-cc2538_armgcc/openstack/cross-layers/packetfunctions.c ****       //crc = crc ^ (uint16_t)*ptr++ << 8;
 390:build/openmote-cc2538_armgcc/openstack/cross-layers/packetfunctions.c ****       for (i=0;i<8;i++) {
 1755              		.loc 1 390 0
 1756 07f4 0023     		movs	r3, #0
 1757 07f6 7B73     		strb	r3, [r7, #13]
 1758 07f8 11E0     		b	.L94
 1759              	.L97:
 391:build/openmote-cc2538_armgcc/openstack/cross-layers/packetfunctions.c ****          if (crc & 0x1) {
 1760              		.loc 1 391 0
 1761 07fa FB89     		ldrh	r3, [r7, #14]
 1762 07fc 03F00103 		and	r3, r3, #1
 1763 0800 002B     		cmp	r3, #0
 1764 0802 06D0     		beq	.L95
 392:build/openmote-cc2538_armgcc/openstack/cross-layers/packetfunctions.c ****             crc = crc >> 1 ^ 0x8408;
 1765              		.loc 1 392 0
 1766 0804 FB89     		ldrh	r3, [r7, #14]
 1767 0806 5B08     		lsrs	r3, r3, #1
 1768 0808 9AB2     		uxth	r2, r3
 1769 080a 1C4B     		ldr	r3, .L101
 1770 080c 5340     		eors	r3, r3, r2
 1771 080e FB81     		strh	r3, [r7, #14]	@ movhi
 1772 0810 02E0     		b	.L96
 1773              	.L95:
 393:build/openmote-cc2538_armgcc/openstack/cross-layers/packetfunctions.c ****          } else {
 394:build/openmote-cc2538_armgcc/openstack/cross-layers/packetfunctions.c ****             crc = crc >> 1;
 1774              		.loc 1 394 0
 1775 0812 FB89     		ldrh	r3, [r7, #14]
 1776 0814 5B08     		lsrs	r3, r3, #1
 1777 0816 FB81     		strh	r3, [r7, #14]	@ movhi
 1778              	.L96:
 390:build/openmote-cc2538_armgcc/openstack/cross-layers/packetfunctions.c ****          if (crc & 0x1) {
 1779              		.loc 1 390 0 discriminator 2
 1780 0818 7B7B     		ldrb	r3, [r7, #13]	@ zero_extendqisi2
 1781 081a 0133     		adds	r3, r3, #1
 1782 081c 7B73     		strb	r3, [r7, #13]
 1783              	.L94:
 390:build/openmote-cc2538_armgcc/openstack/cross-layers/packetfunctions.c ****          if (crc & 0x1) {
 1784              		.loc 1 390 0 is_stmt 0 discriminator 1
 1785 081e 7B7B     		ldrb	r3, [r7, #13]	@ zero_extendqisi2
 1786 0820 072B     		cmp	r3, #7
 1787 0822 EAD9     		bls	.L97
 387:build/openmote-cc2538_armgcc/openstack/cross-layers/packetfunctions.c ****       crc = crc ^ (uint8_t)*(msg->payload+count);
 1788              		.loc 1 387 0 is_stmt 1 discriminator 2
 1789 0824 3B7B     		ldrb	r3, [r7, #12]	@ zero_extendqisi2
 1790 0826 0133     		adds	r3, r3, #1
 1791 0828 3B73     		strb	r3, [r7, #12]
 1792              	.L93:
 387:build/openmote-cc2538_armgcc/openstack/cross-layers/packetfunctions.c ****       crc = crc ^ (uint8_t)*(msg->payload+count);
 1793              		.loc 1 387 0 is_stmt 0 discriminator 1
 1794 082a 3A7B     		ldrb	r2, [r7, #12]	@ zero_extendqisi2
 1795 082c 7B68     		ldr	r3, [r7, #4]
 1796 082e 1B7A     		ldrb	r3, [r3, #8]	@ zero_extendqisi2
 1797 0830 023B     		subs	r3, r3, #2
 1798 0832 9A42     		cmp	r2, r3
 1799 0834 D5DB     		blt	.L98
 395:build/openmote-cc2538_armgcc/openstack/cross-layers/packetfunctions.c ****          }
 396:build/openmote-cc2538_armgcc/openstack/cross-layers/packetfunctions.c ****       }
 397:build/openmote-cc2538_armgcc/openstack/cross-layers/packetfunctions.c ****    }
 398:build/openmote-cc2538_armgcc/openstack/cross-layers/packetfunctions.c ****    if (*(msg->payload+(msg->length-2))==crc%256 &&
 1800              		.loc 1 398 0 is_stmt 1
 1801 0836 7B68     		ldr	r3, [r7, #4]
 1802 0838 5A68     		ldr	r2, [r3, #4]
 1803 083a 7B68     		ldr	r3, [r7, #4]
 1804 083c 1B7A     		ldrb	r3, [r3, #8]	@ zero_extendqisi2
 1805 083e 023B     		subs	r3, r3, #2
 1806 0840 1344     		add	r3, r3, r2
 1807 0842 1B78     		ldrb	r3, [r3]	@ zero_extendqisi2
 1808 0844 9AB2     		uxth	r2, r3
 1809 0846 FB89     		ldrh	r3, [r7, #14]	@ movhi
 1810 0848 DBB2     		uxtb	r3, r3
 1811 084a 9BB2     		uxth	r3, r3
 1812 084c 9A42     		cmp	r2, r3
 1813 084e 0ED1     		bne	.L99
 399:build/openmote-cc2538_armgcc/openstack/cross-layers/packetfunctions.c ****        *(msg->payload+(msg->length-1))==crc/256) {
 1814              		.loc 1 399 0 discriminator 1
 1815 0850 7B68     		ldr	r3, [r7, #4]
 1816 0852 5A68     		ldr	r2, [r3, #4]
 1817 0854 7B68     		ldr	r3, [r7, #4]
 1818 0856 1B7A     		ldrb	r3, [r3, #8]	@ zero_extendqisi2
 1819 0858 013B     		subs	r3, r3, #1
 1820 085a 1344     		add	r3, r3, r2
 1821 085c 1B78     		ldrb	r3, [r3]	@ zero_extendqisi2
 1822 085e 9AB2     		uxth	r2, r3
 1823 0860 FB89     		ldrh	r3, [r7, #14]
 1824 0862 1B0A     		lsrs	r3, r3, #8
 1825 0864 9BB2     		uxth	r3, r3
 398:build/openmote-cc2538_armgcc/openstack/cross-layers/packetfunctions.c ****        *(msg->payload+(msg->length-1))==crc/256) {
 1826              		.loc 1 398 0 discriminator 1
 1827 0866 9A42     		cmp	r2, r3
 1828 0868 01D1     		bne	.L99
 400:build/openmote-cc2538_armgcc/openstack/cross-layers/packetfunctions.c ****           return TRUE;
 1829              		.loc 1 400 0
 1830 086a 0123     		movs	r3, #1
 1831 086c 00E0     		b	.L100
 1832              	.L99:
 401:build/openmote-cc2538_armgcc/openstack/cross-layers/packetfunctions.c ****        } else {
 402:build/openmote-cc2538_armgcc/openstack/cross-layers/packetfunctions.c ****           return FALSE;
 1833              		.loc 1 402 0
 1834 086e 0023     		movs	r3, #0
 1835              	.L100:
 403:build/openmote-cc2538_armgcc/openstack/cross-layers/packetfunctions.c ****        }
 404:build/openmote-cc2538_armgcc/openstack/cross-layers/packetfunctions.c **** }
 1836              		.loc 1 404 0
 1837 0870 1846     		mov	r0, r3
 1838 0872 1437     		adds	r7, r7, #20
 1839              		.cfi_def_cfa_offset 4
 1840 0874 BD46     		mov	sp, r7
 1841              		.cfi_def_cfa_register 13
 1842              		@ sp needed
 1843 0876 80BC     		pop	{r7}
 1844              		.cfi_restore 7
 1845              		.cfi_def_cfa_offset 0
 1846 0878 7047     		bx	lr
 1847              	.L102:
 1848 087a 00BF     		.align	2
 1849              	.L101:
 1850 087c 0884FFFF 		.word	-31736
 1851              		.cfi_endproc
 1852              	.LFE17:
 1854              		.align	2
 1855              		.global	packetfunctions_calculateChecksum
 1856              		.thumb
 1857              		.thumb_func
 1859              	packetfunctions_calculateChecksum:
 1860              	.LFB18:
 405:build/openmote-cc2538_armgcc/openstack/cross-layers/packetfunctions.c **** 
 406:build/openmote-cc2538_armgcc/openstack/cross-layers/packetfunctions.c **** //======= checksum calculation
 407:build/openmote-cc2538_armgcc/openstack/cross-layers/packetfunctions.c **** 
 408:build/openmote-cc2538_armgcc/openstack/cross-layers/packetfunctions.c **** //see http://www-net.cs.umass.edu/kurose/transport/UDP.html, or http://tools.ietf.org/html/rfc1071
 409:build/openmote-cc2538_armgcc/openstack/cross-layers/packetfunctions.c **** //see http://en.wikipedia.org/wiki/User_Datagram_Protocol#IPv6_PSEUDO-HEADER
 410:build/openmote-cc2538_armgcc/openstack/cross-layers/packetfunctions.c **** void packetfunctions_calculateChecksum(OpenQueueEntry_t* msg, uint8_t* checksum_ptr) {
 1861              		.loc 1 410 0
 1862              		.cfi_startproc
 1863              		@ args = 0, pretend = 0, frame = 40
 1864              		@ frame_needed = 1, uses_anonymous_args = 0
 1865 0880 B0B5     		push	{r4, r5, r7, lr}
 1866              		.cfi_def_cfa_offset 16
 1867              		.cfi_offset 4, -16
 1868              		.cfi_offset 5, -12
 1869              		.cfi_offset 7, -8
 1870              		.cfi_offset 14, -4
 1871 0882 8AB0     		sub	sp, sp, #40
 1872              		.cfi_def_cfa_offset 56
 1873 0884 00AF     		add	r7, sp, #0
 1874              		.cfi_def_cfa_register 7
 1875 0886 7860     		str	r0, [r7, #4]
 1876 0888 3960     		str	r1, [r7]
 411:build/openmote-cc2538_armgcc/openstack/cross-layers/packetfunctions.c ****     uint8_t temp_checksum[2];
 412:build/openmote-cc2538_armgcc/openstack/cross-layers/packetfunctions.c ****     uint8_t little_helper[2];
 413:build/openmote-cc2538_armgcc/openstack/cross-layers/packetfunctions.c ****     open_addr_t localscopeAddress;
 414:build/openmote-cc2538_armgcc/openstack/cross-layers/packetfunctions.c ****    
 415:build/openmote-cc2538_armgcc/openstack/cross-layers/packetfunctions.c ****     // initialize running checksum
 416:build/openmote-cc2538_armgcc/openstack/cross-layers/packetfunctions.c ****     temp_checksum[0]  = 0;
 1877              		.loc 1 416 0
 1878 088a 0023     		movs	r3, #0
 1879 088c 87F82430 		strb	r3, [r7, #36]
 417:build/openmote-cc2538_armgcc/openstack/cross-layers/packetfunctions.c ****     temp_checksum[1]  = 0;
 1880              		.loc 1 417 0
 1881 0890 0023     		movs	r3, #0
 1882 0892 87F82530 		strb	r3, [r7, #37]
 418:build/openmote-cc2538_armgcc/openstack/cross-layers/packetfunctions.c ****    
 419:build/openmote-cc2538_armgcc/openstack/cross-layers/packetfunctions.c ****     //===== IPv6 pseudo header
 420:build/openmote-cc2538_armgcc/openstack/cross-layers/packetfunctions.c ****     
 421:build/openmote-cc2538_armgcc/openstack/cross-layers/packetfunctions.c ****     // determine the source and destination address format
 422:build/openmote-cc2538_armgcc/openstack/cross-layers/packetfunctions.c ****     if (packetfunctions_isBroadcastMulticast(&msg->l3_destinationAdd)==TRUE){
 1883              		.loc 1 422 0
 1884 0896 7B68     		ldr	r3, [r7, #4]
 1885 0898 1933     		adds	r3, r3, #25
 1886 089a 1846     		mov	r0, r3
 1887 089c FFF7FEFF 		bl	packetfunctions_isBroadcastMulticast
 1888 08a0 0346     		mov	r3, r0
 1889 08a2 002B     		cmp	r3, #0
 1890 08a4 2CD0     		beq	.L104
 423:build/openmote-cc2538_armgcc/openstack/cross-layers/packetfunctions.c ****         // use link local address for source address (prefix and EUI64)
 424:build/openmote-cc2538_armgcc/openstack/cross-layers/packetfunctions.c ****         
 425:build/openmote-cc2538_armgcc/openstack/cross-layers/packetfunctions.c ****         // source address
 426:build/openmote-cc2538_armgcc/openstack/cross-layers/packetfunctions.c ****         onesComplementSum(temp_checksum,(uint8_t*)linklocalprefix,8);
 1891              		.loc 1 426 0
 1892 08a6 07F12403 		add	r3, r7, #36
 1893 08aa 0822     		movs	r2, #8
 1894 08ac 4849     		ldr	r1, .L106
 1895 08ae 1846     		mov	r0, r3
 1896 08b0 FFF7FEFF 		bl	onesComplementSum
 427:build/openmote-cc2538_armgcc/openstack/cross-layers/packetfunctions.c ****         memcpy(&localscopeAddress,idmanager_getMyID(ADDR_64B),sizeof(open_addr_t));
 1897              		.loc 1 427 0
 1898 08b4 0220     		movs	r0, #2
 1899 08b6 FFF7FEFF 		bl	idmanager_getMyID
 1900 08ba 0346     		mov	r3, r0
 1901 08bc 07F10C04 		add	r4, r7, #12
 1902 08c0 1D46     		mov	r5, r3
 1903 08c2 2868     		ldr	r0, [r5]	@ unaligned
 1904 08c4 6968     		ldr	r1, [r5, #4]	@ unaligned
 1905 08c6 AA68     		ldr	r2, [r5, #8]	@ unaligned
 1906 08c8 EB68     		ldr	r3, [r5, #12]	@ unaligned
 1907 08ca 0FC4     		stmia	r4!, {r0, r1, r2, r3}
 1908 08cc 2B7C     		ldrb	r3, [r5, #16]
 1909 08ce 2370     		strb	r3, [r4]
 428:build/openmote-cc2538_armgcc/openstack/cross-layers/packetfunctions.c ****         // invert 'u' bit (section 2.5.1 at https://www.ietf.org/rfc/rfc2373.txt)
 429:build/openmote-cc2538_armgcc/openstack/cross-layers/packetfunctions.c ****         localscopeAddress.addr_64b[0] ^= 0x02;
 1910              		.loc 1 429 0
 1911 08d0 7B7B     		ldrb	r3, [r7, #13]	@ zero_extendqisi2
 1912 08d2 83F00203 		eor	r3, r3, #2
 1913 08d6 DBB2     		uxtb	r3, r3
 1914 08d8 7B73     		strb	r3, [r7, #13]
 430:build/openmote-cc2538_armgcc/openstack/cross-layers/packetfunctions.c ****         onesComplementSum(temp_checksum,localscopeAddress.addr_64b,8);
 1915              		.loc 1 430 0
 1916 08da 07F10C03 		add	r3, r7, #12
 1917 08de 591C     		adds	r1, r3, #1
 1918 08e0 07F12403 		add	r3, r7, #36
 1919 08e4 0822     		movs	r2, #8
 1920 08e6 1846     		mov	r0, r3
 1921 08e8 FFF7FEFF 		bl	onesComplementSum
 431:build/openmote-cc2538_armgcc/openstack/cross-layers/packetfunctions.c ****         
 432:build/openmote-cc2538_armgcc/openstack/cross-layers/packetfunctions.c ****         // boardcast destination address
 433:build/openmote-cc2538_armgcc/openstack/cross-layers/packetfunctions.c ****         onesComplementSum(temp_checksum,msg->l3_destinationAdd.addr_128b,16);
 1922              		.loc 1 433 0
 1923 08ec 7B68     		ldr	r3, [r7, #4]
 1924 08ee 03F11A01 		add	r1, r3, #26
 1925 08f2 07F12403 		add	r3, r7, #36
 1926 08f6 1022     		movs	r2, #16
 1927 08f8 1846     		mov	r0, r3
 1928 08fa FFF7FEFF 		bl	onesComplementSum
 1929 08fe 1EE0     		b	.L105
 1930              	.L104:
 434:build/openmote-cc2538_armgcc/openstack/cross-layers/packetfunctions.c ****     } else {
 435:build/openmote-cc2538_armgcc/openstack/cross-layers/packetfunctions.c ****         // use 128-bit ipv6 address for source address and destination address
 436:build/openmote-cc2538_armgcc/openstack/cross-layers/packetfunctions.c ****       
 437:build/openmote-cc2538_armgcc/openstack/cross-layers/packetfunctions.c ****         // source address
 438:build/openmote-cc2538_armgcc/openstack/cross-layers/packetfunctions.c ****         onesComplementSum(temp_checksum,(idmanager_getMyID(ADDR_PREFIX))->prefix,8);
 1931              		.loc 1 438 0
 1932 0900 0520     		movs	r0, #5
 1933 0902 FFF7FEFF 		bl	idmanager_getMyID
 1934 0906 0346     		mov	r3, r0
 1935 0908 591C     		adds	r1, r3, #1
 1936 090a 07F12403 		add	r3, r7, #36
 1937 090e 0822     		movs	r2, #8
 1938 0910 1846     		mov	r0, r3
 1939 0912 FFF7FEFF 		bl	onesComplementSum
 439:build/openmote-cc2538_armgcc/openstack/cross-layers/packetfunctions.c ****         onesComplementSum(temp_checksum,(idmanager_getMyID(ADDR_64B))->addr_64b,8);
 1940              		.loc 1 439 0
 1941 0916 0220     		movs	r0, #2
 1942 0918 FFF7FEFF 		bl	idmanager_getMyID
 1943 091c 0346     		mov	r3, r0
 1944 091e 591C     		adds	r1, r3, #1
 1945 0920 07F12403 		add	r3, r7, #36
 1946 0924 0822     		movs	r2, #8
 1947 0926 1846     		mov	r0, r3
 1948 0928 FFF7FEFF 		bl	onesComplementSum
 440:build/openmote-cc2538_armgcc/openstack/cross-layers/packetfunctions.c ****         // destination address
 441:build/openmote-cc2538_armgcc/openstack/cross-layers/packetfunctions.c ****         onesComplementSum(temp_checksum,msg->l3_destinationAdd.addr_128b,16);
 1949              		.loc 1 441 0
 1950 092c 7B68     		ldr	r3, [r7, #4]
 1951 092e 03F11A01 		add	r1, r3, #26
 1952 0932 07F12403 		add	r3, r7, #36
 1953 0936 1022     		movs	r2, #16
 1954 0938 1846     		mov	r0, r3
 1955 093a FFF7FEFF 		bl	onesComplementSum
 1956              	.L105:
 442:build/openmote-cc2538_armgcc/openstack/cross-layers/packetfunctions.c ****     }
 443:build/openmote-cc2538_armgcc/openstack/cross-layers/packetfunctions.c ****    
 444:build/openmote-cc2538_armgcc/openstack/cross-layers/packetfunctions.c ****     // length
 445:build/openmote-cc2538_armgcc/openstack/cross-layers/packetfunctions.c ****     little_helper[0] = 0;
 1957              		.loc 1 445 0
 1958 093e 0023     		movs	r3, #0
 1959 0940 87F82030 		strb	r3, [r7, #32]
 446:build/openmote-cc2538_armgcc/openstack/cross-layers/packetfunctions.c ****     little_helper[1] = msg->length;
 1960              		.loc 1 446 0
 1961 0944 7B68     		ldr	r3, [r7, #4]
 1962 0946 1B7A     		ldrb	r3, [r3, #8]	@ zero_extendqisi2
 1963 0948 87F82130 		strb	r3, [r7, #33]
 447:build/openmote-cc2538_armgcc/openstack/cross-layers/packetfunctions.c ****     onesComplementSum(temp_checksum,little_helper,2);
 1964              		.loc 1 447 0
 1965 094c 07F12001 		add	r1, r7, #32
 1966 0950 07F12403 		add	r3, r7, #36
 1967 0954 0222     		movs	r2, #2
 1968 0956 1846     		mov	r0, r3
 1969 0958 FFF7FEFF 		bl	onesComplementSum
 448:build/openmote-cc2538_armgcc/openstack/cross-layers/packetfunctions.c ****    
 449:build/openmote-cc2538_armgcc/openstack/cross-layers/packetfunctions.c ****     // next header
 450:build/openmote-cc2538_armgcc/openstack/cross-layers/packetfunctions.c ****     little_helper[0] = 0;
 1970              		.loc 1 450 0
 1971 095c 0023     		movs	r3, #0
 1972 095e 87F82030 		strb	r3, [r7, #32]
 451:build/openmote-cc2538_armgcc/openstack/cross-layers/packetfunctions.c ****     little_helper[1] = msg->l4_protocol;
 1973              		.loc 1 451 0
 1974 0962 7B68     		ldr	r3, [r7, #4]
 1975 0964 9B7B     		ldrb	r3, [r3, #14]	@ zero_extendqisi2
 1976 0966 87F82130 		strb	r3, [r7, #33]
 452:build/openmote-cc2538_armgcc/openstack/cross-layers/packetfunctions.c ****     onesComplementSum(temp_checksum,little_helper,2);
 1977              		.loc 1 452 0
 1978 096a 07F12001 		add	r1, r7, #32
 1979 096e 07F12403 		add	r3, r7, #36
 1980 0972 0222     		movs	r2, #2
 1981 0974 1846     		mov	r0, r3
 1982 0976 FFF7FEFF 		bl	onesComplementSum
 453:build/openmote-cc2538_armgcc/openstack/cross-layers/packetfunctions.c ****    
 454:build/openmote-cc2538_armgcc/openstack/cross-layers/packetfunctions.c ****     //===== payload
 455:build/openmote-cc2538_armgcc/openstack/cross-layers/packetfunctions.c ****    
 456:build/openmote-cc2538_armgcc/openstack/cross-layers/packetfunctions.c ****     // reset the checksum currently in the payload
 457:build/openmote-cc2538_armgcc/openstack/cross-layers/packetfunctions.c ****     *checksum_ptr     = 0;
 1983              		.loc 1 457 0
 1984 097a 3B68     		ldr	r3, [r7]
 1985 097c 0022     		movs	r2, #0
 1986 097e 1A70     		strb	r2, [r3]
 458:build/openmote-cc2538_armgcc/openstack/cross-layers/packetfunctions.c ****     *(checksum_ptr+1) = 0;
 1987              		.loc 1 458 0
 1988 0980 3B68     		ldr	r3, [r7]
 1989 0982 0133     		adds	r3, r3, #1
 1990 0984 0022     		movs	r2, #0
 1991 0986 1A70     		strb	r2, [r3]
 459:build/openmote-cc2538_armgcc/openstack/cross-layers/packetfunctions.c ****    
 460:build/openmote-cc2538_armgcc/openstack/cross-layers/packetfunctions.c ****     onesComplementSum(temp_checksum,msg->payload,msg->length);
 1992              		.loc 1 460 0
 1993 0988 7B68     		ldr	r3, [r7, #4]
 1994 098a 5968     		ldr	r1, [r3, #4]
 1995 098c 7B68     		ldr	r3, [r7, #4]
 1996 098e 1B7A     		ldrb	r3, [r3, #8]	@ zero_extendqisi2
 1997 0990 1A46     		mov	r2, r3
 1998 0992 07F12403 		add	r3, r7, #36
 1999 0996 1846     		mov	r0, r3
 2000 0998 FFF7FEFF 		bl	onesComplementSum
 461:build/openmote-cc2538_armgcc/openstack/cross-layers/packetfunctions.c ****     temp_checksum[0] ^= 0xFF;
 2001              		.loc 1 461 0
 2002 099c 97F82430 		ldrb	r3, [r7, #36]	@ zero_extendqisi2
 2003 09a0 DB43     		mvns	r3, r3
 2004 09a2 DBB2     		uxtb	r3, r3
 2005 09a4 87F82430 		strb	r3, [r7, #36]
 462:build/openmote-cc2538_armgcc/openstack/cross-layers/packetfunctions.c ****     temp_checksum[1] ^= 0xFF;
 2006              		.loc 1 462 0
 2007 09a8 97F82530 		ldrb	r3, [r7, #37]	@ zero_extendqisi2
 2008 09ac DB43     		mvns	r3, r3
 2009 09ae DBB2     		uxtb	r3, r3
 2010 09b0 87F82530 		strb	r3, [r7, #37]
 463:build/openmote-cc2538_armgcc/openstack/cross-layers/packetfunctions.c ****    
 464:build/openmote-cc2538_armgcc/openstack/cross-layers/packetfunctions.c ****     //write in packet
 465:build/openmote-cc2538_armgcc/openstack/cross-layers/packetfunctions.c ****     *checksum_ptr     = temp_checksum[0];
 2011              		.loc 1 465 0
 2012 09b4 97F82420 		ldrb	r2, [r7, #36]	@ zero_extendqisi2
 2013 09b8 3B68     		ldr	r3, [r7]
 2014 09ba 1A70     		strb	r2, [r3]
 466:build/openmote-cc2538_armgcc/openstack/cross-layers/packetfunctions.c ****     *(checksum_ptr+1) = temp_checksum[1];
 2015              		.loc 1 466 0
 2016 09bc 3B68     		ldr	r3, [r7]
 2017 09be 0133     		adds	r3, r3, #1
 2018 09c0 97F82520 		ldrb	r2, [r7, #37]	@ zero_extendqisi2
 2019 09c4 1A70     		strb	r2, [r3]
 467:build/openmote-cc2538_armgcc/openstack/cross-layers/packetfunctions.c **** }
 2020              		.loc 1 467 0
 2021 09c6 00BF     		nop
 2022 09c8 2837     		adds	r7, r7, #40
 2023              		.cfi_def_cfa_offset 16
 2024 09ca BD46     		mov	sp, r7
 2025              		.cfi_def_cfa_register 13
 2026              		@ sp needed
 2027 09cc B0BD     		pop	{r4, r5, r7, pc}
 2028              	.L107:
 2029 09ce 00BF     		.align	2
 2030              	.L106:
 2031 09d0 30000000 		.word	linklocalprefix
 2032              		.cfi_endproc
 2033              	.LFE18:
 2035              		.align	2
 2036              		.global	onesComplementSum
 2037              		.thumb
 2038              		.thumb_func
 2040              	onesComplementSum:
 2041              	.LFB19:
 468:build/openmote-cc2538_armgcc/openstack/cross-layers/packetfunctions.c **** 
 469:build/openmote-cc2538_armgcc/openstack/cross-layers/packetfunctions.c **** 
 470:build/openmote-cc2538_armgcc/openstack/cross-layers/packetfunctions.c **** void onesComplementSum(uint8_t* global_sum, uint8_t* ptr, int length) {
 2042              		.loc 1 470 0
 2043              		.cfi_startproc
 2044              		@ args = 0, pretend = 0, frame = 24
 2045              		@ frame_needed = 1, uses_anonymous_args = 0
 2046              		@ link register save eliminated.
 2047 09d4 80B4     		push	{r7}
 2048              		.cfi_def_cfa_offset 4
 2049              		.cfi_offset 7, -4
 2050 09d6 87B0     		sub	sp, sp, #28
 2051              		.cfi_def_cfa_offset 32
 2052 09d8 00AF     		add	r7, sp, #0
 2053              		.cfi_def_cfa_register 7
 2054 09da F860     		str	r0, [r7, #12]
 2055 09dc B960     		str	r1, [r7, #8]
 2056 09de 7A60     		str	r2, [r7, #4]
 471:build/openmote-cc2538_armgcc/openstack/cross-layers/packetfunctions.c ****    uint32_t sum = 0xFFFF & (global_sum[0]<<8 | global_sum[1]);
 2057              		.loc 1 471 0
 2058 09e0 FB68     		ldr	r3, [r7, #12]
 2059 09e2 1B78     		ldrb	r3, [r3]	@ zero_extendqisi2
 2060 09e4 1B02     		lsls	r3, r3, #8
 2061 09e6 FA68     		ldr	r2, [r7, #12]
 2062 09e8 0132     		adds	r2, r2, #1
 2063 09ea 1278     		ldrb	r2, [r2]	@ zero_extendqisi2
 2064 09ec 1343     		orrs	r3, r3, r2
 2065 09ee 9BB2     		uxth	r3, r3
 2066 09f0 7B61     		str	r3, [r7, #20]
 472:build/openmote-cc2538_armgcc/openstack/cross-layers/packetfunctions.c ****    while (length>1) {
 2067              		.loc 1 472 0
 2068 09f2 10E0     		b	.L109
 2069              	.L110:
 473:build/openmote-cc2538_armgcc/openstack/cross-layers/packetfunctions.c ****       sum     += 0xFFFF & (*ptr<<8 | *(ptr+1));
 2070              		.loc 1 473 0
 2071 09f4 BB68     		ldr	r3, [r7, #8]
 2072 09f6 1B78     		ldrb	r3, [r3]	@ zero_extendqisi2
 2073 09f8 1B02     		lsls	r3, r3, #8
 2074 09fa BA68     		ldr	r2, [r7, #8]
 2075 09fc 0132     		adds	r2, r2, #1
 2076 09fe 1278     		ldrb	r2, [r2]	@ zero_extendqisi2
 2077 0a00 1343     		orrs	r3, r3, r2
 2078 0a02 9BB2     		uxth	r3, r3
 2079 0a04 7A69     		ldr	r2, [r7, #20]
 2080 0a06 1344     		add	r3, r3, r2
 2081 0a08 7B61     		str	r3, [r7, #20]
 474:build/openmote-cc2538_armgcc/openstack/cross-layers/packetfunctions.c ****       ptr     += 2;
 2082              		.loc 1 474 0
 2083 0a0a BB68     		ldr	r3, [r7, #8]
 2084 0a0c 0233     		adds	r3, r3, #2
 2085 0a0e BB60     		str	r3, [r7, #8]
 475:build/openmote-cc2538_armgcc/openstack/cross-layers/packetfunctions.c ****       length  -= 2;
 2086              		.loc 1 475 0
 2087 0a10 7B68     		ldr	r3, [r7, #4]
 2088 0a12 023B     		subs	r3, r3, #2
 2089 0a14 7B60     		str	r3, [r7, #4]
 2090              	.L109:
 472:build/openmote-cc2538_armgcc/openstack/cross-layers/packetfunctions.c ****       sum     += 0xFFFF & (*ptr<<8 | *(ptr+1));
 2091              		.loc 1 472 0
 2092 0a16 7B68     		ldr	r3, [r7, #4]
 2093 0a18 012B     		cmp	r3, #1
 2094 0a1a EBDC     		bgt	.L110
 476:build/openmote-cc2538_armgcc/openstack/cross-layers/packetfunctions.c ****    }
 477:build/openmote-cc2538_armgcc/openstack/cross-layers/packetfunctions.c ****    if (length) {
 2095              		.loc 1 477 0
 2096 0a1c 7B68     		ldr	r3, [r7, #4]
 2097 0a1e 002B     		cmp	r3, #0
 2098 0a20 0DD0     		beq	.L112
 478:build/openmote-cc2538_armgcc/openstack/cross-layers/packetfunctions.c ****       sum     += (0xFF & *ptr)<<8;
 2099              		.loc 1 478 0
 2100 0a22 BB68     		ldr	r3, [r7, #8]
 2101 0a24 1B78     		ldrb	r3, [r3]	@ zero_extendqisi2
 2102 0a26 1B02     		lsls	r3, r3, #8
 2103 0a28 1A46     		mov	r2, r3
 2104 0a2a 7B69     		ldr	r3, [r7, #20]
 2105 0a2c 1344     		add	r3, r3, r2
 2106 0a2e 7B61     		str	r3, [r7, #20]
 479:build/openmote-cc2538_armgcc/openstack/cross-layers/packetfunctions.c ****    }
 480:build/openmote-cc2538_armgcc/openstack/cross-layers/packetfunctions.c ****    while (sum>>16) {
 2107              		.loc 1 480 0
 2108 0a30 05E0     		b	.L112
 2109              	.L113:
 481:build/openmote-cc2538_armgcc/openstack/cross-layers/packetfunctions.c ****       sum      = (sum & 0xFFFF)+(sum >> 16);
 2110              		.loc 1 481 0
 2111 0a32 7B69     		ldr	r3, [r7, #20]
 2112 0a34 9AB2     		uxth	r2, r3
 2113 0a36 7B69     		ldr	r3, [r7, #20]
 2114 0a38 1B0C     		lsrs	r3, r3, #16
 2115 0a3a 1344     		add	r3, r3, r2
 2116 0a3c 7B61     		str	r3, [r7, #20]
 2117              	.L112:
 480:build/openmote-cc2538_armgcc/openstack/cross-layers/packetfunctions.c ****       sum      = (sum & 0xFFFF)+(sum >> 16);
 2118              		.loc 1 480 0
 2119 0a3e 7B69     		ldr	r3, [r7, #20]
 2120 0a40 1B0C     		lsrs	r3, r3, #16
 2121 0a42 002B     		cmp	r3, #0
 2122 0a44 F5D1     		bne	.L113
 482:build/openmote-cc2538_armgcc/openstack/cross-layers/packetfunctions.c ****    }
 483:build/openmote-cc2538_armgcc/openstack/cross-layers/packetfunctions.c ****    global_sum[0] = (sum>>8) & 0xFF;
 2123              		.loc 1 483 0
 2124 0a46 7B69     		ldr	r3, [r7, #20]
 2125 0a48 1B0A     		lsrs	r3, r3, #8
 2126 0a4a DAB2     		uxtb	r2, r3
 2127 0a4c FB68     		ldr	r3, [r7, #12]
 2128 0a4e 1A70     		strb	r2, [r3]
 484:build/openmote-cc2538_armgcc/openstack/cross-layers/packetfunctions.c ****    global_sum[1] = sum & 0xFF;
 2129              		.loc 1 484 0
 2130 0a50 FB68     		ldr	r3, [r7, #12]
 2131 0a52 0133     		adds	r3, r3, #1
 2132 0a54 7A69     		ldr	r2, [r7, #20]
 2133 0a56 D2B2     		uxtb	r2, r2
 2134 0a58 1A70     		strb	r2, [r3]
 485:build/openmote-cc2538_armgcc/openstack/cross-layers/packetfunctions.c **** }
 2135              		.loc 1 485 0
 2136 0a5a 00BF     		nop
 2137 0a5c 1C37     		adds	r7, r7, #28
 2138              		.cfi_def_cfa_offset 4
 2139 0a5e BD46     		mov	sp, r7
 2140              		.cfi_def_cfa_register 13
 2141              		@ sp needed
 2142 0a60 80BC     		pop	{r7}
 2143              		.cfi_restore 7
 2144              		.cfi_def_cfa_offset 0
 2145 0a62 7047     		bx	lr
 2146              		.cfi_endproc
 2147              	.LFE19:
 2149              		.align	2
 2150              		.global	packetfunctions_htons
 2151              		.thumb
 2152              		.thumb_func
 2154              	packetfunctions_htons:
 2155              	.LFB20:
 486:build/openmote-cc2538_armgcc/openstack/cross-layers/packetfunctions.c **** 
 487:build/openmote-cc2538_armgcc/openstack/cross-layers/packetfunctions.c **** //======= endianness
 488:build/openmote-cc2538_armgcc/openstack/cross-layers/packetfunctions.c **** 
 489:build/openmote-cc2538_armgcc/openstack/cross-layers/packetfunctions.c **** void packetfunctions_htons( uint16_t val, uint8_t* dest ) {
 2156              		.loc 1 489 0
 2157              		.cfi_startproc
 2158              		@ args = 0, pretend = 0, frame = 8
 2159              		@ frame_needed = 1, uses_anonymous_args = 0
 2160              		@ link register save eliminated.
 2161 0a64 80B4     		push	{r7}
 2162              		.cfi_def_cfa_offset 4
 2163              		.cfi_offset 7, -4
 2164 0a66 83B0     		sub	sp, sp, #12
 2165              		.cfi_def_cfa_offset 16
 2166 0a68 00AF     		add	r7, sp, #0
 2167              		.cfi_def_cfa_register 7
 2168 0a6a 0346     		mov	r3, r0
 2169 0a6c 3960     		str	r1, [r7]
 2170 0a6e FB80     		strh	r3, [r7, #6]	@ movhi
 490:build/openmote-cc2538_armgcc/openstack/cross-layers/packetfunctions.c ****    dest[0] = (val & 0xff00) >> 8;
 2171              		.loc 1 490 0
 2172 0a70 FB88     		ldrh	r3, [r7, #6]
 2173 0a72 1B0A     		lsrs	r3, r3, #8
 2174 0a74 9BB2     		uxth	r3, r3
 2175 0a76 DAB2     		uxtb	r2, r3
 2176 0a78 3B68     		ldr	r3, [r7]
 2177 0a7a 1A70     		strb	r2, [r3]
 491:build/openmote-cc2538_armgcc/openstack/cross-layers/packetfunctions.c ****    dest[1] = (val & 0x00ff);
 2178              		.loc 1 491 0
 2179 0a7c 3B68     		ldr	r3, [r7]
 2180 0a7e 0133     		adds	r3, r3, #1
 2181 0a80 FA88     		ldrh	r2, [r7, #6]	@ movhi
 2182 0a82 D2B2     		uxtb	r2, r2
 2183 0a84 1A70     		strb	r2, [r3]
 492:build/openmote-cc2538_armgcc/openstack/cross-layers/packetfunctions.c **** }
 2184              		.loc 1 492 0
 2185 0a86 00BF     		nop
 2186 0a88 0C37     		adds	r7, r7, #12
 2187              		.cfi_def_cfa_offset 4
 2188 0a8a BD46     		mov	sp, r7
 2189              		.cfi_def_cfa_register 13
 2190              		@ sp needed
 2191 0a8c 80BC     		pop	{r7}
 2192              		.cfi_restore 7
 2193              		.cfi_def_cfa_offset 0
 2194 0a8e 7047     		bx	lr
 2195              		.cfi_endproc
 2196              	.LFE20:
 2198              		.align	2
 2199              		.global	packetfunctions_ntohs
 2200              		.thumb
 2201              		.thumb_func
 2203              	packetfunctions_ntohs:
 2204              	.LFB21:
 493:build/openmote-cc2538_armgcc/openstack/cross-layers/packetfunctions.c **** 
 494:build/openmote-cc2538_armgcc/openstack/cross-layers/packetfunctions.c **** uint16_t packetfunctions_ntohs( uint8_t* src ) {
 2205              		.loc 1 494 0
 2206              		.cfi_startproc
 2207              		@ args = 0, pretend = 0, frame = 8
 2208              		@ frame_needed = 1, uses_anonymous_args = 0
 2209              		@ link register save eliminated.
 2210 0a90 80B4     		push	{r7}
 2211              		.cfi_def_cfa_offset 4
 2212              		.cfi_offset 7, -4
 2213 0a92 83B0     		sub	sp, sp, #12
 2214              		.cfi_def_cfa_offset 16
 2215 0a94 00AF     		add	r7, sp, #0
 2216              		.cfi_def_cfa_register 7
 2217 0a96 7860     		str	r0, [r7, #4]
 495:build/openmote-cc2538_armgcc/openstack/cross-layers/packetfunctions.c ****    return (((uint16_t) src[0]) << 8) |
 2218              		.loc 1 495 0
 2219 0a98 7B68     		ldr	r3, [r7, #4]
 2220 0a9a 1B78     		ldrb	r3, [r3]	@ zero_extendqisi2
 2221 0a9c 1B02     		lsls	r3, r3, #8
 2222 0a9e 1AB2     		sxth	r2, r3
 496:build/openmote-cc2538_armgcc/openstack/cross-layers/packetfunctions.c ****       (((uint16_t) src[1])
 2223              		.loc 1 496 0
 2224 0aa0 7B68     		ldr	r3, [r7, #4]
 2225 0aa2 0133     		adds	r3, r3, #1
 2226 0aa4 1B78     		ldrb	r3, [r3]	@ zero_extendqisi2
 495:build/openmote-cc2538_armgcc/openstack/cross-layers/packetfunctions.c ****    return (((uint16_t) src[0]) << 8) |
 2227              		.loc 1 495 0
 2228 0aa6 1BB2     		sxth	r3, r3
 2229 0aa8 1343     		orrs	r3, r3, r2
 2230 0aaa 1BB2     		sxth	r3, r3
 2231 0aac 9BB2     		uxth	r3, r3
 497:build/openmote-cc2538_armgcc/openstack/cross-layers/packetfunctions.c ****       );
 498:build/openmote-cc2538_armgcc/openstack/cross-layers/packetfunctions.c **** }
 2232              		.loc 1 498 0
 2233 0aae 1846     		mov	r0, r3
 2234 0ab0 0C37     		adds	r7, r7, #12
 2235              		.cfi_def_cfa_offset 4
 2236 0ab2 BD46     		mov	sp, r7
 2237              		.cfi_def_cfa_register 13
 2238              		@ sp needed
 2239 0ab4 80BC     		pop	{r7}
 2240              		.cfi_restore 7
 2241              		.cfi_def_cfa_offset 0
 2242 0ab6 7047     		bx	lr
 2243              		.cfi_endproc
 2244              	.LFE21:
 2246              		.align	2
 2247              		.global	packetfunctions_htonl
 2248              		.thumb
 2249              		.thumb_func
 2251              	packetfunctions_htonl:
 2252              	.LFB22:
 499:build/openmote-cc2538_armgcc/openstack/cross-layers/packetfunctions.c **** 
 500:build/openmote-cc2538_armgcc/openstack/cross-layers/packetfunctions.c **** void packetfunctions_htonl( uint32_t val, uint8_t* dest ) {
 2253              		.loc 1 500 0
 2254              		.cfi_startproc
 2255              		@ args = 0, pretend = 0, frame = 8
 2256              		@ frame_needed = 1, uses_anonymous_args = 0
 2257              		@ link register save eliminated.
 2258 0ab8 80B4     		push	{r7}
 2259              		.cfi_def_cfa_offset 4
 2260              		.cfi_offset 7, -4
 2261 0aba 83B0     		sub	sp, sp, #12
 2262              		.cfi_def_cfa_offset 16
 2263 0abc 00AF     		add	r7, sp, #0
 2264              		.cfi_def_cfa_register 7
 2265 0abe 7860     		str	r0, [r7, #4]
 2266 0ac0 3960     		str	r1, [r7]
 501:build/openmote-cc2538_armgcc/openstack/cross-layers/packetfunctions.c ****    dest[0] = (val & 0xff000000) >> 24;
 2267              		.loc 1 501 0
 2268 0ac2 7B68     		ldr	r3, [r7, #4]
 2269 0ac4 1B0E     		lsrs	r3, r3, #24
 2270 0ac6 DAB2     		uxtb	r2, r3
 2271 0ac8 3B68     		ldr	r3, [r7]
 2272 0aca 1A70     		strb	r2, [r3]
 502:build/openmote-cc2538_armgcc/openstack/cross-layers/packetfunctions.c ****    dest[1] = (val & 0x00ff0000) >> 16;
 2273              		.loc 1 502 0
 2274 0acc 3B68     		ldr	r3, [r7]
 2275 0ace 0133     		adds	r3, r3, #1
 2276 0ad0 7A68     		ldr	r2, [r7, #4]
 2277 0ad2 120C     		lsrs	r2, r2, #16
 2278 0ad4 D2B2     		uxtb	r2, r2
 2279 0ad6 1A70     		strb	r2, [r3]
 503:build/openmote-cc2538_armgcc/openstack/cross-layers/packetfunctions.c ****    dest[2] = (val & 0x0000ff00) >> 8;
 2280              		.loc 1 503 0
 2281 0ad8 3B68     		ldr	r3, [r7]
 2282 0ada 0233     		adds	r3, r3, #2
 2283 0adc 7A68     		ldr	r2, [r7, #4]
 2284 0ade 120A     		lsrs	r2, r2, #8
 2285 0ae0 D2B2     		uxtb	r2, r2
 2286 0ae2 1A70     		strb	r2, [r3]
 504:build/openmote-cc2538_armgcc/openstack/cross-layers/packetfunctions.c ****    dest[3] = (val & 0x000000ff);
 2287              		.loc 1 504 0
 2288 0ae4 3B68     		ldr	r3, [r7]
 2289 0ae6 0333     		adds	r3, r3, #3
 2290 0ae8 7A68     		ldr	r2, [r7, #4]
 2291 0aea D2B2     		uxtb	r2, r2
 2292 0aec 1A70     		strb	r2, [r3]
 505:build/openmote-cc2538_armgcc/openstack/cross-layers/packetfunctions.c **** }
 2293              		.loc 1 505 0
 2294 0aee 00BF     		nop
 2295 0af0 0C37     		adds	r7, r7, #12
 2296              		.cfi_def_cfa_offset 4
 2297 0af2 BD46     		mov	sp, r7
 2298              		.cfi_def_cfa_register 13
 2299              		@ sp needed
 2300 0af4 80BC     		pop	{r7}
 2301              		.cfi_restore 7
 2302              		.cfi_def_cfa_offset 0
 2303 0af6 7047     		bx	lr
 2304              		.cfi_endproc
 2305              	.LFE22:
 2307              		.align	2
 2308              		.global	packetfunctions_ntohl
 2309              		.thumb
 2310              		.thumb_func
 2312              	packetfunctions_ntohl:
 2313              	.LFB23:
 506:build/openmote-cc2538_armgcc/openstack/cross-layers/packetfunctions.c **** 
 507:build/openmote-cc2538_armgcc/openstack/cross-layers/packetfunctions.c **** uint32_t packetfunctions_ntohl( uint8_t* src ) {
 2314              		.loc 1 507 0
 2315              		.cfi_startproc
 2316              		@ args = 0, pretend = 0, frame = 8
 2317              		@ frame_needed = 1, uses_anonymous_args = 0
 2318              		@ link register save eliminated.
 2319 0af8 80B4     		push	{r7}
 2320              		.cfi_def_cfa_offset 4
 2321              		.cfi_offset 7, -4
 2322 0afa 83B0     		sub	sp, sp, #12
 2323              		.cfi_def_cfa_offset 16
 2324 0afc 00AF     		add	r7, sp, #0
 2325              		.cfi_def_cfa_register 7
 2326 0afe 7860     		str	r0, [r7, #4]
 508:build/openmote-cc2538_armgcc/openstack/cross-layers/packetfunctions.c ****    return (((uint32_t) src[0]) << 24) |
 2327              		.loc 1 508 0
 2328 0b00 7B68     		ldr	r3, [r7, #4]
 2329 0b02 1B78     		ldrb	r3, [r3]	@ zero_extendqisi2
 2330 0b04 1A06     		lsls	r2, r3, #24
 509:build/openmote-cc2538_armgcc/openstack/cross-layers/packetfunctions.c ****       (((uint32_t) src[1]) << 16)     |
 2331              		.loc 1 509 0
 2332 0b06 7B68     		ldr	r3, [r7, #4]
 2333 0b08 0133     		adds	r3, r3, #1
 2334 0b0a 1B78     		ldrb	r3, [r3]	@ zero_extendqisi2
 2335 0b0c 1B04     		lsls	r3, r3, #16
 508:build/openmote-cc2538_armgcc/openstack/cross-layers/packetfunctions.c ****    return (((uint32_t) src[0]) << 24) |
 2336              		.loc 1 508 0
 2337 0b0e 1A43     		orrs	r2, r2, r3
 510:build/openmote-cc2538_armgcc/openstack/cross-layers/packetfunctions.c ****       (((uint32_t) src[2]) << 8)      |
 2338              		.loc 1 510 0
 2339 0b10 7B68     		ldr	r3, [r7, #4]
 2340 0b12 0233     		adds	r3, r3, #2
 2341 0b14 1B78     		ldrb	r3, [r3]	@ zero_extendqisi2
 2342 0b16 1B02     		lsls	r3, r3, #8
 509:build/openmote-cc2538_armgcc/openstack/cross-layers/packetfunctions.c ****       (((uint32_t) src[1]) << 16)     |
 2343              		.loc 1 509 0
 2344 0b18 1343     		orrs	r3, r3, r2
 511:build/openmote-cc2538_armgcc/openstack/cross-layers/packetfunctions.c ****       (((uint32_t) src[3])
 2345              		.loc 1 511 0
 2346 0b1a 7A68     		ldr	r2, [r7, #4]
 2347 0b1c 0332     		adds	r2, r2, #3
 2348 0b1e 1278     		ldrb	r2, [r2]	@ zero_extendqisi2
 508:build/openmote-cc2538_armgcc/openstack/cross-layers/packetfunctions.c ****       (((uint32_t) src[1]) << 16)     |
 2349              		.loc 1 508 0
 2350 0b20 1343     		orrs	r3, r3, r2
 512:build/openmote-cc2538_armgcc/openstack/cross-layers/packetfunctions.c ****       );
 513:build/openmote-cc2538_armgcc/openstack/cross-layers/packetfunctions.c **** }
 2351              		.loc 1 513 0
 2352 0b22 1846     		mov	r0, r3
 2353 0b24 0C37     		adds	r7, r7, #12
 2354              		.cfi_def_cfa_offset 4
 2355 0b26 BD46     		mov	sp, r7
 2356              		.cfi_def_cfa_register 13
 2357              		@ sp needed
 2358 0b28 80BC     		pop	{r7}
 2359              		.cfi_restore 7
 2360              		.cfi_def_cfa_offset 0
 2361 0b2a 7047     		bx	lr
 2362              		.cfi_endproc
 2363              	.LFE23:
 2365              		.align	2
 2366              		.global	packetfunctions_reverseArrayByteOrder
 2367              		.thumb
 2368              		.thumb_func
 2370              	packetfunctions_reverseArrayByteOrder:
 2371              	.LFB24:
 514:build/openmote-cc2538_armgcc/openstack/cross-layers/packetfunctions.c **** 
 515:build/openmote-cc2538_armgcc/openstack/cross-layers/packetfunctions.c **** // reverse byte order in the array
 516:build/openmote-cc2538_armgcc/openstack/cross-layers/packetfunctions.c **** void packetfunctions_reverseArrayByteOrder(uint8_t* start, uint8_t len) {
 2372              		.loc 1 516 0
 2373              		.cfi_startproc
 2374              		@ args = 0, pretend = 0, frame = 24
 2375              		@ frame_needed = 1, uses_anonymous_args = 0
 2376              		@ link register save eliminated.
 2377 0b2c 80B4     		push	{r7}
 2378              		.cfi_def_cfa_offset 4
 2379              		.cfi_offset 7, -4
 2380 0b2e 87B0     		sub	sp, sp, #28
 2381              		.cfi_def_cfa_offset 32
 2382 0b30 00AF     		add	r7, sp, #0
 2383              		.cfi_def_cfa_register 7
 2384 0b32 7860     		str	r0, [r7, #4]
 2385 0b34 0B46     		mov	r3, r1
 2386 0b36 FB70     		strb	r3, [r7, #3]
 517:build/openmote-cc2538_armgcc/openstack/cross-layers/packetfunctions.c ****    uint8_t *lo = start;
 2387              		.loc 1 517 0
 2388 0b38 7B68     		ldr	r3, [r7, #4]
 2389 0b3a 7B61     		str	r3, [r7, #20]
 518:build/openmote-cc2538_armgcc/openstack/cross-layers/packetfunctions.c ****    uint8_t *hi = start + len - 1;
 2390              		.loc 1 518 0
 2391 0b3c FB78     		ldrb	r3, [r7, #3]	@ zero_extendqisi2
 2392 0b3e 013B     		subs	r3, r3, #1
 2393 0b40 7A68     		ldr	r2, [r7, #4]
 2394 0b42 1344     		add	r3, r3, r2
 2395 0b44 3B61     		str	r3, [r7, #16]
 519:build/openmote-cc2538_armgcc/openstack/cross-layers/packetfunctions.c ****    uint8_t swap;
 520:build/openmote-cc2538_armgcc/openstack/cross-layers/packetfunctions.c ****    while (lo < hi) {
 2396              		.loc 1 520 0
 2397 0b46 0DE0     		b	.L121
 2398              	.L122:
 521:build/openmote-cc2538_armgcc/openstack/cross-layers/packetfunctions.c ****       swap = *lo;
 2399              		.loc 1 521 0
 2400 0b48 7B69     		ldr	r3, [r7, #20]
 2401 0b4a 1B78     		ldrb	r3, [r3]
 2402 0b4c FB73     		strb	r3, [r7, #15]
 522:build/openmote-cc2538_armgcc/openstack/cross-layers/packetfunctions.c ****       *lo++ = *hi;
 2403              		.loc 1 522 0
 2404 0b4e 7B69     		ldr	r3, [r7, #20]
 2405 0b50 5A1C     		adds	r2, r3, #1
 2406 0b52 7A61     		str	r2, [r7, #20]
 2407 0b54 3A69     		ldr	r2, [r7, #16]
 2408 0b56 1278     		ldrb	r2, [r2]	@ zero_extendqisi2
 2409 0b58 1A70     		strb	r2, [r3]
 523:build/openmote-cc2538_armgcc/openstack/cross-layers/packetfunctions.c ****       *hi-- = swap;
 2410              		.loc 1 523 0
 2411 0b5a 3B69     		ldr	r3, [r7, #16]
 2412 0b5c 5A1E     		subs	r2, r3, #1
 2413 0b5e 3A61     		str	r2, [r7, #16]
 2414 0b60 FA7B     		ldrb	r2, [r7, #15]
 2415 0b62 1A70     		strb	r2, [r3]
 2416              	.L121:
 520:build/openmote-cc2538_armgcc/openstack/cross-layers/packetfunctions.c ****       swap = *lo;
 2417              		.loc 1 520 0
 2418 0b64 7A69     		ldr	r2, [r7, #20]
 2419 0b66 3B69     		ldr	r3, [r7, #16]
 2420 0b68 9A42     		cmp	r2, r3
 2421 0b6a EDD3     		bcc	.L122
 524:build/openmote-cc2538_armgcc/openstack/cross-layers/packetfunctions.c ****    }
 525:build/openmote-cc2538_armgcc/openstack/cross-layers/packetfunctions.c **** }
 2422              		.loc 1 525 0
 2423 0b6c 00BF     		nop
 2424 0b6e 1C37     		adds	r7, r7, #28
 2425              		.cfi_def_cfa_offset 4
 2426 0b70 BD46     		mov	sp, r7
 2427              		.cfi_def_cfa_register 13
 2428              		@ sp needed
 2429 0b72 80BC     		pop	{r7}
 2430              		.cfi_restore 7
 2431              		.cfi_def_cfa_offset 0
 2432 0b74 7047     		bx	lr
 2433              		.cfi_endproc
 2434              	.LFE24:
 2436              	.Letext0:
 2437              		.file 2 "/usr/include/newlib/machine/_default_types.h"
 2438              		.file 3 "/usr/include/newlib/sys/_stdint.h"
 2439              		.file 4 "inc/opendefs.h"
 2440              		.file 5 "bsp/boards/openmote-cc2538/board_info.h"
 2441              		.file 6 "build/openmote-cc2538_armgcc/openstack/cross-layers/idmanager.h"