   1              		.syntax unified
   2              		.cpu cortex-m3
   3              		.fpu softvfp
   4              		.eabi_attribute 20, 1
   5              		.eabi_attribute 21, 1
   6              		.eabi_attribute 23, 3
   7              		.eabi_attribute 24, 1
   8              		.eabi_attribute 25, 1
   9              		.eabi_attribute 26, 1
  10              		.eabi_attribute 30, 6
  11              		.eabi_attribute 34, 1
  12              		.eabi_attribute 18, 4
  13              		.thumb
  14              		.syntax unified
  15              		.file	"eui64.c"
  16              		.text
  17              	.Ltext0:
  18              		.cfi_sections	.debug_frame
  19              		.align	2
  20              		.global	eui64_get
  21              		.thumb
  22              		.thumb_func
  24              	eui64_get:
  25              	.LFB0:
  26              		.file 1 "build/openmote-cc2538_armgcc/bsp/boards/openmote-cc2538/eui64.c"
   1:build/openmote-cc2538_armgcc/bsp/boards/openmote-cc2538/eui64.c **** /**
   2:build/openmote-cc2538_armgcc/bsp/boards/openmote-cc2538/eui64.c ****  * Author: Xavier Vilajosana (xvilajosana@eecs.berkeley.edu)
   3:build/openmote-cc2538_armgcc/bsp/boards/openmote-cc2538/eui64.c ****  *         Pere Tuset (peretuset@openmote.com)
   4:build/openmote-cc2538_armgcc/bsp/boards/openmote-cc2538/eui64.c ****  * Date:   July 2013
   5:build/openmote-cc2538_armgcc/bsp/boards/openmote-cc2538/eui64.c ****  * Description: CC2538-specific definition of the "eui64" bsp module.
   6:build/openmote-cc2538_armgcc/bsp/boards/openmote-cc2538/eui64.c ****  */
   7:build/openmote-cc2538_armgcc/bsp/boards/openmote-cc2538/eui64.c **** 
   8:build/openmote-cc2538_armgcc/bsp/boards/openmote-cc2538/eui64.c **** #include <string.h>
   9:build/openmote-cc2538_armgcc/bsp/boards/openmote-cc2538/eui64.c **** 
  10:build/openmote-cc2538_armgcc/bsp/boards/openmote-cc2538/eui64.c **** #include "eui64.h"
  11:build/openmote-cc2538_armgcc/bsp/boards/openmote-cc2538/eui64.c **** 
  12:build/openmote-cc2538_armgcc/bsp/boards/openmote-cc2538/eui64.c **** //=========================== defines =========================================
  13:build/openmote-cc2538_armgcc/bsp/boards/openmote-cc2538/eui64.c **** 
  14:build/openmote-cc2538_armgcc/bsp/boards/openmote-cc2538/eui64.c **** #define BSP_EUI64_ADDRESS_HI_H      ( 0x0028002F )
  15:build/openmote-cc2538_armgcc/bsp/boards/openmote-cc2538/eui64.c **** #define BSP_EUI64_ADDRESS_HI_L      ( 0x0028002C )
  16:build/openmote-cc2538_armgcc/bsp/boards/openmote-cc2538/eui64.c **** #define BSP_EUI64_ADDRESS_LO_H      ( 0x0028002B )
  17:build/openmote-cc2538_armgcc/bsp/boards/openmote-cc2538/eui64.c **** #define BSP_EUI64_ADDRESS_LO_L      ( 0x00280028 )
  18:build/openmote-cc2538_armgcc/bsp/boards/openmote-cc2538/eui64.c **** 
  19:build/openmote-cc2538_armgcc/bsp/boards/openmote-cc2538/eui64.c **** //=========================== variables =======================================
  20:build/openmote-cc2538_armgcc/bsp/boards/openmote-cc2538/eui64.c **** 
  21:build/openmote-cc2538_armgcc/bsp/boards/openmote-cc2538/eui64.c **** //=========================== prototypes ======================================
  22:build/openmote-cc2538_armgcc/bsp/boards/openmote-cc2538/eui64.c **** 
  23:build/openmote-cc2538_armgcc/bsp/boards/openmote-cc2538/eui64.c **** //=========================== public ==========================================
  24:build/openmote-cc2538_armgcc/bsp/boards/openmote-cc2538/eui64.c **** 
  25:build/openmote-cc2538_armgcc/bsp/boards/openmote-cc2538/eui64.c **** void eui64_get(uint8_t* addressToWrite) {
  27              		.loc 1 25 0
  28              		.cfi_startproc
  29              		@ args = 0, pretend = 0, frame = 16
  30              		@ frame_needed = 1, uses_anonymous_args = 0
  31              		@ link register save eliminated.
  32 0000 80B4     		push	{r7}
  33              		.cfi_def_cfa_offset 4
  34              		.cfi_offset 7, -4
  35 0002 85B0     		sub	sp, sp, #20
  36              		.cfi_def_cfa_offset 24
  37 0004 00AF     		add	r7, sp, #0
  38              		.cfi_def_cfa_register 7
  39 0006 7860     		str	r0, [r7, #4]
  26:build/openmote-cc2538_armgcc/bsp/boards/openmote-cc2538/eui64.c ****    uint8_t* eui64_flash;
  27:build/openmote-cc2538_armgcc/bsp/boards/openmote-cc2538/eui64.c ****    
  28:build/openmote-cc2538_armgcc/bsp/boards/openmote-cc2538/eui64.c ****    eui64_flash = (uint8_t*)BSP_EUI64_ADDRESS_LO_H;
  40              		.loc 1 28 0
  41 0008 114B     		ldr	r3, .L6
  42 000a FB60     		str	r3, [r7, #12]
  29:build/openmote-cc2538_armgcc/bsp/boards/openmote-cc2538/eui64.c ****    while(eui64_flash >= (uint8_t*)BSP_EUI64_ADDRESS_LO_L) {
  43              		.loc 1 29 0
  44 000c 07E0     		b	.L2
  45              	.L3:
  30:build/openmote-cc2538_armgcc/bsp/boards/openmote-cc2538/eui64.c ****       *addressToWrite++ = *eui64_flash--;
  46              		.loc 1 30 0
  47 000e 7B68     		ldr	r3, [r7, #4]
  48 0010 5A1C     		adds	r2, r3, #1
  49 0012 7A60     		str	r2, [r7, #4]
  50 0014 FA68     		ldr	r2, [r7, #12]
  51 0016 511E     		subs	r1, r2, #1
  52 0018 F960     		str	r1, [r7, #12]
  53 001a 1278     		ldrb	r2, [r2]	@ zero_extendqisi2
  54 001c 1A70     		strb	r2, [r3]
  55              	.L2:
  29:build/openmote-cc2538_armgcc/bsp/boards/openmote-cc2538/eui64.c ****    while(eui64_flash >= (uint8_t*)BSP_EUI64_ADDRESS_LO_L) {
  56              		.loc 1 29 0
  57 001e FB68     		ldr	r3, [r7, #12]
  58 0020 B3F1281F 		cmp	r3, #2621480
  59 0024 F3D2     		bcs	.L3
  31:build/openmote-cc2538_armgcc/bsp/boards/openmote-cc2538/eui64.c ****    }
  32:build/openmote-cc2538_armgcc/bsp/boards/openmote-cc2538/eui64.c ****    
  33:build/openmote-cc2538_armgcc/bsp/boards/openmote-cc2538/eui64.c ****    eui64_flash = (uint8_t*)BSP_EUI64_ADDRESS_HI_H;
  60              		.loc 1 33 0
  61 0026 0B4B     		ldr	r3, .L6+4
  62 0028 FB60     		str	r3, [r7, #12]
  34:build/openmote-cc2538_armgcc/bsp/boards/openmote-cc2538/eui64.c ****    while(eui64_flash >= (uint8_t*)BSP_EUI64_ADDRESS_HI_L) {
  63              		.loc 1 34 0
  64 002a 07E0     		b	.L4
  65              	.L5:
  35:build/openmote-cc2538_armgcc/bsp/boards/openmote-cc2538/eui64.c ****       *addressToWrite++ = *eui64_flash--;
  66              		.loc 1 35 0
  67 002c 7B68     		ldr	r3, [r7, #4]
  68 002e 5A1C     		adds	r2, r3, #1
  69 0030 7A60     		str	r2, [r7, #4]
  70 0032 FA68     		ldr	r2, [r7, #12]
  71 0034 511E     		subs	r1, r2, #1
  72 0036 F960     		str	r1, [r7, #12]
  73 0038 1278     		ldrb	r2, [r2]	@ zero_extendqisi2
  74 003a 1A70     		strb	r2, [r3]
  75              	.L4:
  34:build/openmote-cc2538_armgcc/bsp/boards/openmote-cc2538/eui64.c ****    while(eui64_flash >= (uint8_t*)BSP_EUI64_ADDRESS_HI_L) {
  76              		.loc 1 34 0
  77 003c FB68     		ldr	r3, [r7, #12]
  78 003e 044A     		ldr	r2, .L6
  79 0040 9342     		cmp	r3, r2
  80 0042 F3D8     		bhi	.L5
  36:build/openmote-cc2538_armgcc/bsp/boards/openmote-cc2538/eui64.c ****    }
  37:build/openmote-cc2538_armgcc/bsp/boards/openmote-cc2538/eui64.c **** }
  81              		.loc 1 37 0
  82 0044 00BF     		nop
  83 0046 1437     		adds	r7, r7, #20
  84              		.cfi_def_cfa_offset 4
  85 0048 BD46     		mov	sp, r7
  86              		.cfi_def_cfa_register 13
  87              		@ sp needed
  88 004a 80BC     		pop	{r7}
  89              		.cfi_restore 7
  90              		.cfi_def_cfa_offset 0
  91 004c 7047     		bx	lr
  92              	.L7:
  93 004e 00BF     		.align	2
  94              	.L6:
  95 0050 2B002800 		.word	2621483
  96 0054 2F002800 		.word	2621487
  97              		.cfi_endproc
  98              	.LFE0:
 100              	.Letext0:
 101              		.file 2 "/usr/include/newlib/machine/_default_types.h"
 102              		.file 3 "/usr/include/newlib/sys/_stdint.h"