   1              		.syntax unified
   2              		.cpu cortex-m3
   3              		.fpu softvfp
   4              		.eabi_attribute 20, 1
   5              		.eabi_attribute 21, 1
   6              		.eabi_attribute 23, 3
   7              		.eabi_attribute 24, 1
   8              		.eabi_attribute 25, 1
   9              		.eabi_attribute 26, 1
  10              		.eabi_attribute 30, 6
  11              		.eabi_attribute 34, 1
  12              		.eabi_attribute 18, 4
  13              		.thumb
  14              		.syntax unified
  15              		.file	"sht21.c"
  16              		.text
  17              	.Ltext0:
  18              		.cfi_sections	.debug_frame
  19              		.align	2
  20              		.global	sht21_init
  21              		.thumb
  22              		.thumb_func
  24              	sht21_init:
  25              	.LFB0:
  26              		.file 1 "build/openmote-cc2538_armgcc/bsp/boards/openmote-cc2538/sht21/sht21.c"
   1:build/openmote-cc2538_armgcc/bsp/boards/openmote-cc2538/sht21/sht21.c **** /**
   2:build/openmote-cc2538_armgcc/bsp/boards/openmote-cc2538/sht21/sht21.c ****  * \file
   3:build/openmote-cc2538_armgcc/bsp/boards/openmote-cc2538/sht21/sht21.c ****  *         Device drivers for SHT21 temperature and humidity sensor in OpenMote-CC2538.
   4:build/openmote-cc2538_armgcc/bsp/boards/openmote-cc2538/sht21/sht21.c ****  * \author
   5:build/openmote-cc2538_armgcc/bsp/boards/openmote-cc2538/sht21/sht21.c ****  *         Pere Tuset, OpenMote <peretuset@openmote.com>
   6:build/openmote-cc2538_armgcc/bsp/boards/openmote-cc2538/sht21/sht21.c ****  */
   7:build/openmote-cc2538_armgcc/bsp/boards/openmote-cc2538/sht21/sht21.c **** 
   8:build/openmote-cc2538_armgcc/bsp/boards/openmote-cc2538/sht21/sht21.c **** #include "stdint.h"
   9:build/openmote-cc2538_armgcc/bsp/boards/openmote-cc2538/sht21/sht21.c **** #include "stdbool.h"
  10:build/openmote-cc2538_armgcc/bsp/boards/openmote-cc2538/sht21/sht21.c **** 
  11:build/openmote-cc2538_armgcc/bsp/boards/openmote-cc2538/sht21/sht21.c **** #include "i2c.h"
  12:build/openmote-cc2538_armgcc/bsp/boards/openmote-cc2538/sht21/sht21.c **** #include "sht21.h"
  13:build/openmote-cc2538_armgcc/bsp/boards/openmote-cc2538/sht21/sht21.c **** 
  14:build/openmote-cc2538_armgcc/bsp/boards/openmote-cc2538/sht21/sht21.c **** //=========================== define ==========================================
  15:build/openmote-cc2538_armgcc/bsp/boards/openmote-cc2538/sht21/sht21.c **** 
  16:build/openmote-cc2538_armgcc/bsp/boards/openmote-cc2538/sht21/sht21.c **** #define SHT21_ADDRESS                   ( 0x40 )
  17:build/openmote-cc2538_armgcc/bsp/boards/openmote-cc2538/sht21/sht21.c **** 
  18:build/openmote-cc2538_armgcc/bsp/boards/openmote-cc2538/sht21/sht21.c **** #define SHT21_USER_REG_READ             ( 0xE7 )
  19:build/openmote-cc2538_armgcc/bsp/boards/openmote-cc2538/sht21/sht21.c **** #define SHT21_USER_REG_WRITE            ( 0xE6 )
  20:build/openmote-cc2538_armgcc/bsp/boards/openmote-cc2538/sht21/sht21.c **** #define SHT21_USER_REG_RESERVED_BITS    ( 0x38 )
  21:build/openmote-cc2538_armgcc/bsp/boards/openmote-cc2538/sht21/sht21.c **** 
  22:build/openmote-cc2538_armgcc/bsp/boards/openmote-cc2538/sht21/sht21.c **** #define SHT21_RESOLUTION_12b_14b        ( (0 << 7) | (0 << 0) )
  23:build/openmote-cc2538_armgcc/bsp/boards/openmote-cc2538/sht21/sht21.c **** #define SHT21_RESOLUTION_8b_12b         ( (0 << 7) | (1 << 0) )
  24:build/openmote-cc2538_armgcc/bsp/boards/openmote-cc2538/sht21/sht21.c **** #define SHT21_RESOLUTION_10b_13b        ( (1 << 7) | (0 << 0) )
  25:build/openmote-cc2538_armgcc/bsp/boards/openmote-cc2538/sht21/sht21.c **** #define SHT21_RESOLUTION_11b_11b        ( (1 << 7) | (1 << 0) )
  26:build/openmote-cc2538_armgcc/bsp/boards/openmote-cc2538/sht21/sht21.c **** #define SHT21_BATTERY_ABOVE_2V25        ( 0 << 6 )
  27:build/openmote-cc2538_armgcc/bsp/boards/openmote-cc2538/sht21/sht21.c **** #define SHT21_BATTERY_BELOW_2V25        ( 1 << 6 )
  28:build/openmote-cc2538_armgcc/bsp/boards/openmote-cc2538/sht21/sht21.c **** #define SHT21_ONCHIP_HEATER_ENABLE      ( 1 << 2 )
  29:build/openmote-cc2538_armgcc/bsp/boards/openmote-cc2538/sht21/sht21.c **** #define SHT21_ONCHIP_HEATER_DISABLE     ( 0 << 2 )
  30:build/openmote-cc2538_armgcc/bsp/boards/openmote-cc2538/sht21/sht21.c **** #define SHT21_OTP_RELOAD_ENABLE         ( 0 << 1 )
  31:build/openmote-cc2538_armgcc/bsp/boards/openmote-cc2538/sht21/sht21.c **** #define SHT21_OTP_RELOAD_DISABLE        ( 1 << 1 )
  32:build/openmote-cc2538_armgcc/bsp/boards/openmote-cc2538/sht21/sht21.c **** 
  33:build/openmote-cc2538_armgcc/bsp/boards/openmote-cc2538/sht21/sht21.c **** #define SHT21_TEMPERATURE_HM_CMD        ( 0xE3 )
  34:build/openmote-cc2538_armgcc/bsp/boards/openmote-cc2538/sht21/sht21.c **** #define SHT21_HUMIDITY_HM_CMD           ( 0xE5 )
  35:build/openmote-cc2538_armgcc/bsp/boards/openmote-cc2538/sht21/sht21.c **** #define SHT21_TEMPERATURE_NHM_CMD       ( 0xF3 )
  36:build/openmote-cc2538_armgcc/bsp/boards/openmote-cc2538/sht21/sht21.c **** #define SHT21_HUMIDITY_NHM_CMD          ( 0xF5 )
  37:build/openmote-cc2538_armgcc/bsp/boards/openmote-cc2538/sht21/sht21.c **** #define SHT21_RESET_CMD                 ( 0xFE )
  38:build/openmote-cc2538_armgcc/bsp/boards/openmote-cc2538/sht21/sht21.c **** 
  39:build/openmote-cc2538_armgcc/bsp/boards/openmote-cc2538/sht21/sht21.c **** #define SHT21_STATUS_MASK               ( 0xFC )
  40:build/openmote-cc2538_armgcc/bsp/boards/openmote-cc2538/sht21/sht21.c **** 
  41:build/openmote-cc2538_armgcc/bsp/boards/openmote-cc2538/sht21/sht21.c **** #define SHT21_DEFAULT_CONFIG            ( SHT21_RESOLUTION_12b_14b | \
  42:build/openmote-cc2538_armgcc/bsp/boards/openmote-cc2538/sht21/sht21.c ****                                           SHT21_ONCHIP_HEATER_DISABLE | \
  43:build/openmote-cc2538_armgcc/bsp/boards/openmote-cc2538/sht21/sht21.c ****                                           SHT21_BATTERY_ABOVE_2V25 | \
  44:build/openmote-cc2538_armgcc/bsp/boards/openmote-cc2538/sht21/sht21.c ****                                           SHT21_OTP_RELOAD_DISABLE )
  45:build/openmote-cc2538_armgcc/bsp/boards/openmote-cc2538/sht21/sht21.c **** 
  46:build/openmote-cc2538_armgcc/bsp/boards/openmote-cc2538/sht21/sht21.c **** #define SHT21_USER_CONFIG               ( SHT21_RESOLUTION_8b_12b | \
  47:build/openmote-cc2538_armgcc/bsp/boards/openmote-cc2538/sht21/sht21.c ****                                           SHT21_ONCHIP_HEATER_DISABLE | \
  48:build/openmote-cc2538_armgcc/bsp/boards/openmote-cc2538/sht21/sht21.c ****                                           SHT21_BATTERY_ABOVE_2V25 | \
  49:build/openmote-cc2538_armgcc/bsp/boards/openmote-cc2538/sht21/sht21.c ****                                           SHT21_OTP_RELOAD_DISABLE )
  50:build/openmote-cc2538_armgcc/bsp/boards/openmote-cc2538/sht21/sht21.c **** 
  51:build/openmote-cc2538_armgcc/bsp/boards/openmote-cc2538/sht21/sht21.c **** //=========================== variables =======================================
  52:build/openmote-cc2538_armgcc/bsp/boards/openmote-cc2538/sht21/sht21.c **** 
  53:build/openmote-cc2538_armgcc/bsp/boards/openmote-cc2538/sht21/sht21.c **** //=========================== prototypes ======================================
  54:build/openmote-cc2538_armgcc/bsp/boards/openmote-cc2538/sht21/sht21.c **** 
  55:build/openmote-cc2538_armgcc/bsp/boards/openmote-cc2538/sht21/sht21.c **** static void sht21_pre_init(void);
  56:build/openmote-cc2538_armgcc/bsp/boards/openmote-cc2538/sht21/sht21.c **** 
  57:build/openmote-cc2538_armgcc/bsp/boards/openmote-cc2538/sht21/sht21.c **** //=========================== public ==========================================
  58:build/openmote-cc2538_armgcc/bsp/boards/openmote-cc2538/sht21/sht21.c **** 
  59:build/openmote-cc2538_armgcc/bsp/boards/openmote-cc2538/sht21/sht21.c **** void sht21_init(void) {
  27              		.loc 1 59 0
  28              		.cfi_startproc
  29              		@ args = 0, pretend = 0, frame = 8
  30              		@ frame_needed = 1, uses_anonymous_args = 0
  31 0000 80B5     		push	{r7, lr}
  32              		.cfi_def_cfa_offset 8
  33              		.cfi_offset 7, -8
  34              		.cfi_offset 14, -4
  35 0002 82B0     		sub	sp, sp, #8
  36              		.cfi_def_cfa_offset 16
  37 0004 00AF     		add	r7, sp, #0
  38              		.cfi_def_cfa_register 7
  60:build/openmote-cc2538_armgcc/bsp/boards/openmote-cc2538/sht21/sht21.c ****     uint8_t config[2];
  61:build/openmote-cc2538_armgcc/bsp/boards/openmote-cc2538/sht21/sht21.c **** 
  62:build/openmote-cc2538_armgcc/bsp/boards/openmote-cc2538/sht21/sht21.c ****     // Pre-init the STH21 if required
  63:build/openmote-cc2538_armgcc/bsp/boards/openmote-cc2538/sht21/sht21.c ****     sht21_pre_init();
  39              		.loc 1 63 0
  40 0006 00F0FDF8 		bl	sht21_pre_init
  64:build/openmote-cc2538_armgcc/bsp/boards/openmote-cc2538/sht21/sht21.c **** 
  65:build/openmote-cc2538_armgcc/bsp/boards/openmote-cc2538/sht21/sht21.c ****     // Setup the configuration vector, the first position holds address
  66:build/openmote-cc2538_armgcc/bsp/boards/openmote-cc2538/sht21/sht21.c ****     // and the second position holds the actual configuration
  67:build/openmote-cc2538_armgcc/bsp/boards/openmote-cc2538/sht21/sht21.c ****     config[0] = SHT21_USER_REG_WRITE;
  41              		.loc 1 67 0
  42 000a E623     		movs	r3, #230
  43 000c 3B71     		strb	r3, [r7, #4]
  68:build/openmote-cc2538_armgcc/bsp/boards/openmote-cc2538/sht21/sht21.c ****     config[1] = 0;
  44              		.loc 1 68 0
  45 000e 0023     		movs	r3, #0
  46 0010 7B71     		strb	r3, [r7, #5]
  69:build/openmote-cc2538_armgcc/bsp/boards/openmote-cc2538/sht21/sht21.c **** 
  70:build/openmote-cc2538_armgcc/bsp/boards/openmote-cc2538/sht21/sht21.c ****     // Read the current configuration according to the datasheet (pag. 9, fig. 18)
  71:build/openmote-cc2538_armgcc/bsp/boards/openmote-cc2538/sht21/sht21.c ****     i2c_write_byte(SHT21_ADDRESS, SHT21_USER_REG_READ);
  47              		.loc 1 71 0
  48 0012 E721     		movs	r1, #231
  49 0014 4020     		movs	r0, #64
  50 0016 FFF7FEFF 		bl	i2c_write_byte
  72:build/openmote-cc2538_armgcc/bsp/boards/openmote-cc2538/sht21/sht21.c ****     i2c_read_byte(SHT21_ADDRESS, &config[1]);
  51              		.loc 1 72 0
  52 001a 3B1D     		adds	r3, r7, #4
  53 001c 0133     		adds	r3, r3, #1
  54 001e 1946     		mov	r1, r3
  55 0020 4020     		movs	r0, #64
  56 0022 FFF7FEFF 		bl	i2c_read_byte
  73:build/openmote-cc2538_armgcc/bsp/boards/openmote-cc2538/sht21/sht21.c **** 
  74:build/openmote-cc2538_armgcc/bsp/boards/openmote-cc2538/sht21/sht21.c ****     // Clean all the configuration bits except those reserved
  75:build/openmote-cc2538_armgcc/bsp/boards/openmote-cc2538/sht21/sht21.c ****     config[1] &= SHT21_USER_REG_RESERVED_BITS;
  57              		.loc 1 75 0
  58 0026 7B79     		ldrb	r3, [r7, #5]	@ zero_extendqisi2
  59 0028 03F03803 		and	r3, r3, #56
  60 002c DBB2     		uxtb	r3, r3
  61 002e 7B71     		strb	r3, [r7, #5]
  76:build/openmote-cc2538_armgcc/bsp/boards/openmote-cc2538/sht21/sht21.c **** 
  77:build/openmote-cc2538_armgcc/bsp/boards/openmote-cc2538/sht21/sht21.c ****     // Set the configuration bits without changing those reserved
  78:build/openmote-cc2538_armgcc/bsp/boards/openmote-cc2538/sht21/sht21.c ****     config[1] |= SHT21_USER_CONFIG;
  62              		.loc 1 78 0
  63 0030 7B79     		ldrb	r3, [r7, #5]	@ zero_extendqisi2
  64 0032 43F00303 		orr	r3, r3, #3
  65 0036 DBB2     		uxtb	r3, r3
  66 0038 7B71     		strb	r3, [r7, #5]
  79:build/openmote-cc2538_armgcc/bsp/boards/openmote-cc2538/sht21/sht21.c **** 
  80:build/openmote-cc2538_armgcc/bsp/boards/openmote-cc2538/sht21/sht21.c ****     i2c_write_bytes(SHT21_ADDRESS, config, sizeof(config));
  67              		.loc 1 80 0
  68 003a 3B1D     		adds	r3, r7, #4
  69 003c 0222     		movs	r2, #2
  70 003e 1946     		mov	r1, r3
  71 0040 4020     		movs	r0, #64
  72 0042 FFF7FEFF 		bl	i2c_write_bytes
  81:build/openmote-cc2538_armgcc/bsp/boards/openmote-cc2538/sht21/sht21.c **** }
  73              		.loc 1 81 0
  74 0046 00BF     		nop
  75 0048 0837     		adds	r7, r7, #8
  76              		.cfi_def_cfa_offset 8
  77 004a BD46     		mov	sp, r7
  78              		.cfi_def_cfa_register 13
  79              		@ sp needed
  80 004c 80BD     		pop	{r7, pc}
  81              		.cfi_endproc
  82              	.LFE0:
  84 004e 00BF     		.align	2
  85              		.global	sht21_reset
  86              		.thumb
  87              		.thumb_func
  89              	sht21_reset:
  90              	.LFB1:
  82:build/openmote-cc2538_armgcc/bsp/boards/openmote-cc2538/sht21/sht21.c **** 
  83:build/openmote-cc2538_armgcc/bsp/boards/openmote-cc2538/sht21/sht21.c **** void sht21_reset(void) {
  91              		.loc 1 83 0
  92              		.cfi_startproc
  93              		@ args = 0, pretend = 0, frame = 0
  94              		@ frame_needed = 1, uses_anonymous_args = 0
  95 0050 80B5     		push	{r7, lr}
  96              		.cfi_def_cfa_offset 8
  97              		.cfi_offset 7, -8
  98              		.cfi_offset 14, -4
  99 0052 00AF     		add	r7, sp, #0
 100              		.cfi_def_cfa_register 7
  84:build/openmote-cc2538_armgcc/bsp/boards/openmote-cc2538/sht21/sht21.c ****     // Send a soft-reset command according to the datasheet (pag. 9, fig. 17)
  85:build/openmote-cc2538_armgcc/bsp/boards/openmote-cc2538/sht21/sht21.c ****     i2c_write_byte(SHT21_ADDRESS, SHT21_RESET_CMD);
 101              		.loc 1 85 0
 102 0054 FE21     		movs	r1, #254
 103 0056 4020     		movs	r0, #64
 104 0058 FFF7FEFF 		bl	i2c_write_byte
  86:build/openmote-cc2538_armgcc/bsp/boards/openmote-cc2538/sht21/sht21.c **** }
 105              		.loc 1 86 0
 106 005c 00BF     		nop
 107 005e 80BD     		pop	{r7, pc}
 108              		.cfi_endproc
 109              	.LFE1:
 111              		.align	2
 112              		.global	sht21_is_present
 113              		.thumb
 114              		.thumb_func
 116              	sht21_is_present:
 117              	.LFB2:
  87:build/openmote-cc2538_armgcc/bsp/boards/openmote-cc2538/sht21/sht21.c **** 
  88:build/openmote-cc2538_armgcc/bsp/boards/openmote-cc2538/sht21/sht21.c **** uint8_t sht21_is_present(void) {
 118              		.loc 1 88 0
 119              		.cfi_startproc
 120              		@ args = 0, pretend = 0, frame = 8
 121              		@ frame_needed = 1, uses_anonymous_args = 0
 122 0060 80B5     		push	{r7, lr}
 123              		.cfi_def_cfa_offset 8
 124              		.cfi_offset 7, -8
 125              		.cfi_offset 14, -4
 126 0062 82B0     		sub	sp, sp, #8
 127              		.cfi_def_cfa_offset 16
 128 0064 00AF     		add	r7, sp, #0
 129              		.cfi_def_cfa_register 7
  89:build/openmote-cc2538_armgcc/bsp/boards/openmote-cc2538/sht21/sht21.c ****     uint8_t is_present;
  90:build/openmote-cc2538_armgcc/bsp/boards/openmote-cc2538/sht21/sht21.c **** 
  91:build/openmote-cc2538_armgcc/bsp/boards/openmote-cc2538/sht21/sht21.c ****     // Pre-init the STH21 if required
  92:build/openmote-cc2538_armgcc/bsp/boards/openmote-cc2538/sht21/sht21.c ****     sht21_pre_init();
 130              		.loc 1 92 0
 131 0066 00F0CDF8 		bl	sht21_pre_init
  93:build/openmote-cc2538_armgcc/bsp/boards/openmote-cc2538/sht21/sht21.c **** 
  94:build/openmote-cc2538_armgcc/bsp/boards/openmote-cc2538/sht21/sht21.c ****     // Read the current configuration according to the datasheet (pag. 9, fig. 18)
  95:build/openmote-cc2538_armgcc/bsp/boards/openmote-cc2538/sht21/sht21.c ****     i2c_write_byte(SHT21_ADDRESS, SHT21_USER_REG_READ);
 132              		.loc 1 95 0
 133 006a E721     		movs	r1, #231
 134 006c 4020     		movs	r0, #64
 135 006e FFF7FEFF 		bl	i2c_write_byte
  96:build/openmote-cc2538_armgcc/bsp/boards/openmote-cc2538/sht21/sht21.c ****     i2c_read_byte(SHT21_ADDRESS, &is_present);
 136              		.loc 1 96 0
 137 0072 FB1D     		adds	r3, r7, #7
 138 0074 1946     		mov	r1, r3
 139 0076 4020     		movs	r0, #64
 140 0078 FFF7FEFF 		bl	i2c_read_byte
  97:build/openmote-cc2538_armgcc/bsp/boards/openmote-cc2538/sht21/sht21.c **** 
  98:build/openmote-cc2538_armgcc/bsp/boards/openmote-cc2538/sht21/sht21.c ****     // Clear the reserved bits according to the datasheet (pag. 9, tab. 8)
  99:build/openmote-cc2538_armgcc/bsp/boards/openmote-cc2538/sht21/sht21.c ****     is_present &= ~SHT21_USER_REG_RESERVED_BITS;
 141              		.loc 1 99 0
 142 007c FB79     		ldrb	r3, [r7, #7]	@ zero_extendqisi2
 143 007e 23F03803 		bic	r3, r3, #56
 144 0082 DBB2     		uxtb	r3, r3
 145 0084 FB71     		strb	r3, [r7, #7]
 100:build/openmote-cc2538_armgcc/bsp/boards/openmote-cc2538/sht21/sht21.c **** 
 101:build/openmote-cc2538_armgcc/bsp/boards/openmote-cc2538/sht21/sht21.c ****     return (is_present == SHT21_DEFAULT_CONFIG || is_present == SHT21_USER_CONFIG);
 146              		.loc 1 101 0
 147 0086 FB79     		ldrb	r3, [r7, #7]	@ zero_extendqisi2
 148 0088 022B     		cmp	r3, #2
 149 008a 02D0     		beq	.L4
 150              		.loc 1 101 0 is_stmt 0 discriminator 2
 151 008c FB79     		ldrb	r3, [r7, #7]	@ zero_extendqisi2
 152 008e 032B     		cmp	r3, #3
 153 0090 01D1     		bne	.L5
 154              	.L4:
 155              		.loc 1 101 0 discriminator 3
 156 0092 0123     		movs	r3, #1
 157 0094 00E0     		b	.L6
 158              	.L5:
 159              		.loc 1 101 0 discriminator 4
 160 0096 0023     		movs	r3, #0
 161              	.L6:
 162              		.loc 1 101 0 discriminator 6
 163 0098 DBB2     		uxtb	r3, r3
 102:build/openmote-cc2538_armgcc/bsp/boards/openmote-cc2538/sht21/sht21.c **** }
 164              		.loc 1 102 0 is_stmt 1 discriminator 6
 165 009a 1846     		mov	r0, r3
 166 009c 0837     		adds	r7, r7, #8
 167              		.cfi_def_cfa_offset 8
 168 009e BD46     		mov	sp, r7
 169              		.cfi_def_cfa_register 13
 170              		@ sp needed
 171 00a0 80BD     		pop	{r7, pc}
 172              		.cfi_endproc
 173              	.LFE2:
 175 00a2 00BF     		.align	2
 176              		.global	sht21_read_temperature
 177              		.thumb
 178              		.thumb_func
 180              	sht21_read_temperature:
 181              	.LFB3:
 103:build/openmote-cc2538_armgcc/bsp/boards/openmote-cc2538/sht21/sht21.c **** 
 104:build/openmote-cc2538_armgcc/bsp/boards/openmote-cc2538/sht21/sht21.c **** uint16_t sht21_read_temperature(void) {
 182              		.loc 1 104 0
 183              		.cfi_startproc
 184              		@ args = 0, pretend = 0, frame = 8
 185              		@ frame_needed = 1, uses_anonymous_args = 0
 186 00a4 80B5     		push	{r7, lr}
 187              		.cfi_def_cfa_offset 8
 188              		.cfi_offset 7, -8
 189              		.cfi_offset 14, -4
 190 00a6 82B0     		sub	sp, sp, #8
 191              		.cfi_def_cfa_offset 16
 192 00a8 00AF     		add	r7, sp, #0
 193              		.cfi_def_cfa_register 7
 105:build/openmote-cc2538_armgcc/bsp/boards/openmote-cc2538/sht21/sht21.c ****     uint8_t sht21_temperature[2];
 106:build/openmote-cc2538_armgcc/bsp/boards/openmote-cc2538/sht21/sht21.c ****     uint16_t temperature;
 107:build/openmote-cc2538_armgcc/bsp/boards/openmote-cc2538/sht21/sht21.c **** 
 108:build/openmote-cc2538_armgcc/bsp/boards/openmote-cc2538/sht21/sht21.c ****     // Read the current temperature according to the datasheet (pag. 8, fig. 15)
 109:build/openmote-cc2538_armgcc/bsp/boards/openmote-cc2538/sht21/sht21.c ****     i2c_write_byte(SHT21_ADDRESS, SHT21_TEMPERATURE_HM_CMD);
 194              		.loc 1 109 0
 195 00aa E321     		movs	r1, #227
 196 00ac 4020     		movs	r0, #64
 197 00ae FFF7FEFF 		bl	i2c_write_byte
 110:build/openmote-cc2538_armgcc/bsp/boards/openmote-cc2538/sht21/sht21.c ****     i2c_read_bytes(SHT21_ADDRESS, sht21_temperature, sizeof(sht21_temperature));
 198              		.loc 1 110 0
 199 00b2 3B1D     		adds	r3, r7, #4
 200 00b4 0222     		movs	r2, #2
 201 00b6 1946     		mov	r1, r3
 202 00b8 4020     		movs	r0, #64
 203 00ba FFF7FEFF 		bl	i2c_read_bytes
 111:build/openmote-cc2538_armgcc/bsp/boards/openmote-cc2538/sht21/sht21.c ****     
 112:build/openmote-cc2538_armgcc/bsp/boards/openmote-cc2538/sht21/sht21.c ****     temperature = (sht21_temperature[0] << 8) | (sht21_temperature[1] & SHT21_STATUS_MASK);
 204              		.loc 1 112 0
 205 00be 3B79     		ldrb	r3, [r7, #4]	@ zero_extendqisi2
 206 00c0 1B02     		lsls	r3, r3, #8
 207 00c2 1AB2     		sxth	r2, r3
 208 00c4 7B79     		ldrb	r3, [r7, #5]	@ zero_extendqisi2
 209 00c6 1BB2     		sxth	r3, r3
 210 00c8 03F0FC03 		and	r3, r3, #252
 211 00cc 1BB2     		sxth	r3, r3
 212 00ce 1343     		orrs	r3, r3, r2
 213 00d0 1BB2     		sxth	r3, r3
 214 00d2 FB80     		strh	r3, [r7, #6]	@ movhi
 113:build/openmote-cc2538_armgcc/bsp/boards/openmote-cc2538/sht21/sht21.c ****     
 114:build/openmote-cc2538_armgcc/bsp/boards/openmote-cc2538/sht21/sht21.c ****     return temperature;
 215              		.loc 1 114 0
 216 00d4 FB88     		ldrh	r3, [r7, #6]
 115:build/openmote-cc2538_armgcc/bsp/boards/openmote-cc2538/sht21/sht21.c **** }
 217              		.loc 1 115 0
 218 00d6 1846     		mov	r0, r3
 219 00d8 0837     		adds	r7, r7, #8
 220              		.cfi_def_cfa_offset 8
 221 00da BD46     		mov	sp, r7
 222              		.cfi_def_cfa_register 13
 223              		@ sp needed
 224 00dc 80BD     		pop	{r7, pc}
 225              		.cfi_endproc
 226              	.LFE3:
 228              		.global	__aeabi_f2d
 229              		.global	__aeabi_i2d
 230              		.global	__aeabi_dmul
 231              		.global	__aeabi_ddiv
 232              		.global	__aeabi_dadd
 233              		.global	__aeabi_d2f
 234 00de 00BF     		.align	2
 235              		.global	sht21_convert_temperature
 236              		.thumb
 237              		.thumb_func
 239              	sht21_convert_temperature:
 240              	.LFB4:
 116:build/openmote-cc2538_armgcc/bsp/boards/openmote-cc2538/sht21/sht21.c **** 
 117:build/openmote-cc2538_armgcc/bsp/boards/openmote-cc2538/sht21/sht21.c **** float sht21_convert_temperature(uint16_t temperature) {
 241              		.loc 1 117 0
 242              		.cfi_startproc
 243              		@ args = 0, pretend = 0, frame = 16
 244              		@ frame_needed = 1, uses_anonymous_args = 0
 245 00e0 B0B5     		push	{r4, r5, r7, lr}
 246              		.cfi_def_cfa_offset 16
 247              		.cfi_offset 4, -16
 248              		.cfi_offset 5, -12
 249              		.cfi_offset 7, -8
 250              		.cfi_offset 14, -4
 251 00e2 84B0     		sub	sp, sp, #16
 252              		.cfi_def_cfa_offset 32
 253 00e4 00AF     		add	r7, sp, #0
 254              		.cfi_def_cfa_register 7
 255 00e6 0346     		mov	r3, r0
 256 00e8 FB80     		strh	r3, [r7, #6]	@ movhi
 118:build/openmote-cc2538_armgcc/bsp/boards/openmote-cc2538/sht21/sht21.c ****     float result;
 119:build/openmote-cc2538_armgcc/bsp/boards/openmote-cc2538/sht21/sht21.c ****     
 120:build/openmote-cc2538_armgcc/bsp/boards/openmote-cc2538/sht21/sht21.c ****     result  = -46.85;
 257              		.loc 1 120 0
 258 00ea 194B     		ldr	r3, .L12+8
 259 00ec FB60     		str	r3, [r7, #12]	@ float
 121:build/openmote-cc2538_armgcc/bsp/boards/openmote-cc2538/sht21/sht21.c ****     result += 175.72 * temperature / 65536;
 260              		.loc 1 121 0
 261 00ee F868     		ldr	r0, [r7, #12]	@ float
 262 00f0 FFF7FEFF 		bl	__aeabi_f2d
 263 00f4 0446     		mov	r4, r0
 264 00f6 0D46     		mov	r5, r1
 265 00f8 FB88     		ldrh	r3, [r7, #6]
 266 00fa 1846     		mov	r0, r3
 267 00fc FFF7FEFF 		bl	__aeabi_i2d
 268 0100 11A3     		adr	r3, .L12
 269 0102 D3E90023 		ldrd	r2, [r3]
 270 0106 FFF7FEFF 		bl	__aeabi_dmul
 271 010a 0246     		mov	r2, r0
 272 010c 0B46     		mov	r3, r1
 273 010e 1046     		mov	r0, r2
 274 0110 1946     		mov	r1, r3
 275 0112 4FF00002 		mov	r2, #0
 276 0116 0F4B     		ldr	r3, .L12+12
 277 0118 FFF7FEFF 		bl	__aeabi_ddiv
 278 011c 0246     		mov	r2, r0
 279 011e 0B46     		mov	r3, r1
 280 0120 2046     		mov	r0, r4
 281 0122 2946     		mov	r1, r5
 282 0124 FFF7FEFF 		bl	__aeabi_dadd
 283 0128 0346     		mov	r3, r0
 284 012a 0C46     		mov	r4, r1
 285 012c 1846     		mov	r0, r3
 286 012e 2146     		mov	r1, r4
 287 0130 FFF7FEFF 		bl	__aeabi_d2f
 288 0134 0346     		mov	r3, r0
 289 0136 FB60     		str	r3, [r7, #12]	@ float
 122:build/openmote-cc2538_armgcc/bsp/boards/openmote-cc2538/sht21/sht21.c ****     
 123:build/openmote-cc2538_armgcc/bsp/boards/openmote-cc2538/sht21/sht21.c ****     return result;
 290              		.loc 1 123 0
 291 0138 FB68     		ldr	r3, [r7, #12]	@ float
 124:build/openmote-cc2538_armgcc/bsp/boards/openmote-cc2538/sht21/sht21.c **** }
 292              		.loc 1 124 0
 293 013a 1846     		mov	r0, r3
 294 013c 1037     		adds	r7, r7, #16
 295              		.cfi_def_cfa_offset 16
 296 013e BD46     		mov	sp, r7
 297              		.cfi_def_cfa_register 13
 298              		@ sp needed
 299 0140 B0BD     		pop	{r4, r5, r7, pc}
 300              	.L13:
 301 0142 00BFAFF3 		.align	3
 301      0080
 302              	.L12:
 303 0148 D7A3703D 		.word	1030792151
 304 014c 0AF76540 		.word	1080424202
 305 0150 66663BC2 		.word	-1036294554
 306 0154 0000F040 		.word	1089470464
 307              		.cfi_endproc
 308              	.LFE4:
 310              		.align	2
 311              		.global	sht21_read_humidity
 312              		.thumb
 313              		.thumb_func
 315              	sht21_read_humidity:
 316              	.LFB5:
 125:build/openmote-cc2538_armgcc/bsp/boards/openmote-cc2538/sht21/sht21.c **** 
 126:build/openmote-cc2538_armgcc/bsp/boards/openmote-cc2538/sht21/sht21.c **** uint16_t sht21_read_humidity(void) {
 317              		.loc 1 126 0
 318              		.cfi_startproc
 319              		@ args = 0, pretend = 0, frame = 8
 320              		@ frame_needed = 1, uses_anonymous_args = 0
 321 0158 80B5     		push	{r7, lr}
 322              		.cfi_def_cfa_offset 8
 323              		.cfi_offset 7, -8
 324              		.cfi_offset 14, -4
 325 015a 82B0     		sub	sp, sp, #8
 326              		.cfi_def_cfa_offset 16
 327 015c 00AF     		add	r7, sp, #0
 328              		.cfi_def_cfa_register 7
 127:build/openmote-cc2538_armgcc/bsp/boards/openmote-cc2538/sht21/sht21.c ****     uint8_t sht21_humidity[2];
 128:build/openmote-cc2538_armgcc/bsp/boards/openmote-cc2538/sht21/sht21.c ****     uint16_t humidity;
 129:build/openmote-cc2538_armgcc/bsp/boards/openmote-cc2538/sht21/sht21.c **** 
 130:build/openmote-cc2538_armgcc/bsp/boards/openmote-cc2538/sht21/sht21.c ****     // Read the current humidity according to the datasheet (pag. 8, fig. 15)
 131:build/openmote-cc2538_armgcc/bsp/boards/openmote-cc2538/sht21/sht21.c ****     i2c_write_byte(SHT21_ADDRESS, SHT21_HUMIDITY_HM_CMD);
 329              		.loc 1 131 0
 330 015e E521     		movs	r1, #229
 331 0160 4020     		movs	r0, #64
 332 0162 FFF7FEFF 		bl	i2c_write_byte
 132:build/openmote-cc2538_armgcc/bsp/boards/openmote-cc2538/sht21/sht21.c ****     i2c_read_bytes(SHT21_ADDRESS, sht21_humidity, sizeof(sht21_humidity));
 333              		.loc 1 132 0
 334 0166 3B1D     		adds	r3, r7, #4
 335 0168 0222     		movs	r2, #2
 336 016a 1946     		mov	r1, r3
 337 016c 4020     		movs	r0, #64
 338 016e FFF7FEFF 		bl	i2c_read_bytes
 133:build/openmote-cc2538_armgcc/bsp/boards/openmote-cc2538/sht21/sht21.c **** 
 134:build/openmote-cc2538_armgcc/bsp/boards/openmote-cc2538/sht21/sht21.c ****     humidity = (sht21_humidity[0] << 8) | (sht21_humidity[1] & SHT21_STATUS_MASK);
 339              		.loc 1 134 0
 340 0172 3B79     		ldrb	r3, [r7, #4]	@ zero_extendqisi2
 341 0174 1B02     		lsls	r3, r3, #8
 342 0176 1AB2     		sxth	r2, r3
 343 0178 7B79     		ldrb	r3, [r7, #5]	@ zero_extendqisi2
 344 017a 1BB2     		sxth	r3, r3
 345 017c 03F0FC03 		and	r3, r3, #252
 346 0180 1BB2     		sxth	r3, r3
 347 0182 1343     		orrs	r3, r3, r2
 348 0184 1BB2     		sxth	r3, r3
 349 0186 FB80     		strh	r3, [r7, #6]	@ movhi
 135:build/openmote-cc2538_armgcc/bsp/boards/openmote-cc2538/sht21/sht21.c **** 
 136:build/openmote-cc2538_armgcc/bsp/boards/openmote-cc2538/sht21/sht21.c ****     return humidity;
 350              		.loc 1 136 0
 351 0188 FB88     		ldrh	r3, [r7, #6]
 137:build/openmote-cc2538_armgcc/bsp/boards/openmote-cc2538/sht21/sht21.c **** }
 352              		.loc 1 137 0
 353 018a 1846     		mov	r0, r3
 354 018c 0837     		adds	r7, r7, #8
 355              		.cfi_def_cfa_offset 8
 356 018e BD46     		mov	sp, r7
 357              		.cfi_def_cfa_register 13
 358              		@ sp needed
 359 0190 80BD     		pop	{r7, pc}
 360              		.cfi_endproc
 361              	.LFE5:
 363 0192 00BF     		.align	2
 364              		.global	sht21_convert_humidity
 365              		.thumb
 366              		.thumb_func
 368              	sht21_convert_humidity:
 369              	.LFB6:
 138:build/openmote-cc2538_armgcc/bsp/boards/openmote-cc2538/sht21/sht21.c **** 
 139:build/openmote-cc2538_armgcc/bsp/boards/openmote-cc2538/sht21/sht21.c **** float sht21_convert_humidity(uint16_t humidity) {
 370              		.loc 1 139 0
 371              		.cfi_startproc
 372              		@ args = 0, pretend = 0, frame = 16
 373              		@ frame_needed = 1, uses_anonymous_args = 0
 374 0194 B0B5     		push	{r4, r5, r7, lr}
 375              		.cfi_def_cfa_offset 16
 376              		.cfi_offset 4, -16
 377              		.cfi_offset 5, -12
 378              		.cfi_offset 7, -8
 379              		.cfi_offset 14, -4
 380 0196 84B0     		sub	sp, sp, #16
 381              		.cfi_def_cfa_offset 32
 382 0198 00AF     		add	r7, sp, #0
 383              		.cfi_def_cfa_register 7
 384 019a 0346     		mov	r3, r0
 385 019c FB80     		strh	r3, [r7, #6]	@ movhi
 140:build/openmote-cc2538_armgcc/bsp/boards/openmote-cc2538/sht21/sht21.c ****     float result;
 141:build/openmote-cc2538_armgcc/bsp/boards/openmote-cc2538/sht21/sht21.c ****     
 142:build/openmote-cc2538_armgcc/bsp/boards/openmote-cc2538/sht21/sht21.c ****     result  = -6.0;
 386              		.loc 1 142 0
 387 019e 164B     		ldr	r3, .L18
 388 01a0 FB60     		str	r3, [r7, #12]	@ float
 143:build/openmote-cc2538_armgcc/bsp/boards/openmote-cc2538/sht21/sht21.c ****     result += 125.0 * humidity / 65536;
 389              		.loc 1 143 0
 390 01a2 F868     		ldr	r0, [r7, #12]	@ float
 391 01a4 FFF7FEFF 		bl	__aeabi_f2d
 392 01a8 0446     		mov	r4, r0
 393 01aa 0D46     		mov	r5, r1
 394 01ac FB88     		ldrh	r3, [r7, #6]
 395 01ae 1846     		mov	r0, r3
 396 01b0 FFF7FEFF 		bl	__aeabi_i2d
 397 01b4 4FF00002 		mov	r2, #0
 398 01b8 104B     		ldr	r3, .L18+4
 399 01ba FFF7FEFF 		bl	__aeabi_dmul
 400 01be 0246     		mov	r2, r0
 401 01c0 0B46     		mov	r3, r1
 402 01c2 1046     		mov	r0, r2
 403 01c4 1946     		mov	r1, r3
 404 01c6 4FF00002 		mov	r2, #0
 405 01ca 0D4B     		ldr	r3, .L18+8
 406 01cc FFF7FEFF 		bl	__aeabi_ddiv
 407 01d0 0246     		mov	r2, r0
 408 01d2 0B46     		mov	r3, r1
 409 01d4 2046     		mov	r0, r4
 410 01d6 2946     		mov	r1, r5
 411 01d8 FFF7FEFF 		bl	__aeabi_dadd
 412 01dc 0346     		mov	r3, r0
 413 01de 0C46     		mov	r4, r1
 414 01e0 1846     		mov	r0, r3
 415 01e2 2146     		mov	r1, r4
 416 01e4 FFF7FEFF 		bl	__aeabi_d2f
 417 01e8 0346     		mov	r3, r0
 418 01ea FB60     		str	r3, [r7, #12]	@ float
 144:build/openmote-cc2538_armgcc/bsp/boards/openmote-cc2538/sht21/sht21.c ****     
 145:build/openmote-cc2538_armgcc/bsp/boards/openmote-cc2538/sht21/sht21.c ****     return result;
 419              		.loc 1 145 0
 420 01ec FB68     		ldr	r3, [r7, #12]	@ float
 146:build/openmote-cc2538_armgcc/bsp/boards/openmote-cc2538/sht21/sht21.c **** }
 421              		.loc 1 146 0
 422 01ee 1846     		mov	r0, r3
 423 01f0 1037     		adds	r7, r7, #16
 424              		.cfi_def_cfa_offset 16
 425 01f2 BD46     		mov	sp, r7
 426              		.cfi_def_cfa_register 13
 427              		@ sp needed
 428 01f4 B0BD     		pop	{r4, r5, r7, pc}
 429              	.L19:
 430 01f6 00BF     		.align	2
 431              	.L18:
 432 01f8 0000C0C0 		.word	-1061158912
 433 01fc 00405F40 		.word	1079984128
 434 0200 0000F040 		.word	1089470464
 435              		.cfi_endproc
 436              	.LFE6:
 438              		.align	2
 439              		.thumb
 440              		.thumb_func
 442              	sht21_pre_init:
 443              	.LFB7:
 147:build/openmote-cc2538_armgcc/bsp/boards/openmote-cc2538/sht21/sht21.c **** 
 148:build/openmote-cc2538_armgcc/bsp/boards/openmote-cc2538/sht21/sht21.c **** //=========================== private =========================================
 149:build/openmote-cc2538_armgcc/bsp/boards/openmote-cc2538/sht21/sht21.c **** 
 150:build/openmote-cc2538_armgcc/bsp/boards/openmote-cc2538/sht21/sht21.c **** static void sht21_pre_init(void) {
 444              		.loc 1 150 0
 445              		.cfi_startproc
 446              		@ args = 0, pretend = 0, frame = 8
 447              		@ frame_needed = 1, uses_anonymous_args = 0
 448              		@ link register save eliminated.
 449 0204 80B4     		push	{r7}
 450              		.cfi_def_cfa_offset 4
 451              		.cfi_offset 7, -4
 452 0206 83B0     		sub	sp, sp, #12
 453              		.cfi_def_cfa_offset 16
 454 0208 00AF     		add	r7, sp, #0
 455              		.cfi_def_cfa_register 7
 151:build/openmote-cc2538_armgcc/bsp/boards/openmote-cc2538/sht21/sht21.c ****     static bool is_initialized = false;
 152:build/openmote-cc2538_armgcc/bsp/boards/openmote-cc2538/sht21/sht21.c ****     volatile uint32_t i;
 153:build/openmote-cc2538_armgcc/bsp/boards/openmote-cc2538/sht21/sht21.c **** 
 154:build/openmote-cc2538_armgcc/bsp/boards/openmote-cc2538/sht21/sht21.c ****     if (is_initialized == false) {
 456              		.loc 1 154 0
 457 020a 0C4B     		ldr	r3, .L25
 458 020c 1B78     		ldrb	r3, [r3]	@ zero_extendqisi2
 459 020e 83F00103 		eor	r3, r3, #1
 460 0212 DBB2     		uxtb	r3, r3
 461 0214 002B     		cmp	r3, #0
 462 0216 0BD0     		beq	.L24
 155:build/openmote-cc2538_armgcc/bsp/boards/openmote-cc2538/sht21/sht21.c ****         // Delay needed for the SHT21 to startup
 156:build/openmote-cc2538_armgcc/bsp/boards/openmote-cc2538/sht21/sht21.c ****         for (i = 0x1FFFF; i != 0; i--);
 463              		.loc 1 156 0
 464 0218 094B     		ldr	r3, .L25+4
 465 021a 7B60     		str	r3, [r7, #4]
 466 021c 02E0     		b	.L22
 467              	.L23:
 468              		.loc 1 156 0 is_stmt 0 discriminator 3
 469 021e 7B68     		ldr	r3, [r7, #4]
 470 0220 013B     		subs	r3, r3, #1
 471 0222 7B60     		str	r3, [r7, #4]
 472              	.L22:
 473              		.loc 1 156 0 discriminator 1
 474 0224 7B68     		ldr	r3, [r7, #4]
 475 0226 002B     		cmp	r3, #0
 476 0228 F9D1     		bne	.L23
 157:build/openmote-cc2538_armgcc/bsp/boards/openmote-cc2538/sht21/sht21.c ****         is_initialized = true;
 477              		.loc 1 157 0 is_stmt 1
 478 022a 044B     		ldr	r3, .L25
 479 022c 0122     		movs	r2, #1
 480 022e 1A70     		strb	r2, [r3]
 481              	.L24:
 158:build/openmote-cc2538_armgcc/bsp/boards/openmote-cc2538/sht21/sht21.c ****     }
 159:build/openmote-cc2538_armgcc/bsp/boards/openmote-cc2538/sht21/sht21.c **** }
 482              		.loc 1 159 0
 483 0230 00BF     		nop
 484 0232 0C37     		adds	r7, r7, #12
 485              		.cfi_def_cfa_offset 4
 486 0234 BD46     		mov	sp, r7
 487              		.cfi_def_cfa_register 13
 488              		@ sp needed
 489 0236 80BC     		pop	{r7}
 490              		.cfi_restore 7
 491              		.cfi_def_cfa_offset 0
 492 0238 7047     		bx	lr
 493              	.L26:
 494 023a 00BF     		.align	2
 495              	.L25:
 496 023c 00000000 		.word	is_initialized.4291
 497 0240 FFFF0100 		.word	131071
 498              		.cfi_endproc
 499              	.LFE7:
 501              		.bss
 502              	is_initialized.4291:
 503 0000 00       		.space	1
 504              		.text
 505              	.Letext0:
 506              		.file 2 "/usr/include/newlib/machine/_default_types.h"
 507              		.file 3 "/usr/include/newlib/sys/_stdint.h"