   1              		.syntax unified
   2              		.cpu cortex-m3
   3              		.fpu softvfp
   4              		.eabi_attribute 20, 1
   5              		.eabi_attribute 21, 1
   6              		.eabi_attribute 23, 3
   7              		.eabi_attribute 24, 1
   8              		.eabi_attribute 25, 1
   9              		.eabi_attribute 26, 1
  10              		.eabi_attribute 30, 6
  11              		.eabi_attribute 34, 1
  12              		.eabi_attribute 18, 4
  13              		.thumb
  14              		.syntax unified
  15              		.file	"forwarding.c"
  16              		.text
  17              	.Ltext0:
  18              		.cfi_sections	.debug_frame
  19              		.section	.rodata
  20              		.align	2
  23              	rreg_uriquery:
  24 0000 683D7563 		.ascii	"h=ucb\000"
  24      6200
  25 0006 0000     		.align	2
  28              	infoBoardname:
  29 0008 43433235 		.ascii	"CC2538\000"
  29      333800
  30 000f 00       		.align	2
  33              	infouCName:
  34 0010 43433235 		.ascii	"CC2538\000"
  34      333800
  35 0017 00       		.align	2
  38              	infoRadioName:
  39 0018 43433235 		.ascii	"CC2538 SoC\000"
  39      33382053 
  39      6F4300
  40 0023 00       		.align	2
  43              	infoStackName:
  44 0024 4F70656E 		.ascii	"OpenWSN \000"
  44      57534E20 
  44      00
  45 002d 000000   		.align	2
  48              	linklocalprefix:
  49 0030 FE       		.byte	-2
  50 0031 80       		.byte	-128
  51 0032 00       		.byte	0
  52 0033 00       		.byte	0
  53 0034 00       		.byte	0
  54 0035 00       		.byte	0
  55 0036 00       		.byte	0
  56 0037 00       		.byte	0
  57              		.align	2
  60              	all_routers_multicast:
  61 0038 FF       		.byte	-1
  62 0039 02       		.byte	2
  63 003a 00       		.byte	0
  64 003b 00       		.byte	0
  65 003c 00       		.byte	0
  66 003d 00       		.byte	0
  67 003e 00       		.byte	0
  68 003f 00       		.byte	0
  69 0040 00       		.byte	0
  70 0041 00       		.byte	0
  71 0042 00       		.byte	0
  72 0043 00       		.byte	0
  73 0044 00       		.byte	0
  74 0045 00       		.byte	0
  75 0046 00       		.byte	0
  76 0047 1A       		.byte	26
  77              		.text
  78              		.align	2
  79              		.global	forwarding_init
  80              		.thumb
  81              		.thumb_func
  83              	forwarding_init:
  84              	.LFB0:
  85              		.file 1 "build/openmote-cc2538_armgcc/openstack/03b-IPv6/forwarding.c"
   1:build/openmote-cc2538_armgcc/openstack/03b-IPv6/forwarding.c **** #include "opendefs.h"
   2:build/openmote-cc2538_armgcc/openstack/03b-IPv6/forwarding.c **** #include "forwarding.h"
   3:build/openmote-cc2538_armgcc/openstack/03b-IPv6/forwarding.c **** #include "iphc.h"
   4:build/openmote-cc2538_armgcc/openstack/03b-IPv6/forwarding.c **** #include "openqueue.h"
   5:build/openmote-cc2538_armgcc/openstack/03b-IPv6/forwarding.c **** #include "openserial.h"
   6:build/openmote-cc2538_armgcc/openstack/03b-IPv6/forwarding.c **** #include "idmanager.h"
   7:build/openmote-cc2538_armgcc/openstack/03b-IPv6/forwarding.c **** #include "packetfunctions.h"
   8:build/openmote-cc2538_armgcc/openstack/03b-IPv6/forwarding.c **** #include "neighbors.h"
   9:build/openmote-cc2538_armgcc/openstack/03b-IPv6/forwarding.c **** #include "icmpv6.h"
  10:build/openmote-cc2538_armgcc/openstack/03b-IPv6/forwarding.c **** #include "icmpv6rpl.h"
  11:build/openmote-cc2538_armgcc/openstack/03b-IPv6/forwarding.c **** #include "openudp.h"
  12:build/openmote-cc2538_armgcc/openstack/03b-IPv6/forwarding.c **** #include "debugpins.h"
  13:build/openmote-cc2538_armgcc/openstack/03b-IPv6/forwarding.c **** #include "scheduler.h"
  14:build/openmote-cc2538_armgcc/openstack/03b-IPv6/forwarding.c **** 
  15:build/openmote-cc2538_armgcc/openstack/03b-IPv6/forwarding.c **** //=========================== variables =======================================
  16:build/openmote-cc2538_armgcc/openstack/03b-IPv6/forwarding.c **** 
  17:build/openmote-cc2538_armgcc/openstack/03b-IPv6/forwarding.c **** //=========================== prototypes ======================================
  18:build/openmote-cc2538_armgcc/openstack/03b-IPv6/forwarding.c **** 
  19:build/openmote-cc2538_armgcc/openstack/03b-IPv6/forwarding.c **** void      forwarding_getNextHop(
  20:build/openmote-cc2538_armgcc/openstack/03b-IPv6/forwarding.c ****    open_addr_t*         destination,
  21:build/openmote-cc2538_armgcc/openstack/03b-IPv6/forwarding.c ****    open_addr_t*         addressToWrite
  22:build/openmote-cc2538_armgcc/openstack/03b-IPv6/forwarding.c **** );
  23:build/openmote-cc2538_armgcc/openstack/03b-IPv6/forwarding.c **** owerror_t forwarding_send_internal_RoutingTable(
  24:build/openmote-cc2538_armgcc/openstack/03b-IPv6/forwarding.c ****    OpenQueueEntry_t*    msg,
  25:build/openmote-cc2538_armgcc/openstack/03b-IPv6/forwarding.c ****    ipv6_header_iht*     ipv6_outer_header,
  26:build/openmote-cc2538_armgcc/openstack/03b-IPv6/forwarding.c ****    ipv6_header_iht*     ipv6_inner_header,
  27:build/openmote-cc2538_armgcc/openstack/03b-IPv6/forwarding.c ****    rpl_option_ht*       rpl_option,
  28:build/openmote-cc2538_armgcc/openstack/03b-IPv6/forwarding.c **** #ifdef DEADLINE_OPTION_ENABLED
  29:build/openmote-cc2538_armgcc/openstack/03b-IPv6/forwarding.c ****    deadline_option_ht*	deadline_option,
  30:build/openmote-cc2538_armgcc/openstack/03b-IPv6/forwarding.c **** #endif   
  31:build/openmote-cc2538_armgcc/openstack/03b-IPv6/forwarding.c ****    uint32_t*             flow_label,
  32:build/openmote-cc2538_armgcc/openstack/03b-IPv6/forwarding.c ****    uint8_t              fw_SendOrfw_Rcv
  33:build/openmote-cc2538_armgcc/openstack/03b-IPv6/forwarding.c **** );
  34:build/openmote-cc2538_armgcc/openstack/03b-IPv6/forwarding.c **** owerror_t forwarding_send_internal_SourceRouting(
  35:build/openmote-cc2538_armgcc/openstack/03b-IPv6/forwarding.c ****    OpenQueueEntry_t*    msg,
  36:build/openmote-cc2538_armgcc/openstack/03b-IPv6/forwarding.c ****    ipv6_header_iht*     ipv6_outer_header,
  37:build/openmote-cc2538_armgcc/openstack/03b-IPv6/forwarding.c ****    ipv6_header_iht*     ipv6_inner_header,
  38:build/openmote-cc2538_armgcc/openstack/03b-IPv6/forwarding.c **** #ifdef DEADLINE_OPTION_ENABLED
  39:build/openmote-cc2538_armgcc/openstack/03b-IPv6/forwarding.c ****    deadline_option_ht*	deadline_option,
  40:build/openmote-cc2538_armgcc/openstack/03b-IPv6/forwarding.c **** #endif   
  41:build/openmote-cc2538_armgcc/openstack/03b-IPv6/forwarding.c ****    rpl_option_ht*       rpl_option
  42:build/openmote-cc2538_armgcc/openstack/03b-IPv6/forwarding.c **** );
  43:build/openmote-cc2538_armgcc/openstack/03b-IPv6/forwarding.c **** void      forwarding_createRplOption(
  44:build/openmote-cc2538_armgcc/openstack/03b-IPv6/forwarding.c ****    rpl_option_ht*       rpl_option,
  45:build/openmote-cc2538_armgcc/openstack/03b-IPv6/forwarding.c ****    uint8_t              flags
  46:build/openmote-cc2538_armgcc/openstack/03b-IPv6/forwarding.c **** );
  47:build/openmote-cc2538_armgcc/openstack/03b-IPv6/forwarding.c **** 
  48:build/openmote-cc2538_armgcc/openstack/03b-IPv6/forwarding.c **** #ifdef DEADLINE_OPTION_ENABLED
  49:build/openmote-cc2538_armgcc/openstack/03b-IPv6/forwarding.c **** void forwarding_createDeadlineOption(
  50:build/openmote-cc2538_armgcc/openstack/03b-IPv6/forwarding.c ****    deadline_option_ht*   deadline_option
  51:build/openmote-cc2538_armgcc/openstack/03b-IPv6/forwarding.c **** );
  52:build/openmote-cc2538_armgcc/openstack/03b-IPv6/forwarding.c **** #endif
  53:build/openmote-cc2538_armgcc/openstack/03b-IPv6/forwarding.c **** 
  54:build/openmote-cc2538_armgcc/openstack/03b-IPv6/forwarding.c **** //=========================== public ==========================================
  55:build/openmote-cc2538_armgcc/openstack/03b-IPv6/forwarding.c **** 
  56:build/openmote-cc2538_armgcc/openstack/03b-IPv6/forwarding.c **** /**
  57:build/openmote-cc2538_armgcc/openstack/03b-IPv6/forwarding.c **** \brief Initialize this module.
  58:build/openmote-cc2538_armgcc/openstack/03b-IPv6/forwarding.c **** */
  59:build/openmote-cc2538_armgcc/openstack/03b-IPv6/forwarding.c **** void forwarding_init() {
  86              		.loc 1 59 0
  87              		.cfi_startproc
  88              		@ args = 0, pretend = 0, frame = 0
  89              		@ frame_needed = 1, uses_anonymous_args = 0
  90              		@ link register save eliminated.
  91 0000 80B4     		push	{r7}
  92              		.cfi_def_cfa_offset 4
  93              		.cfi_offset 7, -4
  94 0002 00AF     		add	r7, sp, #0
  95              		.cfi_def_cfa_register 7
  60:build/openmote-cc2538_armgcc/openstack/03b-IPv6/forwarding.c **** }
  96              		.loc 1 60 0
  97 0004 00BF     		nop
  98 0006 BD46     		mov	sp, r7
  99              		.cfi_def_cfa_register 13
 100              		@ sp needed
 101 0008 80BC     		pop	{r7}
 102              		.cfi_restore 7
 103              		.cfi_def_cfa_offset 0
 104 000a 7047     		bx	lr
 105              		.cfi_endproc
 106              	.LFE0:
 108              		.section	.rodata
 109              		.align	2
 110              	.LC0:
 111 0048 BB       		.byte	-69
 112 0049 BB       		.byte	-69
 113 004a 00       		.byte	0
 114 004b 00       		.byte	0
 115 004c 00       		.byte	0
 116 004d 00       		.byte	0
 117 004e 00       		.byte	0
 118 004f 00       		.byte	0
 119 0050 00       		.byte	0
 120 0051 12       		.byte	18
 121 0052 4B       		.byte	75
 122 0053 00       		.byte	0
 123 0054 06       		.byte	6
 124 0055 13       		.byte	19
 125 0056 0F       		.byte	15
 126 0057 07       		.byte	7
 127              		.text
 128              		.align	2
 129              		.global	forwarding_send
 130              		.thumb
 131              		.thumb_func
 133              	forwarding_send:
 134              	.LFB1:
  61:build/openmote-cc2538_armgcc/openstack/03b-IPv6/forwarding.c **** 
  62:build/openmote-cc2538_armgcc/openstack/03b-IPv6/forwarding.c **** /**
  63:build/openmote-cc2538_armgcc/openstack/03b-IPv6/forwarding.c **** \brief Send a packet originating at this mote.
  64:build/openmote-cc2538_armgcc/openstack/03b-IPv6/forwarding.c **** 
  65:build/openmote-cc2538_armgcc/openstack/03b-IPv6/forwarding.c **** This function is called by an upper layer, and only concerns packets originated
  66:build/openmote-cc2538_armgcc/openstack/03b-IPv6/forwarding.c **** at this mote.
  67:build/openmote-cc2538_armgcc/openstack/03b-IPv6/forwarding.c **** 
  68:build/openmote-cc2538_armgcc/openstack/03b-IPv6/forwarding.c **** \param[in,out] msg Packet to send.
  69:build/openmote-cc2538_armgcc/openstack/03b-IPv6/forwarding.c **** */
  70:build/openmote-cc2538_armgcc/openstack/03b-IPv6/forwarding.c **** owerror_t forwarding_send(OpenQueueEntry_t* msg) {
 135              		.loc 1 70 0
 136              		.cfi_startproc
 137              		@ args = 0, pretend = 0, frame = 328
 138              		@ frame_needed = 1, uses_anonymous_args = 0
 139 000c F0B5     		push	{r4, r5, r6, r7, lr}
 140              		.cfi_def_cfa_offset 20
 141              		.cfi_offset 4, -20
 142              		.cfi_offset 5, -16
 143              		.cfi_offset 6, -12
 144              		.cfi_offset 7, -8
 145              		.cfi_offset 14, -4
 146 000e DFB0     		sub	sp, sp, #380
 147              		.cfi_def_cfa_offset 400
 148 0010 0CAF     		add	r7, sp, #48
 149              		.cfi_def_cfa 7, 352
 150 0012 3B1D     		adds	r3, r7, #4
 151 0014 1860     		str	r0, [r3]
  71:build/openmote-cc2538_armgcc/openstack/03b-IPv6/forwarding.c ****     ipv6_header_iht      ipv6_outer_header;
  72:build/openmote-cc2538_armgcc/openstack/03b-IPv6/forwarding.c ****     ipv6_header_iht      ipv6_inner_header;
  73:build/openmote-cc2538_armgcc/openstack/03b-IPv6/forwarding.c ****     rpl_option_ht        rpl_option;
  74:build/openmote-cc2538_armgcc/openstack/03b-IPv6/forwarding.c ****     open_addr_t          link_local_prefix;
  75:build/openmote-cc2538_armgcc/openstack/03b-IPv6/forwarding.c **** #ifdef DEADLINE_OPTION_ENABLED
  76:build/openmote-cc2538_armgcc/openstack/03b-IPv6/forwarding.c ****     deadline_option_ht   deadline_option;
  77:build/openmote-cc2538_armgcc/openstack/03b-IPv6/forwarding.c **** #endif    
  78:build/openmote-cc2538_armgcc/openstack/03b-IPv6/forwarding.c ****     open_addr_t*         myprefix;
  79:build/openmote-cc2538_armgcc/openstack/03b-IPv6/forwarding.c ****     open_addr_t*         myadd64;
  80:build/openmote-cc2538_armgcc/openstack/03b-IPv6/forwarding.c ****     uint32_t             flow_label = 0;
 152              		.loc 1 80 0
 153 0016 0023     		movs	r3, #0
 154 0018 BB66     		str	r3, [r7, #104]
  81:build/openmote-cc2538_armgcc/openstack/03b-IPv6/forwarding.c **** 
  82:build/openmote-cc2538_armgcc/openstack/03b-IPv6/forwarding.c ****     open_addr_t          temp_dest_prefix;
  83:build/openmote-cc2538_armgcc/openstack/03b-IPv6/forwarding.c ****     open_addr_t          temp_dest_mac64b;
  84:build/openmote-cc2538_armgcc/openstack/03b-IPv6/forwarding.c ****     open_addr_t*         p_dest;
  85:build/openmote-cc2538_armgcc/openstack/03b-IPv6/forwarding.c ****     open_addr_t*         p_src;  
  86:build/openmote-cc2538_armgcc/openstack/03b-IPv6/forwarding.c ****     open_addr_t          temp_src_prefix;
  87:build/openmote-cc2538_armgcc/openstack/03b-IPv6/forwarding.c ****     open_addr_t          temp_src_mac64b;
  88:build/openmote-cc2538_armgcc/openstack/03b-IPv6/forwarding.c ****     bool                 sac;
  89:build/openmote-cc2538_armgcc/openstack/03b-IPv6/forwarding.c ****     uint8_t              sam;
  90:build/openmote-cc2538_armgcc/openstack/03b-IPv6/forwarding.c ****     uint8_t              m;
  91:build/openmote-cc2538_armgcc/openstack/03b-IPv6/forwarding.c ****     bool                 dac;
  92:build/openmote-cc2538_armgcc/openstack/03b-IPv6/forwarding.c ****     uint8_t              dam;
  93:build/openmote-cc2538_armgcc/openstack/03b-IPv6/forwarding.c ****     uint8_t              next_header;
  94:build/openmote-cc2538_armgcc/openstack/03b-IPv6/forwarding.c **** 
  95:build/openmote-cc2538_armgcc/openstack/03b-IPv6/forwarding.c ****     // take ownership over the packet
  96:build/openmote-cc2538_armgcc/openstack/03b-IPv6/forwarding.c ****     msg->owner                = COMPONENT_FORWARDING;
 155              		.loc 1 96 0
 156 001a 3B1D     		adds	r3, r7, #4
 157 001c 1B68     		ldr	r3, [r3]
 158 001e 1322     		movs	r2, #19
 159 0020 5A70     		strb	r2, [r3, #1]
  97:build/openmote-cc2538_armgcc/openstack/03b-IPv6/forwarding.c **** 
  98:build/openmote-cc2538_armgcc/openstack/03b-IPv6/forwarding.c ****     m   = IPHC_M_NO;
 160              		.loc 1 98 0
 161 0022 0023     		movs	r3, #0
 162 0024 87F83931 		strb	r3, [r7, #313]
  99:build/openmote-cc2538_armgcc/openstack/03b-IPv6/forwarding.c **** 
 100:build/openmote-cc2538_armgcc/openstack/03b-IPv6/forwarding.c ****     // retrieve my prefix and EUI64
 101:build/openmote-cc2538_armgcc/openstack/03b-IPv6/forwarding.c ****     myadd64                   = idmanager_getMyID(ADDR_64B);
 163              		.loc 1 101 0
 164 0028 0220     		movs	r0, #2
 165 002a FFF7FEFF 		bl	idmanager_getMyID
 166 002e C7F83001 		str	r0, [r7, #304]
 102:build/openmote-cc2538_armgcc/openstack/03b-IPv6/forwarding.c **** 
 103:build/openmote-cc2538_armgcc/openstack/03b-IPv6/forwarding.c ****     // set source address (me)
 104:build/openmote-cc2538_armgcc/openstack/03b-IPv6/forwarding.c ****     msg->l3_sourceAdd.type=ADDR_128B;
 167              		.loc 1 104 0
 168 0032 3B1D     		adds	r3, r7, #4
 169 0034 1B68     		ldr	r3, [r3]
 170 0036 0322     		movs	r2, #3
 171 0038 83F82A20 		strb	r2, [r3, #42]
 105:build/openmote-cc2538_armgcc/openstack/03b-IPv6/forwarding.c **** 
 106:build/openmote-cc2538_armgcc/openstack/03b-IPv6/forwarding.c ****     // if we are sending to a link-local address set the source prefix to link-local
 107:build/openmote-cc2538_armgcc/openstack/03b-IPv6/forwarding.c ****     if (packetfunctions_isLinkLocal(&msg->l3_destinationAdd)                ||
 172              		.loc 1 107 0
 173 003c 3B1D     		adds	r3, r7, #4
 174 003e 1B68     		ldr	r3, [r3]
 175 0040 1933     		adds	r3, r3, #25
 176 0042 1846     		mov	r0, r3
 177 0044 FFF7FEFF 		bl	packetfunctions_isLinkLocal
 178 0048 0346     		mov	r3, r0
 179 004a 002B     		cmp	r3, #0
 180 004c 11D1     		bne	.L3
 108:build/openmote-cc2538_armgcc/openstack/03b-IPv6/forwarding.c ****             packetfunctions_isAllRoutersMulticast(&msg->l3_destinationAdd)  ||
 181              		.loc 1 108 0 discriminator 1
 182 004e 3B1D     		adds	r3, r7, #4
 183 0050 1B68     		ldr	r3, [r3]
 184 0052 1933     		adds	r3, r3, #25
 185 0054 1846     		mov	r0, r3
 186 0056 FFF7FEFF 		bl	packetfunctions_isAllRoutersMulticast
 187 005a 0346     		mov	r3, r0
 107:build/openmote-cc2538_armgcc/openstack/03b-IPv6/forwarding.c ****             packetfunctions_isAllRoutersMulticast(&msg->l3_destinationAdd)  ||
 188              		.loc 1 107 0 discriminator 1
 189 005c 002B     		cmp	r3, #0
 190 005e 08D1     		bne	.L3
 109:build/openmote-cc2538_armgcc/openstack/03b-IPv6/forwarding.c ****             packetfunctions_isAllHostsMulticast(&msg->l3_destinationAdd)) {
 191              		.loc 1 109 0
 192 0060 3B1D     		adds	r3, r7, #4
 193 0062 1B68     		ldr	r3, [r3]
 194 0064 1933     		adds	r3, r3, #25
 195 0066 1846     		mov	r0, r3
 196 0068 FFF7FEFF 		bl	packetfunctions_isAllHostsMulticast
 197 006c 0346     		mov	r3, r0
 108:build/openmote-cc2538_armgcc/openstack/03b-IPv6/forwarding.c ****             packetfunctions_isAllRoutersMulticast(&msg->l3_destinationAdd)  ||
 198              		.loc 1 108 0
 199 006e 002B     		cmp	r3, #0
 200 0070 1AD0     		beq	.L4
 201              	.L3:
 110:build/openmote-cc2538_armgcc/openstack/03b-IPv6/forwarding.c ****         memset(&link_local_prefix, 0x00, sizeof(open_addr_t));
 202              		.loc 1 110 0
 203 0072 07F18403 		add	r3, r7, #132
 204 0076 1122     		movs	r2, #17
 205 0078 0021     		movs	r1, #0
 206 007a 1846     		mov	r0, r3
 207 007c FFF7FEFF 		bl	memset
 111:build/openmote-cc2538_armgcc/openstack/03b-IPv6/forwarding.c ****         link_local_prefix.type = ADDR_PREFIX;
 208              		.loc 1 111 0
 209 0080 0523     		movs	r3, #5
 210 0082 87F88430 		strb	r3, [r7, #132]
 112:build/openmote-cc2538_armgcc/openstack/03b-IPv6/forwarding.c ****         link_local_prefix.prefix[0] = 0xfe;
 211              		.loc 1 112 0
 212 0086 FE23     		movs	r3, #254
 213 0088 87F88530 		strb	r3, [r7, #133]
 113:build/openmote-cc2538_armgcc/openstack/03b-IPv6/forwarding.c ****         link_local_prefix.prefix[1] = 0x80;
 214              		.loc 1 113 0
 215 008c 8023     		movs	r3, #128
 216 008e 87F88630 		strb	r3, [r7, #134]
 114:build/openmote-cc2538_armgcc/openstack/03b-IPv6/forwarding.c ****         myprefix = &link_local_prefix;
 217              		.loc 1 114 0
 218 0092 07F18403 		add	r3, r7, #132
 219 0096 C7F84431 		str	r3, [r7, #324]
 115:build/openmote-cc2538_armgcc/openstack/03b-IPv6/forwarding.c ****         sac = IPHC_SAC_STATELESS;
 220              		.loc 1 115 0
 221 009a 0023     		movs	r3, #0
 222 009c 87F83B31 		strb	r3, [r7, #315]
 116:build/openmote-cc2538_armgcc/openstack/03b-IPv6/forwarding.c ****         dac = IPHC_DAC_STATELESS;
 223              		.loc 1 116 0
 224 00a0 0023     		movs	r3, #0
 225 00a2 87F83831 		strb	r3, [r7, #312]
 226 00a6 0AE0     		b	.L5
 227              	.L4:
 117:build/openmote-cc2538_armgcc/openstack/03b-IPv6/forwarding.c ****     } else {
 118:build/openmote-cc2538_armgcc/openstack/03b-IPv6/forwarding.c ****         myprefix = idmanager_getMyID(ADDR_PREFIX);
 228              		.loc 1 118 0
 229 00a8 0520     		movs	r0, #5
 230 00aa FFF7FEFF 		bl	idmanager_getMyID
 231 00ae C7F84401 		str	r0, [r7, #324]
 119:build/openmote-cc2538_armgcc/openstack/03b-IPv6/forwarding.c ****         sac = IPHC_SAC_STATEFUL;
 232              		.loc 1 119 0
 233 00b2 0123     		movs	r3, #1
 234 00b4 87F83B31 		strb	r3, [r7, #315]
 120:build/openmote-cc2538_armgcc/openstack/03b-IPv6/forwarding.c ****         dac = IPHC_DAC_STATEFUL;
 235              		.loc 1 120 0
 236 00b8 0123     		movs	r3, #1
 237 00ba 87F83831 		strb	r3, [r7, #312]
 238              	.L5:
 121:build/openmote-cc2538_armgcc/openstack/03b-IPv6/forwarding.c ****     }
 122:build/openmote-cc2538_armgcc/openstack/03b-IPv6/forwarding.c **** 
 123:build/openmote-cc2538_armgcc/openstack/03b-IPv6/forwarding.c ****     //printf("I am node %d, forwarding \n", idmanager_getMyID(ADDR_64B)->addr_64b[7]);
 124:build/openmote-cc2538_armgcc/openstack/03b-IPv6/forwarding.c **** 
 125:build/openmote-cc2538_armgcc/openstack/03b-IPv6/forwarding.c ****     if (msg->creator == COMPONENT_ICMPv6RPL){
 239              		.loc 1 125 0
 240 00be 3B1D     		adds	r3, r7, #4
 241 00c0 1B68     		ldr	r3, [r3]
 242 00c2 1B78     		ldrb	r3, [r3]	@ zero_extendqisi2
 243 00c4 172B     		cmp	r3, #23
 244 00c6 45D1     		bne	.L6
 126:build/openmote-cc2538_armgcc/openstack/03b-IPv6/forwarding.c **** 		if (msg->isDioFake==TRUE){
 245              		.loc 1 126 0
 246 00c8 3B1D     		adds	r3, r7, #4
 247 00ca 1B68     		ldr	r3, [r3]
 248 00cc 93F84331 		ldrb	r3, [r3, #323]	@ zero_extendqisi2
 249 00d0 002B     		cmp	r3, #0
 250 00d2 23D0     		beq	.L7
 251              	.LBB2:
 127:build/openmote-cc2538_armgcc/openstack/03b-IPv6/forwarding.c **** 			uint8_t whisper_target128[] = {
 252              		.loc 1 127 0
 253 00d4 07F10803 		add	r3, r7, #8
 254 00d8 9F4A     		ldr	r2, .L16
 255 00da 1C46     		mov	r4, r3
 256 00dc 1346     		mov	r3, r2
 257 00de 1868     		ldr	r0, [r3]	@ unaligned
 258 00e0 5968     		ldr	r1, [r3, #4]	@ unaligned
 259 00e2 9A68     		ldr	r2, [r3, #8]	@ unaligned
 260 00e4 DB68     		ldr	r3, [r3, #12]	@ unaligned
 261 00e6 0FC4     		stmia	r4!, {r0, r1, r2, r3}
 128:build/openmote-cc2538_armgcc/openstack/03b-IPv6/forwarding.c **** 			   0xbb, 0xbb, 0x00, 0x00, 0x00, 0x00, 0x00, 0x00, \
 129:build/openmote-cc2538_armgcc/openstack/03b-IPv6/forwarding.c **** 			   0x00, 0x12, 0x4b, 0x00, 0x06, 0x13, 0x0f, 0x07
 130:build/openmote-cc2538_armgcc/openstack/03b-IPv6/forwarding.c **** 			};
 131:build/openmote-cc2538_armgcc/openstack/03b-IPv6/forwarding.c **** 			//printf("I am node %d, FORWARDING packet DIO FAKE \n",idmanager_getMyID(ADDR_64B)->addr_64b[7])
 132:build/openmote-cc2538_armgcc/openstack/03b-IPv6/forwarding.c **** 			whisper_target128[15]=whisper_getTargetParentOld();
 262              		.loc 1 132 0
 263 00e8 FFF7FEFF 		bl	whisper_getTargetParentOld
 264 00ec 0346     		mov	r3, r0
 265 00ee DAB2     		uxtb	r2, r3
 266 00f0 07F10803 		add	r3, r7, #8
 267 00f4 DA73     		strb	r2, [r3, #15]
 133:build/openmote-cc2538_armgcc/openstack/03b-IPv6/forwarding.c **** 			//printf("Setting source to %d in the FAKEDIO\n", whisper_target128[15]);
 134:build/openmote-cc2538_armgcc/openstack/03b-IPv6/forwarding.c **** 			// set source address of node 3
 135:build/openmote-cc2538_armgcc/openstack/03b-IPv6/forwarding.c **** 			msg->l3_sourceAdd.type=ADDR_128B;
 268              		.loc 1 135 0
 269 00f6 3B1D     		adds	r3, r7, #4
 270 00f8 1B68     		ldr	r3, [r3]
 271 00fa 0322     		movs	r2, #3
 272 00fc 83F82A20 		strb	r2, [r3, #42]
 136:build/openmote-cc2538_armgcc/openstack/03b-IPv6/forwarding.c **** 			memcpy(&(msg->l3_sourceAdd.addr_128b[0]),whisper_target128,16);
 273              		.loc 1 136 0
 274 0100 3B1D     		adds	r3, r7, #4
 275 0102 1B68     		ldr	r3, [r3]
 276 0104 03F12B02 		add	r2, r3, #43
 277 0108 07F10803 		add	r3, r7, #8
 278 010c 1446     		mov	r4, r2
 279 010e 1D46     		mov	r5, r3
 280 0110 0FCD     		ldmia	r5!, {r0, r1, r2, r3}
 281 0112 2060     		str	r0, [r4]	@ unaligned
 282 0114 6160     		str	r1, [r4, #4]	@ unaligned
 283 0116 A260     		str	r2, [r4, #8]	@ unaligned
 284 0118 E360     		str	r3, [r4, #12]	@ unaligned
 285              	.LBE2:
 286 011a 36E0     		b	.L9
 287              	.L7:
 137:build/openmote-cc2538_armgcc/openstack/03b-IPv6/forwarding.c **** 		}else{
 138:build/openmote-cc2538_armgcc/openstack/03b-IPv6/forwarding.c **** 			// set source address (me)
 139:build/openmote-cc2538_armgcc/openstack/03b-IPv6/forwarding.c **** 			msg->l3_sourceAdd.type=ADDR_128B;
 288              		.loc 1 139 0
 289 011c 3B1D     		adds	r3, r7, #4
 290 011e 1B68     		ldr	r3, [r3]
 291 0120 0322     		movs	r2, #3
 292 0122 83F82A20 		strb	r2, [r3, #42]
 140:build/openmote-cc2538_armgcc/openstack/03b-IPv6/forwarding.c **** 			memcpy(&(msg->l3_sourceAdd.addr_128b[0]),myprefix->prefix,8);
 293              		.loc 1 140 0
 294 0126 3B1D     		adds	r3, r7, #4
 295 0128 1B68     		ldr	r3, [r3]
 296 012a 03F12B00 		add	r0, r3, #43
 297 012e D7F84431 		ldr	r3, [r7, #324]
 298 0132 0133     		adds	r3, r3, #1
 299 0134 0822     		movs	r2, #8
 300 0136 1946     		mov	r1, r3
 301 0138 FFF7FEFF 		bl	memcpy
 141:build/openmote-cc2538_armgcc/openstack/03b-IPv6/forwarding.c **** 			memcpy(&(msg->l3_sourceAdd.addr_128b[8]),myadd64->addr_64b,8);
 302              		.loc 1 141 0
 303 013c 3B1D     		adds	r3, r7, #4
 304 013e 1B68     		ldr	r3, [r3]
 305 0140 03F13300 		add	r0, r3, #51
 306 0144 D7F83031 		ldr	r3, [r7, #304]
 307 0148 0133     		adds	r3, r3, #1
 308 014a 0822     		movs	r2, #8
 309 014c 1946     		mov	r1, r3
 310 014e FFF7FEFF 		bl	memcpy
 311 0152 1AE0     		b	.L9
 312              	.L6:
 142:build/openmote-cc2538_armgcc/openstack/03b-IPv6/forwarding.c **** 
 143:build/openmote-cc2538_armgcc/openstack/03b-IPv6/forwarding.c **** 		}
 144:build/openmote-cc2538_armgcc/openstack/03b-IPv6/forwarding.c ****     }else{
 145:build/openmote-cc2538_armgcc/openstack/03b-IPv6/forwarding.c **** 			// set source address (me)
 146:build/openmote-cc2538_armgcc/openstack/03b-IPv6/forwarding.c **** 			msg->l3_sourceAdd.type=ADDR_128B;
 313              		.loc 1 146 0
 314 0154 3B1D     		adds	r3, r7, #4
 315 0156 1B68     		ldr	r3, [r3]
 316 0158 0322     		movs	r2, #3
 317 015a 83F82A20 		strb	r2, [r3, #42]
 147:build/openmote-cc2538_armgcc/openstack/03b-IPv6/forwarding.c **** 			memcpy(&(msg->l3_sourceAdd.addr_128b[0]),myprefix->prefix,8);
 318              		.loc 1 147 0
 319 015e 3B1D     		adds	r3, r7, #4
 320 0160 1B68     		ldr	r3, [r3]
 321 0162 03F12B00 		add	r0, r3, #43
 322 0166 D7F84431 		ldr	r3, [r7, #324]
 323 016a 0133     		adds	r3, r3, #1
 324 016c 0822     		movs	r2, #8
 325 016e 1946     		mov	r1, r3
 326 0170 FFF7FEFF 		bl	memcpy
 148:build/openmote-cc2538_armgcc/openstack/03b-IPv6/forwarding.c **** 			memcpy(&(msg->l3_sourceAdd.addr_128b[8]),myadd64->addr_64b,8);
 327              		.loc 1 148 0
 328 0174 3B1D     		adds	r3, r7, #4
 329 0176 1B68     		ldr	r3, [r3]
 330 0178 03F13300 		add	r0, r3, #51
 331 017c D7F83031 		ldr	r3, [r7, #304]
 332 0180 0133     		adds	r3, r3, #1
 333 0182 0822     		movs	r2, #8
 334 0184 1946     		mov	r1, r3
 335 0186 FFF7FEFF 		bl	memcpy
 336              	.L9:
 149:build/openmote-cc2538_armgcc/openstack/03b-IPv6/forwarding.c **** 	}
 150:build/openmote-cc2538_armgcc/openstack/03b-IPv6/forwarding.c **** 
 151:build/openmote-cc2538_armgcc/openstack/03b-IPv6/forwarding.c **** 
 152:build/openmote-cc2538_armgcc/openstack/03b-IPv6/forwarding.c ****     // initialize IPv6 header
 153:build/openmote-cc2538_armgcc/openstack/03b-IPv6/forwarding.c ****     memset(&ipv6_outer_header,0,sizeof(ipv6_header_iht));
 337              		.loc 1 153 0
 338 018a 07F1E803 		add	r3, r7, #232
 339 018e 4822     		movs	r2, #72
 340 0190 0021     		movs	r1, #0
 341 0192 1846     		mov	r0, r3
 342 0194 FFF7FEFF 		bl	memset
 154:build/openmote-cc2538_armgcc/openstack/03b-IPv6/forwarding.c ****     memset(&ipv6_inner_header,0,sizeof(ipv6_header_iht));
 343              		.loc 1 154 0
 344 0198 07F1A003 		add	r3, r7, #160
 345 019c 4822     		movs	r2, #72
 346 019e 0021     		movs	r1, #0
 347 01a0 1846     		mov	r0, r3
 348 01a2 FFF7FEFF 		bl	memset
 155:build/openmote-cc2538_armgcc/openstack/03b-IPv6/forwarding.c **** 
 156:build/openmote-cc2538_armgcc/openstack/03b-IPv6/forwarding.c ****     // Set hop limit to the default in-network value as this packet is being
 157:build/openmote-cc2538_armgcc/openstack/03b-IPv6/forwarding.c ****     // sent from upper layer. This is done here as send_internal() is used by
 158:build/openmote-cc2538_armgcc/openstack/03b-IPv6/forwarding.c ****     // forwarding of packets as well which carry a hlim. This value is required
 159:build/openmote-cc2538_armgcc/openstack/03b-IPv6/forwarding.c ****     // to be set to a value as the following function can decrement it.
 160:build/openmote-cc2538_armgcc/openstack/03b-IPv6/forwarding.c ****     ipv6_inner_header.hop_limit     = IPHC_DEFAULT_HOP_LIMIT;
 349              		.loc 1 160 0
 350 01a6 4123     		movs	r3, #65
 351 01a8 87F8C030 		strb	r3, [r7, #192]
 161:build/openmote-cc2538_armgcc/openstack/03b-IPv6/forwarding.c **** 
 162:build/openmote-cc2538_armgcc/openstack/03b-IPv6/forwarding.c ****     // create the RPL hop-by-hop option
 163:build/openmote-cc2538_armgcc/openstack/03b-IPv6/forwarding.c **** 
 164:build/openmote-cc2538_armgcc/openstack/03b-IPv6/forwarding.c ****     forwarding_createRplOption(
 352              		.loc 1 164 0
 353 01ac 07F19803 		add	r3, r7, #152
 354 01b0 0021     		movs	r1, #0
 355 01b2 1846     		mov	r0, r3
 356 01b4 FFF7FEFF 		bl	forwarding_createRplOption
 165:build/openmote-cc2538_armgcc/openstack/03b-IPv6/forwarding.c ****       &rpl_option,      // rpl_option to fill in
 166:build/openmote-cc2538_armgcc/openstack/03b-IPv6/forwarding.c ****       0x00              // flags
 167:build/openmote-cc2538_armgcc/openstack/03b-IPv6/forwarding.c ****     );
 168:build/openmote-cc2538_armgcc/openstack/03b-IPv6/forwarding.c ****     
 169:build/openmote-cc2538_armgcc/openstack/03b-IPv6/forwarding.c **** #ifdef DEADLINE_OPTION_ENABLED
 170:build/openmote-cc2538_armgcc/openstack/03b-IPv6/forwarding.c ****     forwarding_createDeadlineOption(
 357              		.loc 1 170 0
 358 01b8 07F16C03 		add	r3, r7, #108
 359 01bc 1846     		mov	r0, r3
 360 01be FFF7FEFF 		bl	forwarding_createDeadlineOption
 171:build/openmote-cc2538_armgcc/openstack/03b-IPv6/forwarding.c ****       &deadline_option
 172:build/openmote-cc2538_armgcc/openstack/03b-IPv6/forwarding.c ****     );
 173:build/openmote-cc2538_armgcc/openstack/03b-IPv6/forwarding.c **** #endif    
 174:build/openmote-cc2538_armgcc/openstack/03b-IPv6/forwarding.c **** 
 175:build/openmote-cc2538_armgcc/openstack/03b-IPv6/forwarding.c ****     packetfunctions_ip128bToMac64b(&(msg->l3_destinationAdd),&temp_dest_prefix,&temp_dest_mac64b);
 361              		.loc 1 175 0
 362 01c2 3B1D     		adds	r3, r7, #4
 363 01c4 1B68     		ldr	r3, [r3]
 364 01c6 1933     		adds	r3, r3, #25
 365 01c8 07F14002 		add	r2, r7, #64
 366 01cc 07F15401 		add	r1, r7, #84
 367 01d0 1846     		mov	r0, r3
 368 01d2 FFF7FEFF 		bl	packetfunctions_ip128bToMac64b
 176:build/openmote-cc2538_armgcc/openstack/03b-IPv6/forwarding.c ****     //xv poipoi -- get the src prefix as well
 177:build/openmote-cc2538_armgcc/openstack/03b-IPv6/forwarding.c ****     packetfunctions_ip128bToMac64b(&(msg->l3_sourceAdd),&temp_src_prefix,&temp_src_mac64b);
 369              		.loc 1 177 0
 370 01d6 3B1D     		adds	r3, r7, #4
 371 01d8 1B68     		ldr	r3, [r3]
 372 01da 2A33     		adds	r3, r3, #42
 373 01dc 07F11802 		add	r2, r7, #24
 374 01e0 07F12C01 		add	r1, r7, #44
 375 01e4 1846     		mov	r0, r3
 376 01e6 FFF7FEFF 		bl	packetfunctions_ip128bToMac64b
 178:build/openmote-cc2538_armgcc/openstack/03b-IPv6/forwarding.c ****     //XV -poipoi we want to check if the source address prefix is the same as destination prefix
 179:build/openmote-cc2538_armgcc/openstack/03b-IPv6/forwarding.c ****     if (packetfunctions_sameAddress(&temp_dest_prefix,&temp_src_prefix)) {
 377              		.loc 1 179 0
 378 01ea 07F12C02 		add	r2, r7, #44
 379 01ee 07F15403 		add	r3, r7, #84
 380 01f2 1146     		mov	r1, r2
 381 01f4 1846     		mov	r0, r3
 382 01f6 FFF7FEFF 		bl	packetfunctions_sameAddress
 383 01fa 0346     		mov	r3, r0
 384 01fc 002B     		cmp	r3, #0
 385 01fe 0ED0     		beq	.L10
 180:build/openmote-cc2538_armgcc/openstack/03b-IPv6/forwarding.c ****          // same prefix use 64B address
 181:build/openmote-cc2538_armgcc/openstack/03b-IPv6/forwarding.c ****          sam = IPHC_SAM_64B;
 386              		.loc 1 181 0
 387 0200 0123     		movs	r3, #1
 388 0202 87F83A31 		strb	r3, [r7, #314]
 182:build/openmote-cc2538_armgcc/openstack/03b-IPv6/forwarding.c ****          dam = IPHC_DAM_64B;
 389              		.loc 1 182 0
 390 0206 0123     		movs	r3, #1
 391 0208 87F83731 		strb	r3, [r7, #311]
 183:build/openmote-cc2538_armgcc/openstack/03b-IPv6/forwarding.c ****          p_dest = &temp_dest_mac64b;      
 392              		.loc 1 183 0
 393 020c 07F14003 		add	r3, r7, #64
 394 0210 C7F84031 		str	r3, [r7, #320]
 184:build/openmote-cc2538_armgcc/openstack/03b-IPv6/forwarding.c ****          p_src  = &temp_src_mac64b; 
 395              		.loc 1 184 0
 396 0214 07F11803 		add	r3, r7, #24
 397 0218 C7F83C31 		str	r3, [r7, #316]
 398 021c 43E0     		b	.L11
 399              	.L10:
 185:build/openmote-cc2538_armgcc/openstack/03b-IPv6/forwarding.c ****     } else {
 186:build/openmote-cc2538_armgcc/openstack/03b-IPv6/forwarding.c ****         //not the same prefix. so the packet travels to another network
 187:build/openmote-cc2538_armgcc/openstack/03b-IPv6/forwarding.c ****         //check if this is a source routing pkt. in case it is then the DAM is elided as it is in t
 188:build/openmote-cc2538_armgcc/openstack/03b-IPv6/forwarding.c ****         if (packetfunctions_isBroadcastMulticast(&(msg->l3_destinationAdd))==FALSE){
 400              		.loc 1 188 0
 401 021e 3B1D     		adds	r3, r7, #4
 402 0220 1B68     		ldr	r3, [r3]
 403 0222 1933     		adds	r3, r3, #25
 404 0224 1846     		mov	r0, r3
 405 0226 FFF7FEFF 		bl	packetfunctions_isBroadcastMulticast
 406 022a 0346     		mov	r3, r0
 407 022c 83F00103 		eor	r3, r3, #1
 408 0230 DBB2     		uxtb	r3, r3
 409 0232 002B     		cmp	r3, #0
 410 0234 24D0     		beq	.L12
 189:build/openmote-cc2538_armgcc/openstack/03b-IPv6/forwarding.c ****             sam = IPHC_SAM_128B;
 411              		.loc 1 189 0
 412 0236 0023     		movs	r3, #0
 413 0238 87F83A31 		strb	r3, [r7, #314]
 190:build/openmote-cc2538_armgcc/openstack/03b-IPv6/forwarding.c ****             dam = IPHC_DAM_128B;
 414              		.loc 1 190 0
 415 023c 0023     		movs	r3, #0
 416 023e 87F83731 		strb	r3, [r7, #311]
 191:build/openmote-cc2538_armgcc/openstack/03b-IPv6/forwarding.c ****             p_dest = &(msg->l3_destinationAdd);
 417              		.loc 1 191 0
 418 0242 3B1D     		adds	r3, r7, #4
 419 0244 1B68     		ldr	r3, [r3]
 420 0246 1933     		adds	r3, r3, #25
 421 0248 C7F84031 		str	r3, [r7, #320]
 192:build/openmote-cc2538_armgcc/openstack/03b-IPv6/forwarding.c ****             p_src = &(msg->l3_sourceAdd);
 422              		.loc 1 192 0
 423 024c 3B1D     		adds	r3, r7, #4
 424 024e 1B68     		ldr	r3, [r3]
 425 0250 2A33     		adds	r3, r3, #42
 426 0252 C7F83C31 		str	r3, [r7, #316]
 193:build/openmote-cc2538_armgcc/openstack/03b-IPv6/forwarding.c ****             
 194:build/openmote-cc2538_armgcc/openstack/03b-IPv6/forwarding.c ****             ipv6_outer_header.src.type = ADDR_128B;
 427              		.loc 1 194 0
 428 0256 0323     		movs	r3, #3
 429 0258 87F80A31 		strb	r3, [r7, #266]
 195:build/openmote-cc2538_armgcc/openstack/03b-IPv6/forwarding.c ****             memcpy(&ipv6_outer_header.src,p_src,sizeof(open_addr_t));
 430              		.loc 1 195 0
 431 025c D7F83C21 		ldr	r2, [r7, #316]
 432 0260 07F58573 		add	r3, r7, #266
 433 0264 1568     		ldr	r5, [r2]	@ unaligned
 434 0266 5468     		ldr	r4, [r2, #4]	@ unaligned
 435 0268 9068     		ldr	r0, [r2, #8]	@ unaligned
 436 026a D168     		ldr	r1, [r2, #12]	@ unaligned
 437 026c 1D60     		str	r5, [r3]	@ unaligned
 438 026e 5C60     		str	r4, [r3, #4]	@ unaligned
 439 0270 9860     		str	r0, [r3, #8]	@ unaligned
 440 0272 D960     		str	r1, [r3, #12]	@ unaligned
 441 0274 127C     		ldrb	r2, [r2, #16]
 442 0276 1A74     		strb	r2, [r3, #16]
 196:build/openmote-cc2538_armgcc/openstack/03b-IPv6/forwarding.c ****             ipv6_outer_header.hop_limit = IPHC_DEFAULT_HOP_LIMIT;
 443              		.loc 1 196 0
 444 0278 4123     		movs	r3, #65
 445 027a 87F80831 		strb	r3, [r7, #264]
 446 027e 12E0     		b	.L11
 447              	.L12:
 197:build/openmote-cc2538_armgcc/openstack/03b-IPv6/forwarding.c ****         } else {
 198:build/openmote-cc2538_armgcc/openstack/03b-IPv6/forwarding.c ****            // this is DIO, source address elided, multicast bit is set
 199:build/openmote-cc2538_armgcc/openstack/03b-IPv6/forwarding.c ****             sam = IPHC_SAM_ELIDED;
 448              		.loc 1 199 0
 449 0280 0323     		movs	r3, #3
 450 0282 87F83A31 		strb	r3, [r7, #314]
 200:build/openmote-cc2538_armgcc/openstack/03b-IPv6/forwarding.c ****             m   = IPHC_M_YES;
 451              		.loc 1 200 0
 452 0286 0123     		movs	r3, #1
 453 0288 87F83931 		strb	r3, [r7, #313]
 201:build/openmote-cc2538_armgcc/openstack/03b-IPv6/forwarding.c ****             dam = IPHC_DAM_ELIDED;
 454              		.loc 1 201 0
 455 028c 0323     		movs	r3, #3
 456 028e 87F83731 		strb	r3, [r7, #311]
 202:build/openmote-cc2538_armgcc/openstack/03b-IPv6/forwarding.c ****             p_dest = &(msg->l3_destinationAdd);
 457              		.loc 1 202 0
 458 0292 3B1D     		adds	r3, r7, #4
 459 0294 1B68     		ldr	r3, [r3]
 460 0296 1933     		adds	r3, r3, #25
 461 0298 C7F84031 		str	r3, [r7, #320]
 203:build/openmote-cc2538_armgcc/openstack/03b-IPv6/forwarding.c ****             p_src = &(msg->l3_sourceAdd);
 462              		.loc 1 203 0
 463 029c 3B1D     		adds	r3, r7, #4
 464 029e 1B68     		ldr	r3, [r3]
 465 02a0 2A33     		adds	r3, r3, #42
 466 02a2 C7F83C31 		str	r3, [r7, #316]
 467              	.L11:
 204:build/openmote-cc2538_armgcc/openstack/03b-IPv6/forwarding.c ****         }
 205:build/openmote-cc2538_armgcc/openstack/03b-IPv6/forwarding.c ****     }
 206:build/openmote-cc2538_armgcc/openstack/03b-IPv6/forwarding.c ****     //IPHC inner header and NHC IPv6 header will be added at here
 207:build/openmote-cc2538_armgcc/openstack/03b-IPv6/forwarding.c **** 
 208:build/openmote-cc2538_armgcc/openstack/03b-IPv6/forwarding.c ****     if (msg->l4_protocol_compressed){
 468              		.loc 1 208 0
 469 02a6 3B1D     		adds	r3, r7, #4
 470 02a8 1B68     		ldr	r3, [r3]
 471 02aa DB7B     		ldrb	r3, [r3, #15]	@ zero_extendqisi2
 472 02ac 002B     		cmp	r3, #0
 473 02ae 03D0     		beq	.L13
 209:build/openmote-cc2538_armgcc/openstack/03b-IPv6/forwarding.c ****         next_header = IPHC_NH_COMPRESSED;
 474              		.loc 1 209 0
 475 02b0 0123     		movs	r3, #1
 476 02b2 87F83631 		strb	r3, [r7, #310]
 477 02b6 02E0     		b	.L14
 478              	.L13:
 210:build/openmote-cc2538_armgcc/openstack/03b-IPv6/forwarding.c ****     }else{
 211:build/openmote-cc2538_armgcc/openstack/03b-IPv6/forwarding.c ****         next_header = IPHC_NH_INLINE;
 479              		.loc 1 211 0
 480 02b8 0023     		movs	r3, #0
 481 02ba 87F83631 		strb	r3, [r7, #310]
 482              	.L14:
 212:build/openmote-cc2538_armgcc/openstack/03b-IPv6/forwarding.c ****     }
 213:build/openmote-cc2538_armgcc/openstack/03b-IPv6/forwarding.c ****     iphc_prependIPv6Header(msg,
 483              		.loc 1 213 0
 484 02be BD6E     		ldr	r5, [r7, #104]
 485 02c0 3B1D     		adds	r3, r7, #4
 486 02c2 1B68     		ldr	r3, [r3]
 487 02c4 9B7B     		ldrb	r3, [r3, #14]	@ zero_extendqisi2
 488 02c6 97F80821 		ldrb	r2, [r7, #264]	@ zero_extendqisi2
 489 02ca 97F83911 		ldrb	r1, [r7, #313]	@ zero_extendqisi2
 490 02ce 0029     		cmp	r1, #0
 491 02d0 14BF     		ite	ne
 492 02d2 0121     		movne	r1, #1
 493 02d4 0021     		moveq	r1, #0
 494 02d6 C9B2     		uxtb	r1, r1
 495 02d8 97F83661 		ldrb	r6, [r7, #310]	@ zero_extendqisi2
 496 02dc 381D     		adds	r0, r7, #4
 497 02de 0224     		movs	r4, #2
 498 02e0 0B94     		str	r4, [sp, #44]
 499 02e2 D7F83C41 		ldr	r4, [r7, #316]
 500 02e6 0A94     		str	r4, [sp, #40]
 501 02e8 D7F84041 		ldr	r4, [r7, #320]
 502 02ec 0994     		str	r4, [sp, #36]
 503 02ee 97F83741 		ldrb	r4, [r7, #311]	@ zero_extendqisi2
 504 02f2 0894     		str	r4, [sp, #32]
 505 02f4 97F83841 		ldrb	r4, [r7, #312]	@ zero_extendqisi2
 506 02f8 0794     		str	r4, [sp, #28]
 507 02fa 0691     		str	r1, [sp, #24]
 508 02fc 97F83A11 		ldrb	r1, [r7, #314]	@ zero_extendqisi2
 509 0300 0591     		str	r1, [sp, #20]
 510 0302 97F83B11 		ldrb	r1, [r7, #315]	@ zero_extendqisi2
 511 0306 0491     		str	r1, [sp, #16]
 512 0308 0021     		movs	r1, #0
 513 030a 0391     		str	r1, [sp, #12]
 514 030c 0292     		str	r2, [sp, #8]
 515 030e 0222     		movs	r2, #2
 516 0310 0192     		str	r2, [sp, #4]
 517 0312 0093     		str	r3, [sp]
 518 0314 3346     		mov	r3, r6
 519 0316 2A46     		mov	r2, r5
 520 0318 0321     		movs	r1, #3
 521 031a 0068     		ldr	r0, [r0]
 522 031c FFF7FEFF 		bl	iphc_prependIPv6Header
 214:build/openmote-cc2538_armgcc/openstack/03b-IPv6/forwarding.c ****                 IPHC_TF_ELIDED,
 215:build/openmote-cc2538_armgcc/openstack/03b-IPv6/forwarding.c ****                 flow_label, // value_flowlabel
 216:build/openmote-cc2538_armgcc/openstack/03b-IPv6/forwarding.c ****                 next_header,
 217:build/openmote-cc2538_armgcc/openstack/03b-IPv6/forwarding.c ****                 msg->l4_protocol, // value nh. If compressed this is ignored as LOWPAN_NH is alread
 218:build/openmote-cc2538_armgcc/openstack/03b-IPv6/forwarding.c ****                 IPHC_HLIM_64,
 219:build/openmote-cc2538_armgcc/openstack/03b-IPv6/forwarding.c ****                 ipv6_outer_header.hop_limit,
 220:build/openmote-cc2538_armgcc/openstack/03b-IPv6/forwarding.c ****                 IPHC_CID_NO,
 221:build/openmote-cc2538_armgcc/openstack/03b-IPv6/forwarding.c ****                 sac,
 222:build/openmote-cc2538_armgcc/openstack/03b-IPv6/forwarding.c ****                 sam,
 223:build/openmote-cc2538_armgcc/openstack/03b-IPv6/forwarding.c ****                 m,
 224:build/openmote-cc2538_armgcc/openstack/03b-IPv6/forwarding.c ****                 dac,
 225:build/openmote-cc2538_armgcc/openstack/03b-IPv6/forwarding.c ****                 dam,
 226:build/openmote-cc2538_armgcc/openstack/03b-IPv6/forwarding.c ****                 p_dest,
 227:build/openmote-cc2538_armgcc/openstack/03b-IPv6/forwarding.c ****                 p_src,            
 228:build/openmote-cc2538_armgcc/openstack/03b-IPv6/forwarding.c ****                 PCKTSEND  
 229:build/openmote-cc2538_armgcc/openstack/03b-IPv6/forwarding.c ****                 );
 230:build/openmote-cc2538_armgcc/openstack/03b-IPv6/forwarding.c ****     // both of them are compressed
 231:build/openmote-cc2538_armgcc/openstack/03b-IPv6/forwarding.c ****     ipv6_outer_header.next_header_compressed = TRUE;
 523              		.loc 1 231 0
 524 0320 0123     		movs	r3, #1
 525 0322 87F8F030 		strb	r3, [r7, #240]
 232:build/openmote-cc2538_armgcc/openstack/03b-IPv6/forwarding.c **** 
 233:build/openmote-cc2538_armgcc/openstack/03b-IPv6/forwarding.c ****     //printf("I am node %d, forwarding done\n", idmanager_getMyID(ADDR_64B)->addr_64b[7]);
 234:build/openmote-cc2538_armgcc/openstack/03b-IPv6/forwarding.c **** 
 235:build/openmote-cc2538_armgcc/openstack/03b-IPv6/forwarding.c ****     return forwarding_send_internal_RoutingTable(
 526              		.loc 1 235 0
 527 0326 07F19804 		add	r4, r7, #152
 528 032a 07F1A002 		add	r2, r7, #160
 529 032e 07F1E801 		add	r1, r7, #232
 530 0332 381D     		adds	r0, r7, #4
 531 0334 0223     		movs	r3, #2
 532 0336 0293     		str	r3, [sp, #8]
 533 0338 07F16803 		add	r3, r7, #104
 534 033c 0193     		str	r3, [sp, #4]
 535 033e 07F16C03 		add	r3, r7, #108
 536 0342 0093     		str	r3, [sp]
 537 0344 2346     		mov	r3, r4
 538 0346 0068     		ldr	r0, [r0]
 539 0348 FFF7FEFF 		bl	forwarding_send_internal_RoutingTable
 540 034c 0346     		mov	r3, r0
 236:build/openmote-cc2538_armgcc/openstack/03b-IPv6/forwarding.c ****         msg,
 237:build/openmote-cc2538_armgcc/openstack/03b-IPv6/forwarding.c ****         &ipv6_outer_header,
 238:build/openmote-cc2538_armgcc/openstack/03b-IPv6/forwarding.c ****         &ipv6_inner_header,
 239:build/openmote-cc2538_armgcc/openstack/03b-IPv6/forwarding.c ****         &rpl_option,
 240:build/openmote-cc2538_armgcc/openstack/03b-IPv6/forwarding.c **** #ifdef DEADLINE_OPTION_ENABLED
 241:build/openmote-cc2538_armgcc/openstack/03b-IPv6/forwarding.c ****         &deadline_option,
 242:build/openmote-cc2538_armgcc/openstack/03b-IPv6/forwarding.c **** #endif        
 243:build/openmote-cc2538_armgcc/openstack/03b-IPv6/forwarding.c ****         &flow_label,
 244:build/openmote-cc2538_armgcc/openstack/03b-IPv6/forwarding.c ****         PCKTSEND
 245:build/openmote-cc2538_armgcc/openstack/03b-IPv6/forwarding.c ****     );
 246:build/openmote-cc2538_armgcc/openstack/03b-IPv6/forwarding.c **** }
 541              		.loc 1 246 0
 542 034e 1846     		mov	r0, r3
 543 0350 07F5A677 		add	r7, r7, #332
 544              		.cfi_def_cfa_offset 20
 545 0354 BD46     		mov	sp, r7
 546              		.cfi_def_cfa_register 13
 547              		@ sp needed
 548 0356 F0BD     		pop	{r4, r5, r6, r7, pc}
 549              	.L17:
 550              		.align	2
 551              	.L16:
 552 0358 48000000 		.word	.LC0
 553              		.cfi_endproc
 554              	.LFE1:
 556              		.align	2
 557              		.global	forwarding_sendDone
 558              		.thumb
 559              		.thumb_func
 561              	forwarding_sendDone:
 562              	.LFB2:
 247:build/openmote-cc2538_armgcc/openstack/03b-IPv6/forwarding.c **** 
 248:build/openmote-cc2538_armgcc/openstack/03b-IPv6/forwarding.c **** /**
 249:build/openmote-cc2538_armgcc/openstack/03b-IPv6/forwarding.c **** \brief Indicates a packet has been sent.
 250:build/openmote-cc2538_armgcc/openstack/03b-IPv6/forwarding.c **** 
 251:build/openmote-cc2538_armgcc/openstack/03b-IPv6/forwarding.c **** \param[in,out] msg   The packet just sent.
 252:build/openmote-cc2538_armgcc/openstack/03b-IPv6/forwarding.c **** \param[in]     error The outcome of sending it.
 253:build/openmote-cc2538_armgcc/openstack/03b-IPv6/forwarding.c **** */
 254:build/openmote-cc2538_armgcc/openstack/03b-IPv6/forwarding.c **** void forwarding_sendDone(OpenQueueEntry_t* msg, owerror_t error) {
 563              		.loc 1 254 0
 564              		.cfi_startproc
 565              		@ args = 0, pretend = 0, frame = 8
 566              		@ frame_needed = 1, uses_anonymous_args = 0
 567 035c 80B5     		push	{r7, lr}
 568              		.cfi_def_cfa_offset 8
 569              		.cfi_offset 7, -8
 570              		.cfi_offset 14, -4
 571 035e 82B0     		sub	sp, sp, #8
 572              		.cfi_def_cfa_offset 16
 573 0360 00AF     		add	r7, sp, #0
 574              		.cfi_def_cfa_register 7
 575 0362 7860     		str	r0, [r7, #4]
 576 0364 0B46     		mov	r3, r1
 577 0366 FB70     		strb	r3, [r7, #3]
 255:build/openmote-cc2538_armgcc/openstack/03b-IPv6/forwarding.c ****    
 256:build/openmote-cc2538_armgcc/openstack/03b-IPv6/forwarding.c ****    // take ownership
 257:build/openmote-cc2538_armgcc/openstack/03b-IPv6/forwarding.c ****    msg->owner = COMPONENT_FORWARDING;
 578              		.loc 1 257 0
 579 0368 7B68     		ldr	r3, [r7, #4]
 580 036a 1322     		movs	r2, #19
 581 036c 5A70     		strb	r2, [r3, #1]
 258:build/openmote-cc2538_armgcc/openstack/03b-IPv6/forwarding.c ****    
 259:build/openmote-cc2538_armgcc/openstack/03b-IPv6/forwarding.c ****    if (msg->creator==COMPONENT_RADIO || msg->creator==COMPONENT_FORWARDING) {
 582              		.loc 1 259 0
 583 036e 7B68     		ldr	r3, [r7, #4]
 584 0370 1B78     		ldrb	r3, [r3]	@ zero_extendqisi2
 585 0372 072B     		cmp	r3, #7
 586 0374 03D0     		beq	.L19
 587              		.loc 1 259 0 is_stmt 0 discriminator 1
 588 0376 7B68     		ldr	r3, [r7, #4]
 589 0378 1B78     		ldrb	r3, [r3]	@ zero_extendqisi2
 590 037a 132B     		cmp	r3, #19
 591 037c 03D1     		bne	.L20
 592              	.L19:
 260:build/openmote-cc2538_armgcc/openstack/03b-IPv6/forwarding.c ****       // this is a relayed packet
 261:build/openmote-cc2538_armgcc/openstack/03b-IPv6/forwarding.c ****       
 262:build/openmote-cc2538_armgcc/openstack/03b-IPv6/forwarding.c ****       // free packet
 263:build/openmote-cc2538_armgcc/openstack/03b-IPv6/forwarding.c ****       openqueue_freePacketBuffer(msg);
 593              		.loc 1 263 0 is_stmt 1
 594 037e 7868     		ldr	r0, [r7, #4]
 595 0380 FFF7FEFF 		bl	openqueue_freePacketBuffer
 596 0384 1DE0     		b	.L21
 597              	.L20:
 264:build/openmote-cc2538_armgcc/openstack/03b-IPv6/forwarding.c ****    } else {
 265:build/openmote-cc2538_armgcc/openstack/03b-IPv6/forwarding.c ****       // this is a packet created by this mote
 266:build/openmote-cc2538_armgcc/openstack/03b-IPv6/forwarding.c ****       
 267:build/openmote-cc2538_armgcc/openstack/03b-IPv6/forwarding.c ****       // indicate sendDone to upper layer
 268:build/openmote-cc2538_armgcc/openstack/03b-IPv6/forwarding.c ****       switch(msg->l4_protocol) {
 598              		.loc 1 268 0
 599 0386 7B68     		ldr	r3, [r7, #4]
 600 0388 9B7B     		ldrb	r3, [r3, #14]	@ zero_extendqisi2
 601 038a 112B     		cmp	r3, #17
 602 038c 02D0     		beq	.L23
 603 038e 3A2B     		cmp	r3, #58
 604 0390 06D0     		beq	.L24
 605 0392 0BE0     		b	.L25
 606              	.L23:
 269:build/openmote-cc2538_armgcc/openstack/03b-IPv6/forwarding.c ****             break;
 270:build/openmote-cc2538_armgcc/openstack/03b-IPv6/forwarding.c ****          case IANA_UDP:
 271:build/openmote-cc2538_armgcc/openstack/03b-IPv6/forwarding.c ****             openudp_sendDone(msg,error);
 607              		.loc 1 271 0
 608 0394 FB78     		ldrb	r3, [r7, #3]	@ zero_extendqisi2
 609 0396 1946     		mov	r1, r3
 610 0398 7868     		ldr	r0, [r7, #4]
 611 039a FFF7FEFF 		bl	openudp_sendDone
 272:build/openmote-cc2538_armgcc/openstack/03b-IPv6/forwarding.c ****             break;
 612              		.loc 1 272 0
 613 039e 10E0     		b	.L21
 614              	.L24:
 273:build/openmote-cc2538_armgcc/openstack/03b-IPv6/forwarding.c ****          case IANA_ICMPv6:
 274:build/openmote-cc2538_armgcc/openstack/03b-IPv6/forwarding.c ****             icmpv6_sendDone(msg,error);
 615              		.loc 1 274 0
 616 03a0 FB78     		ldrb	r3, [r7, #3]	@ zero_extendqisi2
 617 03a2 1946     		mov	r1, r3
 618 03a4 7868     		ldr	r0, [r7, #4]
 619 03a6 FFF7FEFF 		bl	icmpv6_sendDone
 275:build/openmote-cc2538_armgcc/openstack/03b-IPv6/forwarding.c ****             break;
 620              		.loc 1 275 0
 621 03aa 0AE0     		b	.L21
 622              	.L25:
 276:build/openmote-cc2538_armgcc/openstack/03b-IPv6/forwarding.c ****          default:
 277:build/openmote-cc2538_armgcc/openstack/03b-IPv6/forwarding.c ****             
 278:build/openmote-cc2538_armgcc/openstack/03b-IPv6/forwarding.c ****             // log error
 279:build/openmote-cc2538_armgcc/openstack/03b-IPv6/forwarding.c ****             openserial_printCritical(
 280:build/openmote-cc2538_armgcc/openstack/03b-IPv6/forwarding.c ****                COMPONENT_FORWARDING,
 281:build/openmote-cc2538_armgcc/openstack/03b-IPv6/forwarding.c ****                ERR_WRONG_TRAN_PROTOCOL,
 282:build/openmote-cc2538_armgcc/openstack/03b-IPv6/forwarding.c ****                (errorparameter_t)msg->l4_protocol,
 623              		.loc 1 282 0
 624 03ac 7B68     		ldr	r3, [r7, #4]
 625 03ae 9B7B     		ldrb	r3, [r3, #14]	@ zero_extendqisi2
 279:build/openmote-cc2538_armgcc/openstack/03b-IPv6/forwarding.c ****                COMPONENT_FORWARDING,
 626              		.loc 1 279 0
 627 03b0 9AB2     		uxth	r2, r3
 628 03b2 0023     		movs	r3, #0
 629 03b4 0621     		movs	r1, #6
 630 03b6 1320     		movs	r0, #19
 631 03b8 FFF7FEFF 		bl	openserial_printCritical
 283:build/openmote-cc2538_armgcc/openstack/03b-IPv6/forwarding.c ****                (errorparameter_t)0
 284:build/openmote-cc2538_armgcc/openstack/03b-IPv6/forwarding.c ****             );
 285:build/openmote-cc2538_armgcc/openstack/03b-IPv6/forwarding.c ****             
 286:build/openmote-cc2538_armgcc/openstack/03b-IPv6/forwarding.c ****             // free packet
 287:build/openmote-cc2538_armgcc/openstack/03b-IPv6/forwarding.c ****             openqueue_freePacketBuffer(msg);
 632              		.loc 1 287 0
 633 03bc 7868     		ldr	r0, [r7, #4]
 634 03be FFF7FEFF 		bl	openqueue_freePacketBuffer
 635              	.L21:
 288:build/openmote-cc2538_armgcc/openstack/03b-IPv6/forwarding.c ****       }
 289:build/openmote-cc2538_armgcc/openstack/03b-IPv6/forwarding.c ****    }
 290:build/openmote-cc2538_armgcc/openstack/03b-IPv6/forwarding.c **** }
 636              		.loc 1 290 0
 637 03c2 00BF     		nop
 638 03c4 0837     		adds	r7, r7, #8
 639              		.cfi_def_cfa_offset 8
 640 03c6 BD46     		mov	sp, r7
 641              		.cfi_def_cfa_register 13
 642              		@ sp needed
 643 03c8 80BD     		pop	{r7, pc}
 644              		.cfi_endproc
 645              	.LFE2:
 647 03ca 00BF     		.align	2
 648              		.global	forwarding_receive
 649              		.thumb
 650              		.thumb_func
 652              	forwarding_receive:
 653              	.LFB3:
 291:build/openmote-cc2538_armgcc/openstack/03b-IPv6/forwarding.c **** 
 292:build/openmote-cc2538_armgcc/openstack/03b-IPv6/forwarding.c **** /**
 293:build/openmote-cc2538_armgcc/openstack/03b-IPv6/forwarding.c **** \brief Indicates a packet was received.
 294:build/openmote-cc2538_armgcc/openstack/03b-IPv6/forwarding.c **** 
 295:build/openmote-cc2538_armgcc/openstack/03b-IPv6/forwarding.c **** \param[in,out] msg               The packet just sent.
 296:build/openmote-cc2538_armgcc/openstack/03b-IPv6/forwarding.c **** \param[in]     ipv6_outer_header The information contained in the IPv6 header.
 297:build/openmote-cc2538_armgcc/openstack/03b-IPv6/forwarding.c **** \param[in]     ipv6_inner_header The hop-by-hop header present in the packet.
 298:build/openmote-cc2538_armgcc/openstack/03b-IPv6/forwarding.c **** \param[in]     rpl_option        The hop-by-hop options present in the packet.
 299:build/openmote-cc2538_armgcc/openstack/03b-IPv6/forwarding.c **** */
 300:build/openmote-cc2538_armgcc/openstack/03b-IPv6/forwarding.c **** void forwarding_receive(
 301:build/openmote-cc2538_armgcc/openstack/03b-IPv6/forwarding.c ****       OpenQueueEntry_t*      msg,
 302:build/openmote-cc2538_armgcc/openstack/03b-IPv6/forwarding.c ****       ipv6_header_iht*       ipv6_outer_header,
 303:build/openmote-cc2538_armgcc/openstack/03b-IPv6/forwarding.c ****       ipv6_header_iht*       ipv6_inner_header,
 304:build/openmote-cc2538_armgcc/openstack/03b-IPv6/forwarding.c **** #ifdef DEADLINE_OPTION_ENABLED      
 305:build/openmote-cc2538_armgcc/openstack/03b-IPv6/forwarding.c ****       deadline_option_ht*	 	 deadline_option,
 306:build/openmote-cc2538_armgcc/openstack/03b-IPv6/forwarding.c **** #endif      
 307:build/openmote-cc2538_armgcc/openstack/03b-IPv6/forwarding.c ****       rpl_option_ht*         rpl_option
 308:build/openmote-cc2538_armgcc/openstack/03b-IPv6/forwarding.c ****     ) {
 654              		.loc 1 308 0
 655              		.cfi_startproc
 656              		@ args = 4, pretend = 0, frame = 24
 657              		@ frame_needed = 1, uses_anonymous_args = 0
 658 03cc 80B5     		push	{r7, lr}
 659              		.cfi_def_cfa_offset 8
 660              		.cfi_offset 7, -8
 661              		.cfi_offset 14, -4
 662 03ce 8AB0     		sub	sp, sp, #40
 663              		.cfi_def_cfa_offset 48
 664 03d0 04AF     		add	r7, sp, #16
 665              		.cfi_def_cfa 7, 32
 666 03d2 F860     		str	r0, [r7, #12]
 667 03d4 B960     		str	r1, [r7, #8]
 668 03d6 7A60     		str	r2, [r7, #4]
 669 03d8 3B60     		str	r3, [r7]
 309:build/openmote-cc2538_armgcc/openstack/03b-IPv6/forwarding.c ****     uint8_t flags;
 310:build/openmote-cc2538_armgcc/openstack/03b-IPv6/forwarding.c ****     uint16_t senderRank;
 311:build/openmote-cc2538_armgcc/openstack/03b-IPv6/forwarding.c ****    
 312:build/openmote-cc2538_armgcc/openstack/03b-IPv6/forwarding.c ****     // take ownership
 313:build/openmote-cc2538_armgcc/openstack/03b-IPv6/forwarding.c ****     msg->owner                     = COMPONENT_FORWARDING;
 670              		.loc 1 313 0
 671 03da FB68     		ldr	r3, [r7, #12]
 672 03dc 1322     		movs	r2, #19
 673 03de 5A70     		strb	r2, [r3, #1]
 314:build/openmote-cc2538_armgcc/openstack/03b-IPv6/forwarding.c **** 
 315:build/openmote-cc2538_armgcc/openstack/03b-IPv6/forwarding.c **** 
 316:build/openmote-cc2538_armgcc/openstack/03b-IPv6/forwarding.c ****     // determine L4 protocol
 317:build/openmote-cc2538_armgcc/openstack/03b-IPv6/forwarding.c ****     // get information from ipv6_header
 318:build/openmote-cc2538_armgcc/openstack/03b-IPv6/forwarding.c ****     msg->l4_protocol            = ipv6_inner_header->next_header;
 674              		.loc 1 318 0
 675 03e0 7B68     		ldr	r3, [r7, #4]
 676 03e2 5A7A     		ldrb	r2, [r3, #9]	@ zero_extendqisi2
 677 03e4 FB68     		ldr	r3, [r7, #12]
 678 03e6 9A73     		strb	r2, [r3, #14]
 319:build/openmote-cc2538_armgcc/openstack/03b-IPv6/forwarding.c ****     msg->l4_protocol_compressed = ipv6_inner_header->next_header_compressed;
 679              		.loc 1 319 0
 680 03e8 7B68     		ldr	r3, [r7, #4]
 681 03ea 1A7A     		ldrb	r2, [r3, #8]	@ zero_extendqisi2
 682 03ec FB68     		ldr	r3, [r7, #12]
 683 03ee DA73     		strb	r2, [r3, #15]
 320:build/openmote-cc2538_armgcc/openstack/03b-IPv6/forwarding.c ****    
 321:build/openmote-cc2538_armgcc/openstack/03b-IPv6/forwarding.c ****     // populate packets metadata with L3 information
 322:build/openmote-cc2538_armgcc/openstack/03b-IPv6/forwarding.c ****     memcpy(&(msg->l3_destinationAdd),&ipv6_inner_header->dest, sizeof(open_addr_t));
 684              		.loc 1 322 0
 685 03f0 FB68     		ldr	r3, [r7, #12]
 686 03f2 03F11900 		add	r0, r3, #25
 687 03f6 7B68     		ldr	r3, [r7, #4]
 688 03f8 3333     		adds	r3, r3, #51
 689 03fa 1122     		movs	r2, #17
 690 03fc 1946     		mov	r1, r3
 691 03fe FFF7FEFF 		bl	memcpy
 323:build/openmote-cc2538_armgcc/openstack/03b-IPv6/forwarding.c ****     memcpy(&(msg->l3_sourceAdd),     &ipv6_inner_header->src,  sizeof(open_addr_t));
 692              		.loc 1 323 0
 693 0402 FB68     		ldr	r3, [r7, #12]
 694 0404 03F12A00 		add	r0, r3, #42
 695 0408 7B68     		ldr	r3, [r7, #4]
 696 040a 2233     		adds	r3, r3, #34
 697 040c 1122     		movs	r2, #17
 698 040e 1946     		mov	r1, r3
 699 0410 FFF7FEFF 		bl	memcpy
 324:build/openmote-cc2538_armgcc/openstack/03b-IPv6/forwarding.c **** 
 325:build/openmote-cc2538_armgcc/openstack/03b-IPv6/forwarding.c ****     if (
 326:build/openmote-cc2538_armgcc/openstack/03b-IPv6/forwarding.c ****         (
 327:build/openmote-cc2538_armgcc/openstack/03b-IPv6/forwarding.c ****             idmanager_isMyAddress(&(msg->l3_destinationAdd))
 700              		.loc 1 327 0
 701 0414 FB68     		ldr	r3, [r7, #12]
 702 0416 1933     		adds	r3, r3, #25
 703 0418 1846     		mov	r0, r3
 704 041a FFF7FEFF 		bl	idmanager_isMyAddress
 705 041e 0346     		mov	r3, r0
 325:build/openmote-cc2538_armgcc/openstack/03b-IPv6/forwarding.c ****         (
 706              		.loc 1 325 0
 707 0420 002B     		cmp	r3, #0
 708 0422 07D1     		bne	.L27
 328:build/openmote-cc2538_armgcc/openstack/03b-IPv6/forwarding.c ****             ||
 329:build/openmote-cc2538_armgcc/openstack/03b-IPv6/forwarding.c ****             packetfunctions_isBroadcastMulticast(&(msg->l3_destinationAdd))
 709              		.loc 1 329 0
 710 0424 FB68     		ldr	r3, [r7, #12]
 711 0426 1933     		adds	r3, r3, #25
 712 0428 1846     		mov	r0, r3
 713 042a FFF7FEFF 		bl	packetfunctions_isBroadcastMulticast
 714 042e 0346     		mov	r3, r0
 328:build/openmote-cc2538_armgcc/openstack/03b-IPv6/forwarding.c ****             ||
 715              		.loc 1 328 0
 716 0430 002B     		cmp	r3, #0
 717 0432 3CD0     		beq	.L28
 718              	.L27:
 330:build/openmote-cc2538_armgcc/openstack/03b-IPv6/forwarding.c ****         )
 331:build/openmote-cc2538_armgcc/openstack/03b-IPv6/forwarding.c ****         &&
 332:build/openmote-cc2538_armgcc/openstack/03b-IPv6/forwarding.c ****         ipv6_outer_header->next_header!=IANA_IPv6ROUTE
 719              		.loc 1 332 0
 720 0434 BB68     		ldr	r3, [r7, #8]
 721 0436 5B7A     		ldrb	r3, [r3, #9]	@ zero_extendqisi2
 331:build/openmote-cc2538_armgcc/openstack/03b-IPv6/forwarding.c ****         ipv6_outer_header->next_header!=IANA_IPv6ROUTE
 722              		.loc 1 331 0
 723 0438 2B2B     		cmp	r3, #43
 724 043a 38D0     		beq	.L28
 333:build/openmote-cc2538_armgcc/openstack/03b-IPv6/forwarding.c ****     ) {
 334:build/openmote-cc2538_armgcc/openstack/03b-IPv6/forwarding.c ****         if (ipv6_outer_header->src.type != ADDR_NONE || ipv6_outer_header->rhe_length){
 725              		.loc 1 334 0
 726 043c BB68     		ldr	r3, [r7, #8]
 727 043e 93F82230 		ldrb	r3, [r3, #34]	@ zero_extendqisi2
 728 0442 002B     		cmp	r3, #0
 729 0444 04D1     		bne	.L29
 730              		.loc 1 334 0 is_stmt 0 discriminator 1
 731 0446 BB68     		ldr	r3, [r7, #8]
 732 0448 93F82130 		ldrb	r3, [r3, #33]	@ zero_extendqisi2
 733 044c 002B     		cmp	r3, #0
 734 044e 0BD0     		beq	.L30
 735              	.L29:
 335:build/openmote-cc2538_armgcc/openstack/03b-IPv6/forwarding.c ****             packetfunctions_tossHeader(msg,ipv6_outer_header->header_length + ipv6_outer_header->rh
 736              		.loc 1 335 0 is_stmt 1
 737 0450 BB68     		ldr	r3, [r7, #8]
 738 0452 93F84420 		ldrb	r2, [r3, #68]	@ zero_extendqisi2
 739 0456 BB68     		ldr	r3, [r7, #8]
 740 0458 93F82130 		ldrb	r3, [r3, #33]	@ zero_extendqisi2
 741 045c 1344     		add	r3, r3, r2
 742 045e DBB2     		uxtb	r3, r3
 743 0460 1946     		mov	r1, r3
 744 0462 F868     		ldr	r0, [r7, #12]
 745 0464 FFF7FEFF 		bl	packetfunctions_tossHeader
 746              	.L30:
 336:build/openmote-cc2538_armgcc/openstack/03b-IPv6/forwarding.c ****         }
 337:build/openmote-cc2538_armgcc/openstack/03b-IPv6/forwarding.c ****         // this packet is for me, no source routing header // toss iphc inner header
 338:build/openmote-cc2538_armgcc/openstack/03b-IPv6/forwarding.c ****         packetfunctions_tossHeader(msg,ipv6_inner_header->header_length);
 747              		.loc 1 338 0
 748 0468 7B68     		ldr	r3, [r7, #4]
 749 046a 93F84430 		ldrb	r3, [r3, #68]	@ zero_extendqisi2
 750 046e 1946     		mov	r1, r3
 751 0470 F868     		ldr	r0, [r7, #12]
 752 0472 FFF7FEFF 		bl	packetfunctions_tossHeader
 339:build/openmote-cc2538_armgcc/openstack/03b-IPv6/forwarding.c ****         // indicate received packet to upper layer
 340:build/openmote-cc2538_armgcc/openstack/03b-IPv6/forwarding.c ****         switch(msg->l4_protocol) {
 753              		.loc 1 340 0
 754 0476 FB68     		ldr	r3, [r7, #12]
 755 0478 9B7B     		ldrb	r3, [r3, #14]	@ zero_extendqisi2
 756 047a 112B     		cmp	r3, #17
 757 047c 02D0     		beq	.L32
 758 047e 3A2B     		cmp	r3, #58
 759 0480 04D0     		beq	.L33
 760 0482 07E0     		b	.L43
 761              	.L32:
 341:build/openmote-cc2538_armgcc/openstack/03b-IPv6/forwarding.c ****             break;
 342:build/openmote-cc2538_armgcc/openstack/03b-IPv6/forwarding.c ****         case IANA_UDP:
 343:build/openmote-cc2538_armgcc/openstack/03b-IPv6/forwarding.c ****             openudp_receive(msg);
 762              		.loc 1 343 0
 763 0484 F868     		ldr	r0, [r7, #12]
 764 0486 FFF7FEFF 		bl	openudp_receive
 344:build/openmote-cc2538_armgcc/openstack/03b-IPv6/forwarding.c ****             break;
 765              		.loc 1 344 0
 766 048a 0FE0     		b	.L34
 767              	.L33:
 345:build/openmote-cc2538_armgcc/openstack/03b-IPv6/forwarding.c ****         case IANA_ICMPv6:
 346:build/openmote-cc2538_armgcc/openstack/03b-IPv6/forwarding.c ****             icmpv6_receive(msg);
 768              		.loc 1 346 0
 769 048c F868     		ldr	r0, [r7, #12]
 770 048e FFF7FEFF 		bl	icmpv6_receive
 347:build/openmote-cc2538_armgcc/openstack/03b-IPv6/forwarding.c ****             break;
 771              		.loc 1 347 0
 772 0492 0BE0     		b	.L34
 773              	.L43:
 348:build/openmote-cc2538_armgcc/openstack/03b-IPv6/forwarding.c ****         default:
 349:build/openmote-cc2538_armgcc/openstack/03b-IPv6/forwarding.c ****             // log error
 350:build/openmote-cc2538_armgcc/openstack/03b-IPv6/forwarding.c ****             openserial_printError(
 351:build/openmote-cc2538_armgcc/openstack/03b-IPv6/forwarding.c ****                 COMPONENT_FORWARDING,ERR_WRONG_TRAN_PROTOCOL,
 352:build/openmote-cc2538_armgcc/openstack/03b-IPv6/forwarding.c ****                 (errorparameter_t)msg->l4_protocol,
 774              		.loc 1 352 0
 775 0494 FB68     		ldr	r3, [r7, #12]
 776 0496 9B7B     		ldrb	r3, [r3, #14]	@ zero_extendqisi2
 350:build/openmote-cc2538_armgcc/openstack/03b-IPv6/forwarding.c ****                 COMPONENT_FORWARDING,ERR_WRONG_TRAN_PROTOCOL,
 777              		.loc 1 350 0
 778 0498 9AB2     		uxth	r2, r3
 779 049a 0123     		movs	r3, #1
 780 049c 0621     		movs	r1, #6
 781 049e 1320     		movs	r0, #19
 782 04a0 FFF7FEFF 		bl	openserial_printError
 353:build/openmote-cc2538_armgcc/openstack/03b-IPv6/forwarding.c ****                 (errorparameter_t)1
 354:build/openmote-cc2538_armgcc/openstack/03b-IPv6/forwarding.c ****             );
 355:build/openmote-cc2538_armgcc/openstack/03b-IPv6/forwarding.c ****             
 356:build/openmote-cc2538_armgcc/openstack/03b-IPv6/forwarding.c ****             // free packet
 357:build/openmote-cc2538_armgcc/openstack/03b-IPv6/forwarding.c ****             openqueue_freePacketBuffer(msg);
 783              		.loc 1 357 0
 784 04a4 F868     		ldr	r0, [r7, #12]
 785 04a6 FFF7FEFF 		bl	openqueue_freePacketBuffer
 358:build/openmote-cc2538_armgcc/openstack/03b-IPv6/forwarding.c ****         }
 359:build/openmote-cc2538_armgcc/openstack/03b-IPv6/forwarding.c ****     } else {
 786              		.loc 1 359 0
 787 04aa 8EE0     		b	.L26
 788              	.L34:
 789 04ac 8DE0     		b	.L26
 790              	.L28:
 360:build/openmote-cc2538_armgcc/openstack/03b-IPv6/forwarding.c ****         // this packet is not for me: relay
 361:build/openmote-cc2538_armgcc/openstack/03b-IPv6/forwarding.c ****       
 362:build/openmote-cc2538_armgcc/openstack/03b-IPv6/forwarding.c ****         // change the creator of the packet
 363:build/openmote-cc2538_armgcc/openstack/03b-IPv6/forwarding.c ****         msg->creator = COMPONENT_FORWARDING;
 791              		.loc 1 363 0
 792 04ae FB68     		ldr	r3, [r7, #12]
 793 04b0 1322     		movs	r2, #19
 794 04b2 1A70     		strb	r2, [r3]
 364:build/openmote-cc2538_armgcc/openstack/03b-IPv6/forwarding.c ****         
 365:build/openmote-cc2538_armgcc/openstack/03b-IPv6/forwarding.c **** #ifdef DEADLINE_OPTION_ENABLED
 366:build/openmote-cc2538_armgcc/openstack/03b-IPv6/forwarding.c ****         if (deadline_option != NULL) {       
 795              		.loc 1 366 0
 796 04b4 3B68     		ldr	r3, [r7]
 797 04b6 002B     		cmp	r3, #0
 798 04b8 1BD0     		beq	.L36
 367:build/openmote-cc2538_armgcc/openstack/03b-IPv6/forwarding.c ****             // Deadline Option : Drop 
 368:build/openmote-cc2538_armgcc/openstack/03b-IPv6/forwarding.c ****             if( (deadline_option->time_left <= 0) && (deadline_option->d_flag == 1) ) { // packet e
 799              		.loc 1 368 0
 800 04ba 3B68     		ldr	r3, [r7]
 801 04bc B3F91330 		ldrsh	r3, [r3, #19]	@ unaligned
 802 04c0 1BB2     		sxth	r3, r3
 803 04c2 002B     		cmp	r3, #0
 804 04c4 15DC     		bgt	.L36
 805              		.loc 1 368 0 is_stmt 0 discriminator 1
 806 04c6 3B68     		ldr	r3, [r7]
 807 04c8 5B78     		ldrb	r3, [r3, #1]	@ zero_extendqisi2
 808 04ca 03F00203 		and	r3, r3, #2
 809 04ce DBB2     		uxtb	r3, r3
 810 04d0 002B     		cmp	r3, #0
 811 04d2 0ED0     		beq	.L36
 369:build/openmote-cc2538_armgcc/openstack/03b-IPv6/forwarding.c ****                deadline_option->time_left = 0;         
 812              		.loc 1 369 0 is_stmt 1
 813 04d4 3B68     		ldr	r3, [r7]
 814 04d6 0022     		movs	r2, #0
 815 04d8 DA74     		strb	r2, [r3, #19]
 816 04da 0022     		movs	r2, #0
 817 04dc 1A75     		strb	r2, [r3, #20]
 370:build/openmote-cc2538_armgcc/openstack/03b-IPv6/forwarding.c ****                openserial_printError(
 818              		.loc 1 370 0
 819 04de 0023     		movs	r3, #0
 820 04e0 0022     		movs	r2, #0
 821 04e2 4321     		movs	r1, #67
 822 04e4 1320     		movs	r0, #19
 823 04e6 FFF7FEFF 		bl	openserial_printError
 371:build/openmote-cc2538_armgcc/openstack/03b-IPv6/forwarding.c ****                          COMPONENT_FORWARDING,
 372:build/openmote-cc2538_armgcc/openstack/03b-IPv6/forwarding.c ****                          ERR_6LORH_DEADLINE_DROPPED,
 373:build/openmote-cc2538_armgcc/openstack/03b-IPv6/forwarding.c ****                          (errorparameter_t)0,
 374:build/openmote-cc2538_armgcc/openstack/03b-IPv6/forwarding.c ****                          (errorparameter_t)0
 375:build/openmote-cc2538_armgcc/openstack/03b-IPv6/forwarding.c ****                );           
 376:build/openmote-cc2538_armgcc/openstack/03b-IPv6/forwarding.c ****                openqueue_freePacketBuffer(msg);
 824              		.loc 1 376 0
 825 04ea F868     		ldr	r0, [r7, #12]
 826 04ec FFF7FEFF 		bl	openqueue_freePacketBuffer
 377:build/openmote-cc2538_armgcc/openstack/03b-IPv6/forwarding.c ****                return;
 827              		.loc 1 377 0
 828 04f0 6BE0     		b	.L26
 829              	.L36:
 378:build/openmote-cc2538_armgcc/openstack/03b-IPv6/forwarding.c ****            }
 379:build/openmote-cc2538_armgcc/openstack/03b-IPv6/forwarding.c ****        }
 380:build/openmote-cc2538_armgcc/openstack/03b-IPv6/forwarding.c **** #endif        
 381:build/openmote-cc2538_armgcc/openstack/03b-IPv6/forwarding.c ****         
 382:build/openmote-cc2538_armgcc/openstack/03b-IPv6/forwarding.c ****         if(openqueue_isHighPriorityEntryEnough()==FALSE){
 830              		.loc 1 382 0
 831 04f2 FFF7FEFF 		bl	openqueue_isHighPriorityEntryEnough
 832 04f6 0346     		mov	r3, r0
 833 04f8 83F00103 		eor	r3, r3, #1
 834 04fc DBB2     		uxtb	r3, r3
 835 04fe 002B     		cmp	r3, #0
 836 0500 03D0     		beq	.L37
 383:build/openmote-cc2538_armgcc/openstack/03b-IPv6/forwarding.c ****           // after change the creator to COMPONENT_FORWARDING,
 384:build/openmote-cc2538_armgcc/openstack/03b-IPv6/forwarding.c ****           // there is no space for high priority packet, drop this message
 385:build/openmote-cc2538_armgcc/openstack/03b-IPv6/forwarding.c ****           // by free the buffer.
 386:build/openmote-cc2538_armgcc/openstack/03b-IPv6/forwarding.c ****           openqueue_freePacketBuffer(msg);
 837              		.loc 1 386 0
 838 0502 F868     		ldr	r0, [r7, #12]
 839 0504 FFF7FEFF 		bl	openqueue_freePacketBuffer
 387:build/openmote-cc2538_armgcc/openstack/03b-IPv6/forwarding.c ****           return;
 840              		.loc 1 387 0
 841 0508 5FE0     		b	.L26
 842              	.L37:
 388:build/openmote-cc2538_armgcc/openstack/03b-IPv6/forwarding.c ****         }
 389:build/openmote-cc2538_armgcc/openstack/03b-IPv6/forwarding.c ****       
 390:build/openmote-cc2538_armgcc/openstack/03b-IPv6/forwarding.c ****         if (ipv6_outer_header->next_header!=IANA_IPv6ROUTE) {
 843              		.loc 1 390 0
 844 050a BB68     		ldr	r3, [r7, #8]
 845 050c 5B7A     		ldrb	r3, [r3, #9]	@ zero_extendqisi2
 846 050e 2B2B     		cmp	r3, #43
 847 0510 4AD0     		beq	.L38
 391:build/openmote-cc2538_armgcc/openstack/03b-IPv6/forwarding.c ****             flags = rpl_option->flags;
 848              		.loc 1 391 0
 849 0512 3B6A     		ldr	r3, [r7, #32]
 850 0514 5B78     		ldrb	r3, [r3, #1]
 851 0516 FB75     		strb	r3, [r7, #23]
 392:build/openmote-cc2538_armgcc/openstack/03b-IPv6/forwarding.c ****             senderRank = rpl_option->senderRank;
 852              		.loc 1 392 0
 853 0518 3B6A     		ldr	r3, [r7, #32]
 854 051a DA78     		ldrb	r2, [r3, #3]	@ zero_extendqisi2
 855 051c 1B79     		ldrb	r3, [r3, #4]	@ zero_extendqisi2
 856 051e 1B02     		lsls	r3, r3, #8
 857 0520 1343     		orrs	r3, r3, r2
 858 0522 BB82     		strh	r3, [r7, #20]	@ movhi
 393:build/openmote-cc2538_armgcc/openstack/03b-IPv6/forwarding.c ****             if ((flags & O_FLAG)!=0){
 859              		.loc 1 393 0
 860 0524 FB7D     		ldrb	r3, [r7, #23]	@ zero_extendqisi2
 861 0526 03F01003 		and	r3, r3, #16
 862 052a 002B     		cmp	r3, #0
 863 052c 06D0     		beq	.L39
 394:build/openmote-cc2538_armgcc/openstack/03b-IPv6/forwarding.c ****                 // wrong direction
 395:build/openmote-cc2538_armgcc/openstack/03b-IPv6/forwarding.c ****                 // log error
 396:build/openmote-cc2538_armgcc/openstack/03b-IPv6/forwarding.c ****                 openserial_printError(
 864              		.loc 1 396 0
 865 052e FB7D     		ldrb	r3, [r7, #23]	@ zero_extendqisi2
 866 0530 9AB2     		uxth	r2, r3
 867 0532 BB8A     		ldrh	r3, [r7, #20]
 868 0534 1321     		movs	r1, #19
 869 0536 1320     		movs	r0, #19
 870 0538 FFF7FEFF 		bl	openserial_printError
 871              	.L39:
 397:build/openmote-cc2538_armgcc/openstack/03b-IPv6/forwarding.c ****                     COMPONENT_FORWARDING,
 398:build/openmote-cc2538_armgcc/openstack/03b-IPv6/forwarding.c ****                     ERR_WRONG_DIRECTION,
 399:build/openmote-cc2538_armgcc/openstack/03b-IPv6/forwarding.c ****                     (errorparameter_t)flags,
 400:build/openmote-cc2538_armgcc/openstack/03b-IPv6/forwarding.c ****                     (errorparameter_t)senderRank
 401:build/openmote-cc2538_armgcc/openstack/03b-IPv6/forwarding.c ****                 );
 402:build/openmote-cc2538_armgcc/openstack/03b-IPv6/forwarding.c ****             }
 403:build/openmote-cc2538_armgcc/openstack/03b-IPv6/forwarding.c ****             if (senderRank < icmpv6rpl_getMyDAGrank()){
 872              		.loc 1 403 0
 873 053c FFF7FEFF 		bl	icmpv6rpl_getMyDAGrank
 874 0540 0346     		mov	r3, r0
 875 0542 1A46     		mov	r2, r3
 876 0544 BB8A     		ldrh	r3, [r7, #20]
 877 0546 9342     		cmp	r3, r2
 878 0548 0ED2     		bcs	.L40
 404:build/openmote-cc2538_armgcc/openstack/03b-IPv6/forwarding.c ****                 // loop detected
 405:build/openmote-cc2538_armgcc/openstack/03b-IPv6/forwarding.c ****                 // set flag
 406:build/openmote-cc2538_armgcc/openstack/03b-IPv6/forwarding.c ****                 rpl_option->flags |= R_FLAG;
 879              		.loc 1 406 0
 880 054a 3B6A     		ldr	r3, [r7, #32]
 881 054c 5B78     		ldrb	r3, [r3, #1]	@ zero_extendqisi2
 882 054e 43F00803 		orr	r3, r3, #8
 883 0552 DAB2     		uxtb	r2, r3
 884 0554 3B6A     		ldr	r3, [r7, #32]
 885 0556 5A70     		strb	r2, [r3, #1]
 407:build/openmote-cc2538_armgcc/openstack/03b-IPv6/forwarding.c ****                 // log error
 408:build/openmote-cc2538_armgcc/openstack/03b-IPv6/forwarding.c ****                 openserial_printError(
 409:build/openmote-cc2538_armgcc/openstack/03b-IPv6/forwarding.c ****                     COMPONENT_FORWARDING,
 410:build/openmote-cc2538_armgcc/openstack/03b-IPv6/forwarding.c ****                     ERR_LOOP_DETECTED,
 411:build/openmote-cc2538_armgcc/openstack/03b-IPv6/forwarding.c ****                     (errorparameter_t) senderRank,
 412:build/openmote-cc2538_armgcc/openstack/03b-IPv6/forwarding.c ****                     (errorparameter_t) icmpv6rpl_getMyDAGrank()
 886              		.loc 1 412 0
 887 0558 FFF7FEFF 		bl	icmpv6rpl_getMyDAGrank
 888 055c 0346     		mov	r3, r0
 408:build/openmote-cc2538_armgcc/openstack/03b-IPv6/forwarding.c ****                     COMPONENT_FORWARDING,
 889              		.loc 1 408 0
 890 055e BA8A     		ldrh	r2, [r7, #20]
 891 0560 1221     		movs	r1, #18
 892 0562 1320     		movs	r0, #19
 893 0564 FFF7FEFF 		bl	openserial_printError
 894              	.L40:
 413:build/openmote-cc2538_armgcc/openstack/03b-IPv6/forwarding.c ****                 );
 414:build/openmote-cc2538_armgcc/openstack/03b-IPv6/forwarding.c ****             }
 415:build/openmote-cc2538_armgcc/openstack/03b-IPv6/forwarding.c ****             forwarding_createRplOption(rpl_option, rpl_option->flags);
 895              		.loc 1 415 0
 896 0568 3B6A     		ldr	r3, [r7, #32]
 897 056a 5B78     		ldrb	r3, [r3, #1]	@ zero_extendqisi2
 898 056c 1946     		mov	r1, r3
 899 056e 386A     		ldr	r0, [r7, #32]
 900 0570 FFF7FEFF 		bl	forwarding_createRplOption
 416:build/openmote-cc2538_armgcc/openstack/03b-IPv6/forwarding.c ****             
 417:build/openmote-cc2538_armgcc/openstack/03b-IPv6/forwarding.c **** #ifdef DEADLINE_OPTION_ENABLED
 418:build/openmote-cc2538_armgcc/openstack/03b-IPv6/forwarding.c ****             if (deadline_option != NULL)
 901              		.loc 1 418 0
 902 0574 3B68     		ldr	r3, [r7]
 903 0576 002B     		cmp	r3, #0
 904 0578 02D0     		beq	.L41
 419:build/openmote-cc2538_armgcc/openstack/03b-IPv6/forwarding.c ****                 forwarding_createDeadlineOption(deadline_option);
 905              		.loc 1 419 0
 906 057a 3868     		ldr	r0, [r7]
 907 057c FFF7FEFF 		bl	forwarding_createDeadlineOption
 908              	.L41:
 420:build/openmote-cc2538_armgcc/openstack/03b-IPv6/forwarding.c **** #endif
 421:build/openmote-cc2538_armgcc/openstack/03b-IPv6/forwarding.c ****             
 422:build/openmote-cc2538_armgcc/openstack/03b-IPv6/forwarding.c ****             // resend as if from upper layer
 423:build/openmote-cc2538_armgcc/openstack/03b-IPv6/forwarding.c ****             if (
 424:build/openmote-cc2538_armgcc/openstack/03b-IPv6/forwarding.c ****                 forwarding_send_internal_RoutingTable(
 909              		.loc 1 424 0
 910 0580 BB68     		ldr	r3, [r7, #8]
 911 0582 0433     		adds	r3, r3, #4
 912 0584 0122     		movs	r2, #1
 913 0586 0292     		str	r2, [sp, #8]
 914 0588 0193     		str	r3, [sp, #4]
 915 058a 3B68     		ldr	r3, [r7]
 916 058c 0093     		str	r3, [sp]
 917 058e 3B6A     		ldr	r3, [r7, #32]
 918 0590 7A68     		ldr	r2, [r7, #4]
 919 0592 B968     		ldr	r1, [r7, #8]
 920 0594 F868     		ldr	r0, [r7, #12]
 921 0596 FFF7FEFF 		bl	forwarding_send_internal_RoutingTable
 922 059a 0346     		mov	r3, r0
 423:build/openmote-cc2538_armgcc/openstack/03b-IPv6/forwarding.c ****                 forwarding_send_internal_RoutingTable(
 923              		.loc 1 423 0
 924 059c 012B     		cmp	r3, #1
 925 059e 14D1     		bne	.L26
 425:build/openmote-cc2538_armgcc/openstack/03b-IPv6/forwarding.c ****                     msg,
 426:build/openmote-cc2538_armgcc/openstack/03b-IPv6/forwarding.c ****                     ipv6_outer_header,
 427:build/openmote-cc2538_armgcc/openstack/03b-IPv6/forwarding.c ****                     ipv6_inner_header,
 428:build/openmote-cc2538_armgcc/openstack/03b-IPv6/forwarding.c ****                     rpl_option,
 429:build/openmote-cc2538_armgcc/openstack/03b-IPv6/forwarding.c **** #ifdef DEADLINE_OPTION_ENABLED
 430:build/openmote-cc2538_armgcc/openstack/03b-IPv6/forwarding.c ****                     deadline_option,
 431:build/openmote-cc2538_armgcc/openstack/03b-IPv6/forwarding.c **** #endif                    
 432:build/openmote-cc2538_armgcc/openstack/03b-IPv6/forwarding.c ****                     &(ipv6_outer_header->flow_label),
 433:build/openmote-cc2538_armgcc/openstack/03b-IPv6/forwarding.c ****                     PCKTFORWARD 
 434:build/openmote-cc2538_armgcc/openstack/03b-IPv6/forwarding.c ****                 )==E_FAIL
 435:build/openmote-cc2538_armgcc/openstack/03b-IPv6/forwarding.c ****             ) {
 436:build/openmote-cc2538_armgcc/openstack/03b-IPv6/forwarding.c ****                 openqueue_freePacketBuffer(msg);
 926              		.loc 1 436 0
 927 05a0 F868     		ldr	r0, [r7, #12]
 928 05a2 FFF7FEFF 		bl	openqueue_freePacketBuffer
 929 05a6 10E0     		b	.L26
 930              	.L38:
 437:build/openmote-cc2538_armgcc/openstack/03b-IPv6/forwarding.c ****             }
 438:build/openmote-cc2538_armgcc/openstack/03b-IPv6/forwarding.c ****         } else {
 439:build/openmote-cc2538_armgcc/openstack/03b-IPv6/forwarding.c ****             // source routing header present
 440:build/openmote-cc2538_armgcc/openstack/03b-IPv6/forwarding.c ****             if (
 441:build/openmote-cc2538_armgcc/openstack/03b-IPv6/forwarding.c ****                 forwarding_send_internal_SourceRouting(
 931              		.loc 1 441 0
 932 05a8 3B6A     		ldr	r3, [r7, #32]
 933 05aa 0093     		str	r3, [sp]
 934 05ac 3B68     		ldr	r3, [r7]
 935 05ae 7A68     		ldr	r2, [r7, #4]
 936 05b0 B968     		ldr	r1, [r7, #8]
 937 05b2 F868     		ldr	r0, [r7, #12]
 938 05b4 FFF7FEFF 		bl	forwarding_send_internal_SourceRouting
 939 05b8 0346     		mov	r3, r0
 440:build/openmote-cc2538_armgcc/openstack/03b-IPv6/forwarding.c ****                 forwarding_send_internal_SourceRouting(
 940              		.loc 1 440 0
 941 05ba 012B     		cmp	r3, #1
 942 05bc 05D1     		bne	.L26
 442:build/openmote-cc2538_armgcc/openstack/03b-IPv6/forwarding.c ****                     msg,
 443:build/openmote-cc2538_armgcc/openstack/03b-IPv6/forwarding.c ****                     ipv6_outer_header,
 444:build/openmote-cc2538_armgcc/openstack/03b-IPv6/forwarding.c ****                     ipv6_inner_header,
 445:build/openmote-cc2538_armgcc/openstack/03b-IPv6/forwarding.c **** #ifdef DEADLINE_OPTION_ENABLED
 446:build/openmote-cc2538_armgcc/openstack/03b-IPv6/forwarding.c ****                     deadline_option,
 447:build/openmote-cc2538_armgcc/openstack/03b-IPv6/forwarding.c **** #endif                    
 448:build/openmote-cc2538_armgcc/openstack/03b-IPv6/forwarding.c ****                     rpl_option
 449:build/openmote-cc2538_armgcc/openstack/03b-IPv6/forwarding.c ****                 )==E_FAIL
 450:build/openmote-cc2538_armgcc/openstack/03b-IPv6/forwarding.c ****             ) {
 451:build/openmote-cc2538_armgcc/openstack/03b-IPv6/forwarding.c ****                 // log error
 452:build/openmote-cc2538_armgcc/openstack/03b-IPv6/forwarding.c ****                 openserial_printError(
 943              		.loc 1 452 0
 944 05be 0023     		movs	r3, #0
 945 05c0 0022     		movs	r2, #0
 946 05c2 0F21     		movs	r1, #15
 947 05c4 1320     		movs	r0, #19
 948 05c6 FFF7FEFF 		bl	openserial_printError
 949              	.L26:
 453:build/openmote-cc2538_armgcc/openstack/03b-IPv6/forwarding.c ****                     COMPONENT_FORWARDING,
 454:build/openmote-cc2538_armgcc/openstack/03b-IPv6/forwarding.c ****                     ERR_INVALID_FWDMODE,
 455:build/openmote-cc2538_armgcc/openstack/03b-IPv6/forwarding.c ****                     (errorparameter_t)0,
 456:build/openmote-cc2538_armgcc/openstack/03b-IPv6/forwarding.c ****                     (errorparameter_t)0
 457:build/openmote-cc2538_armgcc/openstack/03b-IPv6/forwarding.c ****                 );
 458:build/openmote-cc2538_armgcc/openstack/03b-IPv6/forwarding.c ****             }
 459:build/openmote-cc2538_armgcc/openstack/03b-IPv6/forwarding.c ****         }
 460:build/openmote-cc2538_armgcc/openstack/03b-IPv6/forwarding.c ****     }
 461:build/openmote-cc2538_armgcc/openstack/03b-IPv6/forwarding.c **** }
 950              		.loc 1 461 0
 951 05ca 1837     		adds	r7, r7, #24
 952              		.cfi_def_cfa_offset 8
 953 05cc BD46     		mov	sp, r7
 954              		.cfi_def_cfa_register 13
 955              		@ sp needed
 956 05ce 80BD     		pop	{r7, pc}
 957              		.cfi_endproc
 958              	.LFE3:
 960              		.align	2
 961              		.global	forwarding_getNextHopWhisper
 962              		.thumb
 963              		.thumb_func
 965              	forwarding_getNextHopWhisper:
 966              	.LFB4:
 462:build/openmote-cc2538_armgcc/openstack/03b-IPv6/forwarding.c **** 
 463:build/openmote-cc2538_armgcc/openstack/03b-IPv6/forwarding.c **** void forwarding_getNextHopWhisper(open_addr_t* destination128b, open_addr_t* addressToWrite64b) {
 967              		.loc 1 463 0
 968              		.cfi_startproc
 969              		@ args = 0, pretend = 0, frame = 32
 970              		@ frame_needed = 1, uses_anonymous_args = 0
 971 05d0 80B5     		push	{r7, lr}
 972              		.cfi_def_cfa_offset 8
 973              		.cfi_offset 7, -8
 974              		.cfi_offset 14, -4
 975 05d2 88B0     		sub	sp, sp, #32
 976              		.cfi_def_cfa_offset 40
 977 05d4 00AF     		add	r7, sp, #0
 978              		.cfi_def_cfa_register 7
 979 05d6 7860     		str	r0, [r7, #4]
 980 05d8 3960     		str	r1, [r7]
 464:build/openmote-cc2538_armgcc/openstack/03b-IPv6/forwarding.c **** 
 465:build/openmote-cc2538_armgcc/openstack/03b-IPv6/forwarding.c ****    open_addr_t     temp_prefix64btoWrite;
 466:build/openmote-cc2538_armgcc/openstack/03b-IPv6/forwarding.c **** 
 467:build/openmote-cc2538_armgcc/openstack/03b-IPv6/forwarding.c **** 
 468:build/openmote-cc2538_armgcc/openstack/03b-IPv6/forwarding.c ****    packetfunctions_ip128bToMac64b(destination128b,&temp_prefix64btoWrite,addressToWrite64b);
 981              		.loc 1 468 0
 982 05da 07F10C03 		add	r3, r7, #12
 983 05de 3A68     		ldr	r2, [r7]
 984 05e0 1946     		mov	r1, r3
 985 05e2 7868     		ldr	r0, [r7, #4]
 986 05e4 FFF7FEFF 		bl	packetfunctions_ip128bToMac64b
 469:build/openmote-cc2538_armgcc/openstack/03b-IPv6/forwarding.c **** 
 470:build/openmote-cc2538_armgcc/openstack/03b-IPv6/forwarding.c **** }
 987              		.loc 1 470 0
 988 05e8 00BF     		nop
 989 05ea 2037     		adds	r7, r7, #32
 990              		.cfi_def_cfa_offset 8
 991 05ec BD46     		mov	sp, r7
 992              		.cfi_def_cfa_register 13
 993              		@ sp needed
 994 05ee 80BD     		pop	{r7, pc}
 995              		.cfi_endproc
 996              	.LFE4:
 998              		.align	2
 999              		.global	forwarding_getNextHop
 1000              		.thumb
 1001              		.thumb_func
 1003              	forwarding_getNextHop:
 1004              	.LFB5:
 471:build/openmote-cc2538_armgcc/openstack/03b-IPv6/forwarding.c **** 
 472:build/openmote-cc2538_armgcc/openstack/03b-IPv6/forwarding.c **** //=========================== private =========================================
 473:build/openmote-cc2538_armgcc/openstack/03b-IPv6/forwarding.c **** 
 474:build/openmote-cc2538_armgcc/openstack/03b-IPv6/forwarding.c **** 
 475:build/openmote-cc2538_armgcc/openstack/03b-IPv6/forwarding.c **** /**
 476:build/openmote-cc2538_armgcc/openstack/03b-IPv6/forwarding.c **** \brief Retrieve the next hop's address from routing table.
 477:build/openmote-cc2538_armgcc/openstack/03b-IPv6/forwarding.c **** 
 478:build/openmote-cc2538_armgcc/openstack/03b-IPv6/forwarding.c **** \param[in]  destination128b  Final IPv6 destination address.
 479:build/openmote-cc2538_armgcc/openstack/03b-IPv6/forwarding.c **** \param[out] addressToWrite64b Location to write the EUI64 of next hop to.
 480:build/openmote-cc2538_armgcc/openstack/03b-IPv6/forwarding.c **** */
 481:build/openmote-cc2538_armgcc/openstack/03b-IPv6/forwarding.c **** void forwarding_getNextHop(open_addr_t* destination128b, open_addr_t* addressToWrite64b) {
 1005              		.loc 1 481 0
 1006              		.cfi_startproc
 1007              		@ args = 0, pretend = 0, frame = 32
 1008              		@ frame_needed = 1, uses_anonymous_args = 0
 1009 05f0 80B5     		push	{r7, lr}
 1010              		.cfi_def_cfa_offset 8
 1011              		.cfi_offset 7, -8
 1012              		.cfi_offset 14, -4
 1013 05f2 88B0     		sub	sp, sp, #32
 1014              		.cfi_def_cfa_offset 40
 1015 05f4 00AF     		add	r7, sp, #0
 1016              		.cfi_def_cfa_register 7
 1017 05f6 7860     		str	r0, [r7, #4]
 1018 05f8 3960     		str	r1, [r7]
 482:build/openmote-cc2538_armgcc/openstack/03b-IPv6/forwarding.c ****    uint8_t         i;
 483:build/openmote-cc2538_armgcc/openstack/03b-IPv6/forwarding.c ****    open_addr_t     temp_prefix64btoWrite;
 484:build/openmote-cc2538_armgcc/openstack/03b-IPv6/forwarding.c ****    
 485:build/openmote-cc2538_armgcc/openstack/03b-IPv6/forwarding.c ****    if (packetfunctions_isBroadcastMulticast(destination128b)) {
 1019              		.loc 1 485 0
 1020 05fa 7868     		ldr	r0, [r7, #4]
 1021 05fc FFF7FEFF 		bl	packetfunctions_isBroadcastMulticast
 1022 0600 0346     		mov	r3, r0
 1023 0602 002B     		cmp	r3, #0
 1024 0604 11D0     		beq	.L46
 486:build/openmote-cc2538_armgcc/openstack/03b-IPv6/forwarding.c ****       // IP destination is broadcast, send to 0xffffffffffffffff
 487:build/openmote-cc2538_armgcc/openstack/03b-IPv6/forwarding.c ****       addressToWrite64b->type = ADDR_64B;
 1025              		.loc 1 487 0
 1026 0606 3B68     		ldr	r3, [r7]
 1027 0608 0222     		movs	r2, #2
 1028 060a 1A70     		strb	r2, [r3]
 488:build/openmote-cc2538_armgcc/openstack/03b-IPv6/forwarding.c ****       for (i=0;i<8;i++) {
 1029              		.loc 1 488 0
 1030 060c 0023     		movs	r3, #0
 1031 060e FB77     		strb	r3, [r7, #31]
 1032 0610 07E0     		b	.L47
 1033              	.L48:
 489:build/openmote-cc2538_armgcc/openstack/03b-IPv6/forwarding.c ****          addressToWrite64b->addr_64b[i] = 0xff;
 1034              		.loc 1 489 0 discriminator 3
 1035 0612 FB7F     		ldrb	r3, [r7, #31]	@ zero_extendqisi2
 1036 0614 3A68     		ldr	r2, [r7]
 1037 0616 1344     		add	r3, r3, r2
 1038 0618 FF22     		movs	r2, #255
 1039 061a 5A70     		strb	r2, [r3, #1]
 488:build/openmote-cc2538_armgcc/openstack/03b-IPv6/forwarding.c ****       for (i=0;i<8;i++) {
 1040              		.loc 1 488 0 discriminator 3
 1041 061c FB7F     		ldrb	r3, [r7, #31]	@ zero_extendqisi2
 1042 061e 0133     		adds	r3, r3, #1
 1043 0620 FB77     		strb	r3, [r7, #31]
 1044              	.L47:
 488:build/openmote-cc2538_armgcc/openstack/03b-IPv6/forwarding.c ****       for (i=0;i<8;i++) {
 1045              		.loc 1 488 0 is_stmt 0 discriminator 1
 1046 0622 FB7F     		ldrb	r3, [r7, #31]	@ zero_extendqisi2
 1047 0624 072B     		cmp	r3, #7
 1048 0626 F4D9     		bls	.L48
 490:build/openmote-cc2538_armgcc/openstack/03b-IPv6/forwarding.c ****       }
 491:build/openmote-cc2538_armgcc/openstack/03b-IPv6/forwarding.c ****    } else if (neighbors_isStableNeighbor(destination128b)) {
 492:build/openmote-cc2538_armgcc/openstack/03b-IPv6/forwarding.c ****       // IP destination is 1-hop neighbor, send directly
 493:build/openmote-cc2538_armgcc/openstack/03b-IPv6/forwarding.c ****       packetfunctions_ip128bToMac64b(destination128b,&temp_prefix64btoWrite,addressToWrite64b);
 494:build/openmote-cc2538_armgcc/openstack/03b-IPv6/forwarding.c ****    } else {
 495:build/openmote-cc2538_armgcc/openstack/03b-IPv6/forwarding.c ****       // destination is remote, send to preferred parent
 496:build/openmote-cc2538_armgcc/openstack/03b-IPv6/forwarding.c ****       icmpv6rpl_getPreferredParentEui64(addressToWrite64b);
 497:build/openmote-cc2538_armgcc/openstack/03b-IPv6/forwarding.c ****    }
 498:build/openmote-cc2538_armgcc/openstack/03b-IPv6/forwarding.c **** }
 1049              		.loc 1 498 0 is_stmt 1
 1050 0628 10E0     		b	.L51
 1051              	.L46:
 491:build/openmote-cc2538_armgcc/openstack/03b-IPv6/forwarding.c ****       // IP destination is 1-hop neighbor, send directly
 1052              		.loc 1 491 0
 1053 062a 7868     		ldr	r0, [r7, #4]
 1054 062c FFF7FEFF 		bl	neighbors_isStableNeighbor
 1055 0630 0346     		mov	r3, r0
 1056 0632 002B     		cmp	r3, #0
 1057 0634 07D0     		beq	.L50
 493:build/openmote-cc2538_armgcc/openstack/03b-IPv6/forwarding.c ****    } else {
 1058              		.loc 1 493 0
 1059 0636 07F10C03 		add	r3, r7, #12
 1060 063a 3A68     		ldr	r2, [r7]
 1061 063c 1946     		mov	r1, r3
 1062 063e 7868     		ldr	r0, [r7, #4]
 1063 0640 FFF7FEFF 		bl	packetfunctions_ip128bToMac64b
 1064              		.loc 1 498 0
 1065 0644 02E0     		b	.L51
 1066              	.L50:
 496:build/openmote-cc2538_armgcc/openstack/03b-IPv6/forwarding.c ****    }
 1067              		.loc 1 496 0
 1068 0646 3868     		ldr	r0, [r7]
 1069 0648 FFF7FEFF 		bl	icmpv6rpl_getPreferredParentEui64
 1070              	.L51:
 1071              		.loc 1 498 0
 1072 064c 00BF     		nop
 1073 064e 2037     		adds	r7, r7, #32
 1074              		.cfi_def_cfa_offset 8
 1075 0650 BD46     		mov	sp, r7
 1076              		.cfi_def_cfa_register 13
 1077              		@ sp needed
 1078 0652 80BD     		pop	{r7, pc}
 1079              		.cfi_endproc
 1080              	.LFE5:
 1082              		.align	2
 1083              		.global	forwarding_send_internal_RoutingTable
 1084              		.thumb
 1085              		.thumb_func
 1087              	forwarding_send_internal_RoutingTable:
 1088              	.LFB6:
 499:build/openmote-cc2538_armgcc/openstack/03b-IPv6/forwarding.c **** 
 500:build/openmote-cc2538_armgcc/openstack/03b-IPv6/forwarding.c **** /**
 501:build/openmote-cc2538_armgcc/openstack/03b-IPv6/forwarding.c **** \brief Send a packet using the routing table to find the next hop.
 502:build/openmote-cc2538_armgcc/openstack/03b-IPv6/forwarding.c **** 
 503:build/openmote-cc2538_armgcc/openstack/03b-IPv6/forwarding.c **** \param[in,out] msg               The packet to send.
 504:build/openmote-cc2538_armgcc/openstack/03b-IPv6/forwarding.c **** \param[in]     ipv6_outer_header The packet's IPv6 outer header.
 505:build/openmote-cc2538_armgcc/openstack/03b-IPv6/forwarding.c **** \param[in]     ipv6_inner_header The packet's IPv6 inner header.
 506:build/openmote-cc2538_armgcc/openstack/03b-IPv6/forwarding.c **** \param[in]     rpl_option        The hop-by-hop option to add in this packet.
 507:build/openmote-cc2538_armgcc/openstack/03b-IPv6/forwarding.c **** \param[in]     flow_label        The flowlabel to add in the 6LoWPAN header.
 508:build/openmote-cc2538_armgcc/openstack/03b-IPv6/forwarding.c **** \param[in]     fw_SendOrfw_Rcv   The packet is originating from this mote
 509:build/openmote-cc2538_armgcc/openstack/03b-IPv6/forwarding.c ****    (PCKTSEND), or forwarded (PCKTFORWARD).
 510:build/openmote-cc2538_armgcc/openstack/03b-IPv6/forwarding.c **** */
 511:build/openmote-cc2538_armgcc/openstack/03b-IPv6/forwarding.c **** owerror_t forwarding_send_internal_RoutingTable(
 512:build/openmote-cc2538_armgcc/openstack/03b-IPv6/forwarding.c ****       OpenQueueEntry_t*      msg,
 513:build/openmote-cc2538_armgcc/openstack/03b-IPv6/forwarding.c ****       ipv6_header_iht*       ipv6_outer_header,
 514:build/openmote-cc2538_armgcc/openstack/03b-IPv6/forwarding.c ****       ipv6_header_iht*       ipv6_inner_header,
 515:build/openmote-cc2538_armgcc/openstack/03b-IPv6/forwarding.c ****       rpl_option_ht*         rpl_option,
 516:build/openmote-cc2538_armgcc/openstack/03b-IPv6/forwarding.c **** #ifdef DEADLINE_OPTION_ENABLED
 517:build/openmote-cc2538_armgcc/openstack/03b-IPv6/forwarding.c ****       deadline_option_ht*    deadline_option,
 518:build/openmote-cc2538_armgcc/openstack/03b-IPv6/forwarding.c **** #endif      
 519:build/openmote-cc2538_armgcc/openstack/03b-IPv6/forwarding.c ****       uint32_t*              flow_label,
 520:build/openmote-cc2538_armgcc/openstack/03b-IPv6/forwarding.c ****       uint8_t                fw_SendOrfw_Rcv
 521:build/openmote-cc2538_armgcc/openstack/03b-IPv6/forwarding.c ****    ) {
 1089              		.loc 1 521 0
 1090              		.cfi_startproc
 1091              		@ args = 12, pretend = 0, frame = 16
 1092              		@ frame_needed = 1, uses_anonymous_args = 0
 1093 0654 80B5     		push	{r7, lr}
 1094              		.cfi_def_cfa_offset 8
 1095              		.cfi_offset 7, -8
 1096              		.cfi_offset 14, -4
 1097 0656 8AB0     		sub	sp, sp, #40
 1098              		.cfi_def_cfa_offset 48
 1099 0658 06AF     		add	r7, sp, #24
 1100              		.cfi_def_cfa 7, 24
 1101 065a F860     		str	r0, [r7, #12]
 1102 065c B960     		str	r1, [r7, #8]
 1103 065e 7A60     		str	r2, [r7, #4]
 1104 0660 3B60     		str	r3, [r7]
 522:build/openmote-cc2538_armgcc/openstack/03b-IPv6/forwarding.c ****    
 523:build/openmote-cc2538_armgcc/openstack/03b-IPv6/forwarding.c **** 
 524:build/openmote-cc2538_armgcc/openstack/03b-IPv6/forwarding.c ****    // retrieve the next hop from the routing table
 525:build/openmote-cc2538_armgcc/openstack/03b-IPv6/forwarding.c ****    //forwarding_getNextHop(&(msg->l3_destinationAdd),&(msg->l2_nextORpreviousHop));
 526:build/openmote-cc2538_armgcc/openstack/03b-IPv6/forwarding.c **** 
 527:build/openmote-cc2538_armgcc/openstack/03b-IPv6/forwarding.c ****    if (msg->isDioFake==TRUE){
 1105              		.loc 1 527 0
 1106 0662 FB68     		ldr	r3, [r7, #12]
 1107 0664 93F84331 		ldrb	r3, [r3, #323]	@ zero_extendqisi2
 1108 0668 002B     		cmp	r3, #0
 1109 066a 09D0     		beq	.L53
 528:build/openmote-cc2538_armgcc/openstack/03b-IPv6/forwarding.c **** 	// next hop is always direct
 529:build/openmote-cc2538_armgcc/openstack/03b-IPv6/forwarding.c **** 	   forwarding_getNextHopWhisper(&(msg->l3_destinationAdd),&(msg->l2_nextORpreviousHop));
 1110              		.loc 1 529 0
 1111 066c FB68     		ldr	r3, [r7, #12]
 1112 066e 03F11902 		add	r2, r3, #25
 1113 0672 FB68     		ldr	r3, [r7, #12]
 1114 0674 3C33     		adds	r3, r3, #60
 1115 0676 1946     		mov	r1, r3
 1116 0678 1046     		mov	r0, r2
 1117 067a FFF7FEFF 		bl	forwarding_getNextHopWhisper
 1118 067e 08E0     		b	.L54
 1119              	.L53:
 530:build/openmote-cc2538_armgcc/openstack/03b-IPv6/forwarding.c **** 
 531:build/openmote-cc2538_armgcc/openstack/03b-IPv6/forwarding.c ****    }else{
 532:build/openmote-cc2538_armgcc/openstack/03b-IPv6/forwarding.c **** 	   // retrieve the next hop from the routing table
 533:build/openmote-cc2538_armgcc/openstack/03b-IPv6/forwarding.c **** 	   forwarding_getNextHop(&(msg->l3_destinationAdd),&(msg->l2_nextORpreviousHop));
 1120              		.loc 1 533 0
 1121 0680 FB68     		ldr	r3, [r7, #12]
 1122 0682 03F11902 		add	r2, r3, #25
 1123 0686 FB68     		ldr	r3, [r7, #12]
 1124 0688 3C33     		adds	r3, r3, #60
 1125 068a 1946     		mov	r1, r3
 1126 068c 1046     		mov	r0, r2
 1127 068e FFF7FEFF 		bl	forwarding_getNextHop
 1128              	.L54:
 534:build/openmote-cc2538_armgcc/openstack/03b-IPv6/forwarding.c ****    }
 535:build/openmote-cc2538_armgcc/openstack/03b-IPv6/forwarding.c **** 
 536:build/openmote-cc2538_armgcc/openstack/03b-IPv6/forwarding.c ****    if (msg->l2_nextORpreviousHop.type==ADDR_NONE) {
 1129              		.loc 1 536 0
 1130 0692 FB68     		ldr	r3, [r7, #12]
 1131 0694 93F83C30 		ldrb	r3, [r3, #60]	@ zero_extendqisi2
 1132 0698 002B     		cmp	r3, #0
 1133 069a 07D1     		bne	.L55
 537:build/openmote-cc2538_armgcc/openstack/03b-IPv6/forwarding.c ****       openserial_printError(
 1134              		.loc 1 537 0
 1135 069c 0023     		movs	r3, #0
 1136 069e 0022     		movs	r2, #0
 1137 06a0 0D21     		movs	r1, #13
 1138 06a2 1320     		movs	r0, #19
 1139 06a4 FFF7FEFF 		bl	openserial_printError
 538:build/openmote-cc2538_armgcc/openstack/03b-IPv6/forwarding.c ****          COMPONENT_FORWARDING,
 539:build/openmote-cc2538_armgcc/openstack/03b-IPv6/forwarding.c ****          ERR_NO_NEXTHOP,
 540:build/openmote-cc2538_armgcc/openstack/03b-IPv6/forwarding.c ****          (errorparameter_t)0,
 541:build/openmote-cc2538_armgcc/openstack/03b-IPv6/forwarding.c ****          (errorparameter_t)0
 542:build/openmote-cc2538_armgcc/openstack/03b-IPv6/forwarding.c ****       );
 543:build/openmote-cc2538_armgcc/openstack/03b-IPv6/forwarding.c ****       return E_FAIL;
 1140              		.loc 1 543 0
 1141 06a8 0123     		movs	r3, #1
 1142 06aa 1DE0     		b	.L56
 1143              	.L55:
 544:build/openmote-cc2538_armgcc/openstack/03b-IPv6/forwarding.c ****    }
 545:build/openmote-cc2538_armgcc/openstack/03b-IPv6/forwarding.c ****    
 546:build/openmote-cc2538_armgcc/openstack/03b-IPv6/forwarding.c ****    if (ipv6_outer_header->src.type != ADDR_NONE){
 1144              		.loc 1 546 0
 1145 06ac BB68     		ldr	r3, [r7, #8]
 1146 06ae 93F82230 		ldrb	r3, [r3, #34]	@ zero_extendqisi2
 1147 06b2 002B     		cmp	r3, #0
 1148 06b4 06D0     		beq	.L57
 547:build/openmote-cc2538_armgcc/openstack/03b-IPv6/forwarding.c ****       packetfunctions_tossHeader(msg,ipv6_outer_header->header_length);
 1149              		.loc 1 547 0
 1150 06b6 BB68     		ldr	r3, [r7, #8]
 1151 06b8 93F84430 		ldrb	r3, [r3, #68]	@ zero_extendqisi2
 1152 06bc 1946     		mov	r1, r3
 1153 06be F868     		ldr	r0, [r7, #12]
 1154 06c0 FFF7FEFF 		bl	packetfunctions_tossHeader
 1155              	.L57:
 548:build/openmote-cc2538_armgcc/openstack/03b-IPv6/forwarding.c ****    }
 549:build/openmote-cc2538_armgcc/openstack/03b-IPv6/forwarding.c ****    
 550:build/openmote-cc2538_armgcc/openstack/03b-IPv6/forwarding.c ****    // send to next lower layer
 551:build/openmote-cc2538_armgcc/openstack/03b-IPv6/forwarding.c ****    return iphc_sendFromForwarding(
 1156              		.loc 1 551 0
 1157 06c4 97F82030 		ldrb	r3, [r7, #32]	@ zero_extendqisi2
 1158 06c8 0493     		str	r3, [sp, #16]
 1159 06ca 0023     		movs	r3, #0
 1160 06cc 0393     		str	r3, [sp, #12]
 1161 06ce 0023     		movs	r3, #0
 1162 06d0 0293     		str	r3, [sp, #8]
 1163 06d2 FB69     		ldr	r3, [r7, #28]
 1164 06d4 0193     		str	r3, [sp, #4]
 1165 06d6 BB69     		ldr	r3, [r7, #24]
 1166 06d8 0093     		str	r3, [sp]
 1167 06da 3B68     		ldr	r3, [r7]
 1168 06dc 7A68     		ldr	r2, [r7, #4]
 1169 06de B968     		ldr	r1, [r7, #8]
 1170 06e0 F868     		ldr	r0, [r7, #12]
 1171 06e2 FFF7FEFF 		bl	iphc_sendFromForwarding
 1172 06e6 0346     		mov	r3, r0
 1173              	.L56:
 552:build/openmote-cc2538_armgcc/openstack/03b-IPv6/forwarding.c ****       msg,
 553:build/openmote-cc2538_armgcc/openstack/03b-IPv6/forwarding.c ****       ipv6_outer_header,
 554:build/openmote-cc2538_armgcc/openstack/03b-IPv6/forwarding.c ****       ipv6_inner_header,
 555:build/openmote-cc2538_armgcc/openstack/03b-IPv6/forwarding.c ****       rpl_option,
 556:build/openmote-cc2538_armgcc/openstack/03b-IPv6/forwarding.c **** #ifdef DEADLINE_OPTION_ENABLED
 557:build/openmote-cc2538_armgcc/openstack/03b-IPv6/forwarding.c ****       deadline_option,
 558:build/openmote-cc2538_armgcc/openstack/03b-IPv6/forwarding.c **** #endif      
 559:build/openmote-cc2538_armgcc/openstack/03b-IPv6/forwarding.c ****       flow_label,
 560:build/openmote-cc2538_armgcc/openstack/03b-IPv6/forwarding.c ****       NULL,  // no rh3
 561:build/openmote-cc2538_armgcc/openstack/03b-IPv6/forwarding.c ****       0,
 562:build/openmote-cc2538_armgcc/openstack/03b-IPv6/forwarding.c ****       fw_SendOrfw_Rcv
 563:build/openmote-cc2538_armgcc/openstack/03b-IPv6/forwarding.c ****    );
 564:build/openmote-cc2538_armgcc/openstack/03b-IPv6/forwarding.c **** }
 1174              		.loc 1 564 0
 1175 06e8 1846     		mov	r0, r3
 1176 06ea 1037     		adds	r7, r7, #16
 1177              		.cfi_def_cfa_offset 8
 1178 06ec BD46     		mov	sp, r7
 1179              		.cfi_def_cfa_register 13
 1180              		@ sp needed
 1181 06ee 80BD     		pop	{r7, pc}
 1182              		.cfi_endproc
 1183              	.LFE6:
 1185              		.align	2
 1186              		.global	forwarding_send_internal_SourceRouting
 1187              		.thumb
 1188              		.thumb_func
 1190              	forwarding_send_internal_SourceRouting:
 1191              	.LFB7:
 565:build/openmote-cc2538_armgcc/openstack/03b-IPv6/forwarding.c **** 
 566:build/openmote-cc2538_armgcc/openstack/03b-IPv6/forwarding.c **** /**
 567:build/openmote-cc2538_armgcc/openstack/03b-IPv6/forwarding.c **** \brief Send a packet using the source rout to find the next hop.
 568:build/openmote-cc2538_armgcc/openstack/03b-IPv6/forwarding.c **** 
 569:build/openmote-cc2538_armgcc/openstack/03b-IPv6/forwarding.c **** \note This is always called for packets being forwarded.
 570:build/openmote-cc2538_armgcc/openstack/03b-IPv6/forwarding.c **** 
 571:build/openmote-cc2538_armgcc/openstack/03b-IPv6/forwarding.c **** How to process the routing header is detailed in
 572:build/openmote-cc2538_armgcc/openstack/03b-IPv6/forwarding.c **** http://tools.ietf.org/html/rfc6554#page-9.
 573:build/openmote-cc2538_armgcc/openstack/03b-IPv6/forwarding.c **** 
 574:build/openmote-cc2538_armgcc/openstack/03b-IPv6/forwarding.c **** \param[in,out] msg               The packet to send.
 575:build/openmote-cc2538_armgcc/openstack/03b-IPv6/forwarding.c **** \param[in]     ipv6_outer_header The packet's IPv6 outer header.
 576:build/openmote-cc2538_armgcc/openstack/03b-IPv6/forwarding.c **** \param[in]     ipv6_inner_header The packet's IPv6 inner header.
 577:build/openmote-cc2538_armgcc/openstack/03b-IPv6/forwarding.c **** \param[in]     rpl_option        The hop-by-hop option to add in this packet.
 578:build/openmote-cc2538_armgcc/openstack/03b-IPv6/forwarding.c **** */
 579:build/openmote-cc2538_armgcc/openstack/03b-IPv6/forwarding.c **** owerror_t forwarding_send_internal_SourceRouting(
 580:build/openmote-cc2538_armgcc/openstack/03b-IPv6/forwarding.c ****     OpenQueueEntry_t* msg,
 581:build/openmote-cc2538_armgcc/openstack/03b-IPv6/forwarding.c ****     ipv6_header_iht*  ipv6_outer_header,
 582:build/openmote-cc2538_armgcc/openstack/03b-IPv6/forwarding.c ****     ipv6_header_iht*  ipv6_inner_header,
 583:build/openmote-cc2538_armgcc/openstack/03b-IPv6/forwarding.c **** #ifdef DEADLINE_OPTION_ENABLED
 584:build/openmote-cc2538_armgcc/openstack/03b-IPv6/forwarding.c ****     deadline_option_ht*	 	 deadline_option,
 585:build/openmote-cc2538_armgcc/openstack/03b-IPv6/forwarding.c **** #endif    
 586:build/openmote-cc2538_armgcc/openstack/03b-IPv6/forwarding.c ****     rpl_option_ht*    rpl_option
 587:build/openmote-cc2538_armgcc/openstack/03b-IPv6/forwarding.c ****     ) {
 1192              		.loc 1 587 0
 1193              		.cfi_startproc
 1194              		@ args = 4, pretend = 0, frame = 240
 1195              		@ frame_needed = 1, uses_anonymous_args = 0
 1196 06f0 B0B5     		push	{r4, r5, r7, lr}
 1197              		.cfi_def_cfa_offset 16
 1198              		.cfi_offset 4, -16
 1199              		.cfi_offset 5, -12
 1200              		.cfi_offset 7, -8
 1201              		.cfi_offset 14, -4
 1202 06f2 C2B0     		sub	sp, sp, #264
 1203              		.cfi_def_cfa_offset 280
 1204 06f4 06AF     		add	r7, sp, #24
 1205              		.cfi_def_cfa 7, 256
 1206 06f6 F860     		str	r0, [r7, #12]
 1207 06f8 B960     		str	r1, [r7, #8]
 1208 06fa 7A60     		str	r2, [r7, #4]
 1209 06fc 3B60     		str	r3, [r7]
 588:build/openmote-cc2538_armgcc/openstack/03b-IPv6/forwarding.c ****     uint8_t              temp_8b;
 589:build/openmote-cc2538_armgcc/openstack/03b-IPv6/forwarding.c ****     uint8_t              type;
 590:build/openmote-cc2538_armgcc/openstack/03b-IPv6/forwarding.c ****     uint8_t              next_type;
 591:build/openmote-cc2538_armgcc/openstack/03b-IPv6/forwarding.c ****     uint8_t              size;
 592:build/openmote-cc2538_armgcc/openstack/03b-IPv6/forwarding.c ****     uint8_t              next_size;
 593:build/openmote-cc2538_armgcc/openstack/03b-IPv6/forwarding.c ****     uint8_t              hlen;
 594:build/openmote-cc2538_armgcc/openstack/03b-IPv6/forwarding.c ****     open_addr_t          firstAddr;
 595:build/openmote-cc2538_armgcc/openstack/03b-IPv6/forwarding.c ****     open_addr_t          nextAddr;
 596:build/openmote-cc2538_armgcc/openstack/03b-IPv6/forwarding.c ****     open_addr_t          temp_prefix;
 597:build/openmote-cc2538_armgcc/openstack/03b-IPv6/forwarding.c ****     open_addr_t          temp_addr64;
 598:build/openmote-cc2538_armgcc/openstack/03b-IPv6/forwarding.c ****     
 599:build/openmote-cc2538_armgcc/openstack/03b-IPv6/forwarding.c ****     uint8_t              rpi_length;
 600:build/openmote-cc2538_armgcc/openstack/03b-IPv6/forwarding.c ****     uint8_t              flags;
 601:build/openmote-cc2538_armgcc/openstack/03b-IPv6/forwarding.c ****     uint16_t             senderRank;
 602:build/openmote-cc2538_armgcc/openstack/03b-IPv6/forwarding.c ****     
 603:build/openmote-cc2538_armgcc/openstack/03b-IPv6/forwarding.c ****     uint8_t              RH_copy[127];
 604:build/openmote-cc2538_armgcc/openstack/03b-IPv6/forwarding.c ****     uint8_t              RH_length;
 605:build/openmote-cc2538_armgcc/openstack/03b-IPv6/forwarding.c ****     
 606:build/openmote-cc2538_armgcc/openstack/03b-IPv6/forwarding.c ****     uint8_t				 RH3_length;
 607:build/openmote-cc2538_armgcc/openstack/03b-IPv6/forwarding.c **** 
 608:build/openmote-cc2538_armgcc/openstack/03b-IPv6/forwarding.c ****     uint8_t sizeRH=0;
 1210              		.loc 1 608 0
 1211 06fe 0023     		movs	r3, #0
 1212 0700 87F8EB30 		strb	r3, [r7, #235]
 609:build/openmote-cc2538_armgcc/openstack/03b-IPv6/forwarding.c **** 
 610:build/openmote-cc2538_armgcc/openstack/03b-IPv6/forwarding.c ****     memset(&RH_copy[0],0,127);
 1213              		.loc 1 610 0
 1214 0704 07F11403 		add	r3, r7, #20
 1215 0708 7F22     		movs	r2, #127
 1216 070a 0021     		movs	r1, #0
 1217 070c 1846     		mov	r0, r3
 1218 070e FFF7FEFF 		bl	memset
 611:build/openmote-cc2538_armgcc/openstack/03b-IPv6/forwarding.c ****     RH3_length = 0;
 1219              		.loc 1 611 0
 1220 0712 0023     		movs	r3, #0
 1221 0714 87F8EA30 		strb	r3, [r7, #234]
 612:build/openmote-cc2538_armgcc/openstack/03b-IPv6/forwarding.c ****     RH_length = 0;
 1222              		.loc 1 612 0
 1223 0718 0023     		movs	r3, #0
 1224 071a 87F8EC30 		strb	r3, [r7, #236]
 613:build/openmote-cc2538_armgcc/openstack/03b-IPv6/forwarding.c ****     memcpy(&msg->l3_destinationAdd,&ipv6_inner_header->dest,sizeof(open_addr_t));
 1225              		.loc 1 613 0
 1226 071e FB68     		ldr	r3, [r7, #12]
 1227 0720 03F11900 		add	r0, r3, #25
 1228 0724 7B68     		ldr	r3, [r7, #4]
 1229 0726 3333     		adds	r3, r3, #51
 1230 0728 1122     		movs	r2, #17
 1231 072a 1946     		mov	r1, r3
 1232 072c FFF7FEFF 		bl	memcpy
 614:build/openmote-cc2538_armgcc/openstack/03b-IPv6/forwarding.c ****     memcpy(&msg->l3_sourceAdd,&ipv6_inner_header->src,sizeof(open_addr_t));
 1233              		.loc 1 614 0
 1234 0730 FB68     		ldr	r3, [r7, #12]
 1235 0732 03F12A00 		add	r0, r3, #42
 1236 0736 7B68     		ldr	r3, [r7, #4]
 1237 0738 2233     		adds	r3, r3, #34
 1238 073a 1122     		movs	r2, #17
 1239 073c 1946     		mov	r1, r3
 1240 073e FFF7FEFF 		bl	memcpy
 615:build/openmote-cc2538_armgcc/openstack/03b-IPv6/forwarding.c ****     
 616:build/openmote-cc2538_armgcc/openstack/03b-IPv6/forwarding.c ****     // initial first Address by compression reference
 617:build/openmote-cc2538_armgcc/openstack/03b-IPv6/forwarding.c ****     firstAddr.type = ADDR_128B;
 1241              		.loc 1 617 0
 1242 0742 0323     		movs	r3, #3
 1243 0744 87F8D030 		strb	r3, [r7, #208]
 618:build/openmote-cc2538_armgcc/openstack/03b-IPv6/forwarding.c ****     if (ipv6_outer_header->src.type != ADDR_NONE){
 1244              		.loc 1 618 0
 1245 0748 BB68     		ldr	r3, [r7, #8]
 1246 074a 93F82230 		ldrb	r3, [r3, #34]	@ zero_extendqisi2
 1247 074e 002B     		cmp	r3, #0
 1248 0750 0BD0     		beq	.L59
 619:build/openmote-cc2538_armgcc/openstack/03b-IPv6/forwarding.c ****         if (rpl_option->rplInstanceID == 0){
 1249              		.loc 1 619 0
 1250 0752 D7F80031 		ldr	r3, [r7, #256]
 1251 0756 9B78     		ldrb	r3, [r3, #2]	@ zero_extendqisi2
 1252 0758 002B     		cmp	r3, #0
 1253 075a 12D1     		bne	.L61
 620:build/openmote-cc2538_armgcc/openstack/03b-IPv6/forwarding.c ****             icmpv6rpl_getRPLDODAGid(&firstAddr.addr_128b[0]);
 1254              		.loc 1 620 0
 1255 075c 07F1D003 		add	r3, r7, #208
 1256 0760 0133     		adds	r3, r3, #1
 1257 0762 1846     		mov	r0, r3
 1258 0764 FFF7FEFF 		bl	icmpv6rpl_getRPLDODAGid
 1259 0768 0BE0     		b	.L61
 1260              	.L59:
 621:build/openmote-cc2538_armgcc/openstack/03b-IPv6/forwarding.c ****         }
 622:build/openmote-cc2538_armgcc/openstack/03b-IPv6/forwarding.c ****     } else {
 623:build/openmote-cc2538_armgcc/openstack/03b-IPv6/forwarding.c ****         memcpy(&firstAddr,&ipv6_inner_header->src,sizeof(open_addr_t));
 1261              		.loc 1 623 0
 1262 076a 7B68     		ldr	r3, [r7, #4]
 1263 076c 2233     		adds	r3, r3, #34
 1264 076e 07F1D004 		add	r4, r7, #208
 1265 0772 1D46     		mov	r5, r3
 1266 0774 2868     		ldr	r0, [r5]	@ unaligned
 1267 0776 6968     		ldr	r1, [r5, #4]	@ unaligned
 1268 0778 AA68     		ldr	r2, [r5, #8]	@ unaligned
 1269 077a EB68     		ldr	r3, [r5, #12]	@ unaligned
 1270 077c 0FC4     		stmia	r4!, {r0, r1, r2, r3}
 1271 077e 2B7C     		ldrb	r3, [r5, #16]
 1272 0780 2370     		strb	r3, [r4]
 1273              	.L61:
 624:build/openmote-cc2538_armgcc/openstack/03b-IPv6/forwarding.c ****     }
 625:build/openmote-cc2538_armgcc/openstack/03b-IPv6/forwarding.c ****     
 626:build/openmote-cc2538_armgcc/openstack/03b-IPv6/forwarding.c ****     hlen = 0;
 1274              		.loc 1 626 0
 1275 0782 0023     		movs	r3, #0
 1276 0784 87F8ED30 		strb	r3, [r7, #237]
 627:build/openmote-cc2538_armgcc/openstack/03b-IPv6/forwarding.c ****     
 628:build/openmote-cc2538_armgcc/openstack/03b-IPv6/forwarding.c ****     temp_8b = *((uint8_t*)(msg->payload)+hlen);
 1277              		.loc 1 628 0
 1278 0788 FB68     		ldr	r3, [r7, #12]
 1279 078a 5A68     		ldr	r2, [r3, #4]
 1280 078c 97F8ED30 		ldrb	r3, [r7, #237]	@ zero_extendqisi2
 1281 0790 1344     		add	r3, r3, r2
 1282 0792 1B78     		ldrb	r3, [r3]
 1283 0794 87F8EF30 		strb	r3, [r7, #239]
 629:build/openmote-cc2538_armgcc/openstack/03b-IPv6/forwarding.c ****     type    = *((uint8_t*)(msg->payload)+hlen+1);
 1284              		.loc 1 629 0
 1285 0798 FB68     		ldr	r3, [r7, #12]
 1286 079a 5A68     		ldr	r2, [r3, #4]
 1287 079c 97F8ED30 		ldrb	r3, [r7, #237]	@ zero_extendqisi2
 1288 07a0 0133     		adds	r3, r3, #1
 1289 07a2 1344     		add	r3, r3, r2
 1290 07a4 1B78     		ldrb	r3, [r3]
 1291 07a6 87F8EE30 		strb	r3, [r7, #238]
 630:build/openmote-cc2538_armgcc/openstack/03b-IPv6/forwarding.c ****     
 631:build/openmote-cc2538_armgcc/openstack/03b-IPv6/forwarding.c ****     //copy and toss any unknown 6LoRHE
 632:build/openmote-cc2538_armgcc/openstack/03b-IPv6/forwarding.c ****     while((temp_8b&FORMAT_6LORH_MASK) == ELECTIVE_6LoRH){
 1292              		.loc 1 632 0
 1293 07aa 34E0     		b	.L62
 1294              	.L63:
 633:build/openmote-cc2538_armgcc/openstack/03b-IPv6/forwarding.c ****         sizeRH = temp_8b & IPINIP_LEN_6LORH_MASK;
 1295              		.loc 1 633 0
 1296 07ac 97F8EF30 		ldrb	r3, [r7, #239]
 1297 07b0 03F01F03 		and	r3, r3, #31
 1298 07b4 87F8EB30 		strb	r3, [r7, #235]
 634:build/openmote-cc2538_armgcc/openstack/03b-IPv6/forwarding.c ****     	memcpy(&RH_copy[RH_length], msg->payload, sizeRH+2);
 1299              		.loc 1 634 0
 1300 07b8 97F8EC30 		ldrb	r3, [r7, #236]	@ zero_extendqisi2
 1301 07bc 07F11402 		add	r2, r7, #20
 1302 07c0 D018     		adds	r0, r2, r3
 1303 07c2 FB68     		ldr	r3, [r7, #12]
 1304 07c4 5968     		ldr	r1, [r3, #4]
 1305 07c6 97F8EB30 		ldrb	r3, [r7, #235]	@ zero_extendqisi2
 1306 07ca 0233     		adds	r3, r3, #2
 1307 07cc 1A46     		mov	r2, r3
 1308 07ce FFF7FEFF 		bl	memcpy
 635:build/openmote-cc2538_armgcc/openstack/03b-IPv6/forwarding.c ****     	packetfunctions_tossHeader(msg, sizeRH+2);
 1309              		.loc 1 635 0
 1310 07d2 97F8EB30 		ldrb	r3, [r7, #235]
 1311 07d6 0233     		adds	r3, r3, #2
 1312 07d8 DBB2     		uxtb	r3, r3
 1313 07da 1946     		mov	r1, r3
 1314 07dc F868     		ldr	r0, [r7, #12]
 1315 07de FFF7FEFF 		bl	packetfunctions_tossHeader
 636:build/openmote-cc2538_armgcc/openstack/03b-IPv6/forwarding.c ****     	RH_length += 2 + sizeRH;
 1316              		.loc 1 636 0
 1317 07e2 97F8EB20 		ldrb	r2, [r7, #235]
 1318 07e6 97F8EC30 		ldrb	r3, [r7, #236]
 1319 07ea 1344     		add	r3, r3, r2
 1320 07ec DBB2     		uxtb	r3, r3
 1321 07ee 0233     		adds	r3, r3, #2
 1322 07f0 87F8EC30 		strb	r3, [r7, #236]
 637:build/openmote-cc2538_armgcc/openstack/03b-IPv6/forwarding.c ****         temp_8b = *((uint8_t*)(msg->payload)+hlen);
 1323              		.loc 1 637 0
 1324 07f4 FB68     		ldr	r3, [r7, #12]
 1325 07f6 5A68     		ldr	r2, [r3, #4]
 1326 07f8 97F8ED30 		ldrb	r3, [r7, #237]	@ zero_extendqisi2
 1327 07fc 1344     		add	r3, r3, r2
 1328 07fe 1B78     		ldrb	r3, [r3]
 1329 0800 87F8EF30 		strb	r3, [r7, #239]
 638:build/openmote-cc2538_armgcc/openstack/03b-IPv6/forwarding.c ****         type    = *((uint8_t*)(msg->payload)+hlen+1);
 1330              		.loc 1 638 0
 1331 0804 FB68     		ldr	r3, [r7, #12]
 1332 0806 5A68     		ldr	r2, [r3, #4]
 1333 0808 97F8ED30 		ldrb	r3, [r7, #237]	@ zero_extendqisi2
 1334 080c 0133     		adds	r3, r3, #1
 1335 080e 1344     		add	r3, r3, r2
 1336 0810 1B78     		ldrb	r3, [r3]
 1337 0812 87F8EE30 		strb	r3, [r7, #238]
 1338              	.L62:
 632:build/openmote-cc2538_armgcc/openstack/03b-IPv6/forwarding.c ****         sizeRH = temp_8b & IPINIP_LEN_6LORH_MASK;
 1339              		.loc 1 632 0
 1340 0816 97F8EF30 		ldrb	r3, [r7, #239]	@ zero_extendqisi2
 1341 081a 03F0E003 		and	r3, r3, #224
 1342 081e A02B     		cmp	r3, #160
 1343 0820 C4D0     		beq	.L63
 639:build/openmote-cc2538_armgcc/openstack/03b-IPv6/forwarding.c ****     }
 640:build/openmote-cc2538_armgcc/openstack/03b-IPv6/forwarding.c **** 
 641:build/openmote-cc2538_armgcc/openstack/03b-IPv6/forwarding.c ****     hlen += 2;
 1344              		.loc 1 641 0
 1345 0822 97F8ED30 		ldrb	r3, [r7, #237]
 1346 0826 0233     		adds	r3, r3, #2
 1347 0828 87F8ED30 		strb	r3, [r7, #237]
 642:build/openmote-cc2538_armgcc/openstack/03b-IPv6/forwarding.c **** 
 643:build/openmote-cc2538_armgcc/openstack/03b-IPv6/forwarding.c ****     // get the first address
 644:build/openmote-cc2538_armgcc/openstack/03b-IPv6/forwarding.c ****     switch(type){
 1348              		.loc 1 644 0
 1349 082c 97F8EE30 		ldrb	r3, [r7, #238]	@ zero_extendqisi2
 1350 0830 042B     		cmp	r3, #4
 1351 0832 63D8     		bhi	.L64
 1352 0834 01A2     		adr	r2, .L66
 1353 0836 52F823F0 		ldr	pc, [r2, r3, lsl #2]
 1354 083a 00BF     		.p2align 2
 1355              	.L66:
 1356 083c 51080000 		.word	.L65+1
 1357 0840 6D080000 		.word	.L67+1
 1358 0844 91080000 		.word	.L68+1
 1359 0848 B5080000 		.word	.L69+1
 1360 084c D9080000 		.word	.L70+1
 1361              		.p2align 1
 1362              	.L65:
 645:build/openmote-cc2538_armgcc/openstack/03b-IPv6/forwarding.c ****     case RH3_6LOTH_TYPE_0:
 646:build/openmote-cc2538_armgcc/openstack/03b-IPv6/forwarding.c ****         memcpy(&firstAddr.addr_128b[15],msg->payload+hlen,1);
 1363              		.loc 1 646 0
 1364 0850 FB68     		ldr	r3, [r7, #12]
 1365 0852 5A68     		ldr	r2, [r3, #4]
 1366 0854 97F8ED30 		ldrb	r3, [r7, #237]	@ zero_extendqisi2
 1367 0858 1344     		add	r3, r3, r2
 1368 085a 1B78     		ldrb	r3, [r3]	@ zero_extendqisi2
 1369 085c 87F8E030 		strb	r3, [r7, #224]
 647:build/openmote-cc2538_armgcc/openstack/03b-IPv6/forwarding.c ****         hlen += 1;
 1370              		.loc 1 647 0
 1371 0860 97F8ED30 		ldrb	r3, [r7, #237]
 1372 0864 0133     		adds	r3, r3, #1
 1373 0866 87F8ED30 		strb	r3, [r7, #237]
 648:build/openmote-cc2538_armgcc/openstack/03b-IPv6/forwarding.c ****         break;
 1374              		.loc 1 648 0
 1375 086a 47E0     		b	.L64
 1376              	.L67:
 649:build/openmote-cc2538_armgcc/openstack/03b-IPv6/forwarding.c ****     case RH3_6LOTH_TYPE_1:
 650:build/openmote-cc2538_armgcc/openstack/03b-IPv6/forwarding.c ****         memcpy(&firstAddr.addr_128b[14],msg->payload+hlen,2);
 1377              		.loc 1 650 0
 1378 086c FB68     		ldr	r3, [r7, #12]
 1379 086e 5A68     		ldr	r2, [r3, #4]
 1380 0870 97F8ED30 		ldrb	r3, [r7, #237]	@ zero_extendqisi2
 1381 0874 D118     		adds	r1, r2, r3
 1382 0876 07F1D003 		add	r3, r7, #208
 1383 087a 0F33     		adds	r3, r3, #15
 1384 087c 0222     		movs	r2, #2
 1385 087e 1846     		mov	r0, r3
 1386 0880 FFF7FEFF 		bl	memcpy
 651:build/openmote-cc2538_armgcc/openstack/03b-IPv6/forwarding.c ****         hlen += 2;
 1387              		.loc 1 651 0
 1388 0884 97F8ED30 		ldrb	r3, [r7, #237]
 1389 0888 0233     		adds	r3, r3, #2
 1390 088a 87F8ED30 		strb	r3, [r7, #237]
 652:build/openmote-cc2538_armgcc/openstack/03b-IPv6/forwarding.c ****         break;
 1391              		.loc 1 652 0
 1392 088e 35E0     		b	.L64
 1393              	.L68:
 653:build/openmote-cc2538_armgcc/openstack/03b-IPv6/forwarding.c ****     case RH3_6LOTH_TYPE_2:
 654:build/openmote-cc2538_armgcc/openstack/03b-IPv6/forwarding.c ****         memcpy(&firstAddr.addr_128b[12],msg->payload+hlen,4);
 1394              		.loc 1 654 0
 1395 0890 FB68     		ldr	r3, [r7, #12]
 1396 0892 5A68     		ldr	r2, [r3, #4]
 1397 0894 97F8ED30 		ldrb	r3, [r7, #237]	@ zero_extendqisi2
 1398 0898 D118     		adds	r1, r2, r3
 1399 089a 07F1D003 		add	r3, r7, #208
 1400 089e 0D33     		adds	r3, r3, #13
 1401 08a0 0422     		movs	r2, #4
 1402 08a2 1846     		mov	r0, r3
 1403 08a4 FFF7FEFF 		bl	memcpy
 655:build/openmote-cc2538_armgcc/openstack/03b-IPv6/forwarding.c ****         hlen += 4;
 1404              		.loc 1 655 0
 1405 08a8 97F8ED30 		ldrb	r3, [r7, #237]
 1406 08ac 0433     		adds	r3, r3, #4
 1407 08ae 87F8ED30 		strb	r3, [r7, #237]
 656:build/openmote-cc2538_armgcc/openstack/03b-IPv6/forwarding.c ****         break;
 1408              		.loc 1 656 0
 1409 08b2 23E0     		b	.L64
 1410              	.L69:
 657:build/openmote-cc2538_armgcc/openstack/03b-IPv6/forwarding.c ****     case RH3_6LOTH_TYPE_3:
 658:build/openmote-cc2538_armgcc/openstack/03b-IPv6/forwarding.c ****         memcpy(&firstAddr.addr_128b[8],msg->payload+hlen,8);
 1411              		.loc 1 658 0
 1412 08b4 FB68     		ldr	r3, [r7, #12]
 1413 08b6 5A68     		ldr	r2, [r3, #4]
 1414 08b8 97F8ED30 		ldrb	r3, [r7, #237]	@ zero_extendqisi2
 1415 08bc D118     		adds	r1, r2, r3
 1416 08be 07F1D003 		add	r3, r7, #208
 1417 08c2 0933     		adds	r3, r3, #9
 1418 08c4 0822     		movs	r2, #8
 1419 08c6 1846     		mov	r0, r3
 1420 08c8 FFF7FEFF 		bl	memcpy
 659:build/openmote-cc2538_armgcc/openstack/03b-IPv6/forwarding.c ****         hlen += 8;
 1421              		.loc 1 659 0
 1422 08cc 97F8ED30 		ldrb	r3, [r7, #237]
 1423 08d0 0833     		adds	r3, r3, #8
 1424 08d2 87F8ED30 		strb	r3, [r7, #237]
 660:build/openmote-cc2538_armgcc/openstack/03b-IPv6/forwarding.c ****         break;
 1425              		.loc 1 660 0
 1426 08d6 11E0     		b	.L64
 1427              	.L70:
 661:build/openmote-cc2538_armgcc/openstack/03b-IPv6/forwarding.c ****     case RH3_6LOTH_TYPE_4:
 662:build/openmote-cc2538_armgcc/openstack/03b-IPv6/forwarding.c ****         memcpy(&firstAddr.addr_128b[0],msg->payload+hlen,16);
 1428              		.loc 1 662 0
 1429 08d8 FB68     		ldr	r3, [r7, #12]
 1430 08da 5A68     		ldr	r2, [r3, #4]
 1431 08dc 97F8ED30 		ldrb	r3, [r7, #237]	@ zero_extendqisi2
 1432 08e0 D118     		adds	r1, r2, r3
 1433 08e2 07F1D003 		add	r3, r7, #208
 1434 08e6 0133     		adds	r3, r3, #1
 1435 08e8 1022     		movs	r2, #16
 1436 08ea 1846     		mov	r0, r3
 1437 08ec FFF7FEFF 		bl	memcpy
 663:build/openmote-cc2538_armgcc/openstack/03b-IPv6/forwarding.c ****         hlen += 16;
 1438              		.loc 1 663 0
 1439 08f0 97F8ED30 		ldrb	r3, [r7, #237]
 1440 08f4 1033     		adds	r3, r3, #16
 1441 08f6 87F8ED30 		strb	r3, [r7, #237]
 664:build/openmote-cc2538_armgcc/openstack/03b-IPv6/forwarding.c ****         break;
 1442              		.loc 1 664 0
 1443 08fa 00BF     		nop
 1444              	.L64:
 665:build/openmote-cc2538_armgcc/openstack/03b-IPv6/forwarding.c ****     }
 666:build/openmote-cc2538_armgcc/openstack/03b-IPv6/forwarding.c ****     
 667:build/openmote-cc2538_armgcc/openstack/03b-IPv6/forwarding.c ****     packetfunctions_ip128bToMac64b(&firstAddr,&temp_prefix,&temp_addr64);
 1445              		.loc 1 667 0
 1446 08fc 07F19402 		add	r2, r7, #148
 1447 0900 07F1A801 		add	r1, r7, #168
 1448 0904 07F1D003 		add	r3, r7, #208
 1449 0908 1846     		mov	r0, r3
 1450 090a FFF7FEFF 		bl	packetfunctions_ip128bToMac64b
 668:build/openmote-cc2538_armgcc/openstack/03b-IPv6/forwarding.c ****     if (
 669:build/openmote-cc2538_armgcc/openstack/03b-IPv6/forwarding.c ****         packetfunctions_sameAddress(&temp_prefix,idmanager_getMyID(ADDR_PREFIX)) &&
 1451              		.loc 1 669 0
 1452 090e 0520     		movs	r0, #5
 1453 0910 FFF7FEFF 		bl	idmanager_getMyID
 1454 0914 0246     		mov	r2, r0
 1455 0916 07F1A803 		add	r3, r7, #168
 1456 091a 1146     		mov	r1, r2
 1457 091c 1846     		mov	r0, r3
 1458 091e FFF7FEFF 		bl	packetfunctions_sameAddress
 1459 0922 0346     		mov	r3, r0
 668:build/openmote-cc2538_armgcc/openstack/03b-IPv6/forwarding.c ****     if (
 1460              		.loc 1 668 0
 1461 0924 002B     		cmp	r3, #0
 1462 0926 00F00B82 		beq	.L71
 670:build/openmote-cc2538_armgcc/openstack/03b-IPv6/forwarding.c ****         packetfunctions_sameAddress(&temp_addr64,idmanager_getMyID(ADDR_64B))
 1463              		.loc 1 670 0
 1464 092a 0220     		movs	r0, #2
 1465 092c FFF7FEFF 		bl	idmanager_getMyID
 1466 0930 0246     		mov	r2, r0
 1467 0932 07F19403 		add	r3, r7, #148
 1468 0936 1146     		mov	r1, r2
 1469 0938 1846     		mov	r0, r3
 1470 093a FFF7FEFF 		bl	packetfunctions_sameAddress
 1471 093e 0346     		mov	r3, r0
 669:build/openmote-cc2538_armgcc/openstack/03b-IPv6/forwarding.c ****         packetfunctions_sameAddress(&temp_addr64,idmanager_getMyID(ADDR_64B))
 1472              		.loc 1 669 0
 1473 0940 002B     		cmp	r3, #0
 1474 0942 00F0FD81 		beq	.L71
 671:build/openmote-cc2538_armgcc/openstack/03b-IPv6/forwarding.c ****     ){
 672:build/openmote-cc2538_armgcc/openstack/03b-IPv6/forwarding.c ****         size = temp_8b & RH3_6LOTH_SIZE_MASK;
 1475              		.loc 1 672 0
 1476 0946 97F8EF30 		ldrb	r3, [r7, #239]
 1477 094a 03F01F03 		and	r3, r3, #31
 1478 094e 87F8E930 		strb	r3, [r7, #233]
 673:build/openmote-cc2538_armgcc/openstack/03b-IPv6/forwarding.c ****         if (size > 0){
 1479              		.loc 1 673 0
 1480 0952 97F8E930 		ldrb	r3, [r7, #233]	@ zero_extendqisi2
 1481 0956 002B     		cmp	r3, #0
 1482 0958 74D0     		beq	.L72
 674:build/openmote-cc2538_armgcc/openstack/03b-IPv6/forwarding.c ****             // there are at least 2 entries in the header, 
 675:build/openmote-cc2538_armgcc/openstack/03b-IPv6/forwarding.c ****             // the router removes the first entry and decrements the Size (by 1) 
 676:build/openmote-cc2538_armgcc/openstack/03b-IPv6/forwarding.c ****             size -= 1;
 1483              		.loc 1 676 0
 1484 095a 97F8E930 		ldrb	r3, [r7, #233]
 1485 095e 013B     		subs	r3, r3, #1
 1486 0960 87F8E930 		strb	r3, [r7, #233]
 677:build/openmote-cc2538_armgcc/openstack/03b-IPv6/forwarding.c ****             packetfunctions_tossHeader(msg,hlen);
 1487              		.loc 1 677 0
 1488 0964 97F8ED30 		ldrb	r3, [r7, #237]	@ zero_extendqisi2
 1489 0968 1946     		mov	r1, r3
 1490 096a F868     		ldr	r0, [r7, #12]
 1491 096c FFF7FEFF 		bl	packetfunctions_tossHeader
 678:build/openmote-cc2538_armgcc/openstack/03b-IPv6/forwarding.c ****             packetfunctions_reserveHeaderSize(msg,2);
 1492              		.loc 1 678 0
 1493 0970 0221     		movs	r1, #2
 1494 0972 F868     		ldr	r0, [r7, #12]
 1495 0974 FFF7FEFF 		bl	packetfunctions_reserveHeaderSize
 679:build/openmote-cc2538_armgcc/openstack/03b-IPv6/forwarding.c ****             msg->payload[0] = CRITICAL_6LORH | size;
 1496              		.loc 1 679 0
 1497 0978 FB68     		ldr	r3, [r7, #12]
 1498 097a 5B68     		ldr	r3, [r3, #4]
 1499 097c 97F8E920 		ldrb	r2, [r7, #233]
 1500 0980 62F07F02 		orn	r2, r2, #127
 1501 0984 D2B2     		uxtb	r2, r2
 1502 0986 1A70     		strb	r2, [r3]
 680:build/openmote-cc2538_armgcc/openstack/03b-IPv6/forwarding.c ****             msg->payload[1] = type;
 1503              		.loc 1 680 0
 1504 0988 FB68     		ldr	r3, [r7, #12]
 1505 098a 5B68     		ldr	r3, [r3, #4]
 1506 098c 0133     		adds	r3, r3, #1
 1507 098e 97F8EE20 		ldrb	r2, [r7, #238]
 1508 0992 1A70     		strb	r2, [r3]
 681:build/openmote-cc2538_armgcc/openstack/03b-IPv6/forwarding.c ****             // get next hop
 682:build/openmote-cc2538_armgcc/openstack/03b-IPv6/forwarding.c ****             memcpy(&nextAddr,&firstAddr,sizeof(open_addr_t));
 1509              		.loc 1 682 0
 1510 0994 07F1BC04 		add	r4, r7, #188
 1511 0998 07F1D005 		add	r5, r7, #208
 1512 099c 0FCD     		ldmia	r5!, {r0, r1, r2, r3}
 1513 099e 0FC4     		stmia	r4!, {r0, r1, r2, r3}
 1514 09a0 2B68     		ldr	r3, [r5]
 1515 09a2 2370     		strb	r3, [r4]
 683:build/openmote-cc2538_armgcc/openstack/03b-IPv6/forwarding.c ****             switch(type){
 1516              		.loc 1 683 0
 1517 09a4 97F8EE30 		ldrb	r3, [r7, #238]	@ zero_extendqisi2
 1518 09a8 042B     		cmp	r3, #4
 1519 09aa 40D8     		bhi	.L73
 1520 09ac 01A2     		adr	r2, .L75
 1521 09ae 52F823F0 		ldr	pc, [r2, r3, lsl #2]
 1522 09b2 00BF     		.p2align 2
 1523              	.L75:
 1524 09b4 C9090000 		.word	.L74+1
 1525 09b8 D7090000 		.word	.L76+1
 1526 09bc ED090000 		.word	.L77+1
 1527 09c0 030A0000 		.word	.L78+1
 1528 09c4 190A0000 		.word	.L79+1
 1529              		.p2align 1
 1530              	.L74:
 684:build/openmote-cc2538_armgcc/openstack/03b-IPv6/forwarding.c ****             case RH3_6LOTH_TYPE_0:
 685:build/openmote-cc2538_armgcc/openstack/03b-IPv6/forwarding.c ****                 memcpy(&nextAddr.addr_128b[15],msg->payload+2,1);
 1531              		.loc 1 685 0
 1532 09c8 FB68     		ldr	r3, [r7, #12]
 1533 09ca 5B68     		ldr	r3, [r3, #4]
 1534 09cc 0233     		adds	r3, r3, #2
 1535 09ce 1B78     		ldrb	r3, [r3]	@ zero_extendqisi2
 1536 09d0 87F8CC30 		strb	r3, [r7, #204]
 686:build/openmote-cc2538_armgcc/openstack/03b-IPv6/forwarding.c ****                 break;
 1537              		.loc 1 686 0
 1538 09d4 2BE0     		b	.L73
 1539              	.L76:
 687:build/openmote-cc2538_armgcc/openstack/03b-IPv6/forwarding.c ****             case RH3_6LOTH_TYPE_1:
 688:build/openmote-cc2538_armgcc/openstack/03b-IPv6/forwarding.c ****                 memcpy(&nextAddr.addr_128b[14],msg->payload+2,2);
 1540              		.loc 1 688 0
 1541 09d6 FB68     		ldr	r3, [r7, #12]
 1542 09d8 5B68     		ldr	r3, [r3, #4]
 1543 09da 991C     		adds	r1, r3, #2
 1544 09dc 07F1BC03 		add	r3, r7, #188
 1545 09e0 0F33     		adds	r3, r3, #15
 1546 09e2 0222     		movs	r2, #2
 1547 09e4 1846     		mov	r0, r3
 1548 09e6 FFF7FEFF 		bl	memcpy
 689:build/openmote-cc2538_armgcc/openstack/03b-IPv6/forwarding.c ****                 break;
 1549              		.loc 1 689 0
 1550 09ea 20E0     		b	.L73
 1551              	.L77:
 690:build/openmote-cc2538_armgcc/openstack/03b-IPv6/forwarding.c ****             case RH3_6LOTH_TYPE_2:
 691:build/openmote-cc2538_armgcc/openstack/03b-IPv6/forwarding.c ****                 memcpy(&nextAddr.addr_128b[12],msg->payload+2,4);
 1552              		.loc 1 691 0
 1553 09ec FB68     		ldr	r3, [r7, #12]
 1554 09ee 5B68     		ldr	r3, [r3, #4]
 1555 09f0 991C     		adds	r1, r3, #2
 1556 09f2 07F1BC03 		add	r3, r7, #188
 1557 09f6 0D33     		adds	r3, r3, #13
 1558 09f8 0422     		movs	r2, #4
 1559 09fa 1846     		mov	r0, r3
 1560 09fc FFF7FEFF 		bl	memcpy
 692:build/openmote-cc2538_armgcc/openstack/03b-IPv6/forwarding.c ****                 break;
 1561              		.loc 1 692 0
 1562 0a00 15E0     		b	.L73
 1563              	.L78:
 693:build/openmote-cc2538_armgcc/openstack/03b-IPv6/forwarding.c ****             case RH3_6LOTH_TYPE_3:
 694:build/openmote-cc2538_armgcc/openstack/03b-IPv6/forwarding.c ****                 memcpy(&nextAddr.addr_128b[8],msg->payload+2,8);
 1564              		.loc 1 694 0
 1565 0a02 FB68     		ldr	r3, [r7, #12]
 1566 0a04 5B68     		ldr	r3, [r3, #4]
 1567 0a06 991C     		adds	r1, r3, #2
 1568 0a08 07F1BC03 		add	r3, r7, #188
 1569 0a0c 0933     		adds	r3, r3, #9
 1570 0a0e 0822     		movs	r2, #8
 1571 0a10 1846     		mov	r0, r3
 1572 0a12 FFF7FEFF 		bl	memcpy
 695:build/openmote-cc2538_armgcc/openstack/03b-IPv6/forwarding.c ****                 break;
 1573              		.loc 1 695 0
 1574 0a16 0AE0     		b	.L73
 1575              	.L79:
 696:build/openmote-cc2538_armgcc/openstack/03b-IPv6/forwarding.c ****             case RH3_6LOTH_TYPE_4:
 697:build/openmote-cc2538_armgcc/openstack/03b-IPv6/forwarding.c ****                 memcpy(&nextAddr.addr_128b[0],msg->payload+2,16);
 1576              		.loc 1 697 0
 1577 0a18 FB68     		ldr	r3, [r7, #12]
 1578 0a1a 5B68     		ldr	r3, [r3, #4]
 1579 0a1c 991C     		adds	r1, r3, #2
 1580 0a1e 07F1BC03 		add	r3, r7, #188
 1581 0a22 0133     		adds	r3, r3, #1
 1582 0a24 1022     		movs	r2, #16
 1583 0a26 1846     		mov	r0, r3
 1584 0a28 FFF7FEFF 		bl	memcpy
 698:build/openmote-cc2538_armgcc/openstack/03b-IPv6/forwarding.c ****                 break;
 1585              		.loc 1 698 0
 1586 0a2c 00BF     		nop
 1587              	.L73:
 699:build/openmote-cc2538_armgcc/openstack/03b-IPv6/forwarding.c ****             }
 700:build/openmote-cc2538_armgcc/openstack/03b-IPv6/forwarding.c ****             packetfunctions_ip128bToMac64b(
 1588              		.loc 1 700 0
 1589 0a2e FB68     		ldr	r3, [r7, #12]
 1590 0a30 03F13C02 		add	r2, r3, #60
 1591 0a34 07F1A801 		add	r1, r7, #168
 1592 0a38 07F1BC03 		add	r3, r7, #188
 1593 0a3c 1846     		mov	r0, r3
 1594 0a3e FFF7FEFF 		bl	packetfunctions_ip128bToMac64b
 673:build/openmote-cc2538_armgcc/openstack/03b-IPv6/forwarding.c ****             // there are at least 2 entries in the header, 
 1595              		.loc 1 673 0
 1596 0a42 85E1     		b	.L105
 1597              	.L72:
 701:build/openmote-cc2538_armgcc/openstack/03b-IPv6/forwarding.c ****                 &nextAddr,
 702:build/openmote-cc2538_armgcc/openstack/03b-IPv6/forwarding.c ****                 &temp_prefix,
 703:build/openmote-cc2538_armgcc/openstack/03b-IPv6/forwarding.c ****                 &msg->l2_nextORpreviousHop
 704:build/openmote-cc2538_armgcc/openstack/03b-IPv6/forwarding.c ****             );
 705:build/openmote-cc2538_armgcc/openstack/03b-IPv6/forwarding.c ****         } else {
 706:build/openmote-cc2538_armgcc/openstack/03b-IPv6/forwarding.c ****             temp_8b   = *((uint8_t*)(msg->payload)+hlen);
 1598              		.loc 1 706 0
 1599 0a44 FB68     		ldr	r3, [r7, #12]
 1600 0a46 5A68     		ldr	r2, [r3, #4]
 1601 0a48 97F8ED30 		ldrb	r3, [r7, #237]	@ zero_extendqisi2
 1602 0a4c 1344     		add	r3, r3, r2
 1603 0a4e 1B78     		ldrb	r3, [r3]
 1604 0a50 87F8EF30 		strb	r3, [r7, #239]
 707:build/openmote-cc2538_armgcc/openstack/03b-IPv6/forwarding.c ****             next_type = *((uint8_t*)(msg->payload)+hlen+1);
 1605              		.loc 1 707 0
 1606 0a54 FB68     		ldr	r3, [r7, #12]
 1607 0a56 5A68     		ldr	r2, [r3, #4]
 1608 0a58 97F8ED30 		ldrb	r3, [r7, #237]	@ zero_extendqisi2
 1609 0a5c 0133     		adds	r3, r3, #1
 1610 0a5e 1344     		add	r3, r3, r2
 1611 0a60 1B78     		ldrb	r3, [r3]
 1612 0a62 87F8E830 		strb	r3, [r7, #232]
 708:build/openmote-cc2538_armgcc/openstack/03b-IPv6/forwarding.c ****             if (
 709:build/openmote-cc2538_armgcc/openstack/03b-IPv6/forwarding.c ****                 (temp_8b & FORMAT_6LORH_MASK) == CRITICAL_6LORH &&
 1613              		.loc 1 709 0
 1614 0a66 97F8EF30 		ldrb	r3, [r7, #239]	@ zero_extendqisi2
 1615 0a6a 03F0E003 		and	r3, r3, #224
 708:build/openmote-cc2538_armgcc/openstack/03b-IPv6/forwarding.c ****             if (
 1616              		.loc 1 708 0
 1617 0a6e 802B     		cmp	r3, #128
 1618 0a70 40F05381 		bne	.L81
 1619              		.loc 1 709 0
 1620 0a74 97F8E830 		ldrb	r3, [r7, #232]	@ zero_extendqisi2
 1621 0a78 042B     		cmp	r3, #4
 1622 0a7a 00F24E81 		bhi	.L81
 710:build/openmote-cc2538_armgcc/openstack/03b-IPv6/forwarding.c ****                 next_type<=RH3_6LOTH_TYPE_4
 711:build/openmote-cc2538_armgcc/openstack/03b-IPv6/forwarding.c ****             ) {
 712:build/openmote-cc2538_armgcc/openstack/03b-IPv6/forwarding.c ****                 // there is another RH3-6LoRH following, check the type
 713:build/openmote-cc2538_armgcc/openstack/03b-IPv6/forwarding.c ****                 if (next_type >= type){
 1623              		.loc 1 713 0
 1624 0a7e 97F8E820 		ldrb	r2, [r7, #232]	@ zero_extendqisi2
 1625 0a82 97F8EE30 		ldrb	r3, [r7, #238]	@ zero_extendqisi2
 1626 0a86 9A42     		cmp	r2, r3
 1627 0a88 5CD3     		bcc	.L82
 714:build/openmote-cc2538_armgcc/openstack/03b-IPv6/forwarding.c ****                     packetfunctions_tossHeader(msg,hlen);
 1628              		.loc 1 714 0
 1629 0a8a 97F8ED30 		ldrb	r3, [r7, #237]	@ zero_extendqisi2
 1630 0a8e 1946     		mov	r1, r3
 1631 0a90 F868     		ldr	r0, [r7, #12]
 1632 0a92 FFF7FEFF 		bl	packetfunctions_tossHeader
 715:build/openmote-cc2538_armgcc/openstack/03b-IPv6/forwarding.c ****                     // get next hop
 716:build/openmote-cc2538_armgcc/openstack/03b-IPv6/forwarding.c ****                     memcpy(&nextAddr,&firstAddr,sizeof(open_addr_t));
 1633              		.loc 1 716 0
 1634 0a96 07F1BC04 		add	r4, r7, #188
 1635 0a9a 07F1D005 		add	r5, r7, #208
 1636 0a9e 0FCD     		ldmia	r5!, {r0, r1, r2, r3}
 1637 0aa0 0FC4     		stmia	r4!, {r0, r1, r2, r3}
 1638 0aa2 2B68     		ldr	r3, [r5]
 1639 0aa4 2370     		strb	r3, [r4]
 717:build/openmote-cc2538_armgcc/openstack/03b-IPv6/forwarding.c ****                     switch(next_type){
 1640              		.loc 1 717 0
 1641 0aa6 97F8E830 		ldrb	r3, [r7, #232]	@ zero_extendqisi2
 1642 0aaa 042B     		cmp	r3, #4
 1643 0aac 3FD8     		bhi	.L83
 1644 0aae 01A2     		adr	r2, .L85
 1645 0ab0 52F823F0 		ldr	pc, [r2, r3, lsl #2]
 1646              		.p2align 2
 1647              	.L85:
 1648 0ab4 C90A0000 		.word	.L84+1
 1649 0ab8 D70A0000 		.word	.L86+1
 1650 0abc ED0A0000 		.word	.L87+1
 1651 0ac0 030B0000 		.word	.L88+1
 1652 0ac4 190B0000 		.word	.L89+1
 1653              		.p2align 1
 1654              	.L84:
 718:build/openmote-cc2538_armgcc/openstack/03b-IPv6/forwarding.c ****                     case RH3_6LOTH_TYPE_0:
 719:build/openmote-cc2538_armgcc/openstack/03b-IPv6/forwarding.c ****                         memcpy(&nextAddr.addr_128b[15],msg->payload+2,1);
 1655              		.loc 1 719 0
 1656 0ac8 FB68     		ldr	r3, [r7, #12]
 1657 0aca 5B68     		ldr	r3, [r3, #4]
 1658 0acc 0233     		adds	r3, r3, #2
 1659 0ace 1B78     		ldrb	r3, [r3]	@ zero_extendqisi2
 1660 0ad0 87F8CC30 		strb	r3, [r7, #204]
 720:build/openmote-cc2538_armgcc/openstack/03b-IPv6/forwarding.c ****                         break;
 1661              		.loc 1 720 0
 1662 0ad4 2BE0     		b	.L83
 1663              	.L86:
 721:build/openmote-cc2538_armgcc/openstack/03b-IPv6/forwarding.c ****                     case RH3_6LOTH_TYPE_1:
 722:build/openmote-cc2538_armgcc/openstack/03b-IPv6/forwarding.c ****                         memcpy(&nextAddr.addr_128b[14],msg->payload+2,2);
 1664              		.loc 1 722 0
 1665 0ad6 FB68     		ldr	r3, [r7, #12]
 1666 0ad8 5B68     		ldr	r3, [r3, #4]
 1667 0ada 991C     		adds	r1, r3, #2
 1668 0adc 07F1BC03 		add	r3, r7, #188
 1669 0ae0 0F33     		adds	r3, r3, #15
 1670 0ae2 0222     		movs	r2, #2
 1671 0ae4 1846     		mov	r0, r3
 1672 0ae6 FFF7FEFF 		bl	memcpy
 723:build/openmote-cc2538_armgcc/openstack/03b-IPv6/forwarding.c ****                         break;
 1673              		.loc 1 723 0
 1674 0aea 20E0     		b	.L83
 1675              	.L87:
 724:build/openmote-cc2538_armgcc/openstack/03b-IPv6/forwarding.c ****                     case RH3_6LOTH_TYPE_2:
 725:build/openmote-cc2538_armgcc/openstack/03b-IPv6/forwarding.c ****                         memcpy(&nextAddr.addr_128b[12],msg->payload+2,4);
 1676              		.loc 1 725 0
 1677 0aec FB68     		ldr	r3, [r7, #12]
 1678 0aee 5B68     		ldr	r3, [r3, #4]
 1679 0af0 991C     		adds	r1, r3, #2
 1680 0af2 07F1BC03 		add	r3, r7, #188
 1681 0af6 0D33     		adds	r3, r3, #13
 1682 0af8 0422     		movs	r2, #4
 1683 0afa 1846     		mov	r0, r3
 1684 0afc FFF7FEFF 		bl	memcpy
 726:build/openmote-cc2538_armgcc/openstack/03b-IPv6/forwarding.c ****                         break;
 1685              		.loc 1 726 0
 1686 0b00 15E0     		b	.L83
 1687              	.L88:
 727:build/openmote-cc2538_armgcc/openstack/03b-IPv6/forwarding.c ****                     case RH3_6LOTH_TYPE_3:
 728:build/openmote-cc2538_armgcc/openstack/03b-IPv6/forwarding.c ****                         memcpy(&nextAddr.addr_128b[8],msg->payload+2,8);
 1688              		.loc 1 728 0
 1689 0b02 FB68     		ldr	r3, [r7, #12]
 1690 0b04 5B68     		ldr	r3, [r3, #4]
 1691 0b06 991C     		adds	r1, r3, #2
 1692 0b08 07F1BC03 		add	r3, r7, #188
 1693 0b0c 0933     		adds	r3, r3, #9
 1694 0b0e 0822     		movs	r2, #8
 1695 0b10 1846     		mov	r0, r3
 1696 0b12 FFF7FEFF 		bl	memcpy
 729:build/openmote-cc2538_armgcc/openstack/03b-IPv6/forwarding.c ****                         break;
 1697              		.loc 1 729 0
 1698 0b16 0AE0     		b	.L83
 1699              	.L89:
 730:build/openmote-cc2538_armgcc/openstack/03b-IPv6/forwarding.c ****                     case RH3_6LOTH_TYPE_4:
 731:build/openmote-cc2538_armgcc/openstack/03b-IPv6/forwarding.c ****                         memcpy(&nextAddr.addr_128b[0],msg->payload+2,16);
 1700              		.loc 1 731 0
 1701 0b18 FB68     		ldr	r3, [r7, #12]
 1702 0b1a 5B68     		ldr	r3, [r3, #4]
 1703 0b1c 991C     		adds	r1, r3, #2
 1704 0b1e 07F1BC03 		add	r3, r7, #188
 1705 0b22 0133     		adds	r3, r3, #1
 1706 0b24 1022     		movs	r2, #16
 1707 0b26 1846     		mov	r0, r3
 1708 0b28 FFF7FEFF 		bl	memcpy
 732:build/openmote-cc2538_armgcc/openstack/03b-IPv6/forwarding.c ****                         break;
 1709              		.loc 1 732 0
 1710 0b2c 00BF     		nop
 1711              	.L83:
 733:build/openmote-cc2538_armgcc/openstack/03b-IPv6/forwarding.c ****                     }
 734:build/openmote-cc2538_armgcc/openstack/03b-IPv6/forwarding.c ****                     packetfunctions_ip128bToMac64b(
 1712              		.loc 1 734 0
 1713 0b2e FB68     		ldr	r3, [r7, #12]
 1714 0b30 03F13C02 		add	r2, r3, #60
 1715 0b34 07F1A801 		add	r1, r7, #168
 1716 0b38 07F1BC03 		add	r3, r7, #188
 1717 0b3c 1846     		mov	r0, r3
 1718 0b3e FFF7FEFF 		bl	packetfunctions_ip128bToMac64b
 713:build/openmote-cc2538_armgcc/openstack/03b-IPv6/forwarding.c ****                     packetfunctions_tossHeader(msg,hlen);
 1719              		.loc 1 713 0
 1720 0b42 FCE0     		b	.L80
 1721              	.L82:
 735:build/openmote-cc2538_armgcc/openstack/03b-IPv6/forwarding.c ****                         &nextAddr,
 736:build/openmote-cc2538_armgcc/openstack/03b-IPv6/forwarding.c ****                         &temp_prefix,
 737:build/openmote-cc2538_armgcc/openstack/03b-IPv6/forwarding.c ****                         &msg->l2_nextORpreviousHop
 738:build/openmote-cc2538_armgcc/openstack/03b-IPv6/forwarding.c ****                     );
 739:build/openmote-cc2538_armgcc/openstack/03b-IPv6/forwarding.c ****                 } else {
 740:build/openmote-cc2538_armgcc/openstack/03b-IPv6/forwarding.c ****                     hlen += 2;
 1722              		.loc 1 740 0
 1723 0b44 97F8ED30 		ldrb	r3, [r7, #237]
 1724 0b48 0233     		adds	r3, r3, #2
 1725 0b4a 87F8ED30 		strb	r3, [r7, #237]
 741:build/openmote-cc2538_armgcc/openstack/03b-IPv6/forwarding.c ****                     switch(next_type){
 1726              		.loc 1 741 0
 1727 0b4e 97F8E830 		ldrb	r3, [r7, #232]	@ zero_extendqisi2
 1728 0b52 032B     		cmp	r3, #3
 1729 0b54 4ED8     		bhi	.L91
 1730 0b56 01A2     		adr	r2, .L93
 1731 0b58 52F823F0 		ldr	pc, [r2, r3, lsl #2]
 1732              		.p2align 2
 1733              	.L93:
 1734 0b5c 6D0B0000 		.word	.L92+1
 1735 0b60 890B0000 		.word	.L94+1
 1736 0b64 AD0B0000 		.word	.L95+1
 1737 0b68 D10B0000 		.word	.L96+1
 1738              		.p2align 1
 1739              	.L92:
 742:build/openmote-cc2538_armgcc/openstack/03b-IPv6/forwarding.c ****                     case RH3_6LOTH_TYPE_0:
 743:build/openmote-cc2538_armgcc/openstack/03b-IPv6/forwarding.c ****                         memcpy(&firstAddr.addr_128b[15],msg->payload+hlen,1);
 1740              		.loc 1 743 0
 1741 0b6c FB68     		ldr	r3, [r7, #12]
 1742 0b6e 5A68     		ldr	r2, [r3, #4]
 1743 0b70 97F8ED30 		ldrb	r3, [r7, #237]	@ zero_extendqisi2
 1744 0b74 1344     		add	r3, r3, r2
 1745 0b76 1B78     		ldrb	r3, [r3]	@ zero_extendqisi2
 1746 0b78 87F8E030 		strb	r3, [r7, #224]
 744:build/openmote-cc2538_armgcc/openstack/03b-IPv6/forwarding.c ****                         hlen += 1;
 1747              		.loc 1 744 0
 1748 0b7c 97F8ED30 		ldrb	r3, [r7, #237]
 1749 0b80 0133     		adds	r3, r3, #1
 1750 0b82 87F8ED30 		strb	r3, [r7, #237]
 745:build/openmote-cc2538_armgcc/openstack/03b-IPv6/forwarding.c ****                         break;
 1751              		.loc 1 745 0
 1752 0b86 35E0     		b	.L91
 1753              	.L94:
 746:build/openmote-cc2538_armgcc/openstack/03b-IPv6/forwarding.c ****                     case RH3_6LOTH_TYPE_1:
 747:build/openmote-cc2538_armgcc/openstack/03b-IPv6/forwarding.c ****                         memcpy(&firstAddr.addr_128b[14],msg->payload+hlen,2);
 1754              		.loc 1 747 0
 1755 0b88 FB68     		ldr	r3, [r7, #12]
 1756 0b8a 5A68     		ldr	r2, [r3, #4]
 1757 0b8c 97F8ED30 		ldrb	r3, [r7, #237]	@ zero_extendqisi2
 1758 0b90 D118     		adds	r1, r2, r3
 1759 0b92 07F1D003 		add	r3, r7, #208
 1760 0b96 0F33     		adds	r3, r3, #15
 1761 0b98 0222     		movs	r2, #2
 1762 0b9a 1846     		mov	r0, r3
 1763 0b9c FFF7FEFF 		bl	memcpy
 748:build/openmote-cc2538_armgcc/openstack/03b-IPv6/forwarding.c ****                         hlen += 2;
 1764              		.loc 1 748 0
 1765 0ba0 97F8ED30 		ldrb	r3, [r7, #237]
 1766 0ba4 0233     		adds	r3, r3, #2
 1767 0ba6 87F8ED30 		strb	r3, [r7, #237]
 749:build/openmote-cc2538_armgcc/openstack/03b-IPv6/forwarding.c ****                         break;
 1768              		.loc 1 749 0
 1769 0baa 23E0     		b	.L91
 1770              	.L95:
 750:build/openmote-cc2538_armgcc/openstack/03b-IPv6/forwarding.c ****                     case RH3_6LOTH_TYPE_2:
 751:build/openmote-cc2538_armgcc/openstack/03b-IPv6/forwarding.c ****                         memcpy(&firstAddr.addr_128b[12],msg->payload+hlen,4);
 1771              		.loc 1 751 0
 1772 0bac FB68     		ldr	r3, [r7, #12]
 1773 0bae 5A68     		ldr	r2, [r3, #4]
 1774 0bb0 97F8ED30 		ldrb	r3, [r7, #237]	@ zero_extendqisi2
 1775 0bb4 D118     		adds	r1, r2, r3
 1776 0bb6 07F1D003 		add	r3, r7, #208
 1777 0bba 0D33     		adds	r3, r3, #13
 1778 0bbc 0422     		movs	r2, #4
 1779 0bbe 1846     		mov	r0, r3
 1780 0bc0 FFF7FEFF 		bl	memcpy
 752:build/openmote-cc2538_armgcc/openstack/03b-IPv6/forwarding.c ****                         hlen += 4;
 1781              		.loc 1 752 0
 1782 0bc4 97F8ED30 		ldrb	r3, [r7, #237]
 1783 0bc8 0433     		adds	r3, r3, #4
 1784 0bca 87F8ED30 		strb	r3, [r7, #237]
 753:build/openmote-cc2538_armgcc/openstack/03b-IPv6/forwarding.c ****                         break;
 1785              		.loc 1 753 0
 1786 0bce 11E0     		b	.L91
 1787              	.L96:
 754:build/openmote-cc2538_armgcc/openstack/03b-IPv6/forwarding.c ****                     case RH3_6LOTH_TYPE_3:
 755:build/openmote-cc2538_armgcc/openstack/03b-IPv6/forwarding.c ****                         memcpy(&firstAddr.addr_128b[8],msg->payload+hlen,8);
 1788              		.loc 1 755 0
 1789 0bd0 FB68     		ldr	r3, [r7, #12]
 1790 0bd2 5A68     		ldr	r2, [r3, #4]
 1791 0bd4 97F8ED30 		ldrb	r3, [r7, #237]	@ zero_extendqisi2
 1792 0bd8 D118     		adds	r1, r2, r3
 1793 0bda 07F1D003 		add	r3, r7, #208
 1794 0bde 0933     		adds	r3, r3, #9
 1795 0be0 0822     		movs	r2, #8
 1796 0be2 1846     		mov	r0, r3
 1797 0be4 FFF7FEFF 		bl	memcpy
 756:build/openmote-cc2538_armgcc/openstack/03b-IPv6/forwarding.c ****                         hlen += 8;
 1798              		.loc 1 756 0
 1799 0be8 97F8ED30 		ldrb	r3, [r7, #237]
 1800 0bec 0833     		adds	r3, r3, #8
 1801 0bee 87F8ED30 		strb	r3, [r7, #237]
 757:build/openmote-cc2538_armgcc/openstack/03b-IPv6/forwarding.c ****                         break;
 1802              		.loc 1 757 0
 1803 0bf2 00BF     		nop
 1804              	.L91:
 758:build/openmote-cc2538_armgcc/openstack/03b-IPv6/forwarding.c ****                     }
 759:build/openmote-cc2538_armgcc/openstack/03b-IPv6/forwarding.c ****                     next_size = temp_8b & RH3_6LOTH_SIZE_MASK;
 1805              		.loc 1 759 0
 1806 0bf4 97F8EF30 		ldrb	r3, [r7, #239]
 1807 0bf8 03F01F03 		and	r3, r3, #31
 1808 0bfc 87F8E730 		strb	r3, [r7, #231]
 760:build/openmote-cc2538_armgcc/openstack/03b-IPv6/forwarding.c ****                     packetfunctions_tossHeader(msg,hlen);
 1809              		.loc 1 760 0
 1810 0c00 97F8ED30 		ldrb	r3, [r7, #237]	@ zero_extendqisi2
 1811 0c04 1946     		mov	r1, r3
 1812 0c06 F868     		ldr	r0, [r7, #12]
 1813 0c08 FFF7FEFF 		bl	packetfunctions_tossHeader
 761:build/openmote-cc2538_armgcc/openstack/03b-IPv6/forwarding.c ****                     if (next_size>0){
 1814              		.loc 1 761 0
 1815 0c0c 97F8E730 		ldrb	r3, [r7, #231]	@ zero_extendqisi2
 1816 0c10 002B     		cmp	r3, #0
 1817 0c12 16D0     		beq	.L97
 762:build/openmote-cc2538_armgcc/openstack/03b-IPv6/forwarding.c ****                         next_size -= 1;
 1818              		.loc 1 762 0
 1819 0c14 97F8E730 		ldrb	r3, [r7, #231]
 1820 0c18 013B     		subs	r3, r3, #1
 1821 0c1a 87F8E730 		strb	r3, [r7, #231]
 763:build/openmote-cc2538_armgcc/openstack/03b-IPv6/forwarding.c ****                         packetfunctions_reserveHeaderSize(msg,2);
 1822              		.loc 1 763 0
 1823 0c1e 0221     		movs	r1, #2
 1824 0c20 F868     		ldr	r0, [r7, #12]
 1825 0c22 FFF7FEFF 		bl	packetfunctions_reserveHeaderSize
 764:build/openmote-cc2538_armgcc/openstack/03b-IPv6/forwarding.c ****                         msg->payload[0] = CRITICAL_6LORH | next_size;
 1826              		.loc 1 764 0
 1827 0c26 FB68     		ldr	r3, [r7, #12]
 1828 0c28 5B68     		ldr	r3, [r3, #4]
 1829 0c2a 97F8E720 		ldrb	r2, [r7, #231]
 1830 0c2e 62F07F02 		orn	r2, r2, #127
 1831 0c32 D2B2     		uxtb	r2, r2
 1832 0c34 1A70     		strb	r2, [r3]
 765:build/openmote-cc2538_armgcc/openstack/03b-IPv6/forwarding.c ****                         msg->payload[1] = next_type;
 1833              		.loc 1 765 0
 1834 0c36 FB68     		ldr	r3, [r7, #12]
 1835 0c38 5B68     		ldr	r3, [r3, #4]
 1836 0c3a 0133     		adds	r3, r3, #1
 1837 0c3c 97F8E820 		ldrb	r2, [r7, #232]
 1838 0c40 1A70     		strb	r2, [r3]
 1839              	.L97:
 766:build/openmote-cc2538_armgcc/openstack/03b-IPv6/forwarding.c ****                     }
 767:build/openmote-cc2538_armgcc/openstack/03b-IPv6/forwarding.c ****                     // add first address
 768:build/openmote-cc2538_armgcc/openstack/03b-IPv6/forwarding.c ****                     switch(type){
 1840              		.loc 1 768 0
 1841 0c42 97F8EE30 		ldrb	r3, [r7, #238]	@ zero_extendqisi2
 1842 0c46 042B     		cmp	r3, #4
 1843 0c48 4ED8     		bhi	.L98
 1844 0c4a 01A2     		adr	r2, .L100
 1845 0c4c 52F823F0 		ldr	pc, [r2, r3, lsl #2]
 1846              		.p2align 2
 1847              	.L100:
 1848 0c50 650C0000 		.word	.L99+1
 1849 0c54 790C0000 		.word	.L101+1
 1850 0c58 950C0000 		.word	.L102+1
 1851 0c5c B10C0000 		.word	.L103+1
 1852 0c60 CD0C0000 		.word	.L104+1
 1853              		.p2align 1
 1854              	.L99:
 769:build/openmote-cc2538_armgcc/openstack/03b-IPv6/forwarding.c ****                     case RH3_6LOTH_TYPE_0:
 770:build/openmote-cc2538_armgcc/openstack/03b-IPv6/forwarding.c ****                         packetfunctions_reserveHeaderSize(msg,1);
 1855              		.loc 1 770 0
 1856 0c64 0121     		movs	r1, #1
 1857 0c66 F868     		ldr	r0, [r7, #12]
 1858 0c68 FFF7FEFF 		bl	packetfunctions_reserveHeaderSize
 771:build/openmote-cc2538_armgcc/openstack/03b-IPv6/forwarding.c ****                         msg->payload[0] = firstAddr.addr_128b[15];
 1859              		.loc 1 771 0
 1860 0c6c FB68     		ldr	r3, [r7, #12]
 1861 0c6e 5B68     		ldr	r3, [r3, #4]
 1862 0c70 97F8E020 		ldrb	r2, [r7, #224]	@ zero_extendqisi2
 1863 0c74 1A70     		strb	r2, [r3]
 772:build/openmote-cc2538_armgcc/openstack/03b-IPv6/forwarding.c ****                         break;
 1864              		.loc 1 772 0
 1865 0c76 37E0     		b	.L98
 1866              	.L101:
 773:build/openmote-cc2538_armgcc/openstack/03b-IPv6/forwarding.c ****                     case RH3_6LOTH_TYPE_1:
 774:build/openmote-cc2538_armgcc/openstack/03b-IPv6/forwarding.c ****                         packetfunctions_reserveHeaderSize(msg,2);
 1867              		.loc 1 774 0
 1868 0c78 0221     		movs	r1, #2
 1869 0c7a F868     		ldr	r0, [r7, #12]
 1870 0c7c FFF7FEFF 		bl	packetfunctions_reserveHeaderSize
 775:build/openmote-cc2538_armgcc/openstack/03b-IPv6/forwarding.c ****                         memcpy(&msg->payload[0],&firstAddr.addr_128b[14],2);
 1871              		.loc 1 775 0
 1872 0c80 FB68     		ldr	r3, [r7, #12]
 1873 0c82 5868     		ldr	r0, [r3, #4]
 1874 0c84 07F1D003 		add	r3, r7, #208
 1875 0c88 0F33     		adds	r3, r3, #15
 1876 0c8a 0222     		movs	r2, #2
 1877 0c8c 1946     		mov	r1, r3
 1878 0c8e FFF7FEFF 		bl	memcpy
 776:build/openmote-cc2538_armgcc/openstack/03b-IPv6/forwarding.c ****                         break;
 1879              		.loc 1 776 0
 1880 0c92 29E0     		b	.L98
 1881              	.L102:
 777:build/openmote-cc2538_armgcc/openstack/03b-IPv6/forwarding.c ****                     case RH3_6LOTH_TYPE_2:
 778:build/openmote-cc2538_armgcc/openstack/03b-IPv6/forwarding.c ****                         packetfunctions_reserveHeaderSize(msg,4);
 1882              		.loc 1 778 0
 1883 0c94 0421     		movs	r1, #4
 1884 0c96 F868     		ldr	r0, [r7, #12]
 1885 0c98 FFF7FEFF 		bl	packetfunctions_reserveHeaderSize
 779:build/openmote-cc2538_armgcc/openstack/03b-IPv6/forwarding.c ****                         memcpy(&msg->payload[0],&firstAddr.addr_128b[12],4);
 1886              		.loc 1 779 0
 1887 0c9c FB68     		ldr	r3, [r7, #12]
 1888 0c9e 5868     		ldr	r0, [r3, #4]
 1889 0ca0 07F1D003 		add	r3, r7, #208
 1890 0ca4 0D33     		adds	r3, r3, #13
 1891 0ca6 0422     		movs	r2, #4
 1892 0ca8 1946     		mov	r1, r3
 1893 0caa FFF7FEFF 		bl	memcpy
 780:build/openmote-cc2538_armgcc/openstack/03b-IPv6/forwarding.c ****                         break;
 1894              		.loc 1 780 0
 1895 0cae 1BE0     		b	.L98
 1896              	.L103:
 781:build/openmote-cc2538_armgcc/openstack/03b-IPv6/forwarding.c ****                     case RH3_6LOTH_TYPE_3:
 782:build/openmote-cc2538_armgcc/openstack/03b-IPv6/forwarding.c ****                         packetfunctions_reserveHeaderSize(msg,8);
 1897              		.loc 1 782 0
 1898 0cb0 0821     		movs	r1, #8
 1899 0cb2 F868     		ldr	r0, [r7, #12]
 1900 0cb4 FFF7FEFF 		bl	packetfunctions_reserveHeaderSize
 783:build/openmote-cc2538_armgcc/openstack/03b-IPv6/forwarding.c ****                         memcpy(&msg->payload[0],&firstAddr.addr_128b[8],8);
 1901              		.loc 1 783 0
 1902 0cb8 FB68     		ldr	r3, [r7, #12]
 1903 0cba 5868     		ldr	r0, [r3, #4]
 1904 0cbc 07F1D003 		add	r3, r7, #208
 1905 0cc0 0933     		adds	r3, r3, #9
 1906 0cc2 0822     		movs	r2, #8
 1907 0cc4 1946     		mov	r1, r3
 1908 0cc6 FFF7FEFF 		bl	memcpy
 784:build/openmote-cc2538_armgcc/openstack/03b-IPv6/forwarding.c ****                         break;
 1909              		.loc 1 784 0
 1910 0cca 0DE0     		b	.L98
 1911              	.L104:
 785:build/openmote-cc2538_armgcc/openstack/03b-IPv6/forwarding.c ****                     case RH3_6LOTH_TYPE_4:
 786:build/openmote-cc2538_armgcc/openstack/03b-IPv6/forwarding.c ****                         packetfunctions_reserveHeaderSize(msg,16);
 1912              		.loc 1 786 0
 1913 0ccc 1021     		movs	r1, #16
 1914 0cce F868     		ldr	r0, [r7, #12]
 1915 0cd0 FFF7FEFF 		bl	packetfunctions_reserveHeaderSize
 787:build/openmote-cc2538_armgcc/openstack/03b-IPv6/forwarding.c ****                         memcpy(&msg->payload[0],&firstAddr.addr_128b[0],16);
 1916              		.loc 1 787 0
 1917 0cd4 FB68     		ldr	r3, [r7, #12]
 1918 0cd6 5868     		ldr	r0, [r3, #4]
 1919 0cd8 07F1D003 		add	r3, r7, #208
 1920 0cdc 0133     		adds	r3, r3, #1
 1921 0cde 1022     		movs	r2, #16
 1922 0ce0 1946     		mov	r1, r3
 1923 0ce2 FFF7FEFF 		bl	memcpy
 788:build/openmote-cc2538_armgcc/openstack/03b-IPv6/forwarding.c ****                         break;
 1924              		.loc 1 788 0
 1925 0ce6 00BF     		nop
 1926              	.L98:
 789:build/openmote-cc2538_armgcc/openstack/03b-IPv6/forwarding.c ****                     }
 790:build/openmote-cc2538_armgcc/openstack/03b-IPv6/forwarding.c ****                     packetfunctions_reserveHeaderSize(msg,2);
 1927              		.loc 1 790 0
 1928 0ce8 0221     		movs	r1, #2
 1929 0cea F868     		ldr	r0, [r7, #12]
 1930 0cec FFF7FEFF 		bl	packetfunctions_reserveHeaderSize
 791:build/openmote-cc2538_armgcc/openstack/03b-IPv6/forwarding.c ****                     msg->payload[0] = CRITICAL_6LORH | 0;
 1931              		.loc 1 791 0
 1932 0cf0 FB68     		ldr	r3, [r7, #12]
 1933 0cf2 5B68     		ldr	r3, [r3, #4]
 1934 0cf4 8022     		movs	r2, #128
 1935 0cf6 1A70     		strb	r2, [r3]
 792:build/openmote-cc2538_armgcc/openstack/03b-IPv6/forwarding.c ****                     msg->payload[1] = type;
 1936              		.loc 1 792 0
 1937 0cf8 FB68     		ldr	r3, [r7, #12]
 1938 0cfa 5B68     		ldr	r3, [r3, #4]
 1939 0cfc 0133     		adds	r3, r3, #1
 1940 0cfe 97F8EE20 		ldrb	r2, [r7, #238]
 1941 0d02 1A70     		strb	r2, [r3]
 793:build/openmote-cc2538_armgcc/openstack/03b-IPv6/forwarding.c ****                     packetfunctions_ip128bToMac64b(
 1942              		.loc 1 793 0
 1943 0d04 FB68     		ldr	r3, [r7, #12]
 1944 0d06 03F13C02 		add	r2, r3, #60
 1945 0d0a 07F1A801 		add	r1, r7, #168
 1946 0d0e 07F1D003 		add	r3, r7, #208
 1947 0d12 1846     		mov	r0, r3
 1948 0d14 FFF7FEFF 		bl	packetfunctions_ip128bToMac64b
 713:build/openmote-cc2538_armgcc/openstack/03b-IPv6/forwarding.c ****                     packetfunctions_tossHeader(msg,hlen);
 1949              		.loc 1 713 0
 1950 0d18 11E0     		b	.L80
 1951              	.L81:
 794:build/openmote-cc2538_armgcc/openstack/03b-IPv6/forwarding.c ****                         &firstAddr,
 795:build/openmote-cc2538_armgcc/openstack/03b-IPv6/forwarding.c ****                         &temp_prefix,
 796:build/openmote-cc2538_armgcc/openstack/03b-IPv6/forwarding.c ****                         &msg->l2_nextORpreviousHop
 797:build/openmote-cc2538_armgcc/openstack/03b-IPv6/forwarding.c ****                     );
 798:build/openmote-cc2538_armgcc/openstack/03b-IPv6/forwarding.c ****                 }
 799:build/openmote-cc2538_armgcc/openstack/03b-IPv6/forwarding.c ****             } else {
 800:build/openmote-cc2538_armgcc/openstack/03b-IPv6/forwarding.c ****                 // there is no next RH3-6loRH, remove current one
 801:build/openmote-cc2538_armgcc/openstack/03b-IPv6/forwarding.c ****                 packetfunctions_tossHeader(msg,hlen);
 1952              		.loc 1 801 0
 1953 0d1a 97F8ED30 		ldrb	r3, [r7, #237]	@ zero_extendqisi2
 1954 0d1e 1946     		mov	r1, r3
 1955 0d20 F868     		ldr	r0, [r7, #12]
 1956 0d22 FFF7FEFF 		bl	packetfunctions_tossHeader
 802:build/openmote-cc2538_armgcc/openstack/03b-IPv6/forwarding.c ****                 packetfunctions_ip128bToMac64b(
 1957              		.loc 1 802 0
 1958 0d26 FB68     		ldr	r3, [r7, #12]
 1959 0d28 03F11900 		add	r0, r3, #25
 1960 0d2c FB68     		ldr	r3, [r7, #12]
 1961 0d2e 03F13C02 		add	r2, r3, #60
 1962 0d32 07F1A803 		add	r3, r7, #168
 1963 0d36 1946     		mov	r1, r3
 1964 0d38 FFF7FEFF 		bl	packetfunctions_ip128bToMac64b
 673:build/openmote-cc2538_armgcc/openstack/03b-IPv6/forwarding.c ****             // there are at least 2 entries in the header, 
 1965              		.loc 1 673 0
 1966 0d3c 08E0     		b	.L105
 1967              	.L80:
 673:build/openmote-cc2538_armgcc/openstack/03b-IPv6/forwarding.c ****             // there are at least 2 entries in the header, 
 1968              		.loc 1 673 0 is_stmt 0 discriminator 1
 1969 0d3e 07E0     		b	.L105
 1970              	.L71:
 803:build/openmote-cc2538_armgcc/openstack/03b-IPv6/forwarding.c ****                     &msg->l3_destinationAdd,
 804:build/openmote-cc2538_armgcc/openstack/03b-IPv6/forwarding.c ****                     &temp_prefix,
 805:build/openmote-cc2538_armgcc/openstack/03b-IPv6/forwarding.c ****                     &msg->l2_nextORpreviousHop
 806:build/openmote-cc2538_armgcc/openstack/03b-IPv6/forwarding.c ****                 );
 807:build/openmote-cc2538_armgcc/openstack/03b-IPv6/forwarding.c ****             }
 808:build/openmote-cc2538_armgcc/openstack/03b-IPv6/forwarding.c ****         }
 809:build/openmote-cc2538_armgcc/openstack/03b-IPv6/forwarding.c ****     } else {
 810:build/openmote-cc2538_armgcc/openstack/03b-IPv6/forwarding.c ****         // log error
 811:build/openmote-cc2538_armgcc/openstack/03b-IPv6/forwarding.c ****         openserial_printError(
 812:build/openmote-cc2538_armgcc/openstack/03b-IPv6/forwarding.c ****             COMPONENT_IPHC,
 813:build/openmote-cc2538_armgcc/openstack/03b-IPv6/forwarding.c ****             ERR_6LOWPAN_UNSUPPORTED,
 814:build/openmote-cc2538_armgcc/openstack/03b-IPv6/forwarding.c ****             (errorparameter_t)16,
 815:build/openmote-cc2538_armgcc/openstack/03b-IPv6/forwarding.c ****             (errorparameter_t)(temp_addr64.addr_64b[7])
 1971              		.loc 1 815 0 is_stmt 1
 1972 0d40 97F89C30 		ldrb	r3, [r7, #156]	@ zero_extendqisi2
 811:build/openmote-cc2538_armgcc/openstack/03b-IPv6/forwarding.c ****             COMPONENT_IPHC,
 1973              		.loc 1 811 0
 1974 0d44 9BB2     		uxth	r3, r3
 1975 0d46 1022     		movs	r2, #16
 1976 0d48 0C21     		movs	r1, #12
 1977 0d4a 1220     		movs	r0, #18
 1978 0d4c FFF7FEFF 		bl	openserial_printError
 1979              	.L105:
 816:build/openmote-cc2538_armgcc/openstack/03b-IPv6/forwarding.c ****         );
 817:build/openmote-cc2538_armgcc/openstack/03b-IPv6/forwarding.c ****     }
 818:build/openmote-cc2538_armgcc/openstack/03b-IPv6/forwarding.c ****     // copy RH3s before toss them
 819:build/openmote-cc2538_armgcc/openstack/03b-IPv6/forwarding.c ****     if (
 820:build/openmote-cc2538_armgcc/openstack/03b-IPv6/forwarding.c ****         ipv6_outer_header->src.type != ADDR_NONE &&
 1980              		.loc 1 820 0
 1981 0d50 BB68     		ldr	r3, [r7, #8]
 1982 0d52 93F82230 		ldrb	r3, [r3, #34]	@ zero_extendqisi2
 819:build/openmote-cc2538_armgcc/openstack/03b-IPv6/forwarding.c ****         ipv6_outer_header->src.type != ADDR_NONE &&
 1983              		.loc 1 819 0
 1984 0d56 002B     		cmp	r3, #0
 1985 0d58 00F08380 		beq	.L106
 821:build/openmote-cc2538_armgcc/openstack/03b-IPv6/forwarding.c ****         ipv6_outer_header->hopByhop_option != NULL
 1986              		.loc 1 821 0
 1987 0d5c BB68     		ldr	r3, [r7, #8]
 1988 0d5e 9B69     		ldr	r3, [r3, #24]
 820:build/openmote-cc2538_armgcc/openstack/03b-IPv6/forwarding.c ****         ipv6_outer_header->hopByhop_option != NULL
 1989              		.loc 1 820 0
 1990 0d60 002B     		cmp	r3, #0
 1991 0d62 7ED0     		beq	.L106
 822:build/openmote-cc2538_armgcc/openstack/03b-IPv6/forwarding.c ****     ){
 823:build/openmote-cc2538_armgcc/openstack/03b-IPv6/forwarding.c ****         // check the length of RH3s
 824:build/openmote-cc2538_armgcc/openstack/03b-IPv6/forwarding.c ****         RH3_length += ipv6_outer_header->hopByhop_option-msg->payload;
 1992              		.loc 1 824 0
 1993 0d64 BB68     		ldr	r3, [r7, #8]
 1994 0d66 9B69     		ldr	r3, [r3, #24]
 1995 0d68 1A46     		mov	r2, r3
 1996 0d6a FB68     		ldr	r3, [r7, #12]
 1997 0d6c 5B68     		ldr	r3, [r3, #4]
 1998 0d6e D31A     		subs	r3, r2, r3
 1999 0d70 DAB2     		uxtb	r2, r3
 2000 0d72 97F8EA30 		ldrb	r3, [r7, #234]
 2001 0d76 1344     		add	r3, r3, r2
 2002 0d78 87F8EA30 		strb	r3, [r7, #234]
 825:build/openmote-cc2538_armgcc/openstack/03b-IPv6/forwarding.c ****         memcpy(&RH_copy[RH_length],msg->payload,RH3_length);
 2003              		.loc 1 825 0
 2004 0d7c 97F8EC30 		ldrb	r3, [r7, #236]	@ zero_extendqisi2
 2005 0d80 07F11402 		add	r2, r7, #20
 2006 0d84 D018     		adds	r0, r2, r3
 2007 0d86 FB68     		ldr	r3, [r7, #12]
 2008 0d88 5B68     		ldr	r3, [r3, #4]
 2009 0d8a 97F8EA20 		ldrb	r2, [r7, #234]	@ zero_extendqisi2
 2010 0d8e 1946     		mov	r1, r3
 2011 0d90 FFF7FEFF 		bl	memcpy
 826:build/openmote-cc2538_armgcc/openstack/03b-IPv6/forwarding.c ****         packetfunctions_tossHeader(msg,RH3_length);
 2012              		.loc 1 826 0
 2013 0d94 97F8EA30 		ldrb	r3, [r7, #234]	@ zero_extendqisi2
 2014 0d98 1946     		mov	r1, r3
 2015 0d9a F868     		ldr	r0, [r7, #12]
 2016 0d9c FFF7FEFF 		bl	packetfunctions_tossHeader
 827:build/openmote-cc2538_armgcc/openstack/03b-IPv6/forwarding.c ****         RH_length += RH3_length;
 2017              		.loc 1 827 0
 2018 0da0 97F8EC20 		ldrb	r2, [r7, #236]
 2019 0da4 97F8EA30 		ldrb	r3, [r7, #234]
 2020 0da8 1344     		add	r3, r3, r2
 2021 0daa 87F8EC30 		strb	r3, [r7, #236]
 828:build/openmote-cc2538_armgcc/openstack/03b-IPv6/forwarding.c ****         
 829:build/openmote-cc2538_armgcc/openstack/03b-IPv6/forwarding.c ****         // retrieve hop-by-hop header (includes RPL option)
 830:build/openmote-cc2538_armgcc/openstack/03b-IPv6/forwarding.c ****         rpi_length = iphc_retrieveIPv6HopByHopHeader(
 2022              		.loc 1 830 0
 2023 0dae D7F80011 		ldr	r1, [r7, #256]
 2024 0db2 F868     		ldr	r0, [r7, #12]
 2025 0db4 FFF7FEFF 		bl	iphc_retrieveIPv6HopByHopHeader
 2026 0db8 0346     		mov	r3, r0
 2027 0dba 87F8E630 		strb	r3, [r7, #230]
 831:build/openmote-cc2538_armgcc/openstack/03b-IPv6/forwarding.c ****                           msg,
 832:build/openmote-cc2538_armgcc/openstack/03b-IPv6/forwarding.c ****                           rpl_option
 833:build/openmote-cc2538_armgcc/openstack/03b-IPv6/forwarding.c ****                      );
 834:build/openmote-cc2538_armgcc/openstack/03b-IPv6/forwarding.c ****      
 835:build/openmote-cc2538_armgcc/openstack/03b-IPv6/forwarding.c ****         // toss the headers
 836:build/openmote-cc2538_armgcc/openstack/03b-IPv6/forwarding.c ****         packetfunctions_tossHeader(
 2028              		.loc 1 836 0
 2029 0dbe 97F8E630 		ldrb	r3, [r7, #230]	@ zero_extendqisi2
 2030 0dc2 1946     		mov	r1, r3
 2031 0dc4 F868     		ldr	r0, [r7, #12]
 2032 0dc6 FFF7FEFF 		bl	packetfunctions_tossHeader
 837:build/openmote-cc2538_armgcc/openstack/03b-IPv6/forwarding.c ****             msg,
 838:build/openmote-cc2538_armgcc/openstack/03b-IPv6/forwarding.c ****             rpi_length
 839:build/openmote-cc2538_armgcc/openstack/03b-IPv6/forwarding.c ****         );
 840:build/openmote-cc2538_armgcc/openstack/03b-IPv6/forwarding.c ****       
 841:build/openmote-cc2538_armgcc/openstack/03b-IPv6/forwarding.c ****         flags = rpl_option->flags;
 2033              		.loc 1 841 0
 2034 0dca D7F80031 		ldr	r3, [r7, #256]
 2035 0dce 5B78     		ldrb	r3, [r3, #1]
 2036 0dd0 87F8E530 		strb	r3, [r7, #229]
 842:build/openmote-cc2538_armgcc/openstack/03b-IPv6/forwarding.c ****         senderRank = rpl_option->senderRank;
 2037              		.loc 1 842 0
 2038 0dd4 D7F80031 		ldr	r3, [r7, #256]
 2039 0dd8 DA78     		ldrb	r2, [r3, #3]	@ zero_extendqisi2
 2040 0dda 1B79     		ldrb	r3, [r3, #4]	@ zero_extendqisi2
 2041 0ddc 1B02     		lsls	r3, r3, #8
 2042 0dde 1343     		orrs	r3, r3, r2
 2043 0de0 A7F8E230 		strh	r3, [r7, #226]	@ movhi
 843:build/openmote-cc2538_armgcc/openstack/03b-IPv6/forwarding.c ****         if ((flags & O_FLAG)!=O_FLAG){
 2044              		.loc 1 843 0
 2045 0de4 97F8E530 		ldrb	r3, [r7, #229]	@ zero_extendqisi2
 2046 0de8 03F01003 		and	r3, r3, #16
 2047 0dec 002B     		cmp	r3, #0
 2048 0dee 08D1     		bne	.L107
 844:build/openmote-cc2538_armgcc/openstack/03b-IPv6/forwarding.c ****             // wrong direction
 845:build/openmote-cc2538_armgcc/openstack/03b-IPv6/forwarding.c ****             // log error
 846:build/openmote-cc2538_armgcc/openstack/03b-IPv6/forwarding.c ****             openserial_printError(
 2049              		.loc 1 846 0
 2050 0df0 97F8E530 		ldrb	r3, [r7, #229]	@ zero_extendqisi2
 2051 0df4 9AB2     		uxth	r2, r3
 2052 0df6 B7F8E230 		ldrh	r3, [r7, #226]
 2053 0dfa 1321     		movs	r1, #19
 2054 0dfc 1320     		movs	r0, #19
 2055 0dfe FFF7FEFF 		bl	openserial_printError
 2056              	.L107:
 847:build/openmote-cc2538_armgcc/openstack/03b-IPv6/forwarding.c ****                 COMPONENT_FORWARDING,
 848:build/openmote-cc2538_armgcc/openstack/03b-IPv6/forwarding.c ****                 ERR_WRONG_DIRECTION,
 849:build/openmote-cc2538_armgcc/openstack/03b-IPv6/forwarding.c ****                 (errorparameter_t)flags,
 850:build/openmote-cc2538_armgcc/openstack/03b-IPv6/forwarding.c ****                 (errorparameter_t)senderRank
 851:build/openmote-cc2538_armgcc/openstack/03b-IPv6/forwarding.c ****             );
 852:build/openmote-cc2538_armgcc/openstack/03b-IPv6/forwarding.c ****         }
 853:build/openmote-cc2538_armgcc/openstack/03b-IPv6/forwarding.c ****         if (senderRank > icmpv6rpl_getMyDAGrank()){
 2057              		.loc 1 853 0
 2058 0e02 FFF7FEFF 		bl	icmpv6rpl_getMyDAGrank
 2059 0e06 0346     		mov	r3, r0
 2060 0e08 1A46     		mov	r2, r3
 2061 0e0a B7F8E230 		ldrh	r3, [r7, #226]
 2062 0e0e 9342     		cmp	r3, r2
 2063 0e10 11D9     		bls	.L108
 854:build/openmote-cc2538_armgcc/openstack/03b-IPv6/forwarding.c ****             // loop detected
 855:build/openmote-cc2538_armgcc/openstack/03b-IPv6/forwarding.c ****             // set flag
 856:build/openmote-cc2538_armgcc/openstack/03b-IPv6/forwarding.c ****             rpl_option->flags |= R_FLAG;
 2064              		.loc 1 856 0
 2065 0e12 D7F80031 		ldr	r3, [r7, #256]
 2066 0e16 5B78     		ldrb	r3, [r3, #1]	@ zero_extendqisi2
 2067 0e18 43F00803 		orr	r3, r3, #8
 2068 0e1c DAB2     		uxtb	r2, r3
 2069 0e1e D7F80031 		ldr	r3, [r7, #256]
 2070 0e22 5A70     		strb	r2, [r3, #1]
 857:build/openmote-cc2538_armgcc/openstack/03b-IPv6/forwarding.c ****             // log error
 858:build/openmote-cc2538_armgcc/openstack/03b-IPv6/forwarding.c ****             openserial_printError(
 859:build/openmote-cc2538_armgcc/openstack/03b-IPv6/forwarding.c ****                 COMPONENT_FORWARDING,
 860:build/openmote-cc2538_armgcc/openstack/03b-IPv6/forwarding.c ****                 ERR_LOOP_DETECTED,
 861:build/openmote-cc2538_armgcc/openstack/03b-IPv6/forwarding.c ****                 (errorparameter_t) senderRank,
 862:build/openmote-cc2538_armgcc/openstack/03b-IPv6/forwarding.c ****                 (errorparameter_t) icmpv6rpl_getMyDAGrank()
 2071              		.loc 1 862 0
 2072 0e24 FFF7FEFF 		bl	icmpv6rpl_getMyDAGrank
 2073 0e28 0346     		mov	r3, r0
 858:build/openmote-cc2538_armgcc/openstack/03b-IPv6/forwarding.c ****                 COMPONENT_FORWARDING,
 2074              		.loc 1 858 0
 2075 0e2a B7F8E220 		ldrh	r2, [r7, #226]
 2076 0e2e 1221     		movs	r1, #18
 2077 0e30 1320     		movs	r0, #19
 2078 0e32 FFF7FEFF 		bl	openserial_printError
 2079              	.L108:
 863:build/openmote-cc2538_armgcc/openstack/03b-IPv6/forwarding.c ****             );
 864:build/openmote-cc2538_armgcc/openstack/03b-IPv6/forwarding.c ****         }
 865:build/openmote-cc2538_armgcc/openstack/03b-IPv6/forwarding.c ****         forwarding_createRplOption(rpl_option, rpl_option->flags);
 2080              		.loc 1 865 0
 2081 0e36 D7F80031 		ldr	r3, [r7, #256]
 2082 0e3a 5B78     		ldrb	r3, [r3, #1]	@ zero_extendqisi2
 2083 0e3c 1946     		mov	r1, r3
 2084 0e3e D7F80001 		ldr	r0, [r7, #256]
 2085 0e42 FFF7FEFF 		bl	forwarding_createRplOption
 866:build/openmote-cc2538_armgcc/openstack/03b-IPv6/forwarding.c ****         
 867:build/openmote-cc2538_armgcc/openstack/03b-IPv6/forwarding.c **** #ifdef DEADLINE_OPTION_ENABLED
 868:build/openmote-cc2538_armgcc/openstack/03b-IPv6/forwarding.c ****         if (deadline_option != NULL)
 2086              		.loc 1 868 0
 2087 0e46 3B68     		ldr	r3, [r7]
 2088 0e48 002B     		cmp	r3, #0
 2089 0e4a 02D0     		beq	.L109
 869:build/openmote-cc2538_armgcc/openstack/03b-IPv6/forwarding.c ****             forwarding_createDeadlineOption(deadline_option);
 2090              		.loc 1 869 0
 2091 0e4c 3868     		ldr	r0, [r7]
 2092 0e4e FFF7FEFF 		bl	forwarding_createDeadlineOption
 2093              	.L109:
 870:build/openmote-cc2538_armgcc/openstack/03b-IPv6/forwarding.c **** #endif
 871:build/openmote-cc2538_armgcc/openstack/03b-IPv6/forwarding.c ****         
 872:build/openmote-cc2538_armgcc/openstack/03b-IPv6/forwarding.c ****         // toss the IP in IP 6LoRH
 873:build/openmote-cc2538_armgcc/openstack/03b-IPv6/forwarding.c ****         packetfunctions_tossHeader(msg, ipv6_outer_header->header_length);
 2094              		.loc 1 873 0
 2095 0e52 BB68     		ldr	r3, [r7, #8]
 2096 0e54 93F84430 		ldrb	r3, [r3, #68]	@ zero_extendqisi2
 2097 0e58 1946     		mov	r1, r3
 2098 0e5a F868     		ldr	r0, [r7, #12]
 2099 0e5c FFF7FEFF 		bl	packetfunctions_tossHeader
 2100 0e60 02E0     		b	.L110
 2101              	.L106:
 874:build/openmote-cc2538_armgcc/openstack/03b-IPv6/forwarding.c ****     } else {
 875:build/openmote-cc2538_armgcc/openstack/03b-IPv6/forwarding.c ****         RH3_length = 0;
 2102              		.loc 1 875 0
 2103 0e62 0023     		movs	r3, #0
 2104 0e64 87F8EA30 		strb	r3, [r7, #234]
 2105              	.L110:
 876:build/openmote-cc2538_armgcc/openstack/03b-IPv6/forwarding.c ****     }
 877:build/openmote-cc2538_armgcc/openstack/03b-IPv6/forwarding.c ****     
 878:build/openmote-cc2538_armgcc/openstack/03b-IPv6/forwarding.c ****     // send to next lower layer
 879:build/openmote-cc2538_armgcc/openstack/03b-IPv6/forwarding.c ****     return iphc_sendFromForwarding(
 2106              		.loc 1 879 0
 2107 0e68 BB68     		ldr	r3, [r7, #8]
 2108 0e6a 0433     		adds	r3, r3, #4
 2109 0e6c 0122     		movs	r2, #1
 2110 0e6e 0492     		str	r2, [sp, #16]
 2111 0e70 97F8EC20 		ldrb	r2, [r7, #236]	@ zero_extendqisi2
 2112 0e74 0392     		str	r2, [sp, #12]
 2113 0e76 07F11402 		add	r2, r7, #20
 2114 0e7a 0292     		str	r2, [sp, #8]
 2115 0e7c 0193     		str	r3, [sp, #4]
 2116 0e7e 3B68     		ldr	r3, [r7]
 2117 0e80 0093     		str	r3, [sp]
 2118 0e82 D7F80031 		ldr	r3, [r7, #256]
 2119 0e86 7A68     		ldr	r2, [r7, #4]
 2120 0e88 B968     		ldr	r1, [r7, #8]
 2121 0e8a F868     		ldr	r0, [r7, #12]
 2122 0e8c FFF7FEFF 		bl	iphc_sendFromForwarding
 2123 0e90 0346     		mov	r3, r0
 880:build/openmote-cc2538_armgcc/openstack/03b-IPv6/forwarding.c ****         msg,
 881:build/openmote-cc2538_armgcc/openstack/03b-IPv6/forwarding.c ****         ipv6_outer_header,
 882:build/openmote-cc2538_armgcc/openstack/03b-IPv6/forwarding.c ****         ipv6_inner_header,
 883:build/openmote-cc2538_armgcc/openstack/03b-IPv6/forwarding.c ****         rpl_option,
 884:build/openmote-cc2538_armgcc/openstack/03b-IPv6/forwarding.c **** #ifdef DEADLINE_OPTION_ENABLED
 885:build/openmote-cc2538_armgcc/openstack/03b-IPv6/forwarding.c ****         deadline_option,
 886:build/openmote-cc2538_armgcc/openstack/03b-IPv6/forwarding.c **** #endif        
 887:build/openmote-cc2538_armgcc/openstack/03b-IPv6/forwarding.c ****         &ipv6_outer_header->flow_label,
 888:build/openmote-cc2538_armgcc/openstack/03b-IPv6/forwarding.c ****         &RH_copy[0],
 889:build/openmote-cc2538_armgcc/openstack/03b-IPv6/forwarding.c ****         RH_length,
 890:build/openmote-cc2538_armgcc/openstack/03b-IPv6/forwarding.c ****         PCKTFORWARD
 891:build/openmote-cc2538_armgcc/openstack/03b-IPv6/forwarding.c ****     );
 892:build/openmote-cc2538_armgcc/openstack/03b-IPv6/forwarding.c **** }
 2124              		.loc 1 892 0
 2125 0e92 1846     		mov	r0, r3
 2126 0e94 F037     		adds	r7, r7, #240
 2127              		.cfi_def_cfa_offset 16
 2128 0e96 BD46     		mov	sp, r7
 2129              		.cfi_def_cfa_register 13
 2130              		@ sp needed
 2131 0e98 B0BD     		pop	{r4, r5, r7, pc}
 2132              		.cfi_endproc
 2133              	.LFE7:
 2135 0e9a 00BF     		.align	2
 2136              		.global	forwarding_createRplOption
 2137              		.thumb
 2138              		.thumb_func
 2140              	forwarding_createRplOption:
 2141              	.LFB8:
 893:build/openmote-cc2538_armgcc/openstack/03b-IPv6/forwarding.c **** 
 894:build/openmote-cc2538_armgcc/openstack/03b-IPv6/forwarding.c **** 
 895:build/openmote-cc2538_armgcc/openstack/03b-IPv6/forwarding.c **** /**
 896:build/openmote-cc2538_armgcc/openstack/03b-IPv6/forwarding.c **** \brief Create a RPL option.
 897:build/openmote-cc2538_armgcc/openstack/03b-IPv6/forwarding.c **** 
 898:build/openmote-cc2538_armgcc/openstack/03b-IPv6/forwarding.c **** \param[out] rpl_option A pointer to the structure to fill in.
 899:build/openmote-cc2538_armgcc/openstack/03b-IPv6/forwarding.c **** \param[in]  flags      The flags to indicate in the RPL option.
 900:build/openmote-cc2538_armgcc/openstack/03b-IPv6/forwarding.c **** */
 901:build/openmote-cc2538_armgcc/openstack/03b-IPv6/forwarding.c **** void forwarding_createRplOption(rpl_option_ht* rpl_option, uint8_t flags) {
 2142              		.loc 1 901 0
 2143              		.cfi_startproc
 2144              		@ args = 0, pretend = 0, frame = 16
 2145              		@ frame_needed = 1, uses_anonymous_args = 0
 2146 0e9c 80B5     		push	{r7, lr}
 2147              		.cfi_def_cfa_offset 8
 2148              		.cfi_offset 7, -8
 2149              		.cfi_offset 14, -4
 2150 0e9e 84B0     		sub	sp, sp, #16
 2151              		.cfi_def_cfa_offset 24
 2152 0ea0 00AF     		add	r7, sp, #0
 2153              		.cfi_def_cfa_register 7
 2154 0ea2 7860     		str	r0, [r7, #4]
 2155 0ea4 0B46     		mov	r3, r1
 2156 0ea6 FB70     		strb	r3, [r7, #3]
 902:build/openmote-cc2538_armgcc/openstack/03b-IPv6/forwarding.c ****     uint8_t I,K;
 903:build/openmote-cc2538_armgcc/openstack/03b-IPv6/forwarding.c ****     rpl_option->optionType         = RPL_HOPBYHOP_HEADER_OPTION_TYPE;
 2157              		.loc 1 903 0
 2158 0ea8 7B68     		ldr	r3, [r7, #4]
 2159 0eaa 6322     		movs	r2, #99
 2160 0eac 1A70     		strb	r2, [r3]
 904:build/openmote-cc2538_armgcc/openstack/03b-IPv6/forwarding.c ****     rpl_option->rplInstanceID      = icmpv6rpl_getRPLIntanceID();
 2161              		.loc 1 904 0
 2162 0eae FFF7FEFF 		bl	icmpv6rpl_getRPLIntanceID
 2163 0eb2 0346     		mov	r3, r0
 2164 0eb4 1A46     		mov	r2, r3
 2165 0eb6 7B68     		ldr	r3, [r7, #4]
 2166 0eb8 9A70     		strb	r2, [r3, #2]
 905:build/openmote-cc2538_armgcc/openstack/03b-IPv6/forwarding.c ****     rpl_option->senderRank         = icmpv6rpl_getMyDAGrank();
 2167              		.loc 1 905 0
 2168 0eba FFF7FEFF 		bl	icmpv6rpl_getMyDAGrank
 2169 0ebe 0346     		mov	r3, r0
 2170 0ec0 1A46     		mov	r2, r3
 2171 0ec2 7B68     		ldr	r3, [r7, #4]
 2172 0ec4 A3F80320 		strh	r2, [r3, #3]	@ unaligned
 906:build/openmote-cc2538_armgcc/openstack/03b-IPv6/forwarding.c ****    
 907:build/openmote-cc2538_armgcc/openstack/03b-IPv6/forwarding.c ****     if (rpl_option->rplInstanceID == 0){
 2173              		.loc 1 907 0
 2174 0ec8 7B68     		ldr	r3, [r7, #4]
 2175 0eca 9B78     		ldrb	r3, [r3, #2]	@ zero_extendqisi2
 2176 0ecc 002B     		cmp	r3, #0
 2177 0ece 02D1     		bne	.L113
 908:build/openmote-cc2538_armgcc/openstack/03b-IPv6/forwarding.c ****        I = 1;
 2178              		.loc 1 908 0
 2179 0ed0 0123     		movs	r3, #1
 2180 0ed2 FB73     		strb	r3, [r7, #15]
 2181 0ed4 01E0     		b	.L114
 2182              	.L113:
 909:build/openmote-cc2538_armgcc/openstack/03b-IPv6/forwarding.c ****     } else {
 910:build/openmote-cc2538_armgcc/openstack/03b-IPv6/forwarding.c ****        I = 0;
 2183              		.loc 1 910 0
 2184 0ed6 0023     		movs	r3, #0
 2185 0ed8 FB73     		strb	r3, [r7, #15]
 2186              	.L114:
 911:build/openmote-cc2538_armgcc/openstack/03b-IPv6/forwarding.c ****     }
 912:build/openmote-cc2538_armgcc/openstack/03b-IPv6/forwarding.c ****     
 913:build/openmote-cc2538_armgcc/openstack/03b-IPv6/forwarding.c ****     if ((rpl_option->senderRank & 0x00FF) == 0){
 2187              		.loc 1 913 0
 2188 0eda 7B68     		ldr	r3, [r7, #4]
 2189 0edc B3F80330 		ldrh	r3, [r3, #3]	@ unaligned
 2190 0ee0 9BB2     		uxth	r3, r3
 2191 0ee2 DBB2     		uxtb	r3, r3
 2192 0ee4 002B     		cmp	r3, #0
 2193 0ee6 02D1     		bne	.L115
 914:build/openmote-cc2538_armgcc/openstack/03b-IPv6/forwarding.c ****         K = 1;
 2194              		.loc 1 914 0
 2195 0ee8 0123     		movs	r3, #1
 2196 0eea BB73     		strb	r3, [r7, #14]
 2197 0eec 01E0     		b	.L116
 2198              	.L115:
 915:build/openmote-cc2538_armgcc/openstack/03b-IPv6/forwarding.c ****     } else {
 916:build/openmote-cc2538_armgcc/openstack/03b-IPv6/forwarding.c ****         K = 0;
 2199              		.loc 1 916 0
 2200 0eee 0023     		movs	r3, #0
 2201 0ef0 BB73     		strb	r3, [r7, #14]
 2202              	.L116:
 917:build/openmote-cc2538_armgcc/openstack/03b-IPv6/forwarding.c ****     }
 918:build/openmote-cc2538_armgcc/openstack/03b-IPv6/forwarding.c ****     
 919:build/openmote-cc2538_armgcc/openstack/03b-IPv6/forwarding.c ****     rpl_option->flags = (flags & ~I_FLAG & ~K_FLAG) | (I<<1) | K;
 2203              		.loc 1 919 0
 2204 0ef2 97F90330 		ldrsb	r3, [r7, #3]
 2205 0ef6 23F00303 		bic	r3, r3, #3
 2206 0efa 5AB2     		sxtb	r2, r3
 2207 0efc FB7B     		ldrb	r3, [r7, #15]	@ zero_extendqisi2
 2208 0efe 5B00     		lsls	r3, r3, #1
 2209 0f00 5BB2     		sxtb	r3, r3
 2210 0f02 1343     		orrs	r3, r3, r2
 2211 0f04 5AB2     		sxtb	r2, r3
 2212 0f06 97F90E30 		ldrsb	r3, [r7, #14]
 2213 0f0a 1343     		orrs	r3, r3, r2
 2214 0f0c 5BB2     		sxtb	r3, r3
 2215 0f0e DAB2     		uxtb	r2, r3
 2216 0f10 7B68     		ldr	r3, [r7, #4]
 2217 0f12 5A70     		strb	r2, [r3, #1]
 920:build/openmote-cc2538_armgcc/openstack/03b-IPv6/forwarding.c **** }
 2218              		.loc 1 920 0
 2219 0f14 00BF     		nop
 2220 0f16 1037     		adds	r7, r7, #16
 2221              		.cfi_def_cfa_offset 8
 2222 0f18 BD46     		mov	sp, r7
 2223              		.cfi_def_cfa_register 13
 2224              		@ sp needed
 2225 0f1a 80BD     		pop	{r7, pc}
 2226              		.cfi_endproc
 2227              	.LFE8:
 2229              		.align	2
 2230              		.global	forwarding_createDeadlineOption
 2231              		.thumb
 2232              		.thumb_func
 2234              	forwarding_createDeadlineOption:
 2235              	.LFB9:
 921:build/openmote-cc2538_armgcc/openstack/03b-IPv6/forwarding.c **** 
 922:build/openmote-cc2538_armgcc/openstack/03b-IPv6/forwarding.c **** #ifdef DEADLINE_OPTION_ENABLED
 923:build/openmote-cc2538_armgcc/openstack/03b-IPv6/forwarding.c **** /**
 924:build/openmote-cc2538_armgcc/openstack/03b-IPv6/forwarding.c **** \brief Create a Deadline-6LoRH .
 925:build/openmote-cc2538_armgcc/openstack/03b-IPv6/forwarding.c **** 
 926:build/openmote-cc2538_armgcc/openstack/03b-IPv6/forwarding.c **** \param[out] delay_option A pointer to the structure to fill in.
 927:build/openmote-cc2538_armgcc/openstack/03b-IPv6/forwarding.c **** 
 928:build/openmote-cc2538_armgcc/openstack/03b-IPv6/forwarding.c **** */
 929:build/openmote-cc2538_armgcc/openstack/03b-IPv6/forwarding.c **** void forwarding_createDeadlineOption(deadline_option_ht* deadline_option) {
 2236              		.loc 1 929 0
 2237              		.cfi_startproc
 2238              		@ args = 0, pretend = 0, frame = 8
 2239              		@ frame_needed = 1, uses_anonymous_args = 0
 2240              		@ link register save eliminated.
 2241 0f1c 80B4     		push	{r7}
 2242              		.cfi_def_cfa_offset 4
 2243              		.cfi_offset 7, -4
 2244 0f1e 83B0     		sub	sp, sp, #12
 2245              		.cfi_def_cfa_offset 16
 2246 0f20 00AF     		add	r7, sp, #0
 2247              		.cfi_def_cfa_register 7
 2248 0f22 7860     		str	r0, [r7, #4]
 930:build/openmote-cc2538_armgcc/openstack/03b-IPv6/forwarding.c ****     deadline_option->optionType = DEADLINE_HOPBYHOP_HEADER_OPTION_TYPE;
 2249              		.loc 1 930 0
 2250 0f24 7B68     		ldr	r3, [r7, #4]
 2251 0f26 AB22     		movs	r2, #171
 2252 0f28 1A70     		strb	r2, [r3]
 931:build/openmote-cc2538_armgcc/openstack/03b-IPv6/forwarding.c **** }
 2253              		.loc 1 931 0
 2254 0f2a 00BF     		nop
 2255 0f2c 0C37     		adds	r7, r7, #12
 2256              		.cfi_def_cfa_offset 4
 2257 0f2e BD46     		mov	sp, r7
 2258              		.cfi_def_cfa_register 13
 2259              		@ sp needed
 2260 0f30 80BC     		pop	{r7}
 2261              		.cfi_restore 7
 2262              		.cfi_def_cfa_offset 0
 2263 0f32 7047     		bx	lr
 2264              		.cfi_endproc
 2265              	.LFE9:
 2267              	.Letext0:
 2268              		.file 2 "/usr/include/newlib/machine/_default_types.h"
 2269              		.file 3 "/usr/include/newlib/sys/_stdint.h"
 2270              		.file 4 "inc/opendefs.h"
 2271              		.file 5 "openstack/03a-IPHC/iphc.h"
 2272              		.file 6 "build/openmote-cc2538_armgcc/openstack/03b-IPv6/forwarding.h"
 2273              		.file 7 "bsp/boards/openmote-cc2538/board_info.h"
 2274              		.file 8 "openstack/cross-layers/idmanager.h"
 2275              		.file 9 "openstack/03b-IPv6/icmpv6rpl.h"