   1              		.syntax unified
   2              		.cpu cortex-m3
   3              		.fpu softvfp
   4              		.eabi_attribute 20, 1
   5              		.eabi_attribute 21, 1
   6              		.eabi_attribute 23, 3
   7              		.eabi_attribute 24, 1
   8              		.eabi_attribute 25, 1
   9              		.eabi_attribute 26, 1
  10              		.eabi_attribute 30, 6
  11              		.eabi_attribute 34, 1
  12              		.eabi_attribute 18, 4
  13              		.thumb
  14              		.syntax unified
  15              		.file	"icmpv6rpl.c"
  16              		.text
  17              	.Ltext0:
  18              		.cfi_sections	.debug_frame
  19              		.section	.rodata
  20              		.align	2
  23              	rreg_uriquery:
  24 0000 683D7563 		.ascii	"h=ucb\000"
  24      6200
  25 0006 0000     		.align	2
  28              	infoBoardname:
  29 0008 43433235 		.ascii	"CC2538\000"
  29      333800
  30 000f 00       		.align	2
  33              	infouCName:
  34 0010 43433235 		.ascii	"CC2538\000"
  34      333800
  35 0017 00       		.align	2
  38              	infoRadioName:
  39 0018 43433235 		.ascii	"CC2538 SoC\000"
  39      33382053 
  39      6F4300
  40 0023 00       		.align	2
  43              	infoStackName:
  44 0024 4F70656E 		.ascii	"OpenWSN \000"
  44      57534E20 
  44      00
  45 002d 000000   		.align	2
  48              	all_routers_multicast:
  49 0030 FF       		.byte	-1
  50 0031 02       		.byte	2
  51 0032 00       		.byte	0
  52 0033 00       		.byte	0
  53 0034 00       		.byte	0
  54 0035 00       		.byte	0
  55 0036 00       		.byte	0
  56 0037 00       		.byte	0
  57 0038 00       		.byte	0
  58 0039 00       		.byte	0
  59 003a 00       		.byte	0
  60 003b 00       		.byte	0
  61 003c 00       		.byte	0
  62 003d 00       		.byte	0
  63 003e 00       		.byte	0
  64 003f 1A       		.byte	26
  65              		.align	2
  68              	linklocalprefix:
  69 0040 FE       		.byte	-2
  70 0041 80       		.byte	-128
  71 0042 00       		.byte	0
  72 0043 00       		.byte	0
  73 0044 00       		.byte	0
  74 0045 00       		.byte	0
  75 0046 00       		.byte	0
  76 0047 00       		.byte	0
  77              		.align	2
  80              	chTemplate_default:
  81 0048 05       		.byte	5
  82 0049 06       		.byte	6
  83 004a 0C       		.byte	12
  84 004b 07       		.byte	7
  85 004c 0F       		.byte	15
  86 004d 04       		.byte	4
  87 004e 0E       		.byte	14
  88 004f 0B       		.byte	11
  89 0050 08       		.byte	8
  90 0051 00       		.byte	0
  91 0052 01       		.byte	1
  92 0053 02       		.byte	2
  93 0054 0D       		.byte	13
  94 0055 03       		.byte	3
  95 0056 09       		.byte	9
  96 0057 0A       		.byte	10
  97              		.align	2
 100              	ebIEsBytestream:
 101 0058 1A       		.byte	26
 102 0059 88       		.byte	-120
 103 005a 06       		.byte	6
 104 005b 1A       		.byte	26
 105 005c 00       		.byte	0
 106 005d 00       		.byte	0
 107 005e 00       		.byte	0
 108 005f 00       		.byte	0
 109 0060 00       		.byte	0
 110 0061 00       		.byte	0
 111 0062 01       		.byte	1
 112 0063 1C       		.byte	28
 113 0064 00       		.byte	0
 114 0065 01       		.byte	1
 115 0066 C8       		.byte	-56
 116 0067 00       		.byte	0
 117 0068 0A       		.byte	10
 118 0069 1B       		.byte	27
 119 006a 01       		.byte	1
 120 006b 00       		.byte	0
 121 006c 17       		.byte	23
 122 006d 00       		.byte	0
 123 006e 01       		.byte	1
 124 006f 00       		.byte	0
 125 0070 00       		.byte	0
 126 0071 00       		.byte	0
 127 0072 00       		.byte	0
 128 0073 0F       		.byte	15
 129              		.comm	icmpv6rpl_vars,156,4
 130              		.text
 131              		.align	2
 132              		.global	icmpv6rpl_init
 133              		.thumb
 134              		.thumb_func
 136              	icmpv6rpl_init:
 137              	.LFB0:
 138              		.file 1 "build/openmote-cc2538_armgcc/openstack/03b-IPv6/icmpv6rpl.c"
   1:build/openmote-cc2538_armgcc/openstack/03b-IPv6/icmpv6rpl.c **** #include "opendefs.h"
   2:build/openmote-cc2538_armgcc/openstack/03b-IPv6/icmpv6rpl.c **** #include "icmpv6rpl.h"
   3:build/openmote-cc2538_armgcc/openstack/03b-IPv6/icmpv6rpl.c **** #include "icmpv6.h"
   4:build/openmote-cc2538_armgcc/openstack/03b-IPv6/icmpv6rpl.c **** #include "openserial.h"
   5:build/openmote-cc2538_armgcc/openstack/03b-IPv6/icmpv6rpl.c **** #include "openqueue.h"
   6:build/openmote-cc2538_armgcc/openstack/03b-IPv6/icmpv6rpl.c **** #include "neighbors.h"
   7:build/openmote-cc2538_armgcc/openstack/03b-IPv6/icmpv6rpl.c **** #include "packetfunctions.h"
   8:build/openmote-cc2538_armgcc/openstack/03b-IPv6/icmpv6rpl.c **** #include "openrandom.h"
   9:build/openmote-cc2538_armgcc/openstack/03b-IPv6/icmpv6rpl.c **** #include "scheduler.h"
  10:build/openmote-cc2538_armgcc/openstack/03b-IPv6/icmpv6rpl.c **** #include "idmanager.h"
  11:build/openmote-cc2538_armgcc/openstack/03b-IPv6/icmpv6rpl.c **** #include "opentimers.h"
  12:build/openmote-cc2538_armgcc/openstack/03b-IPv6/icmpv6rpl.c **** #include "IEEE802154E.h"
  13:build/openmote-cc2538_armgcc/openstack/03b-IPv6/icmpv6rpl.c **** #include "msf.h"
  14:build/openmote-cc2538_armgcc/openstack/03b-IPv6/icmpv6rpl.c **** 
  15:build/openmote-cc2538_armgcc/openstack/03b-IPv6/icmpv6rpl.c **** //=========================== variables =======================================
  16:build/openmote-cc2538_armgcc/openstack/03b-IPv6/icmpv6rpl.c **** 
  17:build/openmote-cc2538_armgcc/openstack/03b-IPv6/icmpv6rpl.c **** icmpv6rpl_vars_t             icmpv6rpl_vars;
  18:build/openmote-cc2538_armgcc/openstack/03b-IPv6/icmpv6rpl.c **** 
  19:build/openmote-cc2538_armgcc/openstack/03b-IPv6/icmpv6rpl.c **** //=========================== prototypes ======================================
  20:build/openmote-cc2538_armgcc/openstack/03b-IPv6/icmpv6rpl.c **** 
  21:build/openmote-cc2538_armgcc/openstack/03b-IPv6/icmpv6rpl.c **** // DIO-related
  22:build/openmote-cc2538_armgcc/openstack/03b-IPv6/icmpv6rpl.c **** void icmpv6rpl_timer_DIO_cb(opentimers_id_t id);
  23:build/openmote-cc2538_armgcc/openstack/03b-IPv6/icmpv6rpl.c **** void icmpv6rpl_timer_DIO_task(void);
  24:build/openmote-cc2538_armgcc/openstack/03b-IPv6/icmpv6rpl.c **** void sendDIO(void);
  25:build/openmote-cc2538_armgcc/openstack/03b-IPv6/icmpv6rpl.c **** // DAO-related
  26:build/openmote-cc2538_armgcc/openstack/03b-IPv6/icmpv6rpl.c **** void icmpv6rpl_timer_DAO_cb(opentimers_id_t id);
  27:build/openmote-cc2538_armgcc/openstack/03b-IPv6/icmpv6rpl.c **** void icmpv6rpl_timer_DAO_task(void);
  28:build/openmote-cc2538_armgcc/openstack/03b-IPv6/icmpv6rpl.c **** void sendDAO(void);
  29:build/openmote-cc2538_armgcc/openstack/03b-IPv6/icmpv6rpl.c **** 
  30:build/openmote-cc2538_armgcc/openstack/03b-IPv6/icmpv6rpl.c **** //=========================== public ==========================================
  31:build/openmote-cc2538_armgcc/openstack/03b-IPv6/icmpv6rpl.c **** 
  32:build/openmote-cc2538_armgcc/openstack/03b-IPv6/icmpv6rpl.c **** /**
  33:build/openmote-cc2538_armgcc/openstack/03b-IPv6/icmpv6rpl.c **** \brief Initialize this module.
  34:build/openmote-cc2538_armgcc/openstack/03b-IPv6/icmpv6rpl.c **** */
  35:build/openmote-cc2538_armgcc/openstack/03b-IPv6/icmpv6rpl.c **** void icmpv6rpl_init() {
 139              		.loc 1 35 0
 140              		.cfi_startproc
 141              		@ args = 0, pretend = 0, frame = 16
 142              		@ frame_needed = 1, uses_anonymous_args = 0
 143 0000 B0B5     		push	{r4, r5, r7, lr}
 144              		.cfi_def_cfa_offset 16
 145              		.cfi_offset 4, -16
 146              		.cfi_offset 5, -12
 147              		.cfi_offset 7, -8
 148              		.cfi_offset 14, -4
 149 0002 86B0     		sub	sp, sp, #24
 150              		.cfi_def_cfa_offset 40
 151 0004 02AF     		add	r7, sp, #8
 152              		.cfi_def_cfa 7, 32
  36:build/openmote-cc2538_armgcc/openstack/03b-IPv6/icmpv6rpl.c ****    uint8_t         dodagid[16];
  37:build/openmote-cc2538_armgcc/openstack/03b-IPv6/icmpv6rpl.c ****    
  38:build/openmote-cc2538_armgcc/openstack/03b-IPv6/icmpv6rpl.c ****    // retrieve my prefix and EUI64
  39:build/openmote-cc2538_armgcc/openstack/03b-IPv6/icmpv6rpl.c ****    memcpy(&dodagid[0],idmanager_getMyID(ADDR_PREFIX)->prefix,8); // prefix
 153              		.loc 1 39 0
 154 0006 0520     		movs	r0, #5
 155 0008 FFF7FEFF 		bl	idmanager_getMyID
 156 000c 0346     		mov	r3, r0
 157 000e 591C     		adds	r1, r3, #1
 158 0010 3B46     		mov	r3, r7
 159 0012 0822     		movs	r2, #8
 160 0014 1846     		mov	r0, r3
 161 0016 FFF7FEFF 		bl	memcpy
  40:build/openmote-cc2538_armgcc/openstack/03b-IPv6/icmpv6rpl.c ****    memcpy(&dodagid[8],idmanager_getMyID(ADDR_64B)->addr_64b,8);  // eui64
 162              		.loc 1 40 0
 163 001a 0220     		movs	r0, #2
 164 001c FFF7FEFF 		bl	idmanager_getMyID
 165 0020 0346     		mov	r3, r0
 166 0022 591C     		adds	r1, r3, #1
 167 0024 3B46     		mov	r3, r7
 168 0026 0833     		adds	r3, r3, #8
 169 0028 0822     		movs	r2, #8
 170 002a 1846     		mov	r0, r3
 171 002c FFF7FEFF 		bl	memcpy
  41:build/openmote-cc2538_armgcc/openstack/03b-IPv6/icmpv6rpl.c ****    
  42:build/openmote-cc2538_armgcc/openstack/03b-IPv6/icmpv6rpl.c ****    //===== reset local variables
  43:build/openmote-cc2538_armgcc/openstack/03b-IPv6/icmpv6rpl.c ****    memset(&icmpv6rpl_vars,0,sizeof(icmpv6rpl_vars_t));
 172              		.loc 1 43 0
 173 0030 9C22     		movs	r2, #156
 174 0032 0021     		movs	r1, #0
 175 0034 AA48     		ldr	r0, .L5
 176 0036 FFF7FEFF 		bl	memset
  44:build/openmote-cc2538_armgcc/openstack/03b-IPv6/icmpv6rpl.c ****    
  45:build/openmote-cc2538_armgcc/openstack/03b-IPv6/icmpv6rpl.c ****    //=== routing
  46:build/openmote-cc2538_armgcc/openstack/03b-IPv6/icmpv6rpl.c ****    icmpv6rpl_vars.haveParent=FALSE;
 177              		.loc 1 46 0
 178 003a A94B     		ldr	r3, .L5
 179 003c 0022     		movs	r2, #0
 180 003e 83F88A20 		strb	r2, [r3, #138]
  47:build/openmote-cc2538_armgcc/openstack/03b-IPv6/icmpv6rpl.c ****    icmpv6rpl_vars.daoSent=FALSE;
 181              		.loc 1 47 0
 182 0042 A74B     		ldr	r3, .L5
 183 0044 0022     		movs	r2, #0
 184 0046 83F89820 		strb	r2, [r3, #152]
  48:build/openmote-cc2538_armgcc/openstack/03b-IPv6/icmpv6rpl.c ****    if (idmanager_getIsDAGroot()==TRUE) {
 185              		.loc 1 48 0
 186 004a FFF7FEFF 		bl	idmanager_getIsDAGroot
 187 004e 0346     		mov	r3, r0
 188 0050 002B     		cmp	r3, #0
 189 0052 05D0     		beq	.L2
  49:build/openmote-cc2538_armgcc/openstack/03b-IPv6/icmpv6rpl.c ****       icmpv6rpl_vars.myDAGrank=MINHOPRANKINCREASE;
 190              		.loc 1 49 0
 191 0054 A24B     		ldr	r3, .L5
 192 0056 4FF48072 		mov	r2, #256
 193 005a A3F88620 		strh	r2, [r3, #134]	@ movhi
 194 005e 04E0     		b	.L3
 195              	.L2:
  50:build/openmote-cc2538_armgcc/openstack/03b-IPv6/icmpv6rpl.c ****    } else {
  51:build/openmote-cc2538_armgcc/openstack/03b-IPv6/icmpv6rpl.c ****       icmpv6rpl_vars.myDAGrank=DEFAULTDAGRANK;
 196              		.loc 1 51 0
 197 0060 9F4B     		ldr	r3, .L5
 198 0062 4FF6FF72 		movw	r2, #65535
 199 0066 A3F88620 		strh	r2, [r3, #134]	@ movhi
 200              	.L3:
  52:build/openmote-cc2538_armgcc/openstack/03b-IPv6/icmpv6rpl.c ****    }
  53:build/openmote-cc2538_armgcc/openstack/03b-IPv6/icmpv6rpl.c **** 
  54:build/openmote-cc2538_armgcc/openstack/03b-IPv6/icmpv6rpl.c ****    //=== admin
  55:build/openmote-cc2538_armgcc/openstack/03b-IPv6/icmpv6rpl.c ****    
  56:build/openmote-cc2538_armgcc/openstack/03b-IPv6/icmpv6rpl.c ****    icmpv6rpl_vars.busySendingDIO            = FALSE;
 201              		.loc 1 56 0
 202 006a 9D4B     		ldr	r3, .L5
 203 006c 0022     		movs	r2, #0
 204 006e 1A70     		strb	r2, [r3]
  57:build/openmote-cc2538_armgcc/openstack/03b-IPv6/icmpv6rpl.c ****    icmpv6rpl_vars.busySendingDAO            = FALSE;
 205              		.loc 1 57 0
 206 0070 9B4B     		ldr	r3, .L5
 207 0072 0022     		movs	r2, #0
 208 0074 5A70     		strb	r2, [r3, #1]
  58:build/openmote-cc2538_armgcc/openstack/03b-IPv6/icmpv6rpl.c ****    icmpv6rpl_vars.fDodagidWritten           = 0;
 209              		.loc 1 58 0
 210 0076 9A4B     		ldr	r3, .L5
 211 0078 0022     		movs	r2, #0
 212 007a 9A70     		strb	r2, [r3, #2]
  59:build/openmote-cc2538_armgcc/openstack/03b-IPv6/icmpv6rpl.c ****    
  60:build/openmote-cc2538_armgcc/openstack/03b-IPv6/icmpv6rpl.c ****    //=== DIO
  61:build/openmote-cc2538_armgcc/openstack/03b-IPv6/icmpv6rpl.c ****    
  62:build/openmote-cc2538_armgcc/openstack/03b-IPv6/icmpv6rpl.c ****    icmpv6rpl_vars.dio.rplinstanceId         = 0x00;        ///< TODO: put correct value
 213              		.loc 1 62 0
 214 007c 984B     		ldr	r3, .L5
 215 007e 0022     		movs	r2, #0
 216 0080 DA70     		strb	r2, [r3, #3]
  63:build/openmote-cc2538_armgcc/openstack/03b-IPv6/icmpv6rpl.c ****    icmpv6rpl_vars.dio.verNumb               = 0x00;        ///< TODO: put correct value
 217              		.loc 1 63 0
 218 0082 974B     		ldr	r3, .L5
 219 0084 0022     		movs	r2, #0
 220 0086 1A71     		strb	r2, [r3, #4]
  64:build/openmote-cc2538_armgcc/openstack/03b-IPv6/icmpv6rpl.c ****    // rank: to be populated upon TX
  65:build/openmote-cc2538_armgcc/openstack/03b-IPv6/icmpv6rpl.c ****    icmpv6rpl_vars.dio.rplOptions            = MOP_DIO_A | \
 221              		.loc 1 65 0
 222 0088 954B     		ldr	r3, .L5
 223 008a 8822     		movs	r2, #136
 224 008c DA71     		strb	r2, [r3, #7]
  66:build/openmote-cc2538_armgcc/openstack/03b-IPv6/icmpv6rpl.c ****                                               MOP_DIO_B | \
  67:build/openmote-cc2538_armgcc/openstack/03b-IPv6/icmpv6rpl.c ****                                               MOP_DIO_C | \
  68:build/openmote-cc2538_armgcc/openstack/03b-IPv6/icmpv6rpl.c ****                                               PRF_DIO_A | \
  69:build/openmote-cc2538_armgcc/openstack/03b-IPv6/icmpv6rpl.c ****                                               PRF_DIO_B | \
  70:build/openmote-cc2538_armgcc/openstack/03b-IPv6/icmpv6rpl.c ****                                               PRF_DIO_C | \
  71:build/openmote-cc2538_armgcc/openstack/03b-IPv6/icmpv6rpl.c ****                                               G_DIO ;
  72:build/openmote-cc2538_armgcc/openstack/03b-IPv6/icmpv6rpl.c ****    icmpv6rpl_vars.dio.DTSN                  = 0x33;        ///< TODO: put correct value
 225              		.loc 1 72 0
 226 008e 944B     		ldr	r3, .L5
 227 0090 3322     		movs	r2, #51
 228 0092 1A72     		strb	r2, [r3, #8]
  73:build/openmote-cc2538_armgcc/openstack/03b-IPv6/icmpv6rpl.c ****    icmpv6rpl_vars.dio.flags                 = 0x00;
 229              		.loc 1 73 0
 230 0094 924B     		ldr	r3, .L5
 231 0096 0022     		movs	r2, #0
 232 0098 5A72     		strb	r2, [r3, #9]
  74:build/openmote-cc2538_armgcc/openstack/03b-IPv6/icmpv6rpl.c ****    icmpv6rpl_vars.dio.reserved              = 0x00;
 233              		.loc 1 74 0
 234 009a 914B     		ldr	r3, .L5
 235 009c 0022     		movs	r2, #0
 236 009e 9A72     		strb	r2, [r3, #10]
  75:build/openmote-cc2538_armgcc/openstack/03b-IPv6/icmpv6rpl.c ****    memcpy(
 237              		.loc 1 75 0
 238 00a0 8F4B     		ldr	r3, .L5
 239 00a2 03F10B04 		add	r4, r3, #11
 240 00a6 3D46     		mov	r5, r7
 241 00a8 0FCD     		ldmia	r5!, {r0, r1, r2, r3}
 242 00aa 2060     		str	r0, [r4]	@ unaligned
 243 00ac 6160     		str	r1, [r4, #4]	@ unaligned
 244 00ae A260     		str	r2, [r4, #8]	@ unaligned
 245 00b0 E360     		str	r3, [r4, #12]	@ unaligned
  76:build/openmote-cc2538_armgcc/openstack/03b-IPv6/icmpv6rpl.c ****       &(icmpv6rpl_vars.dio.DODAGID[0]),
  77:build/openmote-cc2538_armgcc/openstack/03b-IPv6/icmpv6rpl.c ****       dodagid,
  78:build/openmote-cc2538_armgcc/openstack/03b-IPv6/icmpv6rpl.c ****       sizeof(icmpv6rpl_vars.dio.DODAGID)
  79:build/openmote-cc2538_armgcc/openstack/03b-IPv6/icmpv6rpl.c ****    ); // can be replaced later
  80:build/openmote-cc2538_armgcc/openstack/03b-IPv6/icmpv6rpl.c ****    
  81:build/openmote-cc2538_armgcc/openstack/03b-IPv6/icmpv6rpl.c ****    icmpv6rpl_vars.dioDestination.type = ADDR_128B;
 246              		.loc 1 81 0
 247 00b2 8B4B     		ldr	r3, .L5
 248 00b4 0322     		movs	r2, #3
 249 00b6 83F84B20 		strb	r2, [r3, #75]
  82:build/openmote-cc2538_armgcc/openstack/03b-IPv6/icmpv6rpl.c ****    memcpy(&icmpv6rpl_vars.dioDestination.addr_128b[0],all_routers_multicast,sizeof(all_routers_mult
 250              		.loc 1 82 0
 251 00ba 894B     		ldr	r3, .L5
 252 00bc 894A     		ldr	r2, .L5+4
 253 00be 03F14C04 		add	r4, r3, #76
 254 00c2 1346     		mov	r3, r2
 255 00c4 0FCB     		ldmia	r3, {r0, r1, r2, r3}
 256 00c6 84E80F00 		stmia	r4, {r0, r1, r2, r3}
  83:build/openmote-cc2538_armgcc/openstack/03b-IPv6/icmpv6rpl.c ****    
  84:build/openmote-cc2538_armgcc/openstack/03b-IPv6/icmpv6rpl.c ****    icmpv6rpl_vars.dioPeriod                 = DIO_PORTION*(neighbors_getNumNeighbors()+1);
 257              		.loc 1 84 0
 258 00ca FFF7FEFF 		bl	neighbors_getNumNeighbors
 259 00ce 0346     		mov	r3, r0
 260 00d0 0133     		adds	r3, r3, #1
 261 00d2 9BB2     		uxth	r3, r3
 262 00d4 1A46     		mov	r2, r3	@ movhi
 263 00d6 5200     		lsls	r2, r2, #1
 264 00d8 1344     		add	r3, r3, r2
 265 00da 5B00     		lsls	r3, r3, #1
 266 00dc 9AB2     		uxth	r2, r3
 267 00de 804B     		ldr	r3, .L5
 268 00e0 A3F86020 		strh	r2, [r3, #96]	@ movhi
  85:build/openmote-cc2538_armgcc/openstack/03b-IPv6/icmpv6rpl.c ****    icmpv6rpl_vars.timerIdDIO                = opentimers_create();
 269              		.loc 1 85 0
 270 00e4 FFF7FEFF 		bl	opentimers_create
 271 00e8 0346     		mov	r3, r0
 272 00ea 1A46     		mov	r2, r3
 273 00ec 7C4B     		ldr	r3, .L5
 274 00ee 83F85E20 		strb	r2, [r3, #94]
  86:build/openmote-cc2538_armgcc/openstack/03b-IPv6/icmpv6rpl.c **** 
  87:build/openmote-cc2538_armgcc/openstack/03b-IPv6/icmpv6rpl.c ****    //initialize PIO -> move this to dagroot code
  88:build/openmote-cc2538_armgcc/openstack/03b-IPv6/icmpv6rpl.c ****    icmpv6rpl_vars.pio.type                  = RPL_OPTION_PIO;
 275              		.loc 1 88 0
 276 00f2 7B4B     		ldr	r3, .L5
 277 00f4 0822     		movs	r2, #8
 278 00f6 DA76     		strb	r2, [r3, #27]
  89:build/openmote-cc2538_armgcc/openstack/03b-IPv6/icmpv6rpl.c ****    icmpv6rpl_vars.pio.optLen                = 30;
 279              		.loc 1 89 0
 280 00f8 794B     		ldr	r3, .L5
 281 00fa 1E22     		movs	r2, #30
 282 00fc 1A77     		strb	r2, [r3, #28]
  90:build/openmote-cc2538_armgcc/openstack/03b-IPv6/icmpv6rpl.c ****    icmpv6rpl_vars.pio.prefLen               = 64;
 283              		.loc 1 90 0
 284 00fe 784B     		ldr	r3, .L5
 285 0100 4022     		movs	r2, #64
 286 0102 5A77     		strb	r2, [r3, #29]
  91:build/openmote-cc2538_armgcc/openstack/03b-IPv6/icmpv6rpl.c ****    icmpv6rpl_vars.pio.flags                 = 96;
 287              		.loc 1 91 0
 288 0104 764B     		ldr	r3, .L5
 289 0106 6022     		movs	r2, #96
 290 0108 9A77     		strb	r2, [r3, #30]
  92:build/openmote-cc2538_armgcc/openstack/03b-IPv6/icmpv6rpl.c ****    icmpv6rpl_vars.pio.plifetime             = 0xFFFFFFFF;
 291              		.loc 1 92 0
 292 010a 754B     		ldr	r3, .L5
 293 010c 4FF0FF32 		mov	r2, #-1
 294 0110 83F82320 		strb	r2, [r3, #35]
 295 0114 4FF0FF32 		mov	r2, #-1
 296 0118 83F82420 		strb	r2, [r3, #36]
 297 011c 4FF0FF32 		mov	r2, #-1
 298 0120 83F82520 		strb	r2, [r3, #37]
 299 0124 4FF0FF32 		mov	r2, #-1
 300 0128 83F82620 		strb	r2, [r3, #38]
  93:build/openmote-cc2538_armgcc/openstack/03b-IPv6/icmpv6rpl.c ****    icmpv6rpl_vars.pio.vlifetime             = 0xFFFFFFFF;
 301              		.loc 1 93 0
 302 012c 6C4B     		ldr	r3, .L5
 303 012e 4FF0FF32 		mov	r2, #-1
 304 0132 DA77     		strb	r2, [r3, #31]
 305 0134 4FF0FF32 		mov	r2, #-1
 306 0138 83F82020 		strb	r2, [r3, #32]
 307 013c 4FF0FF32 		mov	r2, #-1
 308 0140 83F82120 		strb	r2, [r3, #33]
 309 0144 4FF0FF32 		mov	r2, #-1
 310 0148 83F82220 		strb	r2, [r3, #34]
  94:build/openmote-cc2538_armgcc/openstack/03b-IPv6/icmpv6rpl.c ****    // if not dagroot then do not initialize, will receive PIO and update fields
  95:build/openmote-cc2538_armgcc/openstack/03b-IPv6/icmpv6rpl.c ****    // later
  96:build/openmote-cc2538_armgcc/openstack/03b-IPv6/icmpv6rpl.c ****    if (idmanager_getIsDAGroot()){
 311              		.loc 1 96 0
 312 014c FFF7FEFF 		bl	idmanager_getIsDAGroot
 313 0150 0346     		mov	r3, r0
 314 0152 002B     		cmp	r3, #0
 315 0154 13D0     		beq	.L4
  97:build/openmote-cc2538_armgcc/openstack/03b-IPv6/icmpv6rpl.c ****      memcpy(
  98:build/openmote-cc2538_armgcc/openstack/03b-IPv6/icmpv6rpl.c ****         &(icmpv6rpl_vars.pio.prefix[0]),
  99:build/openmote-cc2538_armgcc/openstack/03b-IPv6/icmpv6rpl.c ****         idmanager_getMyID(ADDR_PREFIX)->prefix,
 316              		.loc 1 99 0
 317 0156 0520     		movs	r0, #5
 318 0158 FFF7FEFF 		bl	idmanager_getMyID
 319 015c 0346     		mov	r3, r0
 320 015e 0133     		adds	r3, r3, #1
  97:build/openmote-cc2538_armgcc/openstack/03b-IPv6/icmpv6rpl.c ****      memcpy(
 321              		.loc 1 97 0
 322 0160 0822     		movs	r2, #8
 323 0162 1946     		mov	r1, r3
 324 0164 6048     		ldr	r0, .L5+8
 325 0166 FFF7FEFF 		bl	memcpy
 100:build/openmote-cc2538_armgcc/openstack/03b-IPv6/icmpv6rpl.c ****         sizeof(idmanager_getMyID(ADDR_PREFIX)->prefix)
 101:build/openmote-cc2538_armgcc/openstack/03b-IPv6/icmpv6rpl.c ****      );
 102:build/openmote-cc2538_armgcc/openstack/03b-IPv6/icmpv6rpl.c ****       memcpy(
 103:build/openmote-cc2538_armgcc/openstack/03b-IPv6/icmpv6rpl.c ****         &(icmpv6rpl_vars.pio.prefix[8]),
 104:build/openmote-cc2538_armgcc/openstack/03b-IPv6/icmpv6rpl.c ****         idmanager_getMyID(ADDR_64B)->addr_64b,
 326              		.loc 1 104 0
 327 016a 0220     		movs	r0, #2
 328 016c FFF7FEFF 		bl	idmanager_getMyID
 329 0170 0346     		mov	r3, r0
 330 0172 0133     		adds	r3, r3, #1
 102:build/openmote-cc2538_armgcc/openstack/03b-IPv6/icmpv6rpl.c ****         &(icmpv6rpl_vars.pio.prefix[8]),
 331              		.loc 1 102 0
 332 0174 0822     		movs	r2, #8
 333 0176 1946     		mov	r1, r3
 334 0178 5C48     		ldr	r0, .L5+12
 335 017a FFF7FEFF 		bl	memcpy
 336              	.L4:
 105:build/openmote-cc2538_armgcc/openstack/03b-IPv6/icmpv6rpl.c ****         sizeof(idmanager_getMyID(ADDR_64B)->addr_64b)
 106:build/openmote-cc2538_armgcc/openstack/03b-IPv6/icmpv6rpl.c ****      );
 107:build/openmote-cc2538_armgcc/openstack/03b-IPv6/icmpv6rpl.c ****    }
 108:build/openmote-cc2538_armgcc/openstack/03b-IPv6/icmpv6rpl.c ****    //configuration option 
 109:build/openmote-cc2538_armgcc/openstack/03b-IPv6/icmpv6rpl.c ****    icmpv6rpl_vars.conf.type = RPL_OPTION_CONFIG;
 337              		.loc 1 109 0
 338 017e 584B     		ldr	r3, .L5
 339 0180 0422     		movs	r2, #4
 340 0182 83F83B20 		strb	r2, [r3, #59]
 110:build/openmote-cc2538_armgcc/openstack/03b-IPv6/icmpv6rpl.c ****    icmpv6rpl_vars.conf.optLen = 14;
 341              		.loc 1 110 0
 342 0186 564B     		ldr	r3, .L5
 343 0188 0E22     		movs	r2, #14
 344 018a 83F83C20 		strb	r2, [r3, #60]
 111:build/openmote-cc2538_armgcc/openstack/03b-IPv6/icmpv6rpl.c ****    icmpv6rpl_vars.conf.flagsAPCS = DEFAULT_PATH_CONTROL_SIZE; //DEFAULT_PATH_CONTROL_SIZE = 0
 345              		.loc 1 111 0
 346 018e 544B     		ldr	r3, .L5
 347 0190 0022     		movs	r2, #0
 348 0192 83F83D20 		strb	r2, [r3, #61]
 112:build/openmote-cc2538_armgcc/openstack/03b-IPv6/icmpv6rpl.c ****    icmpv6rpl_vars.conf.DIOIntDoubl = 8; //8 -> trickle period - max times it will double ~20min
 349              		.loc 1 112 0
 350 0196 524B     		ldr	r3, .L5
 351 0198 0822     		movs	r2, #8
 352 019a 83F83E20 		strb	r2, [r3, #62]
 113:build/openmote-cc2538_armgcc/openstack/03b-IPv6/icmpv6rpl.c ****    icmpv6rpl_vars.conf.DIOIntMin = 12 ; // 12 ->  min trickle period -> 16s 
 353              		.loc 1 113 0
 354 019e 504B     		ldr	r3, .L5
 355 01a0 0C22     		movs	r2, #12
 356 01a2 83F83F20 		strb	r2, [r3, #63]
 114:build/openmote-cc2538_armgcc/openstack/03b-IPv6/icmpv6rpl.c ****    icmpv6rpl_vars.conf.DIORedun = 0 ; // 0
 357              		.loc 1 114 0
 358 01a6 4E4B     		ldr	r3, .L5
 359 01a8 0022     		movs	r2, #0
 360 01aa 83F84020 		strb	r2, [r3, #64]
 115:build/openmote-cc2538_armgcc/openstack/03b-IPv6/icmpv6rpl.c ****    icmpv6rpl_vars.conf.maxRankIncrease = 2048; //  2048
 361              		.loc 1 115 0
 362 01ae 4C4B     		ldr	r3, .L5
 363 01b0 0022     		movs	r2, #0
 364 01b2 83F84120 		strb	r2, [r3, #65]
 365 01b6 0022     		movs	r2, #0
 366 01b8 42F00802 		orr	r2, r2, #8
 367 01bc 83F84220 		strb	r2, [r3, #66]
 116:build/openmote-cc2538_armgcc/openstack/03b-IPv6/icmpv6rpl.c ****    icmpv6rpl_vars.conf.minHopRankIncrease = 256 ; //256
 368              		.loc 1 116 0
 369 01c0 474B     		ldr	r3, .L5
 370 01c2 0022     		movs	r2, #0
 371 01c4 83F84320 		strb	r2, [r3, #67]
 372 01c8 0022     		movs	r2, #0
 373 01ca 42F00102 		orr	r2, r2, #1
 374 01ce 83F84420 		strb	r2, [r3, #68]
 117:build/openmote-cc2538_armgcc/openstack/03b-IPv6/icmpv6rpl.c ****    icmpv6rpl_vars.conf.OCP = 0; // 0 OF0
 375              		.loc 1 117 0
 376 01d2 434B     		ldr	r3, .L5
 377 01d4 0022     		movs	r2, #0
 378 01d6 83F84520 		strb	r2, [r3, #69]
 379 01da 0022     		movs	r2, #0
 380 01dc 83F84620 		strb	r2, [r3, #70]
 118:build/openmote-cc2538_armgcc/openstack/03b-IPv6/icmpv6rpl.c ****    icmpv6rpl_vars.conf.reserved = 0;
 381              		.loc 1 118 0
 382 01e0 3F4B     		ldr	r3, .L5
 383 01e2 0022     		movs	r2, #0
 384 01e4 83F84720 		strb	r2, [r3, #71]
 119:build/openmote-cc2538_armgcc/openstack/03b-IPv6/icmpv6rpl.c ****    icmpv6rpl_vars.conf.defLifetime = 0xff; //infinite - limit for DAO period  -> 0xff 
 385              		.loc 1 119 0
 386 01e8 3D4B     		ldr	r3, .L5
 387 01ea FF22     		movs	r2, #255
 388 01ec 83F84820 		strb	r2, [r3, #72]
 120:build/openmote-cc2538_armgcc/openstack/03b-IPv6/icmpv6rpl.c ****    icmpv6rpl_vars.conf.lifetimeUnit = 0xffff; // 0xffff
 389              		.loc 1 120 0
 390 01f0 3B4B     		ldr	r3, .L5
 391 01f2 4FF0FF32 		mov	r2, #-1
 392 01f6 83F84920 		strb	r2, [r3, #73]
 393 01fa 4FF0FF32 		mov	r2, #-1
 394 01fe 83F84A20 		strb	r2, [r3, #74]
 121:build/openmote-cc2538_armgcc/openstack/03b-IPv6/icmpv6rpl.c ****    
 122:build/openmote-cc2538_armgcc/openstack/03b-IPv6/icmpv6rpl.c ****    opentimers_scheduleIn(
 395              		.loc 1 122 0
 396 0202 374B     		ldr	r3, .L5
 397 0204 93F85E40 		ldrb	r4, [r3, #94]	@ zero_extendqisi2
 123:build/openmote-cc2538_armgcc/openstack/03b-IPv6/icmpv6rpl.c ****        icmpv6rpl_vars.timerIdDIO,
 124:build/openmote-cc2538_armgcc/openstack/03b-IPv6/icmpv6rpl.c ****        872 +(openrandom_get16b()&0xff),
 398              		.loc 1 124 0
 399 0208 FFF7FEFF 		bl	openrandom_get16b
 400 020c 0346     		mov	r3, r0
 401 020e DBB2     		uxtb	r3, r3
 402 0210 03F55A73 		add	r3, r3, #872
 122:build/openmote-cc2538_armgcc/openstack/03b-IPv6/icmpv6rpl.c ****        icmpv6rpl_vars.timerIdDIO,
 403              		.loc 1 122 0
 404 0214 1946     		mov	r1, r3
 405 0216 364B     		ldr	r3, .L5+16
 406 0218 0093     		str	r3, [sp]
 407 021a 0123     		movs	r3, #1
 408 021c 0022     		movs	r2, #0
 409 021e 2046     		mov	r0, r4
 410 0220 FFF7FEFF 		bl	opentimers_scheduleIn
 125:build/openmote-cc2538_armgcc/openstack/03b-IPv6/icmpv6rpl.c ****        TIME_MS,
 126:build/openmote-cc2538_armgcc/openstack/03b-IPv6/icmpv6rpl.c ****        TIMER_ONESHOT,
 127:build/openmote-cc2538_armgcc/openstack/03b-IPv6/icmpv6rpl.c ****        icmpv6rpl_timer_DIO_cb
 128:build/openmote-cc2538_armgcc/openstack/03b-IPv6/icmpv6rpl.c ****    );
 129:build/openmote-cc2538_armgcc/openstack/03b-IPv6/icmpv6rpl.c **** 
 130:build/openmote-cc2538_armgcc/openstack/03b-IPv6/icmpv6rpl.c ****    //=== DAO
 131:build/openmote-cc2538_armgcc/openstack/03b-IPv6/icmpv6rpl.c ****    
 132:build/openmote-cc2538_armgcc/openstack/03b-IPv6/icmpv6rpl.c ****    icmpv6rpl_vars.dao.rplinstanceId         = 0x00;        ///< TODO: put correct value
 411              		.loc 1 132 0
 412 0224 2E4B     		ldr	r3, .L5
 413 0226 0022     		movs	r2, #0
 414 0228 83F86220 		strb	r2, [r3, #98]
 133:build/openmote-cc2538_armgcc/openstack/03b-IPv6/icmpv6rpl.c ****    icmpv6rpl_vars.dao.K_D_flags             = FLAG_DAO_A   | \
 415              		.loc 1 133 0
 416 022c 2C4B     		ldr	r3, .L5
 417 022e 4022     		movs	r2, #64
 418 0230 83F86320 		strb	r2, [r3, #99]
 134:build/openmote-cc2538_armgcc/openstack/03b-IPv6/icmpv6rpl.c ****                                               FLAG_DAO_B   | \
 135:build/openmote-cc2538_armgcc/openstack/03b-IPv6/icmpv6rpl.c ****                                               FLAG_DAO_C   | \
 136:build/openmote-cc2538_armgcc/openstack/03b-IPv6/icmpv6rpl.c ****                                               FLAG_DAO_D   | \
 137:build/openmote-cc2538_armgcc/openstack/03b-IPv6/icmpv6rpl.c ****                                               FLAG_DAO_E   | \
 138:build/openmote-cc2538_armgcc/openstack/03b-IPv6/icmpv6rpl.c ****                                               PRF_DIO_C    | \
 139:build/openmote-cc2538_armgcc/openstack/03b-IPv6/icmpv6rpl.c ****                                               FLAG_DAO_F   | \
 140:build/openmote-cc2538_armgcc/openstack/03b-IPv6/icmpv6rpl.c ****                                               D_DAO        |
 141:build/openmote-cc2538_armgcc/openstack/03b-IPv6/icmpv6rpl.c ****                                               K_DAO;
 142:build/openmote-cc2538_armgcc/openstack/03b-IPv6/icmpv6rpl.c ****    icmpv6rpl_vars.dao.reserved              = 0x00;
 419              		.loc 1 142 0
 420 0234 2A4B     		ldr	r3, .L5
 421 0236 0022     		movs	r2, #0
 422 0238 83F86420 		strb	r2, [r3, #100]
 143:build/openmote-cc2538_armgcc/openstack/03b-IPv6/icmpv6rpl.c ****    icmpv6rpl_vars.dao.DAOSequence           = 0x00;
 423              		.loc 1 143 0
 424 023c 284B     		ldr	r3, .L5
 425 023e 0022     		movs	r2, #0
 426 0240 83F86520 		strb	r2, [r3, #101]
 144:build/openmote-cc2538_armgcc/openstack/03b-IPv6/icmpv6rpl.c ****    memcpy(
 427              		.loc 1 144 0
 428 0244 264B     		ldr	r3, .L5
 429 0246 03F16604 		add	r4, r3, #102
 430 024a 3D46     		mov	r5, r7
 431 024c 0FCD     		ldmia	r5!, {r0, r1, r2, r3}
 432 024e 2060     		str	r0, [r4]	@ unaligned
 433 0250 6160     		str	r1, [r4, #4]	@ unaligned
 434 0252 A260     		str	r2, [r4, #8]	@ unaligned
 435 0254 E360     		str	r3, [r4, #12]	@ unaligned
 145:build/openmote-cc2538_armgcc/openstack/03b-IPv6/icmpv6rpl.c ****       &(icmpv6rpl_vars.dao.DODAGID[0]),
 146:build/openmote-cc2538_armgcc/openstack/03b-IPv6/icmpv6rpl.c ****       dodagid,
 147:build/openmote-cc2538_armgcc/openstack/03b-IPv6/icmpv6rpl.c ****       sizeof(icmpv6rpl_vars.dao.DODAGID)
 148:build/openmote-cc2538_armgcc/openstack/03b-IPv6/icmpv6rpl.c ****    );  // can be replaced later
 149:build/openmote-cc2538_armgcc/openstack/03b-IPv6/icmpv6rpl.c ****    
 150:build/openmote-cc2538_armgcc/openstack/03b-IPv6/icmpv6rpl.c ****    icmpv6rpl_vars.dao_transit.type          = OPTION_TRANSIT_INFORMATION_TYPE;
 436              		.loc 1 150 0
 437 0256 224B     		ldr	r3, .L5
 438 0258 0622     		movs	r2, #6
 439 025a 83F87620 		strb	r2, [r3, #118]
 151:build/openmote-cc2538_armgcc/openstack/03b-IPv6/icmpv6rpl.c ****    // optionLength: to be populated upon TX
 152:build/openmote-cc2538_armgcc/openstack/03b-IPv6/icmpv6rpl.c ****    icmpv6rpl_vars.dao_transit.E_flags       = E_DAO_Transit_Info;
 440              		.loc 1 152 0
 441 025e 204B     		ldr	r3, .L5
 442 0260 0022     		movs	r2, #0
 443 0262 83F87820 		strb	r2, [r3, #120]
 153:build/openmote-cc2538_armgcc/openstack/03b-IPv6/icmpv6rpl.c ****    icmpv6rpl_vars.dao_transit.PathControl   = PC1_A_DAO_Transit_Info | \
 444              		.loc 1 153 0
 445 0266 1E4B     		ldr	r3, .L5
 446 0268 4022     		movs	r2, #64
 447 026a 83F87920 		strb	r2, [r3, #121]
 154:build/openmote-cc2538_armgcc/openstack/03b-IPv6/icmpv6rpl.c ****                                               PC1_B_DAO_Transit_Info | \
 155:build/openmote-cc2538_armgcc/openstack/03b-IPv6/icmpv6rpl.c ****                                               PC2_A_DAO_Transit_Info | \
 156:build/openmote-cc2538_armgcc/openstack/03b-IPv6/icmpv6rpl.c ****                                               PC2_B_DAO_Transit_Info | \
 157:build/openmote-cc2538_armgcc/openstack/03b-IPv6/icmpv6rpl.c ****                                               PC3_A_DAO_Transit_Info | \
 158:build/openmote-cc2538_armgcc/openstack/03b-IPv6/icmpv6rpl.c ****                                               PC3_B_DAO_Transit_Info | \
 159:build/openmote-cc2538_armgcc/openstack/03b-IPv6/icmpv6rpl.c ****                                               PC4_A_DAO_Transit_Info | \
 160:build/openmote-cc2538_armgcc/openstack/03b-IPv6/icmpv6rpl.c ****                                               PC4_B_DAO_Transit_Info;  
 161:build/openmote-cc2538_armgcc/openstack/03b-IPv6/icmpv6rpl.c ****    icmpv6rpl_vars.dao_transit.PathSequence  = 0x00; // to be incremented at each TX
 448              		.loc 1 161 0
 449 026e 1C4B     		ldr	r3, .L5
 450 0270 0022     		movs	r2, #0
 451 0272 83F87A20 		strb	r2, [r3, #122]
 162:build/openmote-cc2538_armgcc/openstack/03b-IPv6/icmpv6rpl.c ****    icmpv6rpl_vars.dao_transit.PathLifetime  = 0xAA;
 452              		.loc 1 162 0
 453 0276 1A4B     		ldr	r3, .L5
 454 0278 AA22     		movs	r2, #170
 455 027a 83F87B20 		strb	r2, [r3, #123]
 163:build/openmote-cc2538_armgcc/openstack/03b-IPv6/icmpv6rpl.c ****    //target information
 164:build/openmote-cc2538_armgcc/openstack/03b-IPv6/icmpv6rpl.c ****    icmpv6rpl_vars.dao_target.type  = OPTION_TARGET_INFORMATION_TYPE;
 456              		.loc 1 164 0
 457 027e 184B     		ldr	r3, .L5
 458 0280 0522     		movs	r2, #5
 459 0282 83F87C20 		strb	r2, [r3, #124]
 165:build/openmote-cc2538_armgcc/openstack/03b-IPv6/icmpv6rpl.c ****    icmpv6rpl_vars.dao_target.optionLength  = 0;
 460              		.loc 1 165 0
 461 0286 164B     		ldr	r3, .L5
 462 0288 0022     		movs	r2, #0
 463 028a 83F87D20 		strb	r2, [r3, #125]
 166:build/openmote-cc2538_armgcc/openstack/03b-IPv6/icmpv6rpl.c ****    icmpv6rpl_vars.dao_target.flags  = 0;
 464              		.loc 1 166 0
 465 028e 144B     		ldr	r3, .L5
 466 0290 0022     		movs	r2, #0
 467 0292 83F87E20 		strb	r2, [r3, #126]
 167:build/openmote-cc2538_armgcc/openstack/03b-IPv6/icmpv6rpl.c ****    icmpv6rpl_vars.dao_target.prefixLength = 0;
 468              		.loc 1 167 0
 469 0296 124B     		ldr	r3, .L5
 470 0298 0022     		movs	r2, #0
 471 029a 83F87F20 		strb	r2, [r3, #127]
 168:build/openmote-cc2538_armgcc/openstack/03b-IPv6/icmpv6rpl.c ****    
 169:build/openmote-cc2538_armgcc/openstack/03b-IPv6/icmpv6rpl.c ****    icmpv6rpl_vars.daoPeriod                 = TIMER_DAO_TIMEOUT;
 472              		.loc 1 169 0
 473 029e 104B     		ldr	r3, .L5
 474 02a0 3C22     		movs	r2, #60
 475 02a2 A3F88420 		strh	r2, [r3, #132]	@ movhi
 170:build/openmote-cc2538_armgcc/openstack/03b-IPv6/icmpv6rpl.c ****    icmpv6rpl_vars.timerIdDAO                = opentimers_create();
 476              		.loc 1 170 0
 477 02a6 FFF7FEFF 		bl	opentimers_create
 478 02aa 0346     		mov	r3, r0
 479 02ac 1A46     		mov	r2, r3
 480 02ae 0C4B     		ldr	r3, .L5
 481 02b0 83F88020 		strb	r2, [r3, #128]
 171:build/openmote-cc2538_armgcc/openstack/03b-IPv6/icmpv6rpl.c ****    opentimers_scheduleIn(
 482              		.loc 1 171 0
 483 02b4 0A4B     		ldr	r3, .L5
 484 02b6 93F88040 		ldrb	r4, [r3, #128]	@ zero_extendqisi2
 172:build/openmote-cc2538_armgcc/openstack/03b-IPv6/icmpv6rpl.c ****        icmpv6rpl_vars.timerIdDAO,
 173:build/openmote-cc2538_armgcc/openstack/03b-IPv6/icmpv6rpl.c ****        872 +(openrandom_get16b()&0xff),
 485              		.loc 1 173 0
 486 02ba FFF7FEFF 		bl	openrandom_get16b
 487 02be 0346     		mov	r3, r0
 488 02c0 DBB2     		uxtb	r3, r3
 489 02c2 03F55A73 		add	r3, r3, #872
 171:build/openmote-cc2538_armgcc/openstack/03b-IPv6/icmpv6rpl.c ****    opentimers_scheduleIn(
 490              		.loc 1 171 0
 491 02c6 1946     		mov	r1, r3
 492 02c8 0A4B     		ldr	r3, .L5+20
 493 02ca 0093     		str	r3, [sp]
 494 02cc 0123     		movs	r3, #1
 495 02ce 0022     		movs	r2, #0
 496 02d0 2046     		mov	r0, r4
 497 02d2 FFF7FEFF 		bl	opentimers_scheduleIn
 174:build/openmote-cc2538_armgcc/openstack/03b-IPv6/icmpv6rpl.c ****        TIME_MS,
 175:build/openmote-cc2538_armgcc/openstack/03b-IPv6/icmpv6rpl.c ****        TIMER_ONESHOT,
 176:build/openmote-cc2538_armgcc/openstack/03b-IPv6/icmpv6rpl.c ****        icmpv6rpl_timer_DAO_cb
 177:build/openmote-cc2538_armgcc/openstack/03b-IPv6/icmpv6rpl.c ****    );
 178:build/openmote-cc2538_armgcc/openstack/03b-IPv6/icmpv6rpl.c **** }
 498              		.loc 1 178 0
 499 02d6 00BF     		nop
 500 02d8 1037     		adds	r7, r7, #16
 501              		.cfi_def_cfa_offset 16
 502 02da BD46     		mov	sp, r7
 503              		.cfi_def_cfa_register 13
 504              		@ sp needed
 505 02dc B0BD     		pop	{r4, r5, r7, pc}
 506              	.L6:
 507 02de 00BF     		.align	2
 508              	.L5:
 509 02e0 00000000 		.word	icmpv6rpl_vars
 510 02e4 30000000 		.word	all_routers_multicast
 511 02e8 2B000000 		.word	icmpv6rpl_vars+43
 512 02ec 33000000 		.word	icmpv6rpl_vars+51
 513 02f0 00000000 		.word	icmpv6rpl_timer_DIO_cb
 514 02f4 00000000 		.word	icmpv6rpl_timer_DAO_cb
 515              		.cfi_endproc
 516              	.LFE0:
 518              		.align	2
 519              		.global	icmpv6rpl_writeDODAGid
 520              		.thumb
 521              		.thumb_func
 523              	icmpv6rpl_writeDODAGid:
 524              	.LFB1:
 179:build/openmote-cc2538_armgcc/openstack/03b-IPv6/icmpv6rpl.c **** 
 180:build/openmote-cc2538_armgcc/openstack/03b-IPv6/icmpv6rpl.c **** void  icmpv6rpl_writeDODAGid(uint8_t* dodagid) {
 525              		.loc 1 180 0
 526              		.cfi_startproc
 527              		@ args = 0, pretend = 0, frame = 8
 528              		@ frame_needed = 1, uses_anonymous_args = 0
 529 02f8 80B5     		push	{r7, lr}
 530              		.cfi_def_cfa_offset 8
 531              		.cfi_offset 7, -8
 532              		.cfi_offset 14, -4
 533 02fa 82B0     		sub	sp, sp, #8
 534              		.cfi_def_cfa_offset 16
 535 02fc 00AF     		add	r7, sp, #0
 536              		.cfi_def_cfa_register 7
 537 02fe 7860     		str	r0, [r7, #4]
 181:build/openmote-cc2538_armgcc/openstack/03b-IPv6/icmpv6rpl.c ****    
 182:build/openmote-cc2538_armgcc/openstack/03b-IPv6/icmpv6rpl.c ****    // write DODAGID to DIO/DAO
 183:build/openmote-cc2538_armgcc/openstack/03b-IPv6/icmpv6rpl.c ****    memcpy(
 538              		.loc 1 183 0
 539 0300 1022     		movs	r2, #16
 540 0302 7968     		ldr	r1, [r7, #4]
 541 0304 0748     		ldr	r0, .L8
 542 0306 FFF7FEFF 		bl	memcpy
 184:build/openmote-cc2538_armgcc/openstack/03b-IPv6/icmpv6rpl.c ****       &(icmpv6rpl_vars.dio.DODAGID[0]),
 185:build/openmote-cc2538_armgcc/openstack/03b-IPv6/icmpv6rpl.c ****       dodagid,
 186:build/openmote-cc2538_armgcc/openstack/03b-IPv6/icmpv6rpl.c ****       sizeof(icmpv6rpl_vars.dio.DODAGID)
 187:build/openmote-cc2538_armgcc/openstack/03b-IPv6/icmpv6rpl.c ****    );
 188:build/openmote-cc2538_armgcc/openstack/03b-IPv6/icmpv6rpl.c ****    memcpy(
 543              		.loc 1 188 0
 544 030a 1022     		movs	r2, #16
 545 030c 7968     		ldr	r1, [r7, #4]
 546 030e 0648     		ldr	r0, .L8+4
 547 0310 FFF7FEFF 		bl	memcpy
 189:build/openmote-cc2538_armgcc/openstack/03b-IPv6/icmpv6rpl.c ****       &(icmpv6rpl_vars.dao.DODAGID[0]),
 190:build/openmote-cc2538_armgcc/openstack/03b-IPv6/icmpv6rpl.c ****       dodagid,
 191:build/openmote-cc2538_armgcc/openstack/03b-IPv6/icmpv6rpl.c ****       sizeof(icmpv6rpl_vars.dao.DODAGID)
 192:build/openmote-cc2538_armgcc/openstack/03b-IPv6/icmpv6rpl.c ****    );
 193:build/openmote-cc2538_armgcc/openstack/03b-IPv6/icmpv6rpl.c ****    
 194:build/openmote-cc2538_armgcc/openstack/03b-IPv6/icmpv6rpl.c ****    // remember I got a DODAGID
 195:build/openmote-cc2538_armgcc/openstack/03b-IPv6/icmpv6rpl.c ****    icmpv6rpl_vars.fDodagidWritten = 1;
 548              		.loc 1 195 0
 549 0314 054B     		ldr	r3, .L8+8
 550 0316 0122     		movs	r2, #1
 551 0318 9A70     		strb	r2, [r3, #2]
 196:build/openmote-cc2538_armgcc/openstack/03b-IPv6/icmpv6rpl.c **** }
 552              		.loc 1 196 0
 553 031a 00BF     		nop
 554 031c 0837     		adds	r7, r7, #8
 555              		.cfi_def_cfa_offset 8
 556 031e BD46     		mov	sp, r7
 557              		.cfi_def_cfa_register 13
 558              		@ sp needed
 559 0320 80BD     		pop	{r7, pc}
 560              	.L9:
 561 0322 00BF     		.align	2
 562              	.L8:
 563 0324 0B000000 		.word	icmpv6rpl_vars+11
 564 0328 66000000 		.word	icmpv6rpl_vars+102
 565 032c 00000000 		.word	icmpv6rpl_vars
 566              		.cfi_endproc
 567              	.LFE1:
 569              		.align	2
 570              		.global	icmpv6rpl_getRPLIntanceID
 571              		.thumb
 572              		.thumb_func
 574              	icmpv6rpl_getRPLIntanceID:
 575              	.LFB2:
 197:build/openmote-cc2538_armgcc/openstack/03b-IPv6/icmpv6rpl.c **** 
 198:build/openmote-cc2538_armgcc/openstack/03b-IPv6/icmpv6rpl.c **** uint8_t icmpv6rpl_getRPLIntanceID(){
 576              		.loc 1 198 0
 577              		.cfi_startproc
 578              		@ args = 0, pretend = 0, frame = 0
 579              		@ frame_needed = 1, uses_anonymous_args = 0
 580              		@ link register save eliminated.
 581 0330 80B4     		push	{r7}
 582              		.cfi_def_cfa_offset 4
 583              		.cfi_offset 7, -4
 584 0332 00AF     		add	r7, sp, #0
 585              		.cfi_def_cfa_register 7
 199:build/openmote-cc2538_armgcc/openstack/03b-IPv6/icmpv6rpl.c ****    return icmpv6rpl_vars.dao.rplinstanceId;
 586              		.loc 1 199 0
 587 0334 034B     		ldr	r3, .L12
 588 0336 93F86230 		ldrb	r3, [r3, #98]	@ zero_extendqisi2
 200:build/openmote-cc2538_armgcc/openstack/03b-IPv6/icmpv6rpl.c **** }
 589              		.loc 1 200 0
 590 033a 1846     		mov	r0, r3
 591 033c BD46     		mov	sp, r7
 592              		.cfi_def_cfa_register 13
 593              		@ sp needed
 594 033e 80BC     		pop	{r7}
 595              		.cfi_restore 7
 596              		.cfi_def_cfa_offset 0
 597 0340 7047     		bx	lr
 598              	.L13:
 599 0342 00BF     		.align	2
 600              	.L12:
 601 0344 00000000 		.word	icmpv6rpl_vars
 602              		.cfi_endproc
 603              	.LFE2:
 605              		.align	2
 606              		.global	icmpv6rpl_getRPLDODAGid
 607              		.thumb
 608              		.thumb_func
 610              	icmpv6rpl_getRPLDODAGid:
 611              	.LFB3:
 201:build/openmote-cc2538_armgcc/openstack/03b-IPv6/icmpv6rpl.c ****                                                 
 202:build/openmote-cc2538_armgcc/openstack/03b-IPv6/icmpv6rpl.c **** owerror_t icmpv6rpl_getRPLDODAGid(uint8_t* address_128b){
 612              		.loc 1 202 0
 613              		.cfi_startproc
 614              		@ args = 0, pretend = 0, frame = 8
 615              		@ frame_needed = 1, uses_anonymous_args = 0
 616              		@ link register save eliminated.
 617 0348 90B4     		push	{r4, r7}
 618              		.cfi_def_cfa_offset 8
 619              		.cfi_offset 4, -8
 620              		.cfi_offset 7, -4
 621 034a 82B0     		sub	sp, sp, #8
 622              		.cfi_def_cfa_offset 16
 623 034c 00AF     		add	r7, sp, #0
 624              		.cfi_def_cfa_register 7
 625 034e 7860     		str	r0, [r7, #4]
 203:build/openmote-cc2538_armgcc/openstack/03b-IPv6/icmpv6rpl.c ****    if (icmpv6rpl_vars.fDodagidWritten) {
 626              		.loc 1 203 0
 627 0350 0B4B     		ldr	r3, .L17
 628 0352 9B78     		ldrb	r3, [r3, #2]	@ zero_extendqisi2
 629 0354 002B     		cmp	r3, #0
 630 0356 0CD0     		beq	.L15
 204:build/openmote-cc2538_armgcc/openstack/03b-IPv6/icmpv6rpl.c ****        memcpy(address_128b,icmpv6rpl_vars.dao.DODAGID,16);
 631              		.loc 1 204 0
 632 0358 7A68     		ldr	r2, [r7, #4]
 633 035a 094B     		ldr	r3, .L17
 634 035c 6633     		adds	r3, r3, #102
 635 035e 1C68     		ldr	r4, [r3]	@ unaligned
 636 0360 5868     		ldr	r0, [r3, #4]	@ unaligned
 637 0362 9968     		ldr	r1, [r3, #8]	@ unaligned
 638 0364 DB68     		ldr	r3, [r3, #12]	@ unaligned
 639 0366 1460     		str	r4, [r2]	@ unaligned
 640 0368 5060     		str	r0, [r2, #4]	@ unaligned
 641 036a 9160     		str	r1, [r2, #8]	@ unaligned
 642 036c D360     		str	r3, [r2, #12]	@ unaligned
 205:build/openmote-cc2538_armgcc/openstack/03b-IPv6/icmpv6rpl.c ****        return E_SUCCESS;
 643              		.loc 1 205 0
 644 036e 0023     		movs	r3, #0
 645 0370 00E0     		b	.L16
 646              	.L15:
 206:build/openmote-cc2538_armgcc/openstack/03b-IPv6/icmpv6rpl.c ****    }
 207:build/openmote-cc2538_armgcc/openstack/03b-IPv6/icmpv6rpl.c ****    return E_FAIL;
 647              		.loc 1 207 0
 648 0372 0123     		movs	r3, #1
 649              	.L16:
 208:build/openmote-cc2538_armgcc/openstack/03b-IPv6/icmpv6rpl.c **** }
 650              		.loc 1 208 0
 651 0374 1846     		mov	r0, r3
 652 0376 0837     		adds	r7, r7, #8
 653              		.cfi_def_cfa_offset 8
 654 0378 BD46     		mov	sp, r7
 655              		.cfi_def_cfa_register 13
 656              		@ sp needed
 657 037a 90BC     		pop	{r4, r7}
 658              		.cfi_restore 7
 659              		.cfi_restore 4
 660              		.cfi_def_cfa_offset 0
 661 037c 7047     		bx	lr
 662              	.L18:
 663 037e 00BF     		.align	2
 664              	.L17:
 665 0380 00000000 		.word	icmpv6rpl_vars
 666              		.cfi_endproc
 667              	.LFE3:
 669              		.align	2
 670              		.global	icmpv6rpl_sendDone
 671              		.thumb
 672              		.thumb_func
 674              	icmpv6rpl_sendDone:
 675              	.LFB4:
 209:build/openmote-cc2538_armgcc/openstack/03b-IPv6/icmpv6rpl.c **** 
 210:build/openmote-cc2538_armgcc/openstack/03b-IPv6/icmpv6rpl.c **** /**
 211:build/openmote-cc2538_armgcc/openstack/03b-IPv6/icmpv6rpl.c **** \brief Called when DIO/DAO was sent.
 212:build/openmote-cc2538_armgcc/openstack/03b-IPv6/icmpv6rpl.c **** 
 213:build/openmote-cc2538_armgcc/openstack/03b-IPv6/icmpv6rpl.c **** \param[in] msg   Pointer to the message just sent.
 214:build/openmote-cc2538_armgcc/openstack/03b-IPv6/icmpv6rpl.c **** \param[in] error Outcome of the sending.
 215:build/openmote-cc2538_armgcc/openstack/03b-IPv6/icmpv6rpl.c **** */
 216:build/openmote-cc2538_armgcc/openstack/03b-IPv6/icmpv6rpl.c **** void icmpv6rpl_sendDone(OpenQueueEntry_t* msg, owerror_t error) {
 676              		.loc 1 216 0
 677              		.cfi_startproc
 678              		@ args = 0, pretend = 0, frame = 8
 679              		@ frame_needed = 1, uses_anonymous_args = 0
 680 0384 80B5     		push	{r7, lr}
 681              		.cfi_def_cfa_offset 8
 682              		.cfi_offset 7, -8
 683              		.cfi_offset 14, -4
 684 0386 82B0     		sub	sp, sp, #8
 685              		.cfi_def_cfa_offset 16
 686 0388 00AF     		add	r7, sp, #0
 687              		.cfi_def_cfa_register 7
 688 038a 7860     		str	r0, [r7, #4]
 689 038c 0B46     		mov	r3, r1
 690 038e FB70     		strb	r3, [r7, #3]
 217:build/openmote-cc2538_armgcc/openstack/03b-IPv6/icmpv6rpl.c ****    
 218:build/openmote-cc2538_armgcc/openstack/03b-IPv6/icmpv6rpl.c ****    // take ownership over that packet
 219:build/openmote-cc2538_armgcc/openstack/03b-IPv6/icmpv6rpl.c ****    msg->owner = COMPONENT_ICMPv6RPL;
 691              		.loc 1 219 0
 692 0390 7B68     		ldr	r3, [r7, #4]
 693 0392 1722     		movs	r2, #23
 694 0394 5A70     		strb	r2, [r3, #1]
 220:build/openmote-cc2538_armgcc/openstack/03b-IPv6/icmpv6rpl.c ****    
 221:build/openmote-cc2538_armgcc/openstack/03b-IPv6/icmpv6rpl.c ****    // make sure I created it
 222:build/openmote-cc2538_armgcc/openstack/03b-IPv6/icmpv6rpl.c ****    if (msg->creator!=COMPONENT_ICMPv6RPL) {
 695              		.loc 1 222 0
 696 0396 7B68     		ldr	r3, [r7, #4]
 697 0398 1B78     		ldrb	r3, [r3]	@ zero_extendqisi2
 698 039a 172B     		cmp	r3, #23
 699 039c 05D0     		beq	.L20
 223:build/openmote-cc2538_armgcc/openstack/03b-IPv6/icmpv6rpl.c ****       openserial_printError(COMPONENT_ICMPv6RPL,ERR_UNEXPECTED_SENDDONE,
 700              		.loc 1 223 0
 701 039e 0023     		movs	r3, #0
 702 03a0 0022     		movs	r2, #0
 703 03a2 2B21     		movs	r1, #43
 704 03a4 1720     		movs	r0, #23
 705 03a6 FFF7FEFF 		bl	openserial_printError
 706              	.L20:
 224:build/openmote-cc2538_armgcc/openstack/03b-IPv6/icmpv6rpl.c ****                             (errorparameter_t)0,
 225:build/openmote-cc2538_armgcc/openstack/03b-IPv6/icmpv6rpl.c ****                             (errorparameter_t)0);
 226:build/openmote-cc2538_armgcc/openstack/03b-IPv6/icmpv6rpl.c ****    }
 227:build/openmote-cc2538_armgcc/openstack/03b-IPv6/icmpv6rpl.c ****    
 228:build/openmote-cc2538_armgcc/openstack/03b-IPv6/icmpv6rpl.c ****    if (msg->isDioFake==TRUE){
 707              		.loc 1 228 0
 708 03aa 7B68     		ldr	r3, [r7, #4]
 709 03ac 93F84331 		ldrb	r3, [r3, #323]	@ zero_extendqisi2
 710 03b0 002B     		cmp	r3, #0
 711 03b2 14D0     		beq	.L21
 712              	.LBB2:
 229:build/openmote-cc2538_armgcc/openstack/03b-IPv6/icmpv6rpl.c **** 		//printf("I am WISHPER node %d, FAKE DIO SEND DONE \n", idmanager_getMyID(ADDR_64B)->addr_64b[7])
 230:build/openmote-cc2538_armgcc/openstack/03b-IPv6/icmpv6rpl.c **** 		if (whisper_getState() == 3){
 713              		.loc 1 230 0
 714 03b4 FFF7FEFF 		bl	whisper_getState
 715 03b8 0346     		mov	r3, r0
 716 03ba 032B     		cmp	r3, #3
 717 03bc 0FD1     		bne	.L21
 718              	.LBB3:
 231:build/openmote-cc2538_armgcc/openstack/03b-IPv6/icmpv6rpl.c **** 			if (whisper_getSentDIOs() == 0){
 719              		.loc 1 231 0
 720 03be FFF7FEFF 		bl	whisper_getSentDIOs
 721 03c2 0346     		mov	r3, r0
 722 03c4 002B     		cmp	r3, #0
 723 03c6 03D1     		bne	.L22
 724              	.LBB4:
 232:build/openmote-cc2538_armgcc/openstack/03b-IPv6/icmpv6rpl.c **** 				whisper_setSentDIOs(1);
 725              		.loc 1 232 0
 726 03c8 0120     		movs	r0, #1
 727 03ca FFF7FEFF 		bl	whisper_setSentDIOs
 728              	.LBE4:
 729 03ce 06E0     		b	.L21
 730              	.L22:
 233:build/openmote-cc2538_armgcc/openstack/03b-IPv6/icmpv6rpl.c **** 			//	printf("I am WISHPER node %d, FAKE DIO 1 SEND DONE wait 1 more \n", idmanager_getMyID(ADDR_64
 234:build/openmote-cc2538_armgcc/openstack/03b-IPv6/icmpv6rpl.c **** 			}else{
 235:build/openmote-cc2538_armgcc/openstack/03b-IPv6/icmpv6rpl.c **** 				if (whisper_getSentDIOs() == 1){
 731              		.loc 1 235 0
 732 03d0 FFF7FEFF 		bl	whisper_getSentDIOs
 733 03d4 0346     		mov	r3, r0
 734 03d6 012B     		cmp	r3, #1
 735 03d8 01D1     		bne	.L21
 736              	.LBB5:
 236:build/openmote-cc2538_armgcc/openstack/03b-IPv6/icmpv6rpl.c **** 				//	printf("I am WISHPER node %d, FAKE DIO 2 SEND DONE NEXT STEP \n", idmanager_getMyID(ADDR_64B
 237:build/openmote-cc2538_armgcc/openstack/03b-IPv6/icmpv6rpl.c **** 					whisper_trigger_nextStep();
 737              		.loc 1 237 0
 738 03da FFF7FEFF 		bl	whisper_trigger_nextStep
 739              	.L21:
 740              	.LBE5:
 741              	.LBE3:
 742              	.LBE2:
 238:build/openmote-cc2538_armgcc/openstack/03b-IPv6/icmpv6rpl.c **** 				}
 239:build/openmote-cc2538_armgcc/openstack/03b-IPv6/icmpv6rpl.c **** //				else{
 240:build/openmote-cc2538_armgcc/openstack/03b-IPv6/icmpv6rpl.c **** //					/printf("I am WISHPER node %d, UNONWKN ERROR \n", idmanager_getMyID(ADDR_64B)->addr_64b[7]);
 241:build/openmote-cc2538_armgcc/openstack/03b-IPv6/icmpv6rpl.c **** //				}
 242:build/openmote-cc2538_armgcc/openstack/03b-IPv6/icmpv6rpl.c **** 			}
 243:build/openmote-cc2538_armgcc/openstack/03b-IPv6/icmpv6rpl.c **** 
 244:build/openmote-cc2538_armgcc/openstack/03b-IPv6/icmpv6rpl.c **** 		}
 245:build/openmote-cc2538_armgcc/openstack/03b-IPv6/icmpv6rpl.c **** //		else{
 246:build/openmote-cc2538_armgcc/openstack/03b-IPv6/icmpv6rpl.c **** //			printf("I am WISHPER node %d, FAKE DIO SEND DONE BAD STATE \n", idmanager_getMyID(ADDR_64B)->a
 247:build/openmote-cc2538_armgcc/openstack/03b-IPv6/icmpv6rpl.c **** //		}
 248:build/openmote-cc2538_armgcc/openstack/03b-IPv6/icmpv6rpl.c **** 
 249:build/openmote-cc2538_armgcc/openstack/03b-IPv6/icmpv6rpl.c ****    }
 250:build/openmote-cc2538_armgcc/openstack/03b-IPv6/icmpv6rpl.c **** 
 251:build/openmote-cc2538_armgcc/openstack/03b-IPv6/icmpv6rpl.c **** //   if (msg->isDioFake==TRUE){
 252:build/openmote-cc2538_armgcc/openstack/03b-IPv6/icmpv6rpl.c **** //
 253:build/openmote-cc2538_armgcc/openstack/03b-IPv6/icmpv6rpl.c **** //	   icmpv6rpl_vars.busySendingDIO = FALSE;
 254:build/openmote-cc2538_armgcc/openstack/03b-IPv6/icmpv6rpl.c **** //
 255:build/openmote-cc2538_armgcc/openstack/03b-IPv6/icmpv6rpl.c **** //		printf("I am WISHPER node %d, DIO SEND DONE. Checking if I need to send another FAKE DIO \n", i
 256:build/openmote-cc2538_armgcc/openstack/03b-IPv6/icmpv6rpl.c **** //
 257:build/openmote-cc2538_armgcc/openstack/03b-IPv6/icmpv6rpl.c **** //		whisper_trigger_nextStep();
 258:build/openmote-cc2538_armgcc/openstack/03b-IPv6/icmpv6rpl.c **** //   }
 259:build/openmote-cc2538_armgcc/openstack/03b-IPv6/icmpv6rpl.c **** 
 260:build/openmote-cc2538_armgcc/openstack/03b-IPv6/icmpv6rpl.c **** 
 261:build/openmote-cc2538_armgcc/openstack/03b-IPv6/icmpv6rpl.c ****    // I'm not busy sending DIO/DAO anymore
 262:build/openmote-cc2538_armgcc/openstack/03b-IPv6/icmpv6rpl.c ****    if (packetfunctions_isBroadcastMulticast(&(msg->l2_nextORpreviousHop))){
 743              		.loc 1 262 0
 744 03de 7B68     		ldr	r3, [r7, #4]
 745 03e0 3C33     		adds	r3, r3, #60
 746 03e2 1846     		mov	r0, r3
 747 03e4 FFF7FEFF 		bl	packetfunctions_isBroadcastMulticast
 748 03e8 0346     		mov	r3, r0
 749 03ea 002B     		cmp	r3, #0
 750 03ec 03D0     		beq	.L23
 263:build/openmote-cc2538_armgcc/openstack/03b-IPv6/icmpv6rpl.c ****         icmpv6rpl_vars.busySendingDIO = FALSE;
 751              		.loc 1 263 0
 752 03ee 074B     		ldr	r3, .L25
 753 03f0 0022     		movs	r2, #0
 754 03f2 1A70     		strb	r2, [r3]
 755 03f4 02E0     		b	.L24
 756              	.L23:
 264:build/openmote-cc2538_armgcc/openstack/03b-IPv6/icmpv6rpl.c ****    } else {
 265:build/openmote-cc2538_armgcc/openstack/03b-IPv6/icmpv6rpl.c ****         icmpv6rpl_vars.busySendingDAO = FALSE;
 757              		.loc 1 265 0
 758 03f6 054B     		ldr	r3, .L25
 759 03f8 0022     		movs	r2, #0
 760 03fa 5A70     		strb	r2, [r3, #1]
 761              	.L24:
 266:build/openmote-cc2538_armgcc/openstack/03b-IPv6/icmpv6rpl.c ****    }
 267:build/openmote-cc2538_armgcc/openstack/03b-IPv6/icmpv6rpl.c ****    
 268:build/openmote-cc2538_armgcc/openstack/03b-IPv6/icmpv6rpl.c ****    // free packet
 269:build/openmote-cc2538_armgcc/openstack/03b-IPv6/icmpv6rpl.c ****    openqueue_freePacketBuffer(msg);
 762              		.loc 1 269 0
 763 03fc 7868     		ldr	r0, [r7, #4]
 764 03fe FFF7FEFF 		bl	openqueue_freePacketBuffer
 270:build/openmote-cc2538_armgcc/openstack/03b-IPv6/icmpv6rpl.c **** }
 765              		.loc 1 270 0
 766 0402 00BF     		nop
 767 0404 0837     		adds	r7, r7, #8
 768              		.cfi_def_cfa_offset 8
 769 0406 BD46     		mov	sp, r7
 770              		.cfi_def_cfa_register 13
 771              		@ sp needed
 772 0408 80BD     		pop	{r7, pc}
 773              	.L26:
 774 040a 00BF     		.align	2
 775              	.L25:
 776 040c 00000000 		.word	icmpv6rpl_vars
 777              		.cfi_endproc
 778              	.LFE4:
 780              		.align	2
 781              		.global	icmpv6rpl_receive
 782              		.thumb
 783              		.thumb_func
 785              	icmpv6rpl_receive:
 786              	.LFB5:
 271:build/openmote-cc2538_armgcc/openstack/03b-IPv6/icmpv6rpl.c **** 
 272:build/openmote-cc2538_armgcc/openstack/03b-IPv6/icmpv6rpl.c **** /**
 273:build/openmote-cc2538_armgcc/openstack/03b-IPv6/icmpv6rpl.c **** \brief Called when RPL message received.
 274:build/openmote-cc2538_armgcc/openstack/03b-IPv6/icmpv6rpl.c **** 
 275:build/openmote-cc2538_armgcc/openstack/03b-IPv6/icmpv6rpl.c **** \param[in] msg   Pointer to the received message.
 276:build/openmote-cc2538_armgcc/openstack/03b-IPv6/icmpv6rpl.c **** */
 277:build/openmote-cc2538_armgcc/openstack/03b-IPv6/icmpv6rpl.c **** void icmpv6rpl_receive(OpenQueueEntry_t* msg) {
 787              		.loc 1 277 0
 788              		.cfi_startproc
 789              		@ args = 0, pretend = 0, frame = 16
 790              		@ frame_needed = 1, uses_anonymous_args = 0
 791 0410 80B5     		push	{r7, lr}
 792              		.cfi_def_cfa_offset 8
 793              		.cfi_offset 7, -8
 794              		.cfi_offset 14, -4
 795 0412 84B0     		sub	sp, sp, #16
 796              		.cfi_def_cfa_offset 24
 797 0414 00AF     		add	r7, sp, #0
 798              		.cfi_def_cfa_register 7
 799 0416 7860     		str	r0, [r7, #4]
 278:build/openmote-cc2538_armgcc/openstack/03b-IPv6/icmpv6rpl.c ****    uint8_t      icmpv6code;
 279:build/openmote-cc2538_armgcc/openstack/03b-IPv6/icmpv6rpl.c ****    
 280:build/openmote-cc2538_armgcc/openstack/03b-IPv6/icmpv6rpl.c ****    // take ownership
 281:build/openmote-cc2538_armgcc/openstack/03b-IPv6/icmpv6rpl.c ****    msg->owner      = COMPONENT_ICMPv6RPL;
 800              		.loc 1 281 0
 801 0418 7B68     		ldr	r3, [r7, #4]
 802 041a 1722     		movs	r2, #23
 803 041c 5A70     		strb	r2, [r3, #1]
 282:build/openmote-cc2538_armgcc/openstack/03b-IPv6/icmpv6rpl.c ****    
 283:build/openmote-cc2538_armgcc/openstack/03b-IPv6/icmpv6rpl.c ****    // retrieve ICMPv6 code
 284:build/openmote-cc2538_armgcc/openstack/03b-IPv6/icmpv6rpl.c ****    icmpv6code      = (((ICMPv6_ht*)(msg->payload))->code);
 804              		.loc 1 284 0
 805 041e 7B68     		ldr	r3, [r7, #4]
 806 0420 5B68     		ldr	r3, [r3, #4]
 807 0422 5B78     		ldrb	r3, [r3, #1]
 808 0424 FB73     		strb	r3, [r7, #15]
 285:build/openmote-cc2538_armgcc/openstack/03b-IPv6/icmpv6rpl.c ****    
 286:build/openmote-cc2538_armgcc/openstack/03b-IPv6/icmpv6rpl.c ****    // toss ICMPv6 header
 287:build/openmote-cc2538_armgcc/openstack/03b-IPv6/icmpv6rpl.c ****    packetfunctions_tossHeader(msg,sizeof(ICMPv6_ht));
 809              		.loc 1 287 0
 810 0426 0421     		movs	r1, #4
 811 0428 7868     		ldr	r0, [r7, #4]
 812 042a FFF7FEFF 		bl	packetfunctions_tossHeader
 288:build/openmote-cc2538_armgcc/openstack/03b-IPv6/icmpv6rpl.c ****    
 289:build/openmote-cc2538_armgcc/openstack/03b-IPv6/icmpv6rpl.c ****    // handle message
 290:build/openmote-cc2538_armgcc/openstack/03b-IPv6/icmpv6rpl.c ****    switch (icmpv6code) {
 813              		.loc 1 290 0
 814 042e FB7B     		ldrb	r3, [r7, #15]	@ zero_extendqisi2
 815 0430 012B     		cmp	r3, #1
 816 0432 06D0     		beq	.L29
 817 0434 022B     		cmp	r3, #2
 818 0436 0DD0     		beq	.L30
 819 0438 002B     		cmp	r3, #0
 820 043a 12D1     		bne	.L34
 291:build/openmote-cc2538_armgcc/openstack/03b-IPv6/icmpv6rpl.c ****       case IANA_ICMPv6_RPL_DIS:
 292:build/openmote-cc2538_armgcc/openstack/03b-IPv6/icmpv6rpl.c ****          icmpv6rpl_timer_DIO_task();
 821              		.loc 1 292 0
 822 043c FFF7FEFF 		bl	icmpv6rpl_timer_DIO_task
 293:build/openmote-cc2538_armgcc/openstack/03b-IPv6/icmpv6rpl.c ****          break;
 823              		.loc 1 293 0
 824 0440 18E0     		b	.L32
 825              	.L29:
 294:build/openmote-cc2538_armgcc/openstack/03b-IPv6/icmpv6rpl.c ****       case IANA_ICMPv6_RPL_DIO:
 295:build/openmote-cc2538_armgcc/openstack/03b-IPv6/icmpv6rpl.c ****          if (idmanager_getIsDAGroot()==TRUE) {
 826              		.loc 1 295 0
 827 0442 FFF7FEFF 		bl	idmanager_getIsDAGroot
 828 0446 0346     		mov	r3, r0
 829 0448 002B     		cmp	r3, #0
 830 044a 12D1     		bne	.L35
 296:build/openmote-cc2538_armgcc/openstack/03b-IPv6/icmpv6rpl.c ****             // stop here if I'm in the DAG root
 297:build/openmote-cc2538_armgcc/openstack/03b-IPv6/icmpv6rpl.c ****             break; // break, don't return
 298:build/openmote-cc2538_armgcc/openstack/03b-IPv6/icmpv6rpl.c ****          }
 299:build/openmote-cc2538_armgcc/openstack/03b-IPv6/icmpv6rpl.c ****          // update routing info for that neighbor
 300:build/openmote-cc2538_armgcc/openstack/03b-IPv6/icmpv6rpl.c ****          icmpv6rpl_indicateRxDIO(msg);
 831              		.loc 1 300 0
 832 044c 7868     		ldr	r0, [r7, #4]
 833 044e FFF7FEFF 		bl	icmpv6rpl_indicateRxDIO
 301:build/openmote-cc2538_armgcc/openstack/03b-IPv6/icmpv6rpl.c ****          
 302:build/openmote-cc2538_armgcc/openstack/03b-IPv6/icmpv6rpl.c ****          break;
 834              		.loc 1 302 0
 835 0452 0FE0     		b	.L32
 836              	.L30:
 303:build/openmote-cc2538_armgcc/openstack/03b-IPv6/icmpv6rpl.c ****       
 304:build/openmote-cc2538_armgcc/openstack/03b-IPv6/icmpv6rpl.c ****       case IANA_ICMPv6_RPL_DAO:
 305:build/openmote-cc2538_armgcc/openstack/03b-IPv6/icmpv6rpl.c ****          // this should never happen
 306:build/openmote-cc2538_armgcc/openstack/03b-IPv6/icmpv6rpl.c ****          openserial_printError(COMPONENT_ICMPv6RPL,ERR_UNEXPECTED_DAO,
 837              		.loc 1 306 0
 838 0454 0023     		movs	r3, #0
 839 0456 0022     		movs	r2, #0
 840 0458 0A21     		movs	r1, #10
 841 045a 1720     		movs	r0, #23
 842 045c FFF7FEFF 		bl	openserial_printError
 307:build/openmote-cc2538_armgcc/openstack/03b-IPv6/icmpv6rpl.c ****                                (errorparameter_t)0,
 308:build/openmote-cc2538_armgcc/openstack/03b-IPv6/icmpv6rpl.c ****                                (errorparameter_t)0);
 309:build/openmote-cc2538_armgcc/openstack/03b-IPv6/icmpv6rpl.c ****          break;
 843              		.loc 1 309 0
 844 0460 08E0     		b	.L32
 845              	.L34:
 310:build/openmote-cc2538_armgcc/openstack/03b-IPv6/icmpv6rpl.c ****       default:
 311:build/openmote-cc2538_armgcc/openstack/03b-IPv6/icmpv6rpl.c ****          // this should never happen
 312:build/openmote-cc2538_armgcc/openstack/03b-IPv6/icmpv6rpl.c ****          openserial_printError(COMPONENT_ICMPv6RPL,ERR_MSG_UNKNOWN_TYPE,
 846              		.loc 1 312 0
 847 0462 FB7B     		ldrb	r3, [r7, #15]	@ zero_extendqisi2
 848 0464 9AB2     		uxth	r2, r3
 849 0466 0023     		movs	r3, #0
 850 0468 3021     		movs	r1, #48
 851 046a 1720     		movs	r0, #23
 852 046c FFF7FEFF 		bl	openserial_printError
 313:build/openmote-cc2538_armgcc/openstack/03b-IPv6/icmpv6rpl.c ****                                (errorparameter_t)icmpv6code,
 314:build/openmote-cc2538_armgcc/openstack/03b-IPv6/icmpv6rpl.c ****                                (errorparameter_t)0);
 315:build/openmote-cc2538_armgcc/openstack/03b-IPv6/icmpv6rpl.c ****          break;
 853              		.loc 1 315 0
 854 0470 00E0     		b	.L32
 855              	.L35:
 297:build/openmote-cc2538_armgcc/openstack/03b-IPv6/icmpv6rpl.c ****          }
 856              		.loc 1 297 0
 857 0472 00BF     		nop
 858              	.L32:
 316:build/openmote-cc2538_armgcc/openstack/03b-IPv6/icmpv6rpl.c ****       
 317:build/openmote-cc2538_armgcc/openstack/03b-IPv6/icmpv6rpl.c ****    }
 318:build/openmote-cc2538_armgcc/openstack/03b-IPv6/icmpv6rpl.c ****    
 319:build/openmote-cc2538_armgcc/openstack/03b-IPv6/icmpv6rpl.c ****    // free message
 320:build/openmote-cc2538_armgcc/openstack/03b-IPv6/icmpv6rpl.c ****    openqueue_freePacketBuffer(msg);
 859              		.loc 1 320 0
 860 0474 7868     		ldr	r0, [r7, #4]
 861 0476 FFF7FEFF 		bl	openqueue_freePacketBuffer
 321:build/openmote-cc2538_armgcc/openstack/03b-IPv6/icmpv6rpl.c **** }
 862              		.loc 1 321 0
 863 047a 00BF     		nop
 864 047c 1037     		adds	r7, r7, #16
 865              		.cfi_def_cfa_offset 8
 866 047e BD46     		mov	sp, r7
 867              		.cfi_def_cfa_register 13
 868              		@ sp needed
 869 0480 80BD     		pop	{r7, pc}
 870              		.cfi_endproc
 871              	.LFE5:
 873 0482 00BF     		.align	2
 874              		.global	icmpv6rpl_getPreferredParentIndex
 875              		.thumb
 876              		.thumb_func
 878              	icmpv6rpl_getPreferredParentIndex:
 879              	.LFB6:
 322:build/openmote-cc2538_armgcc/openstack/03b-IPv6/icmpv6rpl.c **** 
 323:build/openmote-cc2538_armgcc/openstack/03b-IPv6/icmpv6rpl.c **** /**
 324:build/openmote-cc2538_armgcc/openstack/03b-IPv6/icmpv6rpl.c **** \brief Retrieve this mote's parent index in neighbor table.
 325:build/openmote-cc2538_armgcc/openstack/03b-IPv6/icmpv6rpl.c **** 
 326:build/openmote-cc2538_armgcc/openstack/03b-IPv6/icmpv6rpl.c **** \returns TRUE and index of parent if have one, FALSE if no parent
 327:build/openmote-cc2538_armgcc/openstack/03b-IPv6/icmpv6rpl.c **** */
 328:build/openmote-cc2538_armgcc/openstack/03b-IPv6/icmpv6rpl.c **** bool icmpv6rpl_getPreferredParentIndex(uint8_t* indexptr) {
 880              		.loc 1 328 0
 881              		.cfi_startproc
 882              		@ args = 0, pretend = 0, frame = 8
 883              		@ frame_needed = 1, uses_anonymous_args = 0
 884              		@ link register save eliminated.
 885 0484 80B4     		push	{r7}
 886              		.cfi_def_cfa_offset 4
 887              		.cfi_offset 7, -4
 888 0486 83B0     		sub	sp, sp, #12
 889              		.cfi_def_cfa_offset 16
 890 0488 00AF     		add	r7, sp, #0
 891              		.cfi_def_cfa_register 7
 892 048a 7860     		str	r0, [r7, #4]
 329:build/openmote-cc2538_armgcc/openstack/03b-IPv6/icmpv6rpl.c ****    *indexptr = icmpv6rpl_vars.ParentIndex;
 893              		.loc 1 329 0
 894 048c 064B     		ldr	r3, .L38
 895 048e 93F88B20 		ldrb	r2, [r3, #139]	@ zero_extendqisi2
 896 0492 7B68     		ldr	r3, [r7, #4]
 897 0494 1A70     		strb	r2, [r3]
 330:build/openmote-cc2538_armgcc/openstack/03b-IPv6/icmpv6rpl.c ****    return icmpv6rpl_vars.haveParent;
 898              		.loc 1 330 0
 899 0496 044B     		ldr	r3, .L38
 900 0498 93F88A30 		ldrb	r3, [r3, #138]	@ zero_extendqisi2
 331:build/openmote-cc2538_armgcc/openstack/03b-IPv6/icmpv6rpl.c **** }
 901              		.loc 1 331 0
 902 049c 1846     		mov	r0, r3
 903 049e 0C37     		adds	r7, r7, #12
 904              		.cfi_def_cfa_offset 4
 905 04a0 BD46     		mov	sp, r7
 906              		.cfi_def_cfa_register 13
 907              		@ sp needed
 908 04a2 80BC     		pop	{r7}
 909              		.cfi_restore 7
 910              		.cfi_def_cfa_offset 0
 911 04a4 7047     		bx	lr
 912              	.L39:
 913 04a6 00BF     		.align	2
 914              	.L38:
 915 04a8 00000000 		.word	icmpv6rpl_vars
 916              		.cfi_endproc
 917              	.LFE6:
 919              		.align	2
 920              		.global	icmpv6rpl_getPreferredParentEui64
 921              		.thumb
 922              		.thumb_func
 924              	icmpv6rpl_getPreferredParentEui64:
 925              	.LFB7:
 332:build/openmote-cc2538_armgcc/openstack/03b-IPv6/icmpv6rpl.c **** 
 333:build/openmote-cc2538_armgcc/openstack/03b-IPv6/icmpv6rpl.c **** /**
 334:build/openmote-cc2538_armgcc/openstack/03b-IPv6/icmpv6rpl.c **** \brief Retrieve my preferred parent's EUI64 address.
 335:build/openmote-cc2538_armgcc/openstack/03b-IPv6/icmpv6rpl.c **** \param[out] addressToWrite Where to copy the preferred parent's address to.
 336:build/openmote-cc2538_armgcc/openstack/03b-IPv6/icmpv6rpl.c **** */
 337:build/openmote-cc2538_armgcc/openstack/03b-IPv6/icmpv6rpl.c **** bool icmpv6rpl_getPreferredParentEui64(open_addr_t* addressToWrite) {
 926              		.loc 1 337 0
 927              		.cfi_startproc
 928              		@ args = 0, pretend = 0, frame = 8
 929              		@ frame_needed = 1, uses_anonymous_args = 0
 930 04ac 80B5     		push	{r7, lr}
 931              		.cfi_def_cfa_offset 8
 932              		.cfi_offset 7, -8
 933              		.cfi_offset 14, -4
 934 04ae 82B0     		sub	sp, sp, #8
 935              		.cfi_def_cfa_offset 16
 936 04b0 00AF     		add	r7, sp, #0
 937              		.cfi_def_cfa_register 7
 938 04b2 7860     		str	r0, [r7, #4]
 338:build/openmote-cc2538_armgcc/openstack/03b-IPv6/icmpv6rpl.c ****     if (
 339:build/openmote-cc2538_armgcc/openstack/03b-IPv6/icmpv6rpl.c ****         icmpv6rpl_vars.haveParent && 
 939              		.loc 1 339 0
 940 04b4 154B     		ldr	r3, .L43
 941 04b6 93F88A30 		ldrb	r3, [r3, #138]	@ zero_extendqisi2
 338:build/openmote-cc2538_armgcc/openstack/03b-IPv6/icmpv6rpl.c ****     if (
 942              		.loc 1 338 0
 943 04ba 002B     		cmp	r3, #0
 944 04bc 21D0     		beq	.L41
 340:build/openmote-cc2538_armgcc/openstack/03b-IPv6/icmpv6rpl.c ****         neighbors_getNeighborNoResource(icmpv6rpl_vars.ParentIndex)    == FALSE &&
 945              		.loc 1 340 0
 946 04be 134B     		ldr	r3, .L43
 947 04c0 93F88B30 		ldrb	r3, [r3, #139]	@ zero_extendqisi2
 948 04c4 1846     		mov	r0, r3
 949 04c6 FFF7FEFF 		bl	neighbors_getNeighborNoResource
 950 04ca 0346     		mov	r3, r0
 951 04cc 83F00103 		eor	r3, r3, #1
 952 04d0 DBB2     		uxtb	r3, r3
 339:build/openmote-cc2538_armgcc/openstack/03b-IPv6/icmpv6rpl.c ****         neighbors_getNeighborNoResource(icmpv6rpl_vars.ParentIndex)    == FALSE &&
 953              		.loc 1 339 0
 954 04d2 002B     		cmp	r3, #0
 955 04d4 15D0     		beq	.L41
 341:build/openmote-cc2538_armgcc/openstack/03b-IPv6/icmpv6rpl.c ****         neighbors_getNeighborIsInBlacklist(icmpv6rpl_vars.ParentIndex) == FALSE
 956              		.loc 1 341 0
 957 04d6 0D4B     		ldr	r3, .L43
 958 04d8 93F88B30 		ldrb	r3, [r3, #139]	@ zero_extendqisi2
 959 04dc 1846     		mov	r0, r3
 960 04de FFF7FEFF 		bl	neighbors_getNeighborIsInBlacklist
 961 04e2 0346     		mov	r3, r0
 962 04e4 83F00103 		eor	r3, r3, #1
 963 04e8 DBB2     		uxtb	r3, r3
 340:build/openmote-cc2538_armgcc/openstack/03b-IPv6/icmpv6rpl.c ****         neighbors_getNeighborNoResource(icmpv6rpl_vars.ParentIndex)    == FALSE &&
 964              		.loc 1 340 0
 965 04ea 002B     		cmp	r3, #0
 966 04ec 09D0     		beq	.L41
 342:build/openmote-cc2538_armgcc/openstack/03b-IPv6/icmpv6rpl.c ****     ){
 343:build/openmote-cc2538_armgcc/openstack/03b-IPv6/icmpv6rpl.c ****         return neighbors_getNeighborEui64(addressToWrite,ADDR_64B,icmpv6rpl_vars.ParentIndex);
 967              		.loc 1 343 0
 968 04ee 074B     		ldr	r3, .L43
 969 04f0 93F88B30 		ldrb	r3, [r3, #139]	@ zero_extendqisi2
 970 04f4 1A46     		mov	r2, r3
 971 04f6 0221     		movs	r1, #2
 972 04f8 7868     		ldr	r0, [r7, #4]
 973 04fa FFF7FEFF 		bl	neighbors_getNeighborEui64
 974 04fe 0346     		mov	r3, r0
 975 0500 00E0     		b	.L42
 976              	.L41:
 344:build/openmote-cc2538_armgcc/openstack/03b-IPv6/icmpv6rpl.c ****     } else {
 345:build/openmote-cc2538_armgcc/openstack/03b-IPv6/icmpv6rpl.c ****         return FALSE;
 977              		.loc 1 345 0
 978 0502 0023     		movs	r3, #0
 979              	.L42:
 346:build/openmote-cc2538_armgcc/openstack/03b-IPv6/icmpv6rpl.c ****     }
 347:build/openmote-cc2538_armgcc/openstack/03b-IPv6/icmpv6rpl.c **** }
 980              		.loc 1 347 0
 981 0504 1846     		mov	r0, r3
 982 0506 0837     		adds	r7, r7, #8
 983              		.cfi_def_cfa_offset 8
 984 0508 BD46     		mov	sp, r7
 985              		.cfi_def_cfa_register 13
 986              		@ sp needed
 987 050a 80BD     		pop	{r7, pc}
 988              	.L44:
 989              		.align	2
 990              	.L43:
 991 050c 00000000 		.word	icmpv6rpl_vars
 992              		.cfi_endproc
 993              	.LFE7:
 995              		.align	2
 996              		.global	icmpv6rpl_isPreferredParent
 997              		.thumb
 998              		.thumb_func
 1000              	icmpv6rpl_isPreferredParent:
 1001              	.LFB8:
 348:build/openmote-cc2538_armgcc/openstack/03b-IPv6/icmpv6rpl.c **** 
 349:build/openmote-cc2538_armgcc/openstack/03b-IPv6/icmpv6rpl.c **** /**
 350:build/openmote-cc2538_armgcc/openstack/03b-IPv6/icmpv6rpl.c **** \brief Indicate whether some neighbor is the routing parent.
 351:build/openmote-cc2538_armgcc/openstack/03b-IPv6/icmpv6rpl.c **** 
 352:build/openmote-cc2538_armgcc/openstack/03b-IPv6/icmpv6rpl.c **** \param[in] address The EUI64 address of the neighbor.
 353:build/openmote-cc2538_armgcc/openstack/03b-IPv6/icmpv6rpl.c **** 
 354:build/openmote-cc2538_armgcc/openstack/03b-IPv6/icmpv6rpl.c **** \returns TRUE if that neighbor is preferred parent, FALSE otherwise.
 355:build/openmote-cc2538_armgcc/openstack/03b-IPv6/icmpv6rpl.c **** */
 356:build/openmote-cc2538_armgcc/openstack/03b-IPv6/icmpv6rpl.c **** bool icmpv6rpl_isPreferredParent(open_addr_t* address) {
 1002              		.loc 1 356 0
 1003              		.cfi_startproc
 1004              		@ args = 0, pretend = 0, frame = 32
 1005              		@ frame_needed = 1, uses_anonymous_args = 0
 1006 0510 80B5     		push	{r7, lr}
 1007              		.cfi_def_cfa_offset 8
 1008              		.cfi_offset 7, -8
 1009              		.cfi_offset 14, -4
 1010 0512 88B0     		sub	sp, sp, #32
 1011              		.cfi_def_cfa_offset 40
 1012 0514 00AF     		add	r7, sp, #0
 1013              		.cfi_def_cfa_register 7
 1014 0516 7860     		str	r0, [r7, #4]
 357:build/openmote-cc2538_armgcc/openstack/03b-IPv6/icmpv6rpl.c ****    open_addr_t  temp;
 358:build/openmote-cc2538_armgcc/openstack/03b-IPv6/icmpv6rpl.c ****    // do we currently have a parent?
 359:build/openmote-cc2538_armgcc/openstack/03b-IPv6/icmpv6rpl.c ****    if (icmpv6rpl_vars.haveParent==FALSE) {
 1015              		.loc 1 359 0
 1016 0518 154B     		ldr	r3, .L52
 1017 051a 93F88A30 		ldrb	r3, [r3, #138]	@ zero_extendqisi2
 1018 051e 83F00103 		eor	r3, r3, #1
 1019 0522 DBB2     		uxtb	r3, r3
 1020 0524 002B     		cmp	r3, #0
 1021 0526 01D0     		beq	.L46
 360:build/openmote-cc2538_armgcc/openstack/03b-IPv6/icmpv6rpl.c ****       return FALSE;
 1022              		.loc 1 360 0
 1023 0528 0023     		movs	r3, #0
 1024 052a 1DE0     		b	.L50
 1025              	.L46:
 361:build/openmote-cc2538_armgcc/openstack/03b-IPv6/icmpv6rpl.c ****    }
 362:build/openmote-cc2538_armgcc/openstack/03b-IPv6/icmpv6rpl.c ****    
 363:build/openmote-cc2538_armgcc/openstack/03b-IPv6/icmpv6rpl.c ****    //compare parent address to the one presented.
 364:build/openmote-cc2538_armgcc/openstack/03b-IPv6/icmpv6rpl.c ****    switch (address->type) {
 1026              		.loc 1 364 0
 1027 052c 7B68     		ldr	r3, [r7, #4]
 1028 052e 1B78     		ldrb	r3, [r3]	@ zero_extendqisi2
 1029 0530 022B     		cmp	r3, #2
 1030 0532 10D1     		bne	.L51
 365:build/openmote-cc2538_armgcc/openstack/03b-IPv6/icmpv6rpl.c ****       case ADDR_64B:
 366:build/openmote-cc2538_armgcc/openstack/03b-IPv6/icmpv6rpl.c ****          neighbors_getNeighborEui64(&temp,ADDR_64B,icmpv6rpl_vars.ParentIndex);
 1031              		.loc 1 366 0
 1032 0534 0E4B     		ldr	r3, .L52
 1033 0536 93F88B20 		ldrb	r2, [r3, #139]	@ zero_extendqisi2
 1034 053a 07F10C03 		add	r3, r7, #12
 1035 053e 0221     		movs	r1, #2
 1036 0540 1846     		mov	r0, r3
 1037 0542 FFF7FEFF 		bl	neighbors_getNeighborEui64
 367:build/openmote-cc2538_armgcc/openstack/03b-IPv6/icmpv6rpl.c ****          return packetfunctions_sameAddress(address,&temp);
 1038              		.loc 1 367 0
 1039 0546 07F10C03 		add	r3, r7, #12
 1040 054a 1946     		mov	r1, r3
 1041 054c 7868     		ldr	r0, [r7, #4]
 1042 054e FFF7FEFF 		bl	packetfunctions_sameAddress
 1043 0552 0346     		mov	r3, r0
 1044 0554 08E0     		b	.L50
 1045              	.L51:
 368:build/openmote-cc2538_armgcc/openstack/03b-IPv6/icmpv6rpl.c ****       default:
 369:build/openmote-cc2538_armgcc/openstack/03b-IPv6/icmpv6rpl.c ****          openserial_printCritical(COMPONENT_NEIGHBORS,ERR_WRONG_ADDR_TYPE,
 370:build/openmote-cc2538_armgcc/openstack/03b-IPv6/icmpv6rpl.c ****                                (errorparameter_t)address->type,
 1046              		.loc 1 370 0
 1047 0556 7B68     		ldr	r3, [r7, #4]
 1048 0558 1B78     		ldrb	r3, [r3]	@ zero_extendqisi2
 369:build/openmote-cc2538_armgcc/openstack/03b-IPv6/icmpv6rpl.c ****                                (errorparameter_t)address->type,
 1049              		.loc 1 369 0
 1050 055a 9AB2     		uxth	r2, r3
 1051 055c 0323     		movs	r3, #3
 1052 055e 3121     		movs	r1, #49
 1053 0560 0D20     		movs	r0, #13
 1054 0562 FFF7FEFF 		bl	openserial_printCritical
 371:build/openmote-cc2538_armgcc/openstack/03b-IPv6/icmpv6rpl.c ****                                (errorparameter_t)3);
 372:build/openmote-cc2538_armgcc/openstack/03b-IPv6/icmpv6rpl.c ****          return FALSE;
 1055              		.loc 1 372 0
 1056 0566 0023     		movs	r3, #0
 1057              	.L50:
 373:build/openmote-cc2538_armgcc/openstack/03b-IPv6/icmpv6rpl.c ****    }
 374:build/openmote-cc2538_armgcc/openstack/03b-IPv6/icmpv6rpl.c **** }
 1058              		.loc 1 374 0 discriminator 1
 1059 0568 1846     		mov	r0, r3
 1060 056a 2037     		adds	r7, r7, #32
 1061              		.cfi_def_cfa_offset 8
 1062 056c BD46     		mov	sp, r7
 1063              		.cfi_def_cfa_register 13
 1064              		@ sp needed
 1065 056e 80BD     		pop	{r7, pc}
 1066              	.L53:
 1067              		.align	2
 1068              	.L52:
 1069 0570 00000000 		.word	icmpv6rpl_vars
 1070              		.cfi_endproc
 1071              	.LFE8:
 1073              		.align	2
 1074              		.global	icmpv6rpl_getMyDAGrank
 1075              		.thumb
 1076              		.thumb_func
 1078              	icmpv6rpl_getMyDAGrank:
 1079              	.LFB9:
 375:build/openmote-cc2538_armgcc/openstack/03b-IPv6/icmpv6rpl.c **** 
 376:build/openmote-cc2538_armgcc/openstack/03b-IPv6/icmpv6rpl.c **** /**
 377:build/openmote-cc2538_armgcc/openstack/03b-IPv6/icmpv6rpl.c **** \brief Retrieve this mote's current DAG rank.
 378:build/openmote-cc2538_armgcc/openstack/03b-IPv6/icmpv6rpl.c **** 
 379:build/openmote-cc2538_armgcc/openstack/03b-IPv6/icmpv6rpl.c **** \returns This mote's current DAG rank.
 380:build/openmote-cc2538_armgcc/openstack/03b-IPv6/icmpv6rpl.c **** */
 381:build/openmote-cc2538_armgcc/openstack/03b-IPv6/icmpv6rpl.c **** dagrank_t icmpv6rpl_getMyDAGrank() {
 1080              		.loc 1 381 0
 1081              		.cfi_startproc
 1082              		@ args = 0, pretend = 0, frame = 0
 1083              		@ frame_needed = 1, uses_anonymous_args = 0
 1084              		@ link register save eliminated.
 1085 0574 80B4     		push	{r7}
 1086              		.cfi_def_cfa_offset 4
 1087              		.cfi_offset 7, -4
 1088 0576 00AF     		add	r7, sp, #0
 1089              		.cfi_def_cfa_register 7
 382:build/openmote-cc2538_armgcc/openstack/03b-IPv6/icmpv6rpl.c ****    return icmpv6rpl_vars.myDAGrank;
 1090              		.loc 1 382 0
 1091 0578 034B     		ldr	r3, .L56
 1092 057a B3F88630 		ldrh	r3, [r3, #134]
 383:build/openmote-cc2538_armgcc/openstack/03b-IPv6/icmpv6rpl.c **** }
 1093              		.loc 1 383 0
 1094 057e 1846     		mov	r0, r3
 1095 0580 BD46     		mov	sp, r7
 1096              		.cfi_def_cfa_register 13
 1097              		@ sp needed
 1098 0582 80BC     		pop	{r7}
 1099              		.cfi_restore 7
 1100              		.cfi_def_cfa_offset 0
 1101 0584 7047     		bx	lr
 1102              	.L57:
 1103 0586 00BF     		.align	2
 1104              	.L56:
 1105 0588 00000000 		.word	icmpv6rpl_vars
 1106              		.cfi_endproc
 1107              	.LFE9:
 1109              		.align	2
 1110              		.global	icmpv6rpl_setMyDAGrank
 1111              		.thumb
 1112              		.thumb_func
 1114              	icmpv6rpl_setMyDAGrank:
 1115              	.LFB10:
 384:build/openmote-cc2538_armgcc/openstack/03b-IPv6/icmpv6rpl.c **** 
 385:build/openmote-cc2538_armgcc/openstack/03b-IPv6/icmpv6rpl.c **** /**
 386:build/openmote-cc2538_armgcc/openstack/03b-IPv6/icmpv6rpl.c **** \brief Direct intervention to set the value of DAG rank in the data structure
 387:build/openmote-cc2538_armgcc/openstack/03b-IPv6/icmpv6rpl.c **** 
 388:build/openmote-cc2538_armgcc/openstack/03b-IPv6/icmpv6rpl.c **** Meant for direct control from command on serial port or from test application,
 389:build/openmote-cc2538_armgcc/openstack/03b-IPv6/icmpv6rpl.c **** bypassing the routing protocol!
 390:build/openmote-cc2538_armgcc/openstack/03b-IPv6/icmpv6rpl.c **** */
 391:build/openmote-cc2538_armgcc/openstack/03b-IPv6/icmpv6rpl.c **** void icmpv6rpl_setMyDAGrank(dagrank_t rank){
 1116              		.loc 1 391 0
 1117              		.cfi_startproc
 1118              		@ args = 0, pretend = 0, frame = 8
 1119              		@ frame_needed = 1, uses_anonymous_args = 0
 1120              		@ link register save eliminated.
 1121 058c 80B4     		push	{r7}
 1122              		.cfi_def_cfa_offset 4
 1123              		.cfi_offset 7, -4
 1124 058e 83B0     		sub	sp, sp, #12
 1125              		.cfi_def_cfa_offset 16
 1126 0590 00AF     		add	r7, sp, #0
 1127              		.cfi_def_cfa_register 7
 1128 0592 0346     		mov	r3, r0
 1129 0594 FB80     		strh	r3, [r7, #6]	@ movhi
 392:build/openmote-cc2538_armgcc/openstack/03b-IPv6/icmpv6rpl.c ****     icmpv6rpl_vars.myDAGrank = rank;
 1130              		.loc 1 392 0
 1131 0596 044A     		ldr	r2, .L59
 1132 0598 FB88     		ldrh	r3, [r7, #6]	@ movhi
 1133 059a A2F88630 		strh	r3, [r2, #134]	@ movhi
 393:build/openmote-cc2538_armgcc/openstack/03b-IPv6/icmpv6rpl.c **** }
 1134              		.loc 1 393 0
 1135 059e 00BF     		nop
 1136 05a0 0C37     		adds	r7, r7, #12
 1137              		.cfi_def_cfa_offset 4
 1138 05a2 BD46     		mov	sp, r7
 1139              		.cfi_def_cfa_register 13
 1140              		@ sp needed
 1141 05a4 80BC     		pop	{r7}
 1142              		.cfi_restore 7
 1143              		.cfi_def_cfa_offset 0
 1144 05a6 7047     		bx	lr
 1145              	.L60:
 1146              		.align	2
 1147              	.L59:
 1148 05a8 00000000 		.word	icmpv6rpl_vars
 1149              		.cfi_endproc
 1150              	.LFE10:
 1152              		.align	2
 1153              		.global	icmpv6rpl_updateMyDAGrankAndParentSelection
 1154              		.thumb
 1155              		.thumb_func
 1157              	icmpv6rpl_updateMyDAGrankAndParentSelection:
 1158              	.LFB11:
 394:build/openmote-cc2538_armgcc/openstack/03b-IPv6/icmpv6rpl.c **** /**
 395:build/openmote-cc2538_armgcc/openstack/03b-IPv6/icmpv6rpl.c **** \brief Routing algorithm
 396:build/openmote-cc2538_armgcc/openstack/03b-IPv6/icmpv6rpl.c **** */
 397:build/openmote-cc2538_armgcc/openstack/03b-IPv6/icmpv6rpl.c **** void icmpv6rpl_updateMyDAGrankAndParentSelection() {
 1159              		.loc 1 397 0
 1160              		.cfi_startproc
 1161              		@ args = 0, pretend = 0, frame = 56
 1162              		@ frame_needed = 1, uses_anonymous_args = 0
 1163 05ac 80B5     		push	{r7, lr}
 1164              		.cfi_def_cfa_offset 8
 1165              		.cfi_offset 7, -8
 1166              		.cfi_offset 14, -4
 1167 05ae 8EB0     		sub	sp, sp, #56
 1168              		.cfi_def_cfa_offset 64
 1169 05b0 00AF     		add	r7, sp, #0
 1170              		.cfi_def_cfa_register 7
 398:build/openmote-cc2538_armgcc/openstack/03b-IPv6/icmpv6rpl.c ****     uint8_t   i;
 399:build/openmote-cc2538_armgcc/openstack/03b-IPv6/icmpv6rpl.c ****     uint16_t  previousDAGrank;
 400:build/openmote-cc2538_armgcc/openstack/03b-IPv6/icmpv6rpl.c ****     uint16_t  prevRankIncrease;
 401:build/openmote-cc2538_armgcc/openstack/03b-IPv6/icmpv6rpl.c ****     uint8_t   prevParentIndex;
 402:build/openmote-cc2538_armgcc/openstack/03b-IPv6/icmpv6rpl.c ****     bool      prevHadParent;
 403:build/openmote-cc2538_armgcc/openstack/03b-IPv6/icmpv6rpl.c ****     bool      foundBetterParent;
 404:build/openmote-cc2538_armgcc/openstack/03b-IPv6/icmpv6rpl.c ****     // temporaries
 405:build/openmote-cc2538_armgcc/openstack/03b-IPv6/icmpv6rpl.c ****     uint16_t  rankIncrease;
 406:build/openmote-cc2538_armgcc/openstack/03b-IPv6/icmpv6rpl.c ****     dagrank_t neighborRank;
 407:build/openmote-cc2538_armgcc/openstack/03b-IPv6/icmpv6rpl.c ****     uint32_t  tentativeDAGrank;
 408:build/openmote-cc2538_armgcc/openstack/03b-IPv6/icmpv6rpl.c ****     
 409:build/openmote-cc2538_armgcc/openstack/03b-IPv6/icmpv6rpl.c ****     open_addr_t addressToWrite;
 410:build/openmote-cc2538_armgcc/openstack/03b-IPv6/icmpv6rpl.c ****    
 411:build/openmote-cc2538_armgcc/openstack/03b-IPv6/icmpv6rpl.c ****     // if I'm a DAGroot, my DAGrank is always MINHOPRANKINCREASE
 412:build/openmote-cc2538_armgcc/openstack/03b-IPv6/icmpv6rpl.c ****     if ((idmanager_getIsDAGroot())==TRUE) {
 1171              		.loc 1 412 0
 1172 05b2 FFF7FEFF 		bl	idmanager_getIsDAGroot
 1173 05b6 0346     		mov	r3, r0
 1174 05b8 002B     		cmp	r3, #0
 1175 05ba 0BD0     		beq	.L62
 413:build/openmote-cc2538_armgcc/openstack/03b-IPv6/icmpv6rpl.c ****         // the dagrank is not set through setting command, set rank to MINHOPRANKINCREASE here 
 414:build/openmote-cc2538_armgcc/openstack/03b-IPv6/icmpv6rpl.c ****         if (icmpv6rpl_vars.myDAGrank!=MINHOPRANKINCREASE) { // test for change so as not to report 
 1176              		.loc 1 414 0
 1177 05bc B24B     		ldr	r3, .L90
 1178 05be B3F88630 		ldrh	r3, [r3, #134]
 1179 05c2 B3F5807F 		cmp	r3, #256
 1180 05c6 05D0     		beq	.L62
 415:build/openmote-cc2538_armgcc/openstack/03b-IPv6/icmpv6rpl.c ****             icmpv6rpl_vars.myDAGrank=MINHOPRANKINCREASE;
 1181              		.loc 1 415 0
 1182 05c8 AF4B     		ldr	r3, .L90
 1183 05ca 4FF48072 		mov	r2, #256
 1184 05ce A3F88620 		strh	r2, [r3, #134]	@ movhi
 416:build/openmote-cc2538_armgcc/openstack/03b-IPv6/icmpv6rpl.c ****             //printf("I am ROOT NODE %d, updating my rank. Current rank %d \n", idmanager_getMyID(A
 417:build/openmote-cc2538_armgcc/openstack/03b-IPv6/icmpv6rpl.c ****             return;
 1185              		.loc 1 417 0
 1186 05d2 55E1     		b	.L61
 1187              	.L62:
 418:build/openmote-cc2538_armgcc/openstack/03b-IPv6/icmpv6rpl.c ****         }
 419:build/openmote-cc2538_armgcc/openstack/03b-IPv6/icmpv6rpl.c ****     }
 420:build/openmote-cc2538_armgcc/openstack/03b-IPv6/icmpv6rpl.c **** 
 421:build/openmote-cc2538_armgcc/openstack/03b-IPv6/icmpv6rpl.c ****     open_addr_t      NeighborAddress;
 422:build/openmote-cc2538_armgcc/openstack/03b-IPv6/icmpv6rpl.c **** 
 423:build/openmote-cc2538_armgcc/openstack/03b-IPv6/icmpv6rpl.c ****     //printf("I am NODE %d, updating my rank. Current rank %d \n", idmanager_getMyID(ADDR_64B)->add
 424:build/openmote-cc2538_armgcc/openstack/03b-IPv6/icmpv6rpl.c **** 
 425:build/openmote-cc2538_armgcc/openstack/03b-IPv6/icmpv6rpl.c ****     // prep for loop, remember state before neighbor table scanning
 426:build/openmote-cc2538_armgcc/openstack/03b-IPv6/icmpv6rpl.c ****     prevParentIndex      = icmpv6rpl_vars.ParentIndex;
 1188              		.loc 1 426 0
 1189 05d4 AC4B     		ldr	r3, .L90
 1190 05d6 93F88B30 		ldrb	r3, [r3, #139]
 1191 05da 87F82F30 		strb	r3, [r7, #47]
 427:build/openmote-cc2538_armgcc/openstack/03b-IPv6/icmpv6rpl.c ****     prevHadParent        = icmpv6rpl_vars.haveParent;
 1192              		.loc 1 427 0
 1193 05de AA4B     		ldr	r3, .L90
 1194 05e0 93F88A30 		ldrb	r3, [r3, #138]
 1195 05e4 87F82E30 		strb	r3, [r7, #46]
 428:build/openmote-cc2538_armgcc/openstack/03b-IPv6/icmpv6rpl.c ****     prevRankIncrease     = icmpv6rpl_vars.rankIncrease;
 1196              		.loc 1 428 0
 1197 05e8 A74B     		ldr	r3, .L90
 1198 05ea B3F88830 		ldrh	r3, [r3, #136]	@ movhi
 1199 05ee BB85     		strh	r3, [r7, #44]	@ movhi
 429:build/openmote-cc2538_armgcc/openstack/03b-IPv6/icmpv6rpl.c ****     // update my rank to current parent first
 430:build/openmote-cc2538_armgcc/openstack/03b-IPv6/icmpv6rpl.c ****     if (icmpv6rpl_vars.haveParent==TRUE){
 1200              		.loc 1 430 0
 1201 05f0 A54B     		ldr	r3, .L90
 1202 05f2 93F88A30 		ldrb	r3, [r3, #138]	@ zero_extendqisi2
 1203 05f6 002B     		cmp	r3, #0
 1204 05f8 4FD0     		beq	.L64
 431:build/openmote-cc2538_armgcc/openstack/03b-IPv6/icmpv6rpl.c ****       
 432:build/openmote-cc2538_armgcc/openstack/03b-IPv6/icmpv6rpl.c ****     	neighbors_getNeighborEui64(&NeighborAddress, ADDR_64B, icmpv6rpl_vars.ParentIndex);
 1205              		.loc 1 432 0
 1206 05fa A34B     		ldr	r3, .L90
 1207 05fc 93F88B20 		ldrb	r2, [r3, #139]	@ zero_extendqisi2
 1208 0600 3B46     		mov	r3, r7
 1209 0602 0221     		movs	r1, #2
 1210 0604 1846     		mov	r0, r3
 1211 0606 FFF7FEFF 		bl	neighbors_getNeighborEui64
 433:build/openmote-cc2538_armgcc/openstack/03b-IPv6/icmpv6rpl.c ****         //printf("I am NODE %d, I have parent. Current parent is %d \n", idmanager_getMyID(ADDR_64B
 434:build/openmote-cc2538_armgcc/openstack/03b-IPv6/icmpv6rpl.c **** 
 435:build/openmote-cc2538_armgcc/openstack/03b-IPv6/icmpv6rpl.c ****         if (
 436:build/openmote-cc2538_armgcc/openstack/03b-IPv6/icmpv6rpl.c ****             neighbors_getNeighborNoResource(icmpv6rpl_vars.ParentIndex)    == TRUE ||
 1212              		.loc 1 436 0
 1213 060a 9F4B     		ldr	r3, .L90
 1214 060c 93F88B30 		ldrb	r3, [r3, #139]	@ zero_extendqisi2
 1215 0610 1846     		mov	r0, r3
 1216 0612 FFF7FEFF 		bl	neighbors_getNeighborNoResource
 1217 0616 0346     		mov	r3, r0
 435:build/openmote-cc2538_armgcc/openstack/03b-IPv6/icmpv6rpl.c ****             neighbors_getNeighborNoResource(icmpv6rpl_vars.ParentIndex)    == TRUE ||
 1218              		.loc 1 435 0
 1219 0618 002B     		cmp	r3, #0
 1220 061a 08D1     		bne	.L65
 437:build/openmote-cc2538_armgcc/openstack/03b-IPv6/icmpv6rpl.c ****             neighbors_getNeighborIsInBlacklist(icmpv6rpl_vars.ParentIndex) == TRUE
 1221              		.loc 1 437 0
 1222 061c 9A4B     		ldr	r3, .L90
 1223 061e 93F88B30 		ldrb	r3, [r3, #139]	@ zero_extendqisi2
 1224 0622 1846     		mov	r0, r3
 1225 0624 FFF7FEFF 		bl	neighbors_getNeighborIsInBlacklist
 1226 0628 0346     		mov	r3, r0
 436:build/openmote-cc2538_armgcc/openstack/03b-IPv6/icmpv6rpl.c ****             neighbors_getNeighborIsInBlacklist(icmpv6rpl_vars.ParentIndex) == TRUE
 1227              		.loc 1 436 0
 1228 062a 002B     		cmp	r3, #0
 1229 062c 05D0     		beq	.L66
 1230              	.L65:
 438:build/openmote-cc2538_armgcc/openstack/03b-IPv6/icmpv6rpl.c ****         ){
 439:build/openmote-cc2538_armgcc/openstack/03b-IPv6/icmpv6rpl.c ****             icmpv6rpl_vars.myDAGrank = 65535;
 1231              		.loc 1 439 0
 1232 062e 964B     		ldr	r3, .L90
 1233 0630 4FF6FF72 		movw	r2, #65535
 1234 0634 A3F88620 		strh	r2, [r3, #134]	@ movhi
 1235 0638 2FE0     		b	.L64
 1236              	.L66:
 440:build/openmote-cc2538_armgcc/openstack/03b-IPv6/icmpv6rpl.c ****         } else {
 441:build/openmote-cc2538_armgcc/openstack/03b-IPv6/icmpv6rpl.c **** 
 442:build/openmote-cc2538_armgcc/openstack/03b-IPv6/icmpv6rpl.c **** 
 443:build/openmote-cc2538_armgcc/openstack/03b-IPv6/icmpv6rpl.c ****             //printf("I am NODE %d, updating my rank with my current parent \n", idmanager_getMyID(
 444:build/openmote-cc2538_armgcc/openstack/03b-IPv6/icmpv6rpl.c **** 
 445:build/openmote-cc2538_armgcc/openstack/03b-IPv6/icmpv6rpl.c ****             if (neighbors_reachedMinimalTransmission(icmpv6rpl_vars.ParentIndex)==FALSE){
 1237              		.loc 1 445 0
 1238 063a 934B     		ldr	r3, .L90
 1239 063c 93F88B30 		ldrb	r3, [r3, #139]	@ zero_extendqisi2
 1240 0640 1846     		mov	r0, r3
 1241 0642 FFF7FEFF 		bl	neighbors_reachedMinimalTransmission
 1242 0646 0346     		mov	r3, r0
 1243 0648 83F00103 		eor	r3, r3, #1
 1244 064c DBB2     		uxtb	r3, r3
 1245 064e 002B     		cmp	r3, #0
 1246 0650 40F01581 		bne	.L86
 446:build/openmote-cc2538_armgcc/openstack/03b-IPv6/icmpv6rpl.c ****                 // I havn't enough transmission to my parent, don't update.
 447:build/openmote-cc2538_armgcc/openstack/03b-IPv6/icmpv6rpl.c ****             	//printf("I am NODE %d, dont have enough TX with my parent, so skipping parent switchi
 448:build/openmote-cc2538_armgcc/openstack/03b-IPv6/icmpv6rpl.c ****                 return;
 449:build/openmote-cc2538_armgcc/openstack/03b-IPv6/icmpv6rpl.c ****             }
 450:build/openmote-cc2538_armgcc/openstack/03b-IPv6/icmpv6rpl.c ****             rankIncrease     = neighbors_getLinkMetric(icmpv6rpl_vars.ParentIndex);
 1247              		.loc 1 450 0
 1248 0654 8C4B     		ldr	r3, .L90
 1249 0656 93F88B30 		ldrb	r3, [r3, #139]	@ zero_extendqisi2
 1250 065a 1846     		mov	r0, r3
 1251 065c FFF7FEFF 		bl	neighbors_getLinkMetric
 1252 0660 0346     		mov	r3, r0
 1253 0662 7B85     		strh	r3, [r7, #42]	@ movhi
 451:build/openmote-cc2538_armgcc/openstack/03b-IPv6/icmpv6rpl.c ****             neighborRank     = neighbors_getNeighborRank(icmpv6rpl_vars.ParentIndex);
 1254              		.loc 1 451 0
 1255 0664 884B     		ldr	r3, .L90
 1256 0666 93F88B30 		ldrb	r3, [r3, #139]	@ zero_extendqisi2
 1257 066a 1846     		mov	r0, r3
 1258 066c FFF7FEFF 		bl	neighbors_getNeighborRank
 1259 0670 0346     		mov	r3, r0
 1260 0672 3B85     		strh	r3, [r7, #40]	@ movhi
 452:build/openmote-cc2538_armgcc/openstack/03b-IPv6/icmpv6rpl.c ****             tentativeDAGrank = (uint32_t)neighborRank+rankIncrease;
 1261              		.loc 1 452 0
 1262 0674 3A8D     		ldrh	r2, [r7, #40]
 1263 0676 7B8D     		ldrh	r3, [r7, #42]
 1264 0678 1344     		add	r3, r3, r2
 1265 067a 3B63     		str	r3, [r7, #48]
 453:build/openmote-cc2538_armgcc/openstack/03b-IPv6/icmpv6rpl.c ****             if (tentativeDAGrank>65535) {
 1266              		.loc 1 453 0
 1267 067c 3B6B     		ldr	r3, [r7, #48]
 1268 067e B3F5803F 		cmp	r3, #65536
 1269 0682 05D3     		bcc	.L68
 454:build/openmote-cc2538_armgcc/openstack/03b-IPv6/icmpv6rpl.c ****                 icmpv6rpl_vars.myDAGrank = 65535;
 1270              		.loc 1 454 0
 1271 0684 804B     		ldr	r3, .L90
 1272 0686 4FF6FF72 		movw	r2, #65535
 1273 068a A3F88620 		strh	r2, [r3, #134]	@ movhi
 1274 068e 04E0     		b	.L64
 1275              	.L68:
 455:build/openmote-cc2538_armgcc/openstack/03b-IPv6/icmpv6rpl.c ****             } else {
 456:build/openmote-cc2538_armgcc/openstack/03b-IPv6/icmpv6rpl.c ****                 icmpv6rpl_vars.myDAGrank = (uint16_t)tentativeDAGrank;
 1276              		.loc 1 456 0
 1277 0690 3B6B     		ldr	r3, [r7, #48]
 1278 0692 9AB2     		uxth	r2, r3
 1279 0694 7C4B     		ldr	r3, .L90
 1280 0696 A3F88620 		strh	r2, [r3, #134]	@ movhi
 1281              	.L64:
 457:build/openmote-cc2538_armgcc/openstack/03b-IPv6/icmpv6rpl.c ****             }
 458:build/openmote-cc2538_armgcc/openstack/03b-IPv6/icmpv6rpl.c **** 
 459:build/openmote-cc2538_armgcc/openstack/03b-IPv6/icmpv6rpl.c ****             //printf("I am NODE %d, my updated rank with my current parent %d is %d \n", idmanager_
 460:build/openmote-cc2538_armgcc/openstack/03b-IPv6/icmpv6rpl.c ****         }
 461:build/openmote-cc2538_armgcc/openstack/03b-IPv6/icmpv6rpl.c ****     }
 462:build/openmote-cc2538_armgcc/openstack/03b-IPv6/icmpv6rpl.c ****     previousDAGrank      = icmpv6rpl_vars.myDAGrank;
 1282              		.loc 1 462 0
 1283 069a 7B4B     		ldr	r3, .L90
 1284 069c B3F88630 		ldrh	r3, [r3, #134]	@ movhi
 1285 06a0 FB84     		strh	r3, [r7, #38]	@ movhi
 463:build/openmote-cc2538_armgcc/openstack/03b-IPv6/icmpv6rpl.c ****     foundBetterParent    = FALSE;
 1286              		.loc 1 463 0
 1287 06a2 0023     		movs	r3, #0
 1288 06a4 87F83630 		strb	r3, [r7, #54]
 464:build/openmote-cc2538_armgcc/openstack/03b-IPv6/icmpv6rpl.c ****     icmpv6rpl_vars.haveParent = FALSE;
 1289              		.loc 1 464 0
 1290 06a8 774B     		ldr	r3, .L90
 1291 06aa 0022     		movs	r2, #0
 1292 06ac 83F88A20 		strb	r2, [r3, #138]
 465:build/openmote-cc2538_armgcc/openstack/03b-IPv6/icmpv6rpl.c **** 
 466:build/openmote-cc2538_armgcc/openstack/03b-IPv6/icmpv6rpl.c ****     //printf("I am NODE %d, doing some Housekeeping, My previous rank is % \n", idmanager_getMyID(A
 467:build/openmote-cc2538_armgcc/openstack/03b-IPv6/icmpv6rpl.c ****     // loop through neighbor table, update myDAGrank
 468:build/openmote-cc2538_armgcc/openstack/03b-IPv6/icmpv6rpl.c ****     for (i=0;i<MAXNUMNEIGHBORS;i++) {
 1293              		.loc 1 468 0
 1294 06b0 0023     		movs	r3, #0
 1295 06b2 87F83730 		strb	r3, [r7, #55]
 1296 06b6 69E0     		b	.L69
 1297              	.L77:
 469:build/openmote-cc2538_armgcc/openstack/03b-IPv6/icmpv6rpl.c ****         if (neighbors_isStableNeighborByIndex(i)) { // in use and link is stable
 1298              		.loc 1 469 0
 1299 06b8 97F83730 		ldrb	r3, [r7, #55]	@ zero_extendqisi2
 1300 06bc 1846     		mov	r0, r3
 1301 06be FFF7FEFF 		bl	neighbors_isStableNeighborByIndex
 1302 06c2 0346     		mov	r3, r0
 1303 06c4 002B     		cmp	r3, #0
 1304 06c6 5CD0     		beq	.L70
 470:build/openmote-cc2538_armgcc/openstack/03b-IPv6/icmpv6rpl.c ****             // neighbor marked as NORES can't be parent
 471:build/openmote-cc2538_armgcc/openstack/03b-IPv6/icmpv6rpl.c ****             if (
 472:build/openmote-cc2538_armgcc/openstack/03b-IPv6/icmpv6rpl.c ****                 neighbors_getNeighborNoResource(i)   == TRUE ||
 1305              		.loc 1 472 0
 1306 06c8 97F83730 		ldrb	r3, [r7, #55]	@ zero_extendqisi2
 1307 06cc 1846     		mov	r0, r3
 1308 06ce FFF7FEFF 		bl	neighbors_getNeighborNoResource
 1309 06d2 0346     		mov	r3, r0
 471:build/openmote-cc2538_armgcc/openstack/03b-IPv6/icmpv6rpl.c ****                 neighbors_getNeighborNoResource(i)   == TRUE ||
 1310              		.loc 1 471 0
 1311 06d4 002B     		cmp	r3, #0
 1312 06d6 4FD1     		bne	.L87
 473:build/openmote-cc2538_armgcc/openstack/03b-IPv6/icmpv6rpl.c ****                 neighbors_getNeighborIsInBlacklist(i)== TRUE
 1313              		.loc 1 473 0
 1314 06d8 97F83730 		ldrb	r3, [r7, #55]	@ zero_extendqisi2
 1315 06dc 1846     		mov	r0, r3
 1316 06de FFF7FEFF 		bl	neighbors_getNeighborIsInBlacklist
 1317 06e2 0346     		mov	r3, r0
 472:build/openmote-cc2538_armgcc/openstack/03b-IPv6/icmpv6rpl.c ****                 neighbors_getNeighborIsInBlacklist(i)== TRUE
 1318              		.loc 1 472 0
 1319 06e4 002B     		cmp	r3, #0
 1320 06e6 47D1     		bne	.L87
 474:build/openmote-cc2538_armgcc/openstack/03b-IPv6/icmpv6rpl.c ****             ) {
 475:build/openmote-cc2538_armgcc/openstack/03b-IPv6/icmpv6rpl.c ****                 continue;
 476:build/openmote-cc2538_armgcc/openstack/03b-IPv6/icmpv6rpl.c ****             }
 477:build/openmote-cc2538_armgcc/openstack/03b-IPv6/icmpv6rpl.c ****             // get link cost to this neighbor
 478:build/openmote-cc2538_armgcc/openstack/03b-IPv6/icmpv6rpl.c ****             rankIncrease=neighbors_getLinkMetric(i);
 1321              		.loc 1 478 0
 1322 06e8 97F83730 		ldrb	r3, [r7, #55]	@ zero_extendqisi2
 1323 06ec 1846     		mov	r0, r3
 1324 06ee FFF7FEFF 		bl	neighbors_getLinkMetric
 1325 06f2 0346     		mov	r3, r0
 1326 06f4 7B85     		strh	r3, [r7, #42]	@ movhi
 479:build/openmote-cc2538_armgcc/openstack/03b-IPv6/icmpv6rpl.c ****             // get this neighbor's advertized rank
 480:build/openmote-cc2538_armgcc/openstack/03b-IPv6/icmpv6rpl.c ****             neighborRank=neighbors_getNeighborRank(i);
 1327              		.loc 1 480 0
 1328 06f6 97F83730 		ldrb	r3, [r7, #55]	@ zero_extendqisi2
 1329 06fa 1846     		mov	r0, r3
 1330 06fc FFF7FEFF 		bl	neighbors_getNeighborRank
 1331 0700 0346     		mov	r3, r0
 1332 0702 3B85     		strh	r3, [r7, #40]	@ movhi
 481:build/openmote-cc2538_armgcc/openstack/03b-IPv6/icmpv6rpl.c ****             // if this neighbor has unknown/infinite rank, pass on it
 482:build/openmote-cc2538_armgcc/openstack/03b-IPv6/icmpv6rpl.c ****             if (neighborRank==DEFAULTDAGRANK) continue;
 1333              		.loc 1 482 0
 1334 0704 3B8D     		ldrh	r3, [r7, #40]
 1335 0706 4FF6FF72 		movw	r2, #65535
 1336 070a 9342     		cmp	r3, r2
 1337 070c 36D0     		beq	.L88
 483:build/openmote-cc2538_armgcc/openstack/03b-IPv6/icmpv6rpl.c ****             // compute tentative cost of full path to root through this neighbor
 484:build/openmote-cc2538_armgcc/openstack/03b-IPv6/icmpv6rpl.c ****             tentativeDAGrank = (uint32_t)neighborRank+rankIncrease;
 1338              		.loc 1 484 0
 1339 070e 3A8D     		ldrh	r2, [r7, #40]
 1340 0710 7B8D     		ldrh	r3, [r7, #42]
 1341 0712 1344     		add	r3, r3, r2
 1342 0714 3B63     		str	r3, [r7, #48]
 485:build/openmote-cc2538_armgcc/openstack/03b-IPv6/icmpv6rpl.c ****             neighbors_getNeighborEui64(&NeighborAddress, ADDR_64B, i);
 1343              		.loc 1 485 0
 1344 0716 97F83720 		ldrb	r2, [r7, #55]	@ zero_extendqisi2
 1345 071a 3B46     		mov	r3, r7
 1346 071c 0221     		movs	r1, #2
 1347 071e 1846     		mov	r0, r3
 1348 0720 FFF7FEFF 		bl	neighbors_getNeighborEui64
 486:build/openmote-cc2538_armgcc/openstack/03b-IPv6/icmpv6rpl.c ****             //printf("I am NODE %d, my tentative rank with node %d would be %d \n", idmanager_getMy
 487:build/openmote-cc2538_armgcc/openstack/03b-IPv6/icmpv6rpl.c **** 
 488:build/openmote-cc2538_armgcc/openstack/03b-IPv6/icmpv6rpl.c **** 
 489:build/openmote-cc2538_armgcc/openstack/03b-IPv6/icmpv6rpl.c ****             if (tentativeDAGrank > 65535) {tentativeDAGrank = 65535;}
 1349              		.loc 1 489 0
 1350 0724 3B6B     		ldr	r3, [r7, #48]
 1351 0726 B3F5803F 		cmp	r3, #65536
 1352 072a 02D3     		bcc	.L74
 1353              		.loc 1 489 0 is_stmt 0 discriminator 1
 1354 072c 4FF6FF73 		movw	r3, #65535
 1355 0730 3B63     		str	r3, [r7, #48]
 1356              	.L74:
 490:build/openmote-cc2538_armgcc/openstack/03b-IPv6/icmpv6rpl.c ****             // if not low enough to justify switch, pass (i.e. hysterisis)
 491:build/openmote-cc2538_armgcc/openstack/03b-IPv6/icmpv6rpl.c ****             if (
 492:build/openmote-cc2538_armgcc/openstack/03b-IPv6/icmpv6rpl.c ****                 (previousDAGrank<tentativeDAGrank) ||
 1357              		.loc 1 492 0 is_stmt 1
 1358 0732 FA8C     		ldrh	r2, [r7, #38]
 491:build/openmote-cc2538_armgcc/openstack/03b-IPv6/icmpv6rpl.c ****                 (previousDAGrank<tentativeDAGrank) ||
 1359              		.loc 1 491 0
 1360 0734 3B6B     		ldr	r3, [r7, #48]
 1361 0736 9A42     		cmp	r2, r3
 1362 0738 22D3     		bcc	.L89
 493:build/openmote-cc2538_armgcc/openstack/03b-IPv6/icmpv6rpl.c ****                 (previousDAGrank-tentativeDAGrank < 2*MINHOPRANKINCREASE)
 1363              		.loc 1 493 0
 1364 073a FA8C     		ldrh	r2, [r7, #38]
 1365 073c 3B6B     		ldr	r3, [r7, #48]
 1366 073e D31A     		subs	r3, r2, r3
 492:build/openmote-cc2538_armgcc/openstack/03b-IPv6/icmpv6rpl.c ****                 (previousDAGrank-tentativeDAGrank < 2*MINHOPRANKINCREASE)
 1367              		.loc 1 492 0
 1368 0740 B3F5007F 		cmp	r3, #512
 1369 0744 1CD3     		bcc	.L89
 494:build/openmote-cc2538_armgcc/openstack/03b-IPv6/icmpv6rpl.c ****             ) {
 495:build/openmote-cc2538_armgcc/openstack/03b-IPv6/icmpv6rpl.c ****                   //printf("I am NODE %d, not changing parent since my old rank was %d \n", idmanag
 496:build/openmote-cc2538_armgcc/openstack/03b-IPv6/icmpv6rpl.c **** 
 497:build/openmote-cc2538_armgcc/openstack/03b-IPv6/icmpv6rpl.c ****                   continue;
 498:build/openmote-cc2538_armgcc/openstack/03b-IPv6/icmpv6rpl.c ****             }
 499:build/openmote-cc2538_armgcc/openstack/03b-IPv6/icmpv6rpl.c ****             // remember that we have at least one valid candidate parent
 500:build/openmote-cc2538_armgcc/openstack/03b-IPv6/icmpv6rpl.c ****             foundBetterParent=TRUE;
 1370              		.loc 1 500 0
 1371 0746 0123     		movs	r3, #1
 1372 0748 87F83630 		strb	r3, [r7, #54]
 501:build/openmote-cc2538_armgcc/openstack/03b-IPv6/icmpv6rpl.c ****             // select best candidate so far
 502:build/openmote-cc2538_armgcc/openstack/03b-IPv6/icmpv6rpl.c ****             if (icmpv6rpl_vars.myDAGrank>tentativeDAGrank) {
 1373              		.loc 1 502 0
 1374 074c 4E4B     		ldr	r3, .L90
 1375 074e B3F88630 		ldrh	r3, [r3, #134]
 1376 0752 1A46     		mov	r2, r3
 1377 0754 3B6B     		ldr	r3, [r7, #48]
 1378 0756 9A42     		cmp	r2, r3
 1379 0758 13D9     		bls	.L70
 503:build/openmote-cc2538_armgcc/openstack/03b-IPv6/icmpv6rpl.c ****             	//printf("I am NODE %d, Changing parent to %d since my old rank was %d and new could b
 504:build/openmote-cc2538_armgcc/openstack/03b-IPv6/icmpv6rpl.c **** 
 505:build/openmote-cc2538_armgcc/openstack/03b-IPv6/icmpv6rpl.c ****                 icmpv6rpl_vars.myDAGrank    = (uint16_t)tentativeDAGrank;
 1380              		.loc 1 505 0
 1381 075a 3B6B     		ldr	r3, [r7, #48]
 1382 075c 9AB2     		uxth	r2, r3
 1383 075e 4A4B     		ldr	r3, .L90
 1384 0760 A3F88620 		strh	r2, [r3, #134]	@ movhi
 506:build/openmote-cc2538_armgcc/openstack/03b-IPv6/icmpv6rpl.c ****                 icmpv6rpl_vars.ParentIndex  = i;
 1385              		.loc 1 506 0
 1386 0764 484A     		ldr	r2, .L90
 1387 0766 97F83730 		ldrb	r3, [r7, #55]
 1388 076a 82F88B30 		strb	r3, [r2, #139]
 507:build/openmote-cc2538_armgcc/openstack/03b-IPv6/icmpv6rpl.c ****                 icmpv6rpl_vars.rankIncrease = rankIncrease;
 1389              		.loc 1 507 0
 1390 076e 464A     		ldr	r2, .L90
 1391 0770 7B8D     		ldrh	r3, [r7, #42]	@ movhi
 1392 0772 A2F88830 		strh	r3, [r2, #136]	@ movhi
 1393 0776 04E0     		b	.L70
 1394              	.L87:
 475:build/openmote-cc2538_armgcc/openstack/03b-IPv6/icmpv6rpl.c ****             }
 1395              		.loc 1 475 0
 1396 0778 00BF     		nop
 1397 077a 02E0     		b	.L70
 1398              	.L88:
 482:build/openmote-cc2538_armgcc/openstack/03b-IPv6/icmpv6rpl.c ****             // compute tentative cost of full path to root through this neighbor
 1399              		.loc 1 482 0
 1400 077c 00BF     		nop
 1401 077e 00E0     		b	.L70
 1402              	.L89:
 497:build/openmote-cc2538_armgcc/openstack/03b-IPv6/icmpv6rpl.c ****             }
 1403              		.loc 1 497 0
 1404 0780 00BF     		nop
 1405              	.L70:
 468:build/openmote-cc2538_armgcc/openstack/03b-IPv6/icmpv6rpl.c ****         if (neighbors_isStableNeighborByIndex(i)) { // in use and link is stable
 1406              		.loc 1 468 0 discriminator 2
 1407 0782 97F83730 		ldrb	r3, [r7, #55]	@ zero_extendqisi2
 1408 0786 0133     		adds	r3, r3, #1
 1409 0788 87F83730 		strb	r3, [r7, #55]
 1410              	.L69:
 468:build/openmote-cc2538_armgcc/openstack/03b-IPv6/icmpv6rpl.c ****         if (neighbors_isStableNeighborByIndex(i)) { // in use and link is stable
 1411              		.loc 1 468 0 is_stmt 0 discriminator 1
 1412 078c 97F83730 		ldrb	r3, [r7, #55]	@ zero_extendqisi2
 1413 0790 1D2B     		cmp	r3, #29
 1414 0792 91D9     		bls	.L77
 508:build/openmote-cc2538_armgcc/openstack/03b-IPv6/icmpv6rpl.c ****             }
 509:build/openmote-cc2538_armgcc/openstack/03b-IPv6/icmpv6rpl.c ****         }
 510:build/openmote-cc2538_armgcc/openstack/03b-IPv6/icmpv6rpl.c ****     }
 511:build/openmote-cc2538_armgcc/openstack/03b-IPv6/icmpv6rpl.c ****    
 512:build/openmote-cc2538_armgcc/openstack/03b-IPv6/icmpv6rpl.c ****     if (foundBetterParent) {
 1415              		.loc 1 512 0 is_stmt 1
 1416 0794 97F83630 		ldrb	r3, [r7, #54]	@ zero_extendqisi2
 1417 0798 002B     		cmp	r3, #0
 1418 079a 5DD0     		beq	.L78
 513:build/openmote-cc2538_armgcc/openstack/03b-IPv6/icmpv6rpl.c ****         icmpv6rpl_vars.haveParent=TRUE;
 1419              		.loc 1 513 0
 1420 079c 3A4B     		ldr	r3, .L90
 1421 079e 0122     		movs	r2, #1
 1422 07a0 83F88A20 		strb	r2, [r3, #138]
 514:build/openmote-cc2538_armgcc/openstack/03b-IPv6/icmpv6rpl.c ****         if (!prevHadParent) {
 1423              		.loc 1 514 0
 1424 07a4 97F82E30 		ldrb	r3, [r7, #46]
 1425 07a8 83F00103 		eor	r3, r3, #1
 1426 07ac DBB2     		uxtb	r3, r3
 1427 07ae 002B     		cmp	r3, #0
 1428 07b0 15D0     		beq	.L79
 515:build/openmote-cc2538_armgcc/openstack/03b-IPv6/icmpv6rpl.c ****         	neighbors_getNeighborEui64(&NeighborAddress, ADDR_64B, icmpv6rpl_vars.ParentIndex);
 1429              		.loc 1 515 0
 1430 07b2 354B     		ldr	r3, .L90
 1431 07b4 93F88B20 		ldrb	r2, [r3, #139]	@ zero_extendqisi2
 1432 07b8 3B46     		mov	r3, r7
 1433 07ba 0221     		movs	r1, #2
 1434 07bc 1846     		mov	r0, r3
 1435 07be FFF7FEFF 		bl	neighbors_getNeighborEui64
 516:build/openmote-cc2538_armgcc/openstack/03b-IPv6/icmpv6rpl.c ****         	//printf("I am NODE %d, FIRST time I get a parent. Parent now is %d \n", idmanager_getMyID
 517:build/openmote-cc2538_armgcc/openstack/03b-IPv6/icmpv6rpl.c ****             // in case preParent is killed before calling this function, clear the preferredParent 
 518:build/openmote-cc2538_armgcc/openstack/03b-IPv6/icmpv6rpl.c ****             neighbors_setPreferredParent(prevParentIndex, FALSE);
 1436              		.loc 1 518 0
 1437 07c2 97F82F30 		ldrb	r3, [r7, #47]	@ zero_extendqisi2
 1438 07c6 0021     		movs	r1, #0
 1439 07c8 1846     		mov	r0, r3
 1440 07ca FFF7FEFF 		bl	neighbors_setPreferredParent
 519:build/openmote-cc2538_armgcc/openstack/03b-IPv6/icmpv6rpl.c ****             // set neighbors as preferred parent
 520:build/openmote-cc2538_armgcc/openstack/03b-IPv6/icmpv6rpl.c ****             neighbors_setPreferredParent(icmpv6rpl_vars.ParentIndex, TRUE);
 1441              		.loc 1 520 0
 1442 07ce 2E4B     		ldr	r3, .L90
 1443 07d0 93F88B30 		ldrb	r3, [r3, #139]	@ zero_extendqisi2
 1444 07d4 0121     		movs	r1, #1
 1445 07d6 1846     		mov	r0, r3
 1446 07d8 FFF7FEFF 		bl	neighbors_setPreferredParent
 1447 07dc 50E0     		b	.L61
 1448              	.L79:
 521:build/openmote-cc2538_armgcc/openstack/03b-IPv6/icmpv6rpl.c ****         } else {
 522:build/openmote-cc2538_armgcc/openstack/03b-IPv6/icmpv6rpl.c ****             if (icmpv6rpl_vars.ParentIndex==prevParentIndex) {
 1449              		.loc 1 522 0
 1450 07de 2A4B     		ldr	r3, .L90
 1451 07e0 93F88B30 		ldrb	r3, [r3, #139]	@ zero_extendqisi2
 1452 07e4 97F82F20 		ldrb	r2, [r7, #47]	@ zero_extendqisi2
 1453 07e8 9A42     		cmp	r2, r3
 1454 07ea 0ED1     		bne	.L81
 523:build/openmote-cc2538_armgcc/openstack/03b-IPv6/icmpv6rpl.c ****                 // report on the rank change if any, not on the deletion/creation of parent
 524:build/openmote-cc2538_armgcc/openstack/03b-IPv6/icmpv6rpl.c ****                 if (icmpv6rpl_vars.myDAGrank!=previousDAGrank) {
 1455              		.loc 1 524 0
 1456 07ec 264B     		ldr	r3, .L90
 1457 07ee B3F88630 		ldrh	r3, [r3, #134]
 1458 07f2 FA8C     		ldrh	r2, [r7, #38]
 1459 07f4 9A42     		cmp	r2, r3
 1460 07f6 43D1     		bne	.L61
 525:build/openmote-cc2538_armgcc/openstack/03b-IPv6/icmpv6rpl.c ****                 } else {
 526:build/openmote-cc2538_armgcc/openstack/03b-IPv6/icmpv6rpl.c ****                     // same parent, same rank, nothing to report about 
 527:build/openmote-cc2538_armgcc/openstack/03b-IPv6/icmpv6rpl.c ****                 	neighbors_getNeighborEui64(&NeighborAddress, ADDR_64B, icmpv6rpl_vars.ParentIndex)
 1461              		.loc 1 527 0
 1462 07f8 234B     		ldr	r3, .L90
 1463 07fa 93F88B20 		ldrb	r2, [r3, #139]	@ zero_extendqisi2
 1464 07fe 3B46     		mov	r3, r7
 1465 0800 0221     		movs	r1, #2
 1466 0802 1846     		mov	r0, r3
 1467 0804 FFF7FEFF 		bl	neighbors_getNeighborEui64
 1468 0808 3AE0     		b	.L61
 1469              	.L81:
 528:build/openmote-cc2538_armgcc/openstack/03b-IPv6/icmpv6rpl.c ****                 	//printf("I am NODE %d, I will be with the same parent %d \n", idmanager_getMyID(A
 529:build/openmote-cc2538_armgcc/openstack/03b-IPv6/icmpv6rpl.c ****                 }
 530:build/openmote-cc2538_armgcc/openstack/03b-IPv6/icmpv6rpl.c ****             } else {
 531:build/openmote-cc2538_armgcc/openstack/03b-IPv6/icmpv6rpl.c **** 
 532:build/openmote-cc2538_armgcc/openstack/03b-IPv6/icmpv6rpl.c ****             	neighbors_getNeighborEui64(&NeighborAddress, ADDR_64B, icmpv6rpl_vars.ParentIndex);
 1470              		.loc 1 532 0
 1471 080a 1F4B     		ldr	r3, .L90
 1472 080c 93F88B20 		ldrb	r2, [r3, #139]	@ zero_extendqisi2
 1473 0810 3B46     		mov	r3, r7
 1474 0812 0221     		movs	r1, #2
 1475 0814 1846     		mov	r0, r3
 1476 0816 FFF7FEFF 		bl	neighbors_getNeighborEui64
 533:build/openmote-cc2538_armgcc/openstack/03b-IPv6/icmpv6rpl.c ****             	//printf("I am NODE %d, SWITHCING TO %d !!!!!!!!!!!!! \n", idmanager_getMyID(ADDR_64B)
 534:build/openmote-cc2538_armgcc/openstack/03b-IPv6/icmpv6rpl.c ****             	if (idmanager_getMyID(ADDR_64B)->addr_64b[7]==0x67){
 1477              		.loc 1 534 0
 1478 081a 0220     		movs	r0, #2
 1479 081c FFF7FEFF 		bl	idmanager_getMyID
 1480 0820 0346     		mov	r3, r0
 1481 0822 1B7A     		ldrb	r3, [r3, #8]	@ zero_extendqisi2
 1482 0824 672B     		cmp	r3, #103
 1483 0826 01D1     		bne	.L83
 1484              	.LBB6:
 535:build/openmote-cc2538_armgcc/openstack/03b-IPv6/icmpv6rpl.c ****             		leds_debug_toggle();
 1485              		.loc 1 535 0
 1486 0828 FFF7FEFF 		bl	leds_debug_toggle
 1487              	.L83:
 1488              	.LBE6:
 536:build/openmote-cc2538_armgcc/openstack/03b-IPv6/icmpv6rpl.c ****             	}
 537:build/openmote-cc2538_armgcc/openstack/03b-IPv6/icmpv6rpl.c ****                 // clear neighbors preferredParent flag
 538:build/openmote-cc2538_armgcc/openstack/03b-IPv6/icmpv6rpl.c ****                 neighbors_setPreferredParent(prevParentIndex, FALSE);
 1489              		.loc 1 538 0
 1490 082c 97F82F30 		ldrb	r3, [r7, #47]	@ zero_extendqisi2
 1491 0830 0021     		movs	r1, #0
 1492 0832 1846     		mov	r0, r3
 1493 0834 FFF7FEFF 		bl	neighbors_setPreferredParent
 539:build/openmote-cc2538_armgcc/openstack/03b-IPv6/icmpv6rpl.c ****                 // set neighbors as preferred parent
 540:build/openmote-cc2538_armgcc/openstack/03b-IPv6/icmpv6rpl.c ****                 neighbors_setPreferredParent(icmpv6rpl_vars.ParentIndex, TRUE);
 1494              		.loc 1 540 0
 1495 0838 134B     		ldr	r3, .L90
 1496 083a 93F88B30 		ldrb	r3, [r3, #139]	@ zero_extendqisi2
 1497 083e 0121     		movs	r1, #1
 1498 0840 1846     		mov	r0, r3
 1499 0842 FFF7FEFF 		bl	neighbors_setPreferredParent
 541:build/openmote-cc2538_armgcc/openstack/03b-IPv6/icmpv6rpl.c ****                 // get prepare parent address
 542:build/openmote-cc2538_armgcc/openstack/03b-IPv6/icmpv6rpl.c ****                 neighbors_getNeighborEui64(&addressToWrite,ADDR_64B,prevParentIndex);
 1500              		.loc 1 542 0
 1501 0846 97F82F20 		ldrb	r2, [r7, #47]	@ zero_extendqisi2
 1502 084a 07F11403 		add	r3, r7, #20
 1503 084e 0221     		movs	r1, #2
 1504 0850 1846     		mov	r0, r3
 1505 0852 FFF7FEFF 		bl	neighbors_getNeighborEui64
 1506 0856 13E0     		b	.L61
 1507              	.L78:
 543:build/openmote-cc2538_armgcc/openstack/03b-IPv6/icmpv6rpl.c ****             }
 544:build/openmote-cc2538_armgcc/openstack/03b-IPv6/icmpv6rpl.c ****         }
 545:build/openmote-cc2538_armgcc/openstack/03b-IPv6/icmpv6rpl.c ****     } else {
 546:build/openmote-cc2538_armgcc/openstack/03b-IPv6/icmpv6rpl.c ****         // restore routing table as we found it on entry
 547:build/openmote-cc2538_armgcc/openstack/03b-IPv6/icmpv6rpl.c ****         icmpv6rpl_vars.myDAGrank   = previousDAGrank;
 1508              		.loc 1 547 0
 1509 0858 0B4A     		ldr	r2, .L90
 1510 085a FB8C     		ldrh	r3, [r7, #38]	@ movhi
 1511 085c A2F88630 		strh	r3, [r2, #134]	@ movhi
 548:build/openmote-cc2538_armgcc/openstack/03b-IPv6/icmpv6rpl.c ****         icmpv6rpl_vars.ParentIndex = prevParentIndex;
 1512              		.loc 1 548 0
 1513 0860 094A     		ldr	r2, .L90
 1514 0862 97F82F30 		ldrb	r3, [r7, #47]
 1515 0866 82F88B30 		strb	r3, [r2, #139]
 549:build/openmote-cc2538_armgcc/openstack/03b-IPv6/icmpv6rpl.c ****         icmpv6rpl_vars.haveParent  = prevHadParent;
 1516              		.loc 1 549 0
 1517 086a 074A     		ldr	r2, .L90
 1518 086c 97F82E30 		ldrb	r3, [r7, #46]
 1519 0870 82F88A30 		strb	r3, [r2, #138]
 550:build/openmote-cc2538_armgcc/openstack/03b-IPv6/icmpv6rpl.c ****         icmpv6rpl_vars.rankIncrease= prevRankIncrease;
 1520              		.loc 1 550 0
 1521 0874 044A     		ldr	r2, .L90
 1522 0876 BB8D     		ldrh	r3, [r7, #44]	@ movhi
 1523 0878 A2F88830 		strh	r3, [r2, #136]	@ movhi
 1524 087c 00E0     		b	.L61
 1525              	.L86:
 448:build/openmote-cc2538_armgcc/openstack/03b-IPv6/icmpv6rpl.c ****             }
 1526              		.loc 1 448 0
 1527 087e 00BF     		nop
 1528              	.L61:
 551:build/openmote-cc2538_armgcc/openstack/03b-IPv6/icmpv6rpl.c ****         // no change to report on
 552:build/openmote-cc2538_armgcc/openstack/03b-IPv6/icmpv6rpl.c ****     }
 553:build/openmote-cc2538_armgcc/openstack/03b-IPv6/icmpv6rpl.c **** }
 1529              		.loc 1 553 0
 1530 0880 3837     		adds	r7, r7, #56
 1531              		.cfi_def_cfa_offset 8
 1532 0882 BD46     		mov	sp, r7
 1533              		.cfi_def_cfa_register 13
 1534              		@ sp needed
 1535 0884 80BD     		pop	{r7, pc}
 1536              	.L91:
 1537 0886 00BF     		.align	2
 1538              	.L90:
 1539 0888 00000000 		.word	icmpv6rpl_vars
 1540              		.cfi_endproc
 1541              	.LFE11:
 1543              		.align	2
 1544              		.global	icmpv6rpl_indicateRxDIO
 1545              		.thumb
 1546              		.thumb_func
 1548              	icmpv6rpl_indicateRxDIO:
 1549              	.LFB12:
 554:build/openmote-cc2538_armgcc/openstack/03b-IPv6/icmpv6rpl.c **** /**
 555:build/openmote-cc2538_armgcc/openstack/03b-IPv6/icmpv6rpl.c **** \brief Indicate I just received a RPL DIO from a neighbor.
 556:build/openmote-cc2538_armgcc/openstack/03b-IPv6/icmpv6rpl.c **** 
 557:build/openmote-cc2538_armgcc/openstack/03b-IPv6/icmpv6rpl.c **** This function should be called for each received a DIO is received so neighbor
 558:build/openmote-cc2538_armgcc/openstack/03b-IPv6/icmpv6rpl.c **** routing information in the neighbor table can be updated.
 559:build/openmote-cc2538_armgcc/openstack/03b-IPv6/icmpv6rpl.c **** 
 560:build/openmote-cc2538_armgcc/openstack/03b-IPv6/icmpv6rpl.c **** The fields which are updated are:
 561:build/openmote-cc2538_armgcc/openstack/03b-IPv6/icmpv6rpl.c **** - DAGrank
 562:build/openmote-cc2538_armgcc/openstack/03b-IPv6/icmpv6rpl.c **** 
 563:build/openmote-cc2538_armgcc/openstack/03b-IPv6/icmpv6rpl.c **** \param[in] msg The received message with msg->payload pointing to the DIO
 564:build/openmote-cc2538_armgcc/openstack/03b-IPv6/icmpv6rpl.c ****    header.
 565:build/openmote-cc2538_armgcc/openstack/03b-IPv6/icmpv6rpl.c **** */
 566:build/openmote-cc2538_armgcc/openstack/03b-IPv6/icmpv6rpl.c **** void icmpv6rpl_indicateRxDIO(OpenQueueEntry_t* msg) {
 1550              		.loc 1 566 0
 1551              		.cfi_startproc
 1552              		@ args = 0, pretend = 0, frame = 64
 1553              		@ frame_needed = 1, uses_anonymous_args = 0
 1554 088c B0B5     		push	{r4, r5, r7, lr}
 1555              		.cfi_def_cfa_offset 16
 1556              		.cfi_offset 4, -16
 1557              		.cfi_offset 5, -12
 1558              		.cfi_offset 7, -8
 1559              		.cfi_offset 14, -4
 1560 088e 90B0     		sub	sp, sp, #64
 1561              		.cfi_def_cfa_offset 80
 1562 0890 00AF     		add	r7, sp, #0
 1563              		.cfi_def_cfa_register 7
 1564 0892 7860     		str	r0, [r7, #4]
 567:build/openmote-cc2538_armgcc/openstack/03b-IPv6/icmpv6rpl.c ****    uint8_t          i;
 568:build/openmote-cc2538_armgcc/openstack/03b-IPv6/icmpv6rpl.c ****    uint8_t          temp_8b;
 569:build/openmote-cc2538_armgcc/openstack/03b-IPv6/icmpv6rpl.c ****    dagrank_t        neighborRank;
 570:build/openmote-cc2538_armgcc/openstack/03b-IPv6/icmpv6rpl.c ****    open_addr_t      NeighborAddress;
 571:build/openmote-cc2538_armgcc/openstack/03b-IPv6/icmpv6rpl.c ****    open_addr_t      myPrefix;
 572:build/openmote-cc2538_armgcc/openstack/03b-IPv6/icmpv6rpl.c ****    uint8_t*         current;
 573:build/openmote-cc2538_armgcc/openstack/03b-IPv6/icmpv6rpl.c ****    uint8_t          optionsLen;
 574:build/openmote-cc2538_armgcc/openstack/03b-IPv6/icmpv6rpl.c ****    // take ownership over the packet
 575:build/openmote-cc2538_armgcc/openstack/03b-IPv6/icmpv6rpl.c ****    msg->owner = COMPONENT_NEIGHBORS;
 1565              		.loc 1 575 0
 1566 0894 7B68     		ldr	r3, [r7, #4]
 1567 0896 0D22     		movs	r2, #13
 1568 0898 5A70     		strb	r2, [r3, #1]
 576:build/openmote-cc2538_armgcc/openstack/03b-IPv6/icmpv6rpl.c ****    
 577:build/openmote-cc2538_armgcc/openstack/03b-IPv6/icmpv6rpl.c ****    // update some fields of our DIO 
 578:build/openmote-cc2538_armgcc/openstack/03b-IPv6/icmpv6rpl.c ****    memcpy(
 579:build/openmote-cc2538_armgcc/openstack/03b-IPv6/icmpv6rpl.c ****       &(icmpv6rpl_vars.dio),
 580:build/openmote-cc2538_armgcc/openstack/03b-IPv6/icmpv6rpl.c ****       (icmpv6rpl_dio_ht*)(msg->payload),
 1569              		.loc 1 580 0
 1570 089a 7B68     		ldr	r3, [r7, #4]
 1571 089c 5A68     		ldr	r2, [r3, #4]
 578:build/openmote-cc2538_armgcc/openstack/03b-IPv6/icmpv6rpl.c ****       &(icmpv6rpl_vars.dio),
 1572              		.loc 1 578 0
 1573 089e BE4B     		ldr	r3, .L118
 1574 08a0 0333     		adds	r3, r3, #3
 1575 08a2 1068     		ldr	r0, [r2]	@ unaligned
 1576 08a4 5168     		ldr	r1, [r2, #4]	@ unaligned
 1577 08a6 9568     		ldr	r5, [r2, #8]	@ unaligned
 1578 08a8 D468     		ldr	r4, [r2, #12]	@ unaligned
 1579 08aa 1860     		str	r0, [r3]	@ unaligned
 1580 08ac 5960     		str	r1, [r3, #4]	@ unaligned
 1581 08ae 9D60     		str	r5, [r3, #8]	@ unaligned
 1582 08b0 DC60     		str	r4, [r3, #12]	@ unaligned
 1583 08b2 1069     		ldr	r0, [r2, #16]	@ unaligned
 1584 08b4 5169     		ldr	r1, [r2, #20]	@ unaligned
 1585 08b6 1861     		str	r0, [r3, #16]	@ unaligned
 1586 08b8 5961     		str	r1, [r3, #20]	@ unaligned
 581:build/openmote-cc2538_armgcc/openstack/03b-IPv6/icmpv6rpl.c ****       sizeof(icmpv6rpl_dio_ht)
 582:build/openmote-cc2538_armgcc/openstack/03b-IPv6/icmpv6rpl.c ****    );
 583:build/openmote-cc2538_armgcc/openstack/03b-IPv6/icmpv6rpl.c ****    
 584:build/openmote-cc2538_armgcc/openstack/03b-IPv6/icmpv6rpl.c ****    // write DODAGID in DIO and DAO
 585:build/openmote-cc2538_armgcc/openstack/03b-IPv6/icmpv6rpl.c ****    icmpv6rpl_writeDODAGid(&(((icmpv6rpl_dio_ht*)(msg->payload))->DODAGID[0]));
 1587              		.loc 1 585 0
 1588 08ba 7B68     		ldr	r3, [r7, #4]
 1589 08bc 5B68     		ldr	r3, [r3, #4]
 1590 08be 0833     		adds	r3, r3, #8
 1591 08c0 1846     		mov	r0, r3
 1592 08c2 FFF7FEFF 		bl	icmpv6rpl_writeDODAGid
 586:build/openmote-cc2538_armgcc/openstack/03b-IPv6/icmpv6rpl.c ****    
 587:build/openmote-cc2538_armgcc/openstack/03b-IPv6/icmpv6rpl.c ****    // save pointer to incoming DIO header in global structure for simplfying debug.
 588:build/openmote-cc2538_armgcc/openstack/03b-IPv6/icmpv6rpl.c ****    icmpv6rpl_vars.incomingDio = (icmpv6rpl_dio_ht*)(msg->payload);
 1593              		.loc 1 588 0
 1594 08c6 7B68     		ldr	r3, [r7, #4]
 1595 08c8 5B68     		ldr	r3, [r3, #4]
 1596 08ca B34A     		ldr	r2, .L118
 1597 08cc C2F88C30 		str	r3, [r2, #140]
 589:build/openmote-cc2538_armgcc/openstack/03b-IPv6/icmpv6rpl.c ****    current = msg->payload + sizeof(icmpv6rpl_dio_ht);
 1598              		.loc 1 589 0
 1599 08d0 7B68     		ldr	r3, [r7, #4]
 1600 08d2 5B68     		ldr	r3, [r3, #4]
 1601 08d4 1833     		adds	r3, r3, #24
 1602 08d6 BB63     		str	r3, [r7, #56]
 590:build/openmote-cc2538_armgcc/openstack/03b-IPv6/icmpv6rpl.c ****    optionsLen = msg->length - sizeof(icmpv6rpl_dio_ht);
 1603              		.loc 1 590 0
 1604 08d8 7B68     		ldr	r3, [r7, #4]
 1605 08da 1B7A     		ldrb	r3, [r3, #8]	@ zero_extendqisi2
 1606 08dc 183B     		subs	r3, r3, #24
 1607 08de 87F83730 		strb	r3, [r7, #55]
 591:build/openmote-cc2538_armgcc/openstack/03b-IPv6/icmpv6rpl.c ****    
 592:build/openmote-cc2538_armgcc/openstack/03b-IPv6/icmpv6rpl.c ****    while (optionsLen>0){
 1608              		.loc 1 592 0
 1609 08e2 78E0     		b	.L93
 1610              	.L97:
 593:build/openmote-cc2538_armgcc/openstack/03b-IPv6/icmpv6rpl.c ****      switch (current[0]){
 1611              		.loc 1 593 0
 1612 08e4 BB6B     		ldr	r3, [r7, #56]
 1613 08e6 1B78     		ldrb	r3, [r3]	@ zero_extendqisi2
 1614 08e8 042B     		cmp	r3, #4
 1615 08ea 02D0     		beq	.L95
 1616 08ec 082B     		cmp	r3, #8
 1617 08ee 23D0     		beq	.L96
 1618 08f0 5FE0     		b	.L111
 1619              	.L95:
 594:build/openmote-cc2538_armgcc/openstack/03b-IPv6/icmpv6rpl.c ****      case RPL_OPTION_CONFIG:
 595:build/openmote-cc2538_armgcc/openstack/03b-IPv6/icmpv6rpl.c ****        // configuration option
 596:build/openmote-cc2538_armgcc/openstack/03b-IPv6/icmpv6rpl.c ****        icmpv6rpl_vars.incomingConf = (icmpv6rpl_config_ht*)(current);
 1620              		.loc 1 596 0
 1621 08f2 A94A     		ldr	r2, .L118
 1622 08f4 BB6B     		ldr	r3, [r7, #56]
 1623 08f6 C2F89430 		str	r3, [r2, #148]
 597:build/openmote-cc2538_armgcc/openstack/03b-IPv6/icmpv6rpl.c ****        memcpy(&icmpv6rpl_vars.conf,icmpv6rpl_vars.incomingConf, sizeof(icmpv6rpl_config_ht));
 1624              		.loc 1 597 0
 1625 08fa A74B     		ldr	r3, .L118
 1626 08fc D3F89420 		ldr	r2, [r3, #148]
 1627 0900 A54B     		ldr	r3, .L118
 1628 0902 3B33     		adds	r3, r3, #59
 1629 0904 1468     		ldr	r4, [r2]	@ unaligned
 1630 0906 5068     		ldr	r0, [r2, #4]	@ unaligned
 1631 0908 9168     		ldr	r1, [r2, #8]	@ unaligned
 1632 090a D268     		ldr	r2, [r2, #12]	@ unaligned
 1633 090c 1C60     		str	r4, [r3]	@ unaligned
 1634 090e 5860     		str	r0, [r3, #4]	@ unaligned
 1635 0910 9960     		str	r1, [r3, #8]	@ unaligned
 1636 0912 DA60     		str	r2, [r3, #12]	@ unaligned
 598:build/openmote-cc2538_armgcc/openstack/03b-IPv6/icmpv6rpl.c ****        // do whatever needs to be done with the configuration option of RPL
 599:build/openmote-cc2538_armgcc/openstack/03b-IPv6/icmpv6rpl.c ****        optionsLen = optionsLen - current[1] - 2;
 1637              		.loc 1 599 0
 1638 0914 BB6B     		ldr	r3, [r7, #56]
 1639 0916 0133     		adds	r3, r3, #1
 1640 0918 1B78     		ldrb	r3, [r3]	@ zero_extendqisi2
 1641 091a 97F83720 		ldrb	r2, [r7, #55]
 1642 091e D31A     		subs	r3, r2, r3
 1643 0920 DBB2     		uxtb	r3, r3
 1644 0922 023B     		subs	r3, r3, #2
 1645 0924 87F83730 		strb	r3, [r7, #55]
 600:build/openmote-cc2538_armgcc/openstack/03b-IPv6/icmpv6rpl.c ****        current = current + current[1] + 2;
 1646              		.loc 1 600 0
 1647 0928 BB6B     		ldr	r3, [r7, #56]
 1648 092a 0133     		adds	r3, r3, #1
 1649 092c 1B78     		ldrb	r3, [r3]	@ zero_extendqisi2
 1650 092e 0233     		adds	r3, r3, #2
 1651 0930 BA6B     		ldr	r2, [r7, #56]
 1652 0932 1344     		add	r3, r3, r2
 1653 0934 BB63     		str	r3, [r7, #56]
 601:build/openmote-cc2538_armgcc/openstack/03b-IPv6/icmpv6rpl.c ****        break;
 1654              		.loc 1 601 0
 1655 0936 4EE0     		b	.L93
 1656              	.L96:
 602:build/openmote-cc2538_armgcc/openstack/03b-IPv6/icmpv6rpl.c ****      case RPL_OPTION_PIO:
 603:build/openmote-cc2538_armgcc/openstack/03b-IPv6/icmpv6rpl.c ****        // pio
 604:build/openmote-cc2538_armgcc/openstack/03b-IPv6/icmpv6rpl.c ****         icmpv6rpl_vars.incomingPio = (icmpv6rpl_pio_t*)(current);
 1657              		.loc 1 604 0
 1658 0938 974A     		ldr	r2, .L118
 1659 093a BB6B     		ldr	r3, [r7, #56]
 1660 093c C2F89030 		str	r3, [r2, #144]
 605:build/openmote-cc2538_armgcc/openstack/03b-IPv6/icmpv6rpl.c ****         // update PIO with the received one.
 606:build/openmote-cc2538_armgcc/openstack/03b-IPv6/icmpv6rpl.c ****         memcpy(&icmpv6rpl_vars.pio,icmpv6rpl_vars.incomingPio, sizeof(icmpv6rpl_pio_t));
 1661              		.loc 1 606 0
 1662 0940 954B     		ldr	r3, .L118
 1663 0942 D3F89020 		ldr	r2, [r3, #144]
 1664 0946 944B     		ldr	r3, .L118
 1665 0948 1B33     		adds	r3, r3, #27
 1666 094a 1568     		ldr	r5, [r2]	@ unaligned
 1667 094c 5468     		ldr	r4, [r2, #4]	@ unaligned
 1668 094e 9068     		ldr	r0, [r2, #8]	@ unaligned
 1669 0950 D168     		ldr	r1, [r2, #12]	@ unaligned
 1670 0952 1D60     		str	r5, [r3]	@ unaligned
 1671 0954 5C60     		str	r4, [r3, #4]	@ unaligned
 1672 0956 9860     		str	r0, [r3, #8]	@ unaligned
 1673 0958 D960     		str	r1, [r3, #12]	@ unaligned
 1674 095a 1569     		ldr	r5, [r2, #16]	@ unaligned
 1675 095c 5469     		ldr	r4, [r2, #20]	@ unaligned
 1676 095e 9069     		ldr	r0, [r2, #24]	@ unaligned
 1677 0960 D169     		ldr	r1, [r2, #28]	@ unaligned
 1678 0962 1D61     		str	r5, [r3, #16]	@ unaligned
 1679 0964 5C61     		str	r4, [r3, #20]	@ unaligned
 1680 0966 9861     		str	r0, [r3, #24]	@ unaligned
 1681 0968 D961     		str	r1, [r3, #28]	@ unaligned
 607:build/openmote-cc2538_armgcc/openstack/03b-IPv6/icmpv6rpl.c ****         // update my prefix from PIO 
 608:build/openmote-cc2538_armgcc/openstack/03b-IPv6/icmpv6rpl.c ****         // looks like we adopt the prefix from any PIO without a question about this node being our
 609:build/openmote-cc2538_armgcc/openstack/03b-IPv6/icmpv6rpl.c ****         myPrefix.type = ADDR_PREFIX;
 1682              		.loc 1 609 0
 1683 096a 0523     		movs	r3, #5
 1684 096c 3B73     		strb	r3, [r7, #12]
 610:build/openmote-cc2538_armgcc/openstack/03b-IPv6/icmpv6rpl.c ****         memcpy(
 611:build/openmote-cc2538_armgcc/openstack/03b-IPv6/icmpv6rpl.c ****           myPrefix.prefix,
 612:build/openmote-cc2538_armgcc/openstack/03b-IPv6/icmpv6rpl.c ****           icmpv6rpl_vars.incomingPio->prefix,
 1685              		.loc 1 612 0
 1686 096e 8A4B     		ldr	r3, .L118
 1687 0970 D3F89030 		ldr	r3, [r3, #144]
 1688 0974 03F11002 		add	r2, r3, #16
 610:build/openmote-cc2538_armgcc/openstack/03b-IPv6/icmpv6rpl.c ****         memcpy(
 1689              		.loc 1 610 0
 1690 0978 07F10D03 		add	r3, r7, #13
 1691 097c 1168     		ldr	r1, [r2]	@ unaligned
 1692 097e 5268     		ldr	r2, [r2, #4]	@ unaligned
 1693 0980 1960     		str	r1, [r3]	@ unaligned
 1694 0982 5A60     		str	r2, [r3, #4]	@ unaligned
 613:build/openmote-cc2538_armgcc/openstack/03b-IPv6/icmpv6rpl.c ****           sizeof(myPrefix.prefix)
 614:build/openmote-cc2538_armgcc/openstack/03b-IPv6/icmpv6rpl.c ****         );
 615:build/openmote-cc2538_armgcc/openstack/03b-IPv6/icmpv6rpl.c ****         idmanager_setMyID(&myPrefix);
 1695              		.loc 1 615 0
 1696 0984 07F10C03 		add	r3, r7, #12
 1697 0988 1846     		mov	r0, r3
 1698 098a FFF7FEFF 		bl	idmanager_setMyID
 616:build/openmote-cc2538_armgcc/openstack/03b-IPv6/icmpv6rpl.c ****         optionsLen = optionsLen - current[1] - 2;
 1699              		.loc 1 616 0
 1700 098e BB6B     		ldr	r3, [r7, #56]
 1701 0990 0133     		adds	r3, r3, #1
 1702 0992 1B78     		ldrb	r3, [r3]	@ zero_extendqisi2
 1703 0994 97F83720 		ldrb	r2, [r7, #55]
 1704 0998 D31A     		subs	r3, r2, r3
 1705 099a DBB2     		uxtb	r3, r3
 1706 099c 023B     		subs	r3, r3, #2
 1707 099e 87F83730 		strb	r3, [r7, #55]
 617:build/openmote-cc2538_armgcc/openstack/03b-IPv6/icmpv6rpl.c ****         current = current + current[1] + 2;
 1708              		.loc 1 617 0
 1709 09a2 BB6B     		ldr	r3, [r7, #56]
 1710 09a4 0133     		adds	r3, r3, #1
 1711 09a6 1B78     		ldrb	r3, [r3]	@ zero_extendqisi2
 1712 09a8 0233     		adds	r3, r3, #2
 1713 09aa BA6B     		ldr	r2, [r7, #56]
 1714 09ac 1344     		add	r3, r3, r2
 1715 09ae BB63     		str	r3, [r7, #56]
 618:build/openmote-cc2538_armgcc/openstack/03b-IPv6/icmpv6rpl.c ****        break;
 1716              		.loc 1 618 0
 1717 09b0 11E0     		b	.L93
 1718              	.L111:
 619:build/openmote-cc2538_armgcc/openstack/03b-IPv6/icmpv6rpl.c ****      default:
 620:build/openmote-cc2538_armgcc/openstack/03b-IPv6/icmpv6rpl.c ****        //option not supported, just jump the len;
 621:build/openmote-cc2538_armgcc/openstack/03b-IPv6/icmpv6rpl.c ****        optionsLen = optionsLen - current[1] - 2;
 1719              		.loc 1 621 0
 1720 09b2 BB6B     		ldr	r3, [r7, #56]
 1721 09b4 0133     		adds	r3, r3, #1
 1722 09b6 1B78     		ldrb	r3, [r3]	@ zero_extendqisi2
 1723 09b8 97F83720 		ldrb	r2, [r7, #55]
 1724 09bc D31A     		subs	r3, r2, r3
 1725 09be DBB2     		uxtb	r3, r3
 1726 09c0 023B     		subs	r3, r3, #2
 1727 09c2 87F83730 		strb	r3, [r7, #55]
 622:build/openmote-cc2538_armgcc/openstack/03b-IPv6/icmpv6rpl.c ****        current = current + current[1] + 2;
 1728              		.loc 1 622 0
 1729 09c6 BB6B     		ldr	r3, [r7, #56]
 1730 09c8 0133     		adds	r3, r3, #1
 1731 09ca 1B78     		ldrb	r3, [r3]	@ zero_extendqisi2
 1732 09cc 0233     		adds	r3, r3, #2
 1733 09ce BA6B     		ldr	r2, [r7, #56]
 1734 09d0 1344     		add	r3, r3, r2
 1735 09d2 BB63     		str	r3, [r7, #56]
 623:build/openmote-cc2538_armgcc/openstack/03b-IPv6/icmpv6rpl.c ****        break;
 1736              		.loc 1 623 0
 1737 09d4 00BF     		nop
 1738              	.L93:
 592:build/openmote-cc2538_armgcc/openstack/03b-IPv6/icmpv6rpl.c ****      switch (current[0]){
 1739              		.loc 1 592 0
 1740 09d6 97F83730 		ldrb	r3, [r7, #55]	@ zero_extendqisi2
 1741 09da 002B     		cmp	r3, #0
 1742 09dc 82D1     		bne	.L97
 624:build/openmote-cc2538_armgcc/openstack/03b-IPv6/icmpv6rpl.c ****      }
 625:build/openmote-cc2538_armgcc/openstack/03b-IPv6/icmpv6rpl.c ****    }
 626:build/openmote-cc2538_armgcc/openstack/03b-IPv6/icmpv6rpl.c ****    
 627:build/openmote-cc2538_armgcc/openstack/03b-IPv6/icmpv6rpl.c ****    // quick fix: rank is two bytes in network order: need to swap bytes
 628:build/openmote-cc2538_armgcc/openstack/03b-IPv6/icmpv6rpl.c ****    temp_8b            = *(msg->payload+2);
 1743              		.loc 1 628 0
 1744 09de 7B68     		ldr	r3, [r7, #4]
 1745 09e0 5B68     		ldr	r3, [r3, #4]
 1746 09e2 9B78     		ldrb	r3, [r3, #2]
 1747 09e4 87F83630 		strb	r3, [r7, #54]
 629:build/openmote-cc2538_armgcc/openstack/03b-IPv6/icmpv6rpl.c ****    icmpv6rpl_vars.incomingDio->rank = (temp_8b << 8) + *(msg->payload+3);
 1748              		.loc 1 629 0
 1749 09e8 6B4B     		ldr	r3, .L118
 1750 09ea D3F88C30 		ldr	r3, [r3, #140]
 1751 09ee 97F83620 		ldrb	r2, [r7, #54]	@ zero_extendqisi2
 1752 09f2 92B2     		uxth	r2, r2
 1753 09f4 1202     		lsls	r2, r2, #8
 1754 09f6 91B2     		uxth	r1, r2
 1755 09f8 7A68     		ldr	r2, [r7, #4]
 1756 09fa 5268     		ldr	r2, [r2, #4]
 1757 09fc 0332     		adds	r2, r2, #3
 1758 09fe 1278     		ldrb	r2, [r2]	@ zero_extendqisi2
 1759 0a00 92B2     		uxth	r2, r2
 1760 0a02 0A44     		add	r2, r2, r1
 1761 0a04 92B2     		uxth	r2, r2
 1762 0a06 5A80     		strh	r2, [r3, #2]	@ unaligned
 630:build/openmote-cc2538_armgcc/openstack/03b-IPv6/icmpv6rpl.c ****    
 631:build/openmote-cc2538_armgcc/openstack/03b-IPv6/icmpv6rpl.c ****    //update rank in DIO as well (which will be overwritten with my rank when send).
 632:build/openmote-cc2538_armgcc/openstack/03b-IPv6/icmpv6rpl.c ****    icmpv6rpl_vars.dio.rank = icmpv6rpl_vars.incomingDio->rank;
 1763              		.loc 1 632 0
 1764 0a08 634B     		ldr	r3, .L118
 1765 0a0a D3F88C30 		ldr	r3, [r3, #140]
 1766 0a0e 5B88     		ldrh	r3, [r3, #2]	@ unaligned
 1767 0a10 9AB2     		uxth	r2, r3
 1768 0a12 614B     		ldr	r3, .L118
 1769 0a14 A3F80520 		strh	r2, [r3, #5]	@ unaligned
 633:build/openmote-cc2538_armgcc/openstack/03b-IPv6/icmpv6rpl.c ****    //printf("====\n");
 634:build/openmote-cc2538_armgcc/openstack/03b-IPv6/icmpv6rpl.c ****    //printf("I am NODE %d, DIO received from %d announced rank is  %d \n", idmanager_getMyID(ADDR_6
 635:build/openmote-cc2538_armgcc/openstack/03b-IPv6/icmpv6rpl.c **** 
 636:build/openmote-cc2538_armgcc/openstack/03b-IPv6/icmpv6rpl.c ****    // update rank of that neighbor in table
 637:build/openmote-cc2538_armgcc/openstack/03b-IPv6/icmpv6rpl.c ****    for (i=0;i<MAXNUMNEIGHBORS;i++) {
 1770              		.loc 1 637 0
 1771 0a18 0023     		movs	r3, #0
 1772 0a1a 87F83F30 		strb	r3, [r7, #63]
 1773 0a1e A8E0     		b	.L98
 1774              	.L110:
 638:build/openmote-cc2538_armgcc/openstack/03b-IPv6/icmpv6rpl.c ****       if (neighbors_getNeighborEui64(&NeighborAddress, ADDR_64B, i)) { // this neighbor entry is in
 1775              		.loc 1 638 0
 1776 0a20 97F83F20 		ldrb	r2, [r7, #63]	@ zero_extendqisi2
 1777 0a24 07F12003 		add	r3, r7, #32
 1778 0a28 0221     		movs	r1, #2
 1779 0a2a 1846     		mov	r0, r3
 1780 0a2c FFF7FEFF 		bl	neighbors_getNeighborEui64
 1781 0a30 0346     		mov	r3, r0
 1782 0a32 002B     		cmp	r3, #0
 1783 0a34 00F09880 		beq	.L99
 639:build/openmote-cc2538_armgcc/openstack/03b-IPv6/icmpv6rpl.c ****          if (packetfunctions_sameAddress(&(msg->l2_nextORpreviousHop),&NeighborAddress)) { // match
 1784              		.loc 1 639 0
 1785 0a38 7B68     		ldr	r3, [r7, #4]
 1786 0a3a 3C33     		adds	r3, r3, #60
 1787 0a3c 07F12002 		add	r2, r7, #32
 1788 0a40 1146     		mov	r1, r2
 1789 0a42 1846     		mov	r0, r3
 1790 0a44 FFF7FEFF 		bl	packetfunctions_sameAddress
 1791 0a48 0346     		mov	r3, r0
 1792 0a4a 002B     		cmp	r3, #0
 1793 0a4c 00F08C80 		beq	.L99
 640:build/openmote-cc2538_armgcc/openstack/03b-IPv6/icmpv6rpl.c ****             neighborRank=neighbors_getNeighborRank(i);
 1794              		.loc 1 640 0
 1795 0a50 97F83F30 		ldrb	r3, [r7, #63]	@ zero_extendqisi2
 1796 0a54 1846     		mov	r0, r3
 1797 0a56 FFF7FEFF 		bl	neighbors_getNeighborRank
 1798 0a5a 0346     		mov	r3, r0
 1799 0a5c BB86     		strh	r3, [r7, #52]	@ movhi
 641:build/openmote-cc2538_armgcc/openstack/03b-IPv6/icmpv6rpl.c ****             //printf("====\n");
 642:build/openmote-cc2538_armgcc/openstack/03b-IPv6/icmpv6rpl.c ****             //printf("I am NODE %d, DIO received from %d announced rank is  %d \n", idmanager_getMy
 643:build/openmote-cc2538_armgcc/openstack/03b-IPv6/icmpv6rpl.c **** 
 644:build/openmote-cc2538_armgcc/openstack/03b-IPv6/icmpv6rpl.c ****             //node 4 only will connect with node 2 or node 3
 645:build/openmote-cc2538_armgcc/openstack/03b-IPv6/icmpv6rpl.c ****             if (((idmanager_getMyID(ADDR_64B)->addr_64b[7] == 0x67) && (NeighborAddress.addr_64b[7]
 1800              		.loc 1 645 0
 1801 0a5e 0220     		movs	r0, #2
 1802 0a60 FFF7FEFF 		bl	idmanager_getMyID
 1803 0a64 0346     		mov	r3, r0
 1804 0a66 1B7A     		ldrb	r3, [r3, #8]	@ zero_extendqisi2
 1805 0a68 672B     		cmp	r3, #103
 1806 0a6a 04D1     		bne	.L100
 1807              		.loc 1 645 0 is_stmt 0 discriminator 1
 1808 0a6c 97F82830 		ldrb	r3, [r7, #40]	@ zero_extendqisi2
 1809 0a70 6B2B     		cmp	r3, #107
 1810 0a72 00F08D80 		beq	.L112
 1811              	.L100:
 1812              		.loc 1 645 0 discriminator 3
 1813 0a76 0220     		movs	r0, #2
 1814 0a78 FFF7FEFF 		bl	idmanager_getMyID
 1815 0a7c 0346     		mov	r3, r0
 1816 0a7e 1B7A     		ldrb	r3, [r3, #8]	@ zero_extendqisi2
 1817 0a80 672B     		cmp	r3, #103
 1818 0a82 04D1     		bne	.L102
 1819              		.loc 1 645 0 discriminator 4
 1820 0a84 97F82830 		ldrb	r3, [r7, #40]	@ zero_extendqisi2
 1821 0a88 072B     		cmp	r3, #7
 1822 0a8a 00F08180 		beq	.L112
 1823              	.L102:
 646:build/openmote-cc2538_armgcc/openstack/03b-IPv6/icmpv6rpl.c **** 
 647:build/openmote-cc2538_armgcc/openstack/03b-IPv6/icmpv6rpl.c ****             	break;
 648:build/openmote-cc2538_armgcc/openstack/03b-IPv6/icmpv6rpl.c ****             }
 649:build/openmote-cc2538_armgcc/openstack/03b-IPv6/icmpv6rpl.c **** 
 650:build/openmote-cc2538_armgcc/openstack/03b-IPv6/icmpv6rpl.c ****             //node 2 only will connect with node 1
 651:build/openmote-cc2538_armgcc/openstack/03b-IPv6/icmpv6rpl.c ****             if ((idmanager_getMyID(ADDR_64B)->addr_64b[7] == 0x61) && (NeighborAddress.addr_64b[7] 
 1824              		.loc 1 651 0 is_stmt 1
 1825 0a8e 0220     		movs	r0, #2
 1826 0a90 FFF7FEFF 		bl	idmanager_getMyID
 1827 0a94 0346     		mov	r3, r0
 1828 0a96 1B7A     		ldrb	r3, [r3, #8]	@ zero_extendqisi2
 1829 0a98 612B     		cmp	r3, #97
 1830 0a9a 03D1     		bne	.L103
 1831              		.loc 1 651 0 is_stmt 0 discriminator 1
 1832 0a9c 97F82830 		ldrb	r3, [r7, #40]	@ zero_extendqisi2
 1833 0aa0 6B2B     		cmp	r3, #107
 1834 0aa2 6CD1     		bne	.L113
 1835              	.L103:
 652:build/openmote-cc2538_armgcc/openstack/03b-IPv6/icmpv6rpl.c ****             	break;
 653:build/openmote-cc2538_armgcc/openstack/03b-IPv6/icmpv6rpl.c ****             }
 654:build/openmote-cc2538_armgcc/openstack/03b-IPv6/icmpv6rpl.c **** 
 655:build/openmote-cc2538_armgcc/openstack/03b-IPv6/icmpv6rpl.c ****             //node 3 only will connect with node 1
 656:build/openmote-cc2538_armgcc/openstack/03b-IPv6/icmpv6rpl.c ****             if ((idmanager_getMyID(ADDR_64B)->addr_64b[7] == 0x2b) && (NeighborAddress.addr_64b[7] 
 1836              		.loc 1 656 0 is_stmt 1
 1837 0aa4 0220     		movs	r0, #2
 1838 0aa6 FFF7FEFF 		bl	idmanager_getMyID
 1839 0aaa 0346     		mov	r3, r0
 1840 0aac 1B7A     		ldrb	r3, [r3, #8]	@ zero_extendqisi2
 1841 0aae 2B2B     		cmp	r3, #43
 1842 0ab0 03D1     		bne	.L104
 1843              		.loc 1 656 0 is_stmt 0 discriminator 1
 1844 0ab2 97F82830 		ldrb	r3, [r7, #40]	@ zero_extendqisi2
 1845 0ab6 6B2B     		cmp	r3, #107
 1846 0ab8 63D1     		bne	.L114
 1847              	.L104:
 657:build/openmote-cc2538_armgcc/openstack/03b-IPv6/icmpv6rpl.c ****             	break;
 658:build/openmote-cc2538_armgcc/openstack/03b-IPv6/icmpv6rpl.c ****             }
 659:build/openmote-cc2538_armgcc/openstack/03b-IPv6/icmpv6rpl.c **** 
 660:build/openmote-cc2538_armgcc/openstack/03b-IPv6/icmpv6rpl.c ****             if ((idmanager_getMyID(ADDR_64B)->addr_64b[7] == 0x07) && (NeighborAddress.addr_64b[7] 
 1848              		.loc 1 660 0 is_stmt 1
 1849 0aba 0220     		movs	r0, #2
 1850 0abc FFF7FEFF 		bl	idmanager_getMyID
 1851 0ac0 0346     		mov	r3, r0
 1852 0ac2 1B7A     		ldrb	r3, [r3, #8]	@ zero_extendqisi2
 1853 0ac4 072B     		cmp	r3, #7
 1854 0ac6 03D1     		bne	.L105
 1855              		.loc 1 660 0 is_stmt 0 discriminator 1
 1856 0ac8 97F82830 		ldrb	r3, [r7, #40]	@ zero_extendqisi2
 1857 0acc 672B     		cmp	r3, #103
 1858 0ace 5AD0     		beq	.L115
 1859              	.L105:
 661:build/openmote-cc2538_armgcc/openstack/03b-IPv6/icmpv6rpl.c **** 
 662:build/openmote-cc2538_armgcc/openstack/03b-IPv6/icmpv6rpl.c ****             	break;
 663:build/openmote-cc2538_armgcc/openstack/03b-IPv6/icmpv6rpl.c ****             }
 664:build/openmote-cc2538_armgcc/openstack/03b-IPv6/icmpv6rpl.c **** 
 665:build/openmote-cc2538_armgcc/openstack/03b-IPv6/icmpv6rpl.c ****             if ((idmanager_getMyID(ADDR_64B)->addr_64b[7] == 0x07) && (NeighborAddress.addr_64b[7] 
 1860              		.loc 1 665 0 is_stmt 1
 1861 0ad0 0220     		movs	r0, #2
 1862 0ad2 FFF7FEFF 		bl	idmanager_getMyID
 1863 0ad6 0346     		mov	r3, r0
 1864 0ad8 1B7A     		ldrb	r3, [r3, #8]	@ zero_extendqisi2
 1865 0ada 072B     		cmp	r3, #7
 1866 0adc 03D1     		bne	.L106
 1867              		.loc 1 665 0 is_stmt 0 discriminator 1
 1868 0ade 97F82830 		ldrb	r3, [r7, #40]	@ zero_extendqisi2
 1869 0ae2 2B2B     		cmp	r3, #43
 1870 0ae4 51D0     		beq	.L116
 1871              	.L106:
 666:build/openmote-cc2538_armgcc/openstack/03b-IPv6/icmpv6rpl.c **** 
 667:build/openmote-cc2538_armgcc/openstack/03b-IPv6/icmpv6rpl.c ****             	break;
 668:build/openmote-cc2538_armgcc/openstack/03b-IPv6/icmpv6rpl.c ****             }
 669:build/openmote-cc2538_armgcc/openstack/03b-IPv6/icmpv6rpl.c **** 
 670:build/openmote-cc2538_armgcc/openstack/03b-IPv6/icmpv6rpl.c ****             if ((idmanager_getMyID(ADDR_64B)->addr_64b[7] == 0x07) && (NeighborAddress.addr_64b[7] 
 1872              		.loc 1 670 0 is_stmt 1
 1873 0ae6 0220     		movs	r0, #2
 1874 0ae8 FFF7FEFF 		bl	idmanager_getMyID
 1875 0aec 0346     		mov	r3, r0
 1876 0aee 1B7A     		ldrb	r3, [r3, #8]	@ zero_extendqisi2
 1877 0af0 072B     		cmp	r3, #7
 1878 0af2 03D1     		bne	.L107
 1879              		.loc 1 670 0 is_stmt 0 discriminator 1
 1880 0af4 97F82830 		ldrb	r3, [r7, #40]	@ zero_extendqisi2
 1881 0af8 612B     		cmp	r3, #97
 1882 0afa 48D0     		beq	.L117
 1883              	.L107:
 671:build/openmote-cc2538_armgcc/openstack/03b-IPv6/icmpv6rpl.c **** 
 672:build/openmote-cc2538_armgcc/openstack/03b-IPv6/icmpv6rpl.c ****             	break;
 673:build/openmote-cc2538_armgcc/openstack/03b-IPv6/icmpv6rpl.c ****             }
 674:build/openmote-cc2538_armgcc/openstack/03b-IPv6/icmpv6rpl.c **** 
 675:build/openmote-cc2538_armgcc/openstack/03b-IPv6/icmpv6rpl.c **** 
 676:build/openmote-cc2538_armgcc/openstack/03b-IPv6/icmpv6rpl.c ****             if (
 677:build/openmote-cc2538_armgcc/openstack/03b-IPv6/icmpv6rpl.c ****               (icmpv6rpl_vars.incomingDio->rank > neighborRank) &&
 1884              		.loc 1 677 0 is_stmt 1
 1885 0afc 264B     		ldr	r3, .L118
 1886 0afe D3F88C30 		ldr	r3, [r3, #140]
 1887 0b02 5B88     		ldrh	r3, [r3, #2]	@ unaligned
 1888 0b04 9BB2     		uxth	r3, r3
 676:build/openmote-cc2538_armgcc/openstack/03b-IPv6/icmpv6rpl.c ****               (icmpv6rpl_vars.incomingDio->rank > neighborRank) &&
 1889              		.loc 1 676 0
 1890 0b06 BA8E     		ldrh	r2, [r7, #52]
 1891 0b08 9A42     		cmp	r2, r3
 1892 0b0a 1FD2     		bcs	.L108
 678:build/openmote-cc2538_armgcc/openstack/03b-IPv6/icmpv6rpl.c ****               (icmpv6rpl_vars.incomingDio->rank - neighborRank) > ((3*DEFAULTLINKCOST-2)*MINHOPRANK
 1893              		.loc 1 678 0
 1894 0b0c 224B     		ldr	r3, .L118
 1895 0b0e D3F88C30 		ldr	r3, [r3, #140]
 1896 0b12 5B88     		ldrh	r3, [r3, #2]	@ unaligned
 1897 0b14 9BB2     		uxth	r3, r3
 1898 0b16 1A46     		mov	r2, r3
 1899 0b18 BB8E     		ldrh	r3, [r7, #52]
 1900 0b1a D31A     		subs	r3, r2, r3
 677:build/openmote-cc2538_armgcc/openstack/03b-IPv6/icmpv6rpl.c ****               (icmpv6rpl_vars.incomingDio->rank - neighborRank) > ((3*DEFAULTLINKCOST-2)*MINHOPRANK
 1901              		.loc 1 677 0
 1902 0b1c B3F5206F 		cmp	r3, #2560
 1903 0b20 14DD     		ble	.L108
 679:build/openmote-cc2538_armgcc/openstack/03b-IPv6/icmpv6rpl.c ****             ) {
 680:build/openmote-cc2538_armgcc/openstack/03b-IPv6/icmpv6rpl.c ****                // the new DAGrank looks suspiciously high, only increment a bit
 681:build/openmote-cc2538_armgcc/openstack/03b-IPv6/icmpv6rpl.c ****                neighbors_setNeighborRank(i,neighborRank + ((3*DEFAULTLINKCOST-2)*2*MINHOPRANKINCREA
 1904              		.loc 1 681 0
 1905 0b22 BB8E     		ldrh	r3, [r7, #52]	@ movhi
 1906 0b24 03F5A053 		add	r3, r3, #5120
 1907 0b28 9AB2     		uxth	r2, r3
 1908 0b2a 97F83F30 		ldrb	r3, [r7, #63]	@ zero_extendqisi2
 1909 0b2e 1146     		mov	r1, r2
 1910 0b30 1846     		mov	r0, r3
 1911 0b32 FFF7FEFF 		bl	neighbors_setNeighborRank
 682:build/openmote-cc2538_armgcc/openstack/03b-IPv6/icmpv6rpl.c ****                openserial_printError(COMPONENT_NEIGHBORS,ERR_LARGE_DAGRANK,
 683:build/openmote-cc2538_armgcc/openstack/03b-IPv6/icmpv6rpl.c ****                                (errorparameter_t)icmpv6rpl_vars.incomingDio->rank,
 1912              		.loc 1 683 0
 1913 0b36 184B     		ldr	r3, .L118
 1914 0b38 D3F88C30 		ldr	r3, [r3, #140]
 1915 0b3c 5B88     		ldrh	r3, [r3, #2]	@ unaligned
 1916 0b3e 9AB2     		uxth	r2, r3
 682:build/openmote-cc2538_armgcc/openstack/03b-IPv6/icmpv6rpl.c ****                openserial_printError(COMPONENT_NEIGHBORS,ERR_LARGE_DAGRANK,
 1917              		.loc 1 682 0
 1918 0b40 BB8E     		ldrh	r3, [r7, #52]
 1919 0b42 1021     		movs	r1, #16
 1920 0b44 0D20     		movs	r0, #13
 1921 0b46 FFF7FEFF 		bl	openserial_printError
 1922 0b4a 0AE0     		b	.L109
 1923              	.L108:
 684:build/openmote-cc2538_armgcc/openstack/03b-IPv6/icmpv6rpl.c ****                                (errorparameter_t)neighborRank);
 685:build/openmote-cc2538_armgcc/openstack/03b-IPv6/icmpv6rpl.c ****             } else {
 686:build/openmote-cc2538_armgcc/openstack/03b-IPv6/icmpv6rpl.c ****                //printf("I am NODE %d, DIO received from %d its rank entry was %d \n", idmanager_ge
 687:build/openmote-cc2538_armgcc/openstack/03b-IPv6/icmpv6rpl.c ****                neighbors_setNeighborRank(i,icmpv6rpl_vars.incomingDio->rank);
 1924              		.loc 1 687 0
 1925 0b4c 124B     		ldr	r3, .L118
 1926 0b4e D3F88C30 		ldr	r3, [r3, #140]
 1927 0b52 5B88     		ldrh	r3, [r3, #2]	@ unaligned
 1928 0b54 9AB2     		uxth	r2, r3
 1929 0b56 97F83F30 		ldrb	r3, [r7, #63]	@ zero_extendqisi2
 1930 0b5a 1146     		mov	r1, r2
 1931 0b5c 1846     		mov	r0, r3
 1932 0b5e FFF7FEFF 		bl	neighbors_setNeighborRank
 1933              	.L109:
 688:build/openmote-cc2538_armgcc/openstack/03b-IPv6/icmpv6rpl.c ****                //printf("I am NODE %d, Rank entry updated for %d its rank is now %d \n", idmanager_
 689:build/openmote-cc2538_armgcc/openstack/03b-IPv6/icmpv6rpl.c **** 
 690:build/openmote-cc2538_armgcc/openstack/03b-IPv6/icmpv6rpl.c ****             }
 691:build/openmote-cc2538_armgcc/openstack/03b-IPv6/icmpv6rpl.c ****             // since changes were made to neighbors DAG rank, run the routing algorithm again
 692:build/openmote-cc2538_armgcc/openstack/03b-IPv6/icmpv6rpl.c ****             icmpv6rpl_updateMyDAGrankAndParentSelection(); 
 1934              		.loc 1 692 0
 1935 0b62 FFF7FEFF 		bl	icmpv6rpl_updateMyDAGrankAndParentSelection
 693:build/openmote-cc2538_armgcc/openstack/03b-IPv6/icmpv6rpl.c ****             break; // there should be only one matching entry, no need to loop further
 1936              		.loc 1 693 0
 1937 0b66 13E0     		b	.L101
 1938              	.L99:
 637:build/openmote-cc2538_armgcc/openstack/03b-IPv6/icmpv6rpl.c ****       if (neighbors_getNeighborEui64(&NeighborAddress, ADDR_64B, i)) { // this neighbor entry is in
 1939              		.loc 1 637 0 discriminator 2
 1940 0b68 97F83F30 		ldrb	r3, [r7, #63]	@ zero_extendqisi2
 1941 0b6c 0133     		adds	r3, r3, #1
 1942 0b6e 87F83F30 		strb	r3, [r7, #63]
 1943              	.L98:
 637:build/openmote-cc2538_armgcc/openstack/03b-IPv6/icmpv6rpl.c ****       if (neighbors_getNeighborEui64(&NeighborAddress, ADDR_64B, i)) { // this neighbor entry is in
 1944              		.loc 1 637 0 is_stmt 0 discriminator 1
 1945 0b72 97F83F30 		ldrb	r3, [r7, #63]	@ zero_extendqisi2
 1946 0b76 1D2B     		cmp	r3, #29
 1947 0b78 7FF652AF 		bls	.L110
 694:build/openmote-cc2538_armgcc/openstack/03b-IPv6/icmpv6rpl.c ****          }
 695:build/openmote-cc2538_armgcc/openstack/03b-IPv6/icmpv6rpl.c ****       }
 696:build/openmote-cc2538_armgcc/openstack/03b-IPv6/icmpv6rpl.c ****    } 
 697:build/openmote-cc2538_armgcc/openstack/03b-IPv6/icmpv6rpl.c **** }
 1948              		.loc 1 697 0 is_stmt 1
 1949 0b7c 08E0     		b	.L112
 1950              	.L113:
 652:build/openmote-cc2538_armgcc/openstack/03b-IPv6/icmpv6rpl.c ****             }
 1951              		.loc 1 652 0
 1952 0b7e 00BF     		nop
 1953 0b80 06E0     		b	.L112
 1954              	.L114:
 657:build/openmote-cc2538_armgcc/openstack/03b-IPv6/icmpv6rpl.c ****             }
 1955              		.loc 1 657 0
 1956 0b82 00BF     		nop
 1957 0b84 04E0     		b	.L112
 1958              	.L115:
 662:build/openmote-cc2538_armgcc/openstack/03b-IPv6/icmpv6rpl.c ****             }
 1959              		.loc 1 662 0
 1960 0b86 00BF     		nop
 1961 0b88 02E0     		b	.L112
 1962              	.L116:
 667:build/openmote-cc2538_armgcc/openstack/03b-IPv6/icmpv6rpl.c ****             }
 1963              		.loc 1 667 0
 1964 0b8a 00BF     		nop
 1965 0b8c 00E0     		b	.L112
 1966              	.L117:
 672:build/openmote-cc2538_armgcc/openstack/03b-IPv6/icmpv6rpl.c ****             }
 1967              		.loc 1 672 0
 1968 0b8e 00BF     		nop
 1969              	.L101:
 1970              	.L112:
 1971              		.loc 1 697 0
 1972 0b90 00BF     		nop
 1973 0b92 4037     		adds	r7, r7, #64
 1974              		.cfi_def_cfa_offset 16
 1975 0b94 BD46     		mov	sp, r7
 1976              		.cfi_def_cfa_register 13
 1977              		@ sp needed
 1978 0b96 B0BD     		pop	{r4, r5, r7, pc}
 1979              	.L119:
 1980              		.align	2
 1981              	.L118:
 1982 0b98 00000000 		.word	icmpv6rpl_vars
 1983              		.cfi_endproc
 1984              	.LFE12:
 1986              		.align	2
 1987              		.global	icmpv6rpl_killPreferredParent
 1988              		.thumb
 1989              		.thumb_func
 1991              	icmpv6rpl_killPreferredParent:
 1992              	.LFB13:
 698:build/openmote-cc2538_armgcc/openstack/03b-IPv6/icmpv6rpl.c **** 
 699:build/openmote-cc2538_armgcc/openstack/03b-IPv6/icmpv6rpl.c **** void icmpv6rpl_killPreferredParent() {
 1993              		.loc 1 699 0
 1994              		.cfi_startproc
 1995              		@ args = 0, pretend = 0, frame = 0
 1996              		@ frame_needed = 1, uses_anonymous_args = 0
 1997 0b9c 80B5     		push	{r7, lr}
 1998              		.cfi_def_cfa_offset 8
 1999              		.cfi_offset 7, -8
 2000              		.cfi_offset 14, -4
 2001 0b9e 00AF     		add	r7, sp, #0
 2002              		.cfi_def_cfa_register 7
 700:build/openmote-cc2538_armgcc/openstack/03b-IPv6/icmpv6rpl.c ****     icmpv6rpl_vars.haveParent=FALSE;
 2003              		.loc 1 700 0
 2004 0ba0 0A4B     		ldr	r3, .L124
 2005 0ba2 0022     		movs	r2, #0
 2006 0ba4 83F88A20 		strb	r2, [r3, #138]
 701:build/openmote-cc2538_armgcc/openstack/03b-IPv6/icmpv6rpl.c ****     if (idmanager_getIsDAGroot()==TRUE) {
 2007              		.loc 1 701 0
 2008 0ba8 FFF7FEFF 		bl	idmanager_getIsDAGroot
 2009 0bac 0346     		mov	r3, r0
 2010 0bae 002B     		cmp	r3, #0
 2011 0bb0 05D0     		beq	.L121
 702:build/openmote-cc2538_armgcc/openstack/03b-IPv6/icmpv6rpl.c ****        icmpv6rpl_vars.myDAGrank=MINHOPRANKINCREASE;
 2012              		.loc 1 702 0
 2013 0bb2 064B     		ldr	r3, .L124
 2014 0bb4 4FF48072 		mov	r2, #256
 2015 0bb8 A3F88620 		strh	r2, [r3, #134]	@ movhi
 703:build/openmote-cc2538_armgcc/openstack/03b-IPv6/icmpv6rpl.c ****     } else {
 704:build/openmote-cc2538_armgcc/openstack/03b-IPv6/icmpv6rpl.c ****        icmpv6rpl_vars.myDAGrank=DEFAULTDAGRANK;
 705:build/openmote-cc2538_armgcc/openstack/03b-IPv6/icmpv6rpl.c ****     }
 706:build/openmote-cc2538_armgcc/openstack/03b-IPv6/icmpv6rpl.c **** }
 2016              		.loc 1 706 0
 2017 0bbc 04E0     		b	.L123
 2018              	.L121:
 704:build/openmote-cc2538_armgcc/openstack/03b-IPv6/icmpv6rpl.c ****     }
 2019              		.loc 1 704 0
 2020 0bbe 034B     		ldr	r3, .L124
 2021 0bc0 4FF6FF72 		movw	r2, #65535
 2022 0bc4 A3F88620 		strh	r2, [r3, #134]	@ movhi
 2023              	.L123:
 2024              		.loc 1 706 0
 2025 0bc8 00BF     		nop
 2026 0bca 80BD     		pop	{r7, pc}
 2027              	.L125:
 2028              		.align	2
 2029              	.L124:
 2030 0bcc 00000000 		.word	icmpv6rpl_vars
 2031              		.cfi_endproc
 2032              	.LFE13:
 2034              		.align	2
 2035              		.global	icmpv6rpl_timer_DIO_cb
 2036              		.thumb
 2037              		.thumb_func
 2039              	icmpv6rpl_timer_DIO_cb:
 2040              	.LFB14:
 707:build/openmote-cc2538_armgcc/openstack/03b-IPv6/icmpv6rpl.c **** 
 708:build/openmote-cc2538_armgcc/openstack/03b-IPv6/icmpv6rpl.c **** //=========================== private =========================================
 709:build/openmote-cc2538_armgcc/openstack/03b-IPv6/icmpv6rpl.c **** 
 710:build/openmote-cc2538_armgcc/openstack/03b-IPv6/icmpv6rpl.c **** //===== DIO-related
 711:build/openmote-cc2538_armgcc/openstack/03b-IPv6/icmpv6rpl.c **** 
 712:build/openmote-cc2538_armgcc/openstack/03b-IPv6/icmpv6rpl.c **** /**
 713:build/openmote-cc2538_armgcc/openstack/03b-IPv6/icmpv6rpl.c **** \brief DIO timer callback function.
 714:build/openmote-cc2538_armgcc/openstack/03b-IPv6/icmpv6rpl.c **** 
 715:build/openmote-cc2538_armgcc/openstack/03b-IPv6/icmpv6rpl.c **** \note This function is executed in interrupt context, and should only push a 
 716:build/openmote-cc2538_armgcc/openstack/03b-IPv6/icmpv6rpl.c ****    task.
 717:build/openmote-cc2538_armgcc/openstack/03b-IPv6/icmpv6rpl.c **** */
 718:build/openmote-cc2538_armgcc/openstack/03b-IPv6/icmpv6rpl.c **** void icmpv6rpl_timer_DIO_cb(opentimers_id_t id) {
 2041              		.loc 1 718 0
 2042              		.cfi_startproc
 2043              		@ args = 0, pretend = 0, frame = 8
 2044              		@ frame_needed = 1, uses_anonymous_args = 0
 2045 0bd0 90B5     		push	{r4, r7, lr}
 2046              		.cfi_def_cfa_offset 12
 2047              		.cfi_offset 4, -12
 2048              		.cfi_offset 7, -8
 2049              		.cfi_offset 14, -4
 2050 0bd2 85B0     		sub	sp, sp, #20
 2051              		.cfi_def_cfa_offset 32
 2052 0bd4 02AF     		add	r7, sp, #8
 2053              		.cfi_def_cfa 7, 24
 2054 0bd6 0346     		mov	r3, r0
 2055 0bd8 FB71     		strb	r3, [r7, #7]
 719:build/openmote-cc2538_armgcc/openstack/03b-IPv6/icmpv6rpl.c ****     scheduler_push_task(icmpv6rpl_timer_DIO_task,TASKPRIO_RPL);
 2056              		.loc 1 719 0
 2057 0bda 0421     		movs	r1, #4
 2058 0bdc 0B48     		ldr	r0, .L127
 2059 0bde FFF7FEFF 		bl	scheduler_push_task
 720:build/openmote-cc2538_armgcc/openstack/03b-IPv6/icmpv6rpl.c ****     // update the period
 721:build/openmote-cc2538_armgcc/openstack/03b-IPv6/icmpv6rpl.c ****     opentimers_scheduleIn(
 2060              		.loc 1 721 0
 2061 0be2 0B4B     		ldr	r3, .L127+4
 2062 0be4 93F85E40 		ldrb	r4, [r3, #94]	@ zero_extendqisi2
 722:build/openmote-cc2538_armgcc/openstack/03b-IPv6/icmpv6rpl.c ****         icmpv6rpl_vars.timerIdDIO,
 723:build/openmote-cc2538_armgcc/openstack/03b-IPv6/icmpv6rpl.c ****         872 +(openrandom_get16b()&0xff),
 2063              		.loc 1 723 0
 2064 0be8 FFF7FEFF 		bl	openrandom_get16b
 2065 0bec 0346     		mov	r3, r0
 2066 0bee DBB2     		uxtb	r3, r3
 2067 0bf0 03F55A73 		add	r3, r3, #872
 721:build/openmote-cc2538_armgcc/openstack/03b-IPv6/icmpv6rpl.c ****         icmpv6rpl_vars.timerIdDIO,
 2068              		.loc 1 721 0
 2069 0bf4 1946     		mov	r1, r3
 2070 0bf6 074B     		ldr	r3, .L127+8
 2071 0bf8 0093     		str	r3, [sp]
 2072 0bfa 0123     		movs	r3, #1
 2073 0bfc 0022     		movs	r2, #0
 2074 0bfe 2046     		mov	r0, r4
 2075 0c00 FFF7FEFF 		bl	opentimers_scheduleIn
 724:build/openmote-cc2538_armgcc/openstack/03b-IPv6/icmpv6rpl.c ****         TIME_MS,
 725:build/openmote-cc2538_armgcc/openstack/03b-IPv6/icmpv6rpl.c ****         TIMER_ONESHOT,
 726:build/openmote-cc2538_armgcc/openstack/03b-IPv6/icmpv6rpl.c ****        icmpv6rpl_timer_DIO_cb
 727:build/openmote-cc2538_armgcc/openstack/03b-IPv6/icmpv6rpl.c ****     );
 728:build/openmote-cc2538_armgcc/openstack/03b-IPv6/icmpv6rpl.c **** }
 2076              		.loc 1 728 0
 2077 0c04 00BF     		nop
 2078 0c06 0C37     		adds	r7, r7, #12
 2079              		.cfi_def_cfa_offset 12
 2080 0c08 BD46     		mov	sp, r7
 2081              		.cfi_def_cfa_register 13
 2082              		@ sp needed
 2083 0c0a 90BD     		pop	{r4, r7, pc}
 2084              	.L128:
 2085              		.align	2
 2086              	.L127:
 2087 0c0c 00000000 		.word	icmpv6rpl_timer_DIO_task
 2088 0c10 00000000 		.word	icmpv6rpl_vars
 2089 0c14 00000000 		.word	icmpv6rpl_timer_DIO_cb
 2090              		.cfi_endproc
 2091              	.LFE14:
 2093              		.align	2
 2094              		.global	icmpv6rpl_timer_DIO_task
 2095              		.thumb
 2096              		.thumb_func
 2098              	icmpv6rpl_timer_DIO_task:
 2099              	.LFB15:
 729:build/openmote-cc2538_armgcc/openstack/03b-IPv6/icmpv6rpl.c **** 
 730:build/openmote-cc2538_armgcc/openstack/03b-IPv6/icmpv6rpl.c **** /**
 731:build/openmote-cc2538_armgcc/openstack/03b-IPv6/icmpv6rpl.c **** \brief Handler for DIO timer event.
 732:build/openmote-cc2538_armgcc/openstack/03b-IPv6/icmpv6rpl.c **** 
 733:build/openmote-cc2538_armgcc/openstack/03b-IPv6/icmpv6rpl.c **** \note This function is executed in task context, called by the scheduler.
 734:build/openmote-cc2538_armgcc/openstack/03b-IPv6/icmpv6rpl.c **** */
 735:build/openmote-cc2538_armgcc/openstack/03b-IPv6/icmpv6rpl.c **** void icmpv6rpl_timer_DIO_task() {
 2100              		.loc 1 735 0
 2101              		.cfi_startproc
 2102              		@ args = 0, pretend = 0, frame = 8
 2103              		@ frame_needed = 1, uses_anonymous_args = 0
 2104 0c18 80B5     		push	{r7, lr}
 2105              		.cfi_def_cfa_offset 8
 2106              		.cfi_offset 7, -8
 2107              		.cfi_offset 14, -4
 2108 0c1a 82B0     		sub	sp, sp, #8
 2109              		.cfi_def_cfa_offset 16
 2110 0c1c 00AF     		add	r7, sp, #0
 2111              		.cfi_def_cfa_register 7
 736:build/openmote-cc2538_armgcc/openstack/03b-IPv6/icmpv6rpl.c ****     
 737:build/openmote-cc2538_armgcc/openstack/03b-IPv6/icmpv6rpl.c ****     uint16_t newPeriod;
 738:build/openmote-cc2538_armgcc/openstack/03b-IPv6/icmpv6rpl.c ****     // current period 
 739:build/openmote-cc2538_armgcc/openstack/03b-IPv6/icmpv6rpl.c ****     newPeriod = DIO_PORTION*(neighbors_getNumNeighbors()+1);
 2112              		.loc 1 739 0
 2113 0c1e FFF7FEFF 		bl	neighbors_getNumNeighbors
 2114 0c22 0346     		mov	r3, r0
 2115 0c24 0133     		adds	r3, r3, #1
 2116 0c26 9BB2     		uxth	r3, r3
 2117 0c28 1A46     		mov	r2, r3	@ movhi
 2118 0c2a 5200     		lsls	r2, r2, #1
 2119 0c2c 1344     		add	r3, r3, r2
 2120 0c2e 5B00     		lsls	r3, r3, #1
 2121 0c30 FB80     		strh	r3, [r7, #6]	@ movhi
 740:build/openmote-cc2538_armgcc/openstack/03b-IPv6/icmpv6rpl.c ****     if (
 741:build/openmote-cc2538_armgcc/openstack/03b-IPv6/icmpv6rpl.c ****         icmpv6rpl_vars.dioPeriod        < newPeriod &&
 2122              		.loc 1 741 0
 2123 0c32 1C4B     		ldr	r3, .L134
 2124 0c34 B3F86030 		ldrh	r3, [r3, #96]
 740:build/openmote-cc2538_armgcc/openstack/03b-IPv6/icmpv6rpl.c ****     if (
 2125              		.loc 1 740 0
 2126 0c38 FA88     		ldrh	r2, [r7, #6]
 2127 0c3a 9A42     		cmp	r2, r3
 2128 0c3c 10D9     		bls	.L130
 742:build/openmote-cc2538_armgcc/openstack/03b-IPv6/icmpv6rpl.c ****         icmpv6rpl_vars.dioTimerCounter  > newPeriod
 2129              		.loc 1 742 0
 2130 0c3e 194B     		ldr	r3, .L134
 2131 0c40 B3F85C30 		ldrh	r3, [r3, #92]
 741:build/openmote-cc2538_armgcc/openstack/03b-IPv6/icmpv6rpl.c ****         icmpv6rpl_vars.dioTimerCounter  > newPeriod
 2132              		.loc 1 741 0
 2133 0c44 FA88     		ldrh	r2, [r7, #6]
 2134 0c46 9A42     		cmp	r2, r3
 2135 0c48 0AD2     		bcs	.L130
 743:build/openmote-cc2538_armgcc/openstack/03b-IPv6/icmpv6rpl.c ****     ){
 744:build/openmote-cc2538_armgcc/openstack/03b-IPv6/icmpv6rpl.c ****         icmpv6rpl_vars.dioTimerCounter  = 0;
 2136              		.loc 1 744 0
 2137 0c4a 164B     		ldr	r3, .L134
 2138 0c4c 0022     		movs	r2, #0
 2139 0c4e A3F85C20 		strh	r2, [r3, #92]	@ movhi
 745:build/openmote-cc2538_armgcc/openstack/03b-IPv6/icmpv6rpl.c ****         icmpv6rpl_vars.dioPeriod        = newPeriod;
 2140              		.loc 1 745 0
 2141 0c52 144A     		ldr	r2, .L134
 2142 0c54 FB88     		ldrh	r3, [r7, #6]	@ movhi
 2143 0c56 A2F86030 		strh	r3, [r2, #96]	@ movhi
 746:build/openmote-cc2538_armgcc/openstack/03b-IPv6/icmpv6rpl.c ****         sendDIO();
 2144              		.loc 1 746 0
 2145 0c5a FFF7FEFF 		bl	sendDIO
 2146 0c5e 1CE0     		b	.L131
 2147              	.L130:
 747:build/openmote-cc2538_armgcc/openstack/03b-IPv6/icmpv6rpl.c ****     } else {
 748:build/openmote-cc2538_armgcc/openstack/03b-IPv6/icmpv6rpl.c ****         icmpv6rpl_vars.dioPeriod        = newPeriod;
 2148              		.loc 1 748 0
 2149 0c60 104A     		ldr	r2, .L134
 2150 0c62 FB88     		ldrh	r3, [r7, #6]	@ movhi
 2151 0c64 A2F86030 		strh	r3, [r2, #96]	@ movhi
 749:build/openmote-cc2538_armgcc/openstack/03b-IPv6/icmpv6rpl.c ****         icmpv6rpl_vars.dioTimerCounter  = (icmpv6rpl_vars.dioTimerCounter+1)%icmpv6rpl_vars.dioPeri
 2152              		.loc 1 749 0
 2153 0c68 0E4B     		ldr	r3, .L134
 2154 0c6a B3F85C30 		ldrh	r3, [r3, #92]
 2155 0c6e 0133     		adds	r3, r3, #1
 2156 0c70 0C4A     		ldr	r2, .L134
 2157 0c72 B2F86020 		ldrh	r2, [r2, #96]
 2158 0c76 93FBF2F1 		sdiv	r1, r3, r2
 2159 0c7a 02FB01F2 		mul	r2, r2, r1
 2160 0c7e 9B1A     		subs	r3, r3, r2
 2161 0c80 9AB2     		uxth	r2, r3
 2162 0c82 084B     		ldr	r3, .L134
 2163 0c84 A3F85C20 		strh	r2, [r3, #92]	@ movhi
 750:build/openmote-cc2538_armgcc/openstack/03b-IPv6/icmpv6rpl.c ****         switch (icmpv6rpl_vars.dioTimerCounter) {
 2164              		.loc 1 750 0
 2165 0c88 064B     		ldr	r3, .L134
 2166 0c8a B3F85C30 		ldrh	r3, [r3, #92]
 2167 0c8e 002B     		cmp	r3, #0
 2168 0c90 00D0     		beq	.L133
 751:build/openmote-cc2538_armgcc/openstack/03b-IPv6/icmpv6rpl.c ****         case 0:
 752:build/openmote-cc2538_armgcc/openstack/03b-IPv6/icmpv6rpl.c ****             sendDIO();
 753:build/openmote-cc2538_armgcc/openstack/03b-IPv6/icmpv6rpl.c ****             break;
 754:build/openmote-cc2538_armgcc/openstack/03b-IPv6/icmpv6rpl.c ****         default:
 755:build/openmote-cc2538_armgcc/openstack/03b-IPv6/icmpv6rpl.c ****             break;
 2169              		.loc 1 755 0
 2170 0c92 02E0     		b	.L131
 2171              	.L133:
 752:build/openmote-cc2538_armgcc/openstack/03b-IPv6/icmpv6rpl.c ****             break;
 2172              		.loc 1 752 0
 2173 0c94 FFF7FEFF 		bl	sendDIO
 753:build/openmote-cc2538_armgcc/openstack/03b-IPv6/icmpv6rpl.c ****         default:
 2174              		.loc 1 753 0
 2175 0c98 00BF     		nop
 2176              	.L131:
 756:build/openmote-cc2538_armgcc/openstack/03b-IPv6/icmpv6rpl.c ****         }
 757:build/openmote-cc2538_armgcc/openstack/03b-IPv6/icmpv6rpl.c ****     }
 758:build/openmote-cc2538_armgcc/openstack/03b-IPv6/icmpv6rpl.c **** }
 2177              		.loc 1 758 0
 2178 0c9a 00BF     		nop
 2179 0c9c 0837     		adds	r7, r7, #8
 2180              		.cfi_def_cfa_offset 8
 2181 0c9e BD46     		mov	sp, r7
 2182              		.cfi_def_cfa_register 13
 2183              		@ sp needed
 2184 0ca0 80BD     		pop	{r7, pc}
 2185              	.L135:
 2186 0ca2 00BF     		.align	2
 2187              	.L134:
 2188 0ca4 00000000 		.word	icmpv6rpl_vars
 2189              		.cfi_endproc
 2190              	.LFE15:
 2192              		.section	.rodata
 2193              		.align	2
 2194              	.LC0:
 2195 0074 BB       		.byte	-69
 2196 0075 BB       		.byte	-69
 2197 0076 00       		.byte	0
 2198 0077 00       		.byte	0
 2199 0078 00       		.byte	0
 2200 0079 00       		.byte	0
 2201 007a 00       		.byte	0
 2202 007b 00       		.byte	0
 2203 007c 00       		.byte	0
 2204 007d 12       		.byte	18
 2205 007e 4B       		.byte	75
 2206 007f 00       		.byte	0
 2207 0080 06       		.byte	6
 2208 0081 13       		.byte	19
 2209 0082 0F       		.byte	15
 2210 0083 07       		.byte	7
 2211              		.text
 2212              		.align	2
 2213              		.global	icmpv6rpl_sendWhisperDIO
 2214              		.thumb
 2215              		.thumb_func
 2217              	icmpv6rpl_sendWhisperDIO:
 2218              	.LFB16:
 759:build/openmote-cc2538_armgcc/openstack/03b-IPv6/icmpv6rpl.c **** 
 760:build/openmote-cc2538_armgcc/openstack/03b-IPv6/icmpv6rpl.c **** /**
 761:build/openmote-cc2538_armgcc/openstack/03b-IPv6/icmpv6rpl.c **** \brief Prepare and a send a RPL DIO.
 762:build/openmote-cc2538_armgcc/openstack/03b-IPv6/icmpv6rpl.c **** */
 763:build/openmote-cc2538_armgcc/openstack/03b-IPv6/icmpv6rpl.c **** void icmpv6rpl_sendWhisperDIO(uint8_t target, uint8_t currentParent,uint16_t rankTarget) {
 2219              		.loc 1 763 0
 2220              		.cfi_startproc
 2221              		@ args = 0, pretend = 0, frame = 48
 2222              		@ frame_needed = 1, uses_anonymous_args = 0
 2223 0ca8 B0B5     		push	{r4, r5, r7, lr}
 2224              		.cfi_def_cfa_offset 16
 2225              		.cfi_offset 4, -16
 2226              		.cfi_offset 5, -12
 2227              		.cfi_offset 7, -8
 2228              		.cfi_offset 14, -4
 2229 0caa 8CB0     		sub	sp, sp, #48
 2230              		.cfi_def_cfa_offset 64
 2231 0cac 00AF     		add	r7, sp, #0
 2232              		.cfi_def_cfa_register 7
 2233 0cae 0346     		mov	r3, r0
 2234 0cb0 FB71     		strb	r3, [r7, #7]
 2235 0cb2 0B46     		mov	r3, r1
 2236 0cb4 BB71     		strb	r3, [r7, #6]
 2237 0cb6 1346     		mov	r3, r2	@ movhi
 2238 0cb8 BB80     		strh	r3, [r7, #4]	@ movhi
 764:build/openmote-cc2538_armgcc/openstack/03b-IPv6/icmpv6rpl.c **** 	   OpenQueueEntry_t*    msg;
 765:build/openmote-cc2538_armgcc/openstack/03b-IPv6/icmpv6rpl.c **** 
 766:build/openmote-cc2538_armgcc/openstack/03b-IPv6/icmpv6rpl.c **** 	   // stop if I'm not sync'ed
 767:build/openmote-cc2538_armgcc/openstack/03b-IPv6/icmpv6rpl.c **** 	   if (ieee154e_isSynch()==FALSE) {
 2239              		.loc 1 767 0
 2240 0cba FFF7FEFF 		bl	ieee154e_isSynch
 2241 0cbe 0346     		mov	r3, r0
 2242 0cc0 83F00103 		eor	r3, r3, #1
 2243 0cc4 DBB2     		uxtb	r3, r3
 2244 0cc6 002B     		cmp	r3, #0
 2245 0cc8 09D0     		beq	.L137
 768:build/openmote-cc2538_armgcc/openstack/03b-IPv6/icmpv6rpl.c **** 
 769:build/openmote-cc2538_armgcc/openstack/03b-IPv6/icmpv6rpl.c **** 	      // remove packets genereted by this module (DIO and DAO) from openqueue
 770:build/openmote-cc2538_armgcc/openstack/03b-IPv6/icmpv6rpl.c **** 	      openqueue_removeAllCreatedBy(COMPONENT_ICMPv6RPL);
 2246              		.loc 1 770 0
 2247 0cca 1720     		movs	r0, #23
 2248 0ccc FFF7FEFF 		bl	openqueue_removeAllCreatedBy
 771:build/openmote-cc2538_armgcc/openstack/03b-IPv6/icmpv6rpl.c **** 
 772:build/openmote-cc2538_armgcc/openstack/03b-IPv6/icmpv6rpl.c **** 	      // I'm not busy sending a DIO/DAO
 773:build/openmote-cc2538_armgcc/openstack/03b-IPv6/icmpv6rpl.c **** 	      icmpv6rpl_vars.busySendingDIO  = FALSE;
 2249              		.loc 1 773 0
 2250 0cd0 574B     		ldr	r3, .L147
 2251 0cd2 0022     		movs	r2, #0
 2252 0cd4 1A70     		strb	r2, [r3]
 774:build/openmote-cc2538_armgcc/openstack/03b-IPv6/icmpv6rpl.c **** 	      icmpv6rpl_vars.busySendingDAO  = FALSE;
 2253              		.loc 1 774 0
 2254 0cd6 564B     		ldr	r3, .L147
 2255 0cd8 0022     		movs	r2, #0
 2256 0cda 5A70     		strb	r2, [r3, #1]
 775:build/openmote-cc2538_armgcc/openstack/03b-IPv6/icmpv6rpl.c **** 
 776:build/openmote-cc2538_armgcc/openstack/03b-IPv6/icmpv6rpl.c **** 	      // stop here
 777:build/openmote-cc2538_armgcc/openstack/03b-IPv6/icmpv6rpl.c **** 	      return;
 2257              		.loc 1 777 0
 2258 0cdc A5E0     		b	.L136
 2259              	.L137:
 778:build/openmote-cc2538_armgcc/openstack/03b-IPv6/icmpv6rpl.c **** 	   }
 779:build/openmote-cc2538_armgcc/openstack/03b-IPv6/icmpv6rpl.c **** 
 780:build/openmote-cc2538_armgcc/openstack/03b-IPv6/icmpv6rpl.c **** 	   // do not send DIO if I have the default DAG rank
 781:build/openmote-cc2538_armgcc/openstack/03b-IPv6/icmpv6rpl.c **** 	   if (icmpv6rpl_getMyDAGrank()==DEFAULTDAGRANK) {
 2260              		.loc 1 781 0
 2261 0cde FFF7FEFF 		bl	icmpv6rpl_getMyDAGrank
 2262 0ce2 0346     		mov	r3, r0
 2263 0ce4 1A46     		mov	r2, r3
 2264 0ce6 4FF6FF73 		movw	r3, #65535
 2265 0cea 9A42     		cmp	r2, r3
 2266 0cec 00F09A80 		beq	.L145
 782:build/openmote-cc2538_armgcc/openstack/03b-IPv6/icmpv6rpl.c **** 	      return;
 783:build/openmote-cc2538_armgcc/openstack/03b-IPv6/icmpv6rpl.c **** 	   }
 784:build/openmote-cc2538_armgcc/openstack/03b-IPv6/icmpv6rpl.c **** 
 785:build/openmote-cc2538_armgcc/openstack/03b-IPv6/icmpv6rpl.c **** 	   // do not send DIO if I'm already busy sending
 786:build/openmote-cc2538_armgcc/openstack/03b-IPv6/icmpv6rpl.c **** 	   if (icmpv6rpl_vars.busySendingDIO==TRUE) {
 2267              		.loc 1 786 0
 2268 0cf0 4F4B     		ldr	r3, .L147
 2269 0cf2 1B78     		ldrb	r3, [r3]	@ zero_extendqisi2
 2270 0cf4 002B     		cmp	r3, #0
 2271 0cf6 40F09780 		bne	.L146
 787:build/openmote-cc2538_armgcc/openstack/03b-IPv6/icmpv6rpl.c **** 	           return;
 788:build/openmote-cc2538_armgcc/openstack/03b-IPv6/icmpv6rpl.c **** 	   }
 789:build/openmote-cc2538_armgcc/openstack/03b-IPv6/icmpv6rpl.c **** 
 790:build/openmote-cc2538_armgcc/openstack/03b-IPv6/icmpv6rpl.c **** 	   // if you get here, all good to send a DIO
 791:build/openmote-cc2538_armgcc/openstack/03b-IPv6/icmpv6rpl.c **** 
 792:build/openmote-cc2538_armgcc/openstack/03b-IPv6/icmpv6rpl.c **** 	   //printf("I am WISHPER node %d, preparing FAKEDIO to %d to make him leave its current parent %d
 793:build/openmote-cc2538_armgcc/openstack/03b-IPv6/icmpv6rpl.c **** 
 794:build/openmote-cc2538_armgcc/openstack/03b-IPv6/icmpv6rpl.c **** 	   // reserve a free packet buffer for DIO
 795:build/openmote-cc2538_armgcc/openstack/03b-IPv6/icmpv6rpl.c **** 	   msg = openqueue_getFreePacketBuffer(COMPONENT_ICMPv6RPL);
 2272              		.loc 1 795 0
 2273 0cfa 1720     		movs	r0, #23
 2274 0cfc FFF7FEFF 		bl	openqueue_getFreePacketBuffer
 2275 0d00 F862     		str	r0, [r7, #44]
 796:build/openmote-cc2538_armgcc/openstack/03b-IPv6/icmpv6rpl.c **** 
 797:build/openmote-cc2538_armgcc/openstack/03b-IPv6/icmpv6rpl.c **** 
 798:build/openmote-cc2538_armgcc/openstack/03b-IPv6/icmpv6rpl.c **** 	   if (msg==NULL) {
 2276              		.loc 1 798 0
 2277 0d02 FB6A     		ldr	r3, [r7, #44]
 2278 0d04 002B     		cmp	r3, #0
 2279 0d06 06D1     		bne	.L141
 799:build/openmote-cc2538_armgcc/openstack/03b-IPv6/icmpv6rpl.c **** 	      openserial_printError(COMPONENT_ICMPv6RPL,ERR_NO_FREE_PACKET_BUFFER,
 2280              		.loc 1 799 0
 2281 0d08 0023     		movs	r3, #0
 2282 0d0a 0022     		movs	r2, #0
 2283 0d0c 2C21     		movs	r1, #44
 2284 0d0e 1720     		movs	r0, #23
 2285 0d10 FFF7FEFF 		bl	openserial_printError
 800:build/openmote-cc2538_armgcc/openstack/03b-IPv6/icmpv6rpl.c **** 	                            (errorparameter_t)0,
 801:build/openmote-cc2538_armgcc/openstack/03b-IPv6/icmpv6rpl.c **** 	                            (errorparameter_t)0);
 802:build/openmote-cc2538_armgcc/openstack/03b-IPv6/icmpv6rpl.c **** 
 803:build/openmote-cc2538_armgcc/openstack/03b-IPv6/icmpv6rpl.c **** 	      return;
 2286              		.loc 1 803 0
 2287 0d14 89E0     		b	.L136
 2288              	.L141:
 804:build/openmote-cc2538_armgcc/openstack/03b-IPv6/icmpv6rpl.c **** 	   }
 805:build/openmote-cc2538_armgcc/openstack/03b-IPv6/icmpv6rpl.c **** 
 806:build/openmote-cc2538_armgcc/openstack/03b-IPv6/icmpv6rpl.c **** 	   // take ownership
 807:build/openmote-cc2538_armgcc/openstack/03b-IPv6/icmpv6rpl.c **** 	   msg->creator                             = COMPONENT_ICMPv6RPL;
 2289              		.loc 1 807 0
 2290 0d16 FB6A     		ldr	r3, [r7, #44]
 2291 0d18 1722     		movs	r2, #23
 2292 0d1a 1A70     		strb	r2, [r3]
 808:build/openmote-cc2538_armgcc/openstack/03b-IPv6/icmpv6rpl.c **** 	   msg->owner                               = COMPONENT_ICMPv6RPL;
 2293              		.loc 1 808 0
 2294 0d1c FB6A     		ldr	r3, [r7, #44]
 2295 0d1e 1722     		movs	r2, #23
 2296 0d20 5A70     		strb	r2, [r3, #1]
 809:build/openmote-cc2538_armgcc/openstack/03b-IPv6/icmpv6rpl.c **** 
 810:build/openmote-cc2538_armgcc/openstack/03b-IPv6/icmpv6rpl.c **** 	   msg->isDioFake				    = TRUE;
 2297              		.loc 1 810 0
 2298 0d22 FB6A     		ldr	r3, [r7, #44]
 2299 0d24 0122     		movs	r2, #1
 2300 0d26 83F84321 		strb	r2, [r3, #323]
 811:build/openmote-cc2538_armgcc/openstack/03b-IPv6/icmpv6rpl.c **** 	   //msg->isSixtopFake				= FALSE;
 812:build/openmote-cc2538_armgcc/openstack/03b-IPv6/icmpv6rpl.c **** 
 813:build/openmote-cc2538_armgcc/openstack/03b-IPv6/icmpv6rpl.c **** 	   // set transport information
 814:build/openmote-cc2538_armgcc/openstack/03b-IPv6/icmpv6rpl.c **** 	   msg->l4_protocol                         = IANA_ICMPv6;
 2301              		.loc 1 814 0
 2302 0d2a FB6A     		ldr	r3, [r7, #44]
 2303 0d2c 3A22     		movs	r2, #58
 2304 0d2e 9A73     		strb	r2, [r3, #14]
 815:build/openmote-cc2538_armgcc/openstack/03b-IPv6/icmpv6rpl.c **** 	   msg->l4_protocol_compressed              = FALSE;
 2305              		.loc 1 815 0
 2306 0d30 FB6A     		ldr	r3, [r7, #44]
 2307 0d32 0022     		movs	r2, #0
 2308 0d34 DA73     		strb	r2, [r3, #15]
 816:build/openmote-cc2538_armgcc/openstack/03b-IPv6/icmpv6rpl.c **** 	   msg->l4_sourcePortORicmpv6Type           = IANA_ICMPv6_RPL;
 2309              		.loc 1 816 0
 2310 0d36 FB6A     		ldr	r3, [r7, #44]
 2311 0d38 9B22     		movs	r2, #155
 2312 0d3a 1A82     		strh	r2, [r3, #16]	@ movhi
 817:build/openmote-cc2538_armgcc/openstack/03b-IPv6/icmpv6rpl.c **** 
 818:build/openmote-cc2538_armgcc/openstack/03b-IPv6/icmpv6rpl.c **** 
 819:build/openmote-cc2538_armgcc/openstack/03b-IPv6/icmpv6rpl.c **** 	   uint8_t whisper_rpl_destAddress[] = {
 2313              		.loc 1 819 0
 2314 0d3c 3D4B     		ldr	r3, .L147+4
 2315 0d3e 07F11C04 		add	r4, r7, #28
 2316 0d42 1868     		ldr	r0, [r3]	@ unaligned
 2317 0d44 5968     		ldr	r1, [r3, #4]	@ unaligned
 2318 0d46 9A68     		ldr	r2, [r3, #8]	@ unaligned
 2319 0d48 DB68     		ldr	r3, [r3, #12]	@ unaligned
 2320 0d4a 0FC4     		stmia	r4!, {r0, r1, r2, r3}
 820:build/openmote-cc2538_armgcc/openstack/03b-IPv6/icmpv6rpl.c **** 	   	0xbb, 0xbb, 0x00, 0x00, 0x00, 0x00, 0x00, 0x00, \
 821:build/openmote-cc2538_armgcc/openstack/03b-IPv6/icmpv6rpl.c **** 		0x00, 0x12, 0x4b, 0x00, 0x06, 0x13, 0x0f, 0x07
 822:build/openmote-cc2538_armgcc/openstack/03b-IPv6/icmpv6rpl.c **** 	   };
 823:build/openmote-cc2538_armgcc/openstack/03b-IPv6/icmpv6rpl.c **** 	   open_addr_t targetDestinationAddress;
 824:build/openmote-cc2538_armgcc/openstack/03b-IPv6/icmpv6rpl.c **** 	   targetDestinationAddress.type = ADDR_128B;
 2321              		.loc 1 824 0
 2322 0d4c 0323     		movs	r3, #3
 2323 0d4e 3B72     		strb	r3, [r7, #8]
 825:build/openmote-cc2538_armgcc/openstack/03b-IPv6/icmpv6rpl.c **** 
 826:build/openmote-cc2538_armgcc/openstack/03b-IPv6/icmpv6rpl.c **** 	   whisper_rpl_destAddress[15]=target;
 2324              		.loc 1 826 0
 2325 0d50 FB79     		ldrb	r3, [r7, #7]
 2326 0d52 87F82B30 		strb	r3, [r7, #43]
 827:build/openmote-cc2538_armgcc/openstack/03b-IPv6/icmpv6rpl.c **** 	   //memcpy(&(whisper_newParent128[15]),icmpv6rpl_vars.newParent,1);
 828:build/openmote-cc2538_armgcc/openstack/03b-IPv6/icmpv6rpl.c **** 	   memcpy(&targetDestinationAddress.addr_128b[0],whisper_rpl_destAddress,sizeof(whisper_rpl_destAd
 2327              		.loc 1 828 0
 2328 0d56 07F10904 		add	r4, r7, #9
 2329 0d5a 07F11C05 		add	r5, r7, #28
 2330 0d5e 0FCD     		ldmia	r5!, {r0, r1, r2, r3}
 2331 0d60 2060     		str	r0, [r4]	@ unaligned
 2332 0d62 6160     		str	r1, [r4, #4]	@ unaligned
 2333 0d64 A260     		str	r2, [r4, #8]	@ unaligned
 2334 0d66 E360     		str	r3, [r4, #12]	@ unaligned
 829:build/openmote-cc2538_armgcc/openstack/03b-IPv6/icmpv6rpl.c **** 
 830:build/openmote-cc2538_armgcc/openstack/03b-IPv6/icmpv6rpl.c **** 
 831:build/openmote-cc2538_armgcc/openstack/03b-IPv6/icmpv6rpl.c **** 	   // set DIO destination
 832:build/openmote-cc2538_armgcc/openstack/03b-IPv6/icmpv6rpl.c **** 	   memcpy(&(msg->l3_destinationAdd),&targetDestinationAddress,sizeof(open_addr_t));
 2335              		.loc 1 832 0
 2336 0d68 FB6A     		ldr	r3, [r7, #44]
 2337 0d6a 1933     		adds	r3, r3, #25
 2338 0d6c 1D46     		mov	r5, r3
 2339 0d6e 07F10804 		add	r4, r7, #8
 2340 0d72 0FCC     		ldmia	r4!, {r0, r1, r2, r3}
 2341 0d74 2860     		str	r0, [r5]	@ unaligned
 2342 0d76 6960     		str	r1, [r5, #4]	@ unaligned
 2343 0d78 AA60     		str	r2, [r5, #8]	@ unaligned
 2344 0d7a EB60     		str	r3, [r5, #12]	@ unaligned
 2345 0d7c 2378     		ldrb	r3, [r4]
 2346 0d7e 2B74     		strb	r3, [r5, #16]
 833:build/openmote-cc2538_armgcc/openstack/03b-IPv6/icmpv6rpl.c **** 
 834:build/openmote-cc2538_armgcc/openstack/03b-IPv6/icmpv6rpl.c **** 	   //===== DIO payload
 835:build/openmote-cc2538_armgcc/openstack/03b-IPv6/icmpv6rpl.c **** 	   // note: DIO is already mostly populated
 836:build/openmote-cc2538_armgcc/openstack/03b-IPv6/icmpv6rpl.c **** 	   icmpv6rpl_vars.dio.rank                  = rankTarget;
 2347              		.loc 1 836 0
 2348 0d80 2B4B     		ldr	r3, .L147
 2349 0d82 BA88     		ldrh	r2, [r7, #4]	@ movhi
 2350 0d84 A3F80520 		strh	r2, [r3, #5]	@ unaligned
 837:build/openmote-cc2538_armgcc/openstack/03b-IPv6/icmpv6rpl.c **** 	   //icmpv6rpl_vars.dio.rank                  = 11;
 838:build/openmote-cc2538_armgcc/openstack/03b-IPv6/icmpv6rpl.c **** 	   //icmpv6rpl_vars.dio.rank                  = icmpv6rpl_getMyDAGrank();
 839:build/openmote-cc2538_armgcc/openstack/03b-IPv6/icmpv6rpl.c **** 	   packetfunctions_reserveHeaderSize(msg,sizeof(icmpv6rpl_dio_ht));
 2351              		.loc 1 839 0
 2352 0d88 1821     		movs	r1, #24
 2353 0d8a F86A     		ldr	r0, [r7, #44]
 2354 0d8c FFF7FEFF 		bl	packetfunctions_reserveHeaderSize
 840:build/openmote-cc2538_armgcc/openstack/03b-IPv6/icmpv6rpl.c **** 	   memcpy(
 841:build/openmote-cc2538_armgcc/openstack/03b-IPv6/icmpv6rpl.c **** 	      ((icmpv6rpl_dio_ht*)(msg->payload)),
 2355              		.loc 1 841 0
 2356 0d90 FB6A     		ldr	r3, [r7, #44]
 2357 0d92 5A68     		ldr	r2, [r3, #4]
 840:build/openmote-cc2538_armgcc/openstack/03b-IPv6/icmpv6rpl.c **** 	   memcpy(
 2358              		.loc 1 840 0
 2359 0d94 264B     		ldr	r3, .L147
 2360 0d96 0333     		adds	r3, r3, #3
 2361 0d98 1868     		ldr	r0, [r3]	@ unaligned
 2362 0d9a 5968     		ldr	r1, [r3, #4]	@ unaligned
 2363 0d9c 9D68     		ldr	r5, [r3, #8]	@ unaligned
 2364 0d9e DC68     		ldr	r4, [r3, #12]	@ unaligned
 2365 0da0 1060     		str	r0, [r2]	@ unaligned
 2366 0da2 5160     		str	r1, [r2, #4]	@ unaligned
 2367 0da4 9560     		str	r5, [r2, #8]	@ unaligned
 2368 0da6 D460     		str	r4, [r2, #12]	@ unaligned
 2369 0da8 1869     		ldr	r0, [r3, #16]	@ unaligned
 2370 0daa 5969     		ldr	r1, [r3, #20]	@ unaligned
 2371 0dac 1061     		str	r0, [r2, #16]	@ unaligned
 2372 0dae 5161     		str	r1, [r2, #20]	@ unaligned
 842:build/openmote-cc2538_armgcc/openstack/03b-IPv6/icmpv6rpl.c **** 	      &(icmpv6rpl_vars.dio),
 843:build/openmote-cc2538_armgcc/openstack/03b-IPv6/icmpv6rpl.c **** 	      sizeof(icmpv6rpl_dio_ht)
 844:build/openmote-cc2538_armgcc/openstack/03b-IPv6/icmpv6rpl.c **** 	   );
 845:build/openmote-cc2538_armgcc/openstack/03b-IPv6/icmpv6rpl.c **** 
 846:build/openmote-cc2538_armgcc/openstack/03b-IPv6/icmpv6rpl.c **** 	   // reverse the rank bytes order in Big Endian
 847:build/openmote-cc2538_armgcc/openstack/03b-IPv6/icmpv6rpl.c **** 	   *(msg->payload+2) = (icmpv6rpl_vars.dio.rank >> 8) & 0xFF;
 2373              		.loc 1 847 0
 2374 0db0 FB6A     		ldr	r3, [r7, #44]
 2375 0db2 5B68     		ldr	r3, [r3, #4]
 2376 0db4 0233     		adds	r3, r3, #2
 2377 0db6 1E4A     		ldr	r2, .L147
 2378 0db8 B2F80520 		ldrh	r2, [r2, #5]	@ unaligned
 2379 0dbc 92B2     		uxth	r2, r2
 2380 0dbe 120A     		lsrs	r2, r2, #8
 2381 0dc0 92B2     		uxth	r2, r2
 2382 0dc2 D2B2     		uxtb	r2, r2
 2383 0dc4 1A70     		strb	r2, [r3]
 848:build/openmote-cc2538_armgcc/openstack/03b-IPv6/icmpv6rpl.c **** 	   *(msg->payload+3) = icmpv6rpl_vars.dio.rank        & 0xFF;
 2384              		.loc 1 848 0
 2385 0dc6 FB6A     		ldr	r3, [r7, #44]
 2386 0dc8 5B68     		ldr	r3, [r3, #4]
 2387 0dca 0333     		adds	r3, r3, #3
 2388 0dcc 184A     		ldr	r2, .L147
 2389 0dce B2F80520 		ldrh	r2, [r2, #5]	@ unaligned
 2390 0dd2 92B2     		uxth	r2, r2
 2391 0dd4 D2B2     		uxtb	r2, r2
 2392 0dd6 1A70     		strb	r2, [r3]
 849:build/openmote-cc2538_armgcc/openstack/03b-IPv6/icmpv6rpl.c **** 
 850:build/openmote-cc2538_armgcc/openstack/03b-IPv6/icmpv6rpl.c **** 	   //===== ICMPv6 header
 851:build/openmote-cc2538_armgcc/openstack/03b-IPv6/icmpv6rpl.c **** 	   packetfunctions_reserveHeaderSize(msg,sizeof(ICMPv6_ht));
 2393              		.loc 1 851 0
 2394 0dd8 0421     		movs	r1, #4
 2395 0dda F86A     		ldr	r0, [r7, #44]
 2396 0ddc FFF7FEFF 		bl	packetfunctions_reserveHeaderSize
 852:build/openmote-cc2538_armgcc/openstack/03b-IPv6/icmpv6rpl.c **** 	   ((ICMPv6_ht*)(msg->payload))->type       = msg->l4_sourcePortORicmpv6Type;
 2397              		.loc 1 852 0
 2398 0de0 FB6A     		ldr	r3, [r7, #44]
 2399 0de2 5B68     		ldr	r3, [r3, #4]
 2400 0de4 FA6A     		ldr	r2, [r7, #44]
 2401 0de6 128A     		ldrh	r2, [r2, #16]
 2402 0de8 D2B2     		uxtb	r2, r2
 2403 0dea 1A70     		strb	r2, [r3]
 853:build/openmote-cc2538_armgcc/openstack/03b-IPv6/icmpv6rpl.c **** 	   ((ICMPv6_ht*)(msg->payload))->code       = IANA_ICMPv6_RPL_DIO;
 2404              		.loc 1 853 0
 2405 0dec FB6A     		ldr	r3, [r7, #44]
 2406 0dee 5B68     		ldr	r3, [r3, #4]
 2407 0df0 0122     		movs	r2, #1
 2408 0df2 5A70     		strb	r2, [r3, #1]
 854:build/openmote-cc2538_armgcc/openstack/03b-IPv6/icmpv6rpl.c **** 	   packetfunctions_calculateChecksum(msg,(uint8_t*)&(((ICMPv6_ht*)(msg->payload))->checksum));//ca
 2409              		.loc 1 854 0
 2410 0df4 FB6A     		ldr	r3, [r7, #44]
 2411 0df6 5B68     		ldr	r3, [r3, #4]
 2412 0df8 0233     		adds	r3, r3, #2
 2413 0dfa 1946     		mov	r1, r3
 2414 0dfc F86A     		ldr	r0, [r7, #44]
 2415 0dfe FFF7FEFF 		bl	packetfunctions_calculateChecksum
 855:build/openmote-cc2538_armgcc/openstack/03b-IPv6/icmpv6rpl.c **** 
 856:build/openmote-cc2538_armgcc/openstack/03b-IPv6/icmpv6rpl.c **** 	    //send
 857:build/openmote-cc2538_armgcc/openstack/03b-IPv6/icmpv6rpl.c **** 	    if (icmpv6_send(msg)==E_SUCCESS) {
 2416              		.loc 1 857 0
 2417 0e02 F86A     		ldr	r0, [r7, #44]
 2418 0e04 FFF7FEFF 		bl	icmpv6_send
 2419 0e08 0346     		mov	r3, r0
 2420 0e0a 002B     		cmp	r3, #0
 2421 0e0c 03D1     		bne	.L142
 858:build/openmote-cc2538_armgcc/openstack/03b-IPv6/icmpv6rpl.c **** 	        icmpv6rpl_vars.busySendingDIO = TRUE;
 2422              		.loc 1 858 0
 2423 0e0e 084B     		ldr	r3, .L147
 2424 0e10 0122     		movs	r2, #1
 2425 0e12 1A70     		strb	r2, [r3]
 2426 0e14 02E0     		b	.L143
 2427              	.L142:
 859:build/openmote-cc2538_armgcc/openstack/03b-IPv6/icmpv6rpl.c **** 	        //printf("I am node %d, Enqueued SUCCESS \n",idmanager_getMyID(ADDR_64B)->addr_64b[7]);
 860:build/openmote-cc2538_armgcc/openstack/03b-IPv6/icmpv6rpl.c **** 	    } else {
 861:build/openmote-cc2538_armgcc/openstack/03b-IPv6/icmpv6rpl.c **** 	        openqueue_freePacketBuffer(msg);
 2428              		.loc 1 861 0
 2429 0e16 F86A     		ldr	r0, [r7, #44]
 2430 0e18 FFF7FEFF 		bl	openqueue_freePacketBuffer
 2431              	.L143:
 862:build/openmote-cc2538_armgcc/openstack/03b-IPv6/icmpv6rpl.c **** 	    }
 863:build/openmote-cc2538_armgcc/openstack/03b-IPv6/icmpv6rpl.c **** 	    //if wisper, we don't wait until the send done
 864:build/openmote-cc2538_armgcc/openstack/03b-IPv6/icmpv6rpl.c **** 	    icmpv6rpl_vars.busySendingDIO = FALSE;
 2432              		.loc 1 864 0
 2433 0e1c 044B     		ldr	r3, .L147
 2434 0e1e 0022     		movs	r2, #0
 2435 0e20 1A70     		strb	r2, [r3]
 2436 0e22 02E0     		b	.L136
 2437              	.L145:
 782:build/openmote-cc2538_armgcc/openstack/03b-IPv6/icmpv6rpl.c **** 	   }
 2438              		.loc 1 782 0
 2439 0e24 00BF     		nop
 2440 0e26 00E0     		b	.L136
 2441              	.L146:
 787:build/openmote-cc2538_armgcc/openstack/03b-IPv6/icmpv6rpl.c **** 	   }
 2442              		.loc 1 787 0
 2443 0e28 00BF     		nop
 2444              	.L136:
 865:build/openmote-cc2538_armgcc/openstack/03b-IPv6/icmpv6rpl.c **** }
 2445              		.loc 1 865 0
 2446 0e2a 3037     		adds	r7, r7, #48
 2447              		.cfi_def_cfa_offset 16
 2448 0e2c BD46     		mov	sp, r7
 2449              		.cfi_def_cfa_register 13
 2450              		@ sp needed
 2451 0e2e B0BD     		pop	{r4, r5, r7, pc}
 2452              	.L148:
 2453              		.align	2
 2454              	.L147:
 2455 0e30 00000000 		.word	icmpv6rpl_vars
 2456 0e34 74000000 		.word	.LC0
 2457              		.cfi_endproc
 2458              	.LFE16:
 2460              		.align	2
 2461              		.global	sendDIO
 2462              		.thumb
 2463              		.thumb_func
 2465              	sendDIO:
 2466              	.LFB17:
 866:build/openmote-cc2538_armgcc/openstack/03b-IPv6/icmpv6rpl.c **** 
 867:build/openmote-cc2538_armgcc/openstack/03b-IPv6/icmpv6rpl.c **** /**
 868:build/openmote-cc2538_armgcc/openstack/03b-IPv6/icmpv6rpl.c **** \brief Prepare and a send a RPL DIO.
 869:build/openmote-cc2538_armgcc/openstack/03b-IPv6/icmpv6rpl.c **** */
 870:build/openmote-cc2538_armgcc/openstack/03b-IPv6/icmpv6rpl.c **** void sendDIO() {
 2467              		.loc 1 870 0
 2468              		.cfi_startproc
 2469              		@ args = 0, pretend = 0, frame = 8
 2470              		@ frame_needed = 1, uses_anonymous_args = 0
 2471 0e38 B0B5     		push	{r4, r5, r7, lr}
 2472              		.cfi_def_cfa_offset 16
 2473              		.cfi_offset 4, -16
 2474              		.cfi_offset 5, -12
 2475              		.cfi_offset 7, -8
 2476              		.cfi_offset 14, -4
 2477 0e3a 82B0     		sub	sp, sp, #8
 2478              		.cfi_def_cfa_offset 24
 2479 0e3c 00AF     		add	r7, sp, #0
 2480              		.cfi_def_cfa_register 7
 871:build/openmote-cc2538_armgcc/openstack/03b-IPv6/icmpv6rpl.c ****    OpenQueueEntry_t*    msg;
 872:build/openmote-cc2538_armgcc/openstack/03b-IPv6/icmpv6rpl.c ****    
 873:build/openmote-cc2538_armgcc/openstack/03b-IPv6/icmpv6rpl.c **** 
 874:build/openmote-cc2538_armgcc/openstack/03b-IPv6/icmpv6rpl.c **** 
 875:build/openmote-cc2538_armgcc/openstack/03b-IPv6/icmpv6rpl.c ****    // stop if I'm not sync'ed
 876:build/openmote-cc2538_armgcc/openstack/03b-IPv6/icmpv6rpl.c ****    if (ieee154e_isSynch()==FALSE) {
 2481              		.loc 1 876 0
 2482 0e3e FFF7FEFF 		bl	ieee154e_isSynch
 2483 0e42 0346     		mov	r3, r0
 2484 0e44 83F00103 		eor	r3, r3, #1
 2485 0e48 DBB2     		uxtb	r3, r3
 2486 0e4a 002B     		cmp	r3, #0
 2487 0e4c 09D0     		beq	.L150
 877:build/openmote-cc2538_armgcc/openstack/03b-IPv6/icmpv6rpl.c ****       
 878:build/openmote-cc2538_armgcc/openstack/03b-IPv6/icmpv6rpl.c ****       // remove packets genereted by this module (DIO and DAO) from openqueue
 879:build/openmote-cc2538_armgcc/openstack/03b-IPv6/icmpv6rpl.c ****       openqueue_removeAllCreatedBy(COMPONENT_ICMPv6RPL);
 2488              		.loc 1 879 0
 2489 0e4e 1720     		movs	r0, #23
 2490 0e50 FFF7FEFF 		bl	openqueue_removeAllCreatedBy
 880:build/openmote-cc2538_armgcc/openstack/03b-IPv6/icmpv6rpl.c ****       
 881:build/openmote-cc2538_armgcc/openstack/03b-IPv6/icmpv6rpl.c ****       // I'm not busy sending a DIO/DAO
 882:build/openmote-cc2538_armgcc/openstack/03b-IPv6/icmpv6rpl.c ****       icmpv6rpl_vars.busySendingDIO  = FALSE;
 2491              		.loc 1 882 0
 2492 0e54 6A4B     		ldr	r3, .L160
 2493 0e56 0022     		movs	r2, #0
 2494 0e58 1A70     		strb	r2, [r3]
 883:build/openmote-cc2538_armgcc/openstack/03b-IPv6/icmpv6rpl.c ****       icmpv6rpl_vars.busySendingDAO  = FALSE;
 2495              		.loc 1 883 0
 2496 0e5a 694B     		ldr	r3, .L160
 2497 0e5c 0022     		movs	r2, #0
 2498 0e5e 5A70     		strb	r2, [r3, #1]
 884:build/openmote-cc2538_armgcc/openstack/03b-IPv6/icmpv6rpl.c ****       
 885:build/openmote-cc2538_armgcc/openstack/03b-IPv6/icmpv6rpl.c ****       // stop here
 886:build/openmote-cc2538_armgcc/openstack/03b-IPv6/icmpv6rpl.c ****       return;
 2499              		.loc 1 886 0
 2500 0e60 CAE0     		b	.L149
 2501              	.L150:
 887:build/openmote-cc2538_armgcc/openstack/03b-IPv6/icmpv6rpl.c ****    }
 888:build/openmote-cc2538_armgcc/openstack/03b-IPv6/icmpv6rpl.c **** 
 889:build/openmote-cc2538_armgcc/openstack/03b-IPv6/icmpv6rpl.c ****    if(idmanager_getMyID(ADDR_64B)->addr_64b[7] == 0x07){
 2502              		.loc 1 889 0
 2503 0e62 0220     		movs	r0, #2
 2504 0e64 FFF7FEFF 		bl	idmanager_getMyID
 2505 0e68 0346     		mov	r3, r0
 2506 0e6a 1B7A     		ldrb	r3, [r3, #8]	@ zero_extendqisi2
 2507 0e6c 072B     		cmp	r3, #7
 2508 0e6e 00F0BE80 		beq	.L157
 890:build/openmote-cc2538_armgcc/openstack/03b-IPv6/icmpv6rpl.c **** 	   return;
 891:build/openmote-cc2538_armgcc/openstack/03b-IPv6/icmpv6rpl.c ****    }
 892:build/openmote-cc2538_armgcc/openstack/03b-IPv6/icmpv6rpl.c **** 
 893:build/openmote-cc2538_armgcc/openstack/03b-IPv6/icmpv6rpl.c ****    // do not send DIO if I have the default DAG rank
 894:build/openmote-cc2538_armgcc/openstack/03b-IPv6/icmpv6rpl.c ****    if (icmpv6rpl_getMyDAGrank()==DEFAULTDAGRANK) {
 2509              		.loc 1 894 0
 2510 0e72 FFF7FEFF 		bl	icmpv6rpl_getMyDAGrank
 2511 0e76 0346     		mov	r3, r0
 2512 0e78 1A46     		mov	r2, r3
 2513 0e7a 4FF6FF73 		movw	r3, #65535
 2514 0e7e 9A42     		cmp	r2, r3
 2515 0e80 00F0B780 		beq	.L158
 895:build/openmote-cc2538_armgcc/openstack/03b-IPv6/icmpv6rpl.c ****       return;
 896:build/openmote-cc2538_armgcc/openstack/03b-IPv6/icmpv6rpl.c ****    }
 897:build/openmote-cc2538_armgcc/openstack/03b-IPv6/icmpv6rpl.c ****    
 898:build/openmote-cc2538_armgcc/openstack/03b-IPv6/icmpv6rpl.c ****    // do not send DIO if I'm already busy sending
 899:build/openmote-cc2538_armgcc/openstack/03b-IPv6/icmpv6rpl.c ****    if (icmpv6rpl_vars.busySendingDIO==TRUE) {
 2516              		.loc 1 899 0
 2517 0e84 5E4B     		ldr	r3, .L160
 2518 0e86 1B78     		ldrb	r3, [r3]	@ zero_extendqisi2
 2519 0e88 002B     		cmp	r3, #0
 2520 0e8a 40F0B480 		bne	.L159
 900:build/openmote-cc2538_armgcc/openstack/03b-IPv6/icmpv6rpl.c ****       return;
 901:build/openmote-cc2538_armgcc/openstack/03b-IPv6/icmpv6rpl.c ****    }
 902:build/openmote-cc2538_armgcc/openstack/03b-IPv6/icmpv6rpl.c ****    
 903:build/openmote-cc2538_armgcc/openstack/03b-IPv6/icmpv6rpl.c ****    // if you get here, all good to send a DIO
 904:build/openmote-cc2538_armgcc/openstack/03b-IPv6/icmpv6rpl.c ****    //printf("I am node %d,trying to send dio \n", idmanager_getMyID(ADDR_64B)->addr_64b[7]);
 905:build/openmote-cc2538_armgcc/openstack/03b-IPv6/icmpv6rpl.c **** 
 906:build/openmote-cc2538_armgcc/openstack/03b-IPv6/icmpv6rpl.c ****    // reserve a free packet buffer for DIO
 907:build/openmote-cc2538_armgcc/openstack/03b-IPv6/icmpv6rpl.c ****    msg = openqueue_getFreePacketBuffer(COMPONENT_ICMPv6RPL);
 2521              		.loc 1 907 0
 2522 0e8e 1720     		movs	r0, #23
 2523 0e90 FFF7FEFF 		bl	openqueue_getFreePacketBuffer
 2524 0e94 7860     		str	r0, [r7, #4]
 908:build/openmote-cc2538_armgcc/openstack/03b-IPv6/icmpv6rpl.c ****    if (msg==NULL) {
 2525              		.loc 1 908 0
 2526 0e96 7B68     		ldr	r3, [r7, #4]
 2527 0e98 002B     		cmp	r3, #0
 2528 0e9a 06D1     		bne	.L155
 909:build/openmote-cc2538_armgcc/openstack/03b-IPv6/icmpv6rpl.c ****       openserial_printError(COMPONENT_ICMPv6RPL,ERR_NO_FREE_PACKET_BUFFER,
 2529              		.loc 1 909 0
 2530 0e9c 0023     		movs	r3, #0
 2531 0e9e 0022     		movs	r2, #0
 2532 0ea0 2C21     		movs	r1, #44
 2533 0ea2 1720     		movs	r0, #23
 2534 0ea4 FFF7FEFF 		bl	openserial_printError
 910:build/openmote-cc2538_armgcc/openstack/03b-IPv6/icmpv6rpl.c ****                             (errorparameter_t)0,
 911:build/openmote-cc2538_armgcc/openstack/03b-IPv6/icmpv6rpl.c ****                             (errorparameter_t)0);
 912:build/openmote-cc2538_armgcc/openstack/03b-IPv6/icmpv6rpl.c ****       
 913:build/openmote-cc2538_armgcc/openstack/03b-IPv6/icmpv6rpl.c ****       return;
 2535              		.loc 1 913 0
 2536 0ea8 A6E0     		b	.L149
 2537              	.L155:
 914:build/openmote-cc2538_armgcc/openstack/03b-IPv6/icmpv6rpl.c ****    }
 915:build/openmote-cc2538_armgcc/openstack/03b-IPv6/icmpv6rpl.c ****    
 916:build/openmote-cc2538_armgcc/openstack/03b-IPv6/icmpv6rpl.c ****    // take ownership
 917:build/openmote-cc2538_armgcc/openstack/03b-IPv6/icmpv6rpl.c ****    msg->creator                             = COMPONENT_ICMPv6RPL;
 2538              		.loc 1 917 0
 2539 0eaa 7B68     		ldr	r3, [r7, #4]
 2540 0eac 1722     		movs	r2, #23
 2541 0eae 1A70     		strb	r2, [r3]
 918:build/openmote-cc2538_armgcc/openstack/03b-IPv6/icmpv6rpl.c ****    msg->owner                               = COMPONENT_ICMPv6RPL;
 2542              		.loc 1 918 0
 2543 0eb0 7B68     		ldr	r3, [r7, #4]
 2544 0eb2 1722     		movs	r2, #23
 2545 0eb4 5A70     		strb	r2, [r3, #1]
 919:build/openmote-cc2538_armgcc/openstack/03b-IPv6/icmpv6rpl.c ****    
 920:build/openmote-cc2538_armgcc/openstack/03b-IPv6/icmpv6rpl.c ****    // set transport information
 921:build/openmote-cc2538_armgcc/openstack/03b-IPv6/icmpv6rpl.c ****    msg->l4_protocol                         = IANA_ICMPv6;
 2546              		.loc 1 921 0
 2547 0eb6 7B68     		ldr	r3, [r7, #4]
 2548 0eb8 3A22     		movs	r2, #58
 2549 0eba 9A73     		strb	r2, [r3, #14]
 922:build/openmote-cc2538_armgcc/openstack/03b-IPv6/icmpv6rpl.c ****    msg->l4_protocol_compressed              = FALSE;
 2550              		.loc 1 922 0
 2551 0ebc 7B68     		ldr	r3, [r7, #4]
 2552 0ebe 0022     		movs	r2, #0
 2553 0ec0 DA73     		strb	r2, [r3, #15]
 923:build/openmote-cc2538_armgcc/openstack/03b-IPv6/icmpv6rpl.c ****    msg->l4_sourcePortORicmpv6Type           = IANA_ICMPv6_RPL;
 2554              		.loc 1 923 0
 2555 0ec2 7B68     		ldr	r3, [r7, #4]
 2556 0ec4 9B22     		movs	r2, #155
 2557 0ec6 1A82     		strh	r2, [r3, #16]	@ movhi
 924:build/openmote-cc2538_armgcc/openstack/03b-IPv6/icmpv6rpl.c ****    
 925:build/openmote-cc2538_armgcc/openstack/03b-IPv6/icmpv6rpl.c ****    // set DIO destination
 926:build/openmote-cc2538_armgcc/openstack/03b-IPv6/icmpv6rpl.c ****    memcpy(&(msg->l3_destinationAdd),&icmpv6rpl_vars.dioDestination,sizeof(open_addr_t));
 2558              		.loc 1 926 0
 2559 0ec8 7B68     		ldr	r3, [r7, #4]
 2560 0eca 03F11902 		add	r2, r3, #25
 2561 0ece 4C4B     		ldr	r3, .L160
 2562 0ed0 4B33     		adds	r3, r3, #75
 2563 0ed2 1D68     		ldr	r5, [r3]	@ unaligned
 2564 0ed4 5C68     		ldr	r4, [r3, #4]	@ unaligned
 2565 0ed6 9868     		ldr	r0, [r3, #8]	@ unaligned
 2566 0ed8 D968     		ldr	r1, [r3, #12]	@ unaligned
 2567 0eda 1560     		str	r5, [r2]	@ unaligned
 2568 0edc 5460     		str	r4, [r2, #4]	@ unaligned
 2569 0ede 9060     		str	r0, [r2, #8]	@ unaligned
 2570 0ee0 D160     		str	r1, [r2, #12]	@ unaligned
 2571 0ee2 1B7C     		ldrb	r3, [r3, #16]
 2572 0ee4 1374     		strb	r3, [r2, #16]
 927:build/openmote-cc2538_armgcc/openstack/03b-IPv6/icmpv6rpl.c ****    
 928:build/openmote-cc2538_armgcc/openstack/03b-IPv6/icmpv6rpl.c ****    //===== Configuration option
 929:build/openmote-cc2538_armgcc/openstack/03b-IPv6/icmpv6rpl.c ****    packetfunctions_reserveHeaderSize(msg,sizeof(icmpv6rpl_config_ht));
 2573              		.loc 1 929 0
 2574 0ee6 1021     		movs	r1, #16
 2575 0ee8 7868     		ldr	r0, [r7, #4]
 2576 0eea FFF7FEFF 		bl	packetfunctions_reserveHeaderSize
 930:build/openmote-cc2538_armgcc/openstack/03b-IPv6/icmpv6rpl.c ****     
 931:build/openmote-cc2538_armgcc/openstack/03b-IPv6/icmpv6rpl.c ****    //copy the PIO in the packet
 932:build/openmote-cc2538_armgcc/openstack/03b-IPv6/icmpv6rpl.c ****    memcpy(
 933:build/openmote-cc2538_armgcc/openstack/03b-IPv6/icmpv6rpl.c ****       ((icmpv6rpl_pio_t*)(msg->payload)),
 2577              		.loc 1 933 0
 2578 0eee 7B68     		ldr	r3, [r7, #4]
 2579 0ef0 5A68     		ldr	r2, [r3, #4]
 932:build/openmote-cc2538_armgcc/openstack/03b-IPv6/icmpv6rpl.c ****       ((icmpv6rpl_pio_t*)(msg->payload)),
 2580              		.loc 1 932 0
 2581 0ef2 434B     		ldr	r3, .L160
 2582 0ef4 3B33     		adds	r3, r3, #59
 2583 0ef6 1C68     		ldr	r4, [r3]	@ unaligned
 2584 0ef8 5868     		ldr	r0, [r3, #4]	@ unaligned
 2585 0efa 9968     		ldr	r1, [r3, #8]	@ unaligned
 2586 0efc DB68     		ldr	r3, [r3, #12]	@ unaligned
 2587 0efe 1460     		str	r4, [r2]	@ unaligned
 2588 0f00 5060     		str	r0, [r2, #4]	@ unaligned
 2589 0f02 9160     		str	r1, [r2, #8]	@ unaligned
 2590 0f04 D360     		str	r3, [r2, #12]	@ unaligned
 934:build/openmote-cc2538_armgcc/openstack/03b-IPv6/icmpv6rpl.c ****       &(icmpv6rpl_vars.conf),
 935:build/openmote-cc2538_armgcc/openstack/03b-IPv6/icmpv6rpl.c ****       sizeof(icmpv6rpl_config_ht)
 936:build/openmote-cc2538_armgcc/openstack/03b-IPv6/icmpv6rpl.c ****    );
 937:build/openmote-cc2538_armgcc/openstack/03b-IPv6/icmpv6rpl.c ****    
 938:build/openmote-cc2538_armgcc/openstack/03b-IPv6/icmpv6rpl.c ****    //===== PIO payload
 939:build/openmote-cc2538_armgcc/openstack/03b-IPv6/icmpv6rpl.c **** 
 940:build/openmote-cc2538_armgcc/openstack/03b-IPv6/icmpv6rpl.c ****    packetfunctions_reserveHeaderSize(msg,sizeof(icmpv6rpl_pio_t));
 2591              		.loc 1 940 0
 2592 0f06 2021     		movs	r1, #32
 2593 0f08 7868     		ldr	r0, [r7, #4]
 2594 0f0a FFF7FEFF 		bl	packetfunctions_reserveHeaderSize
 941:build/openmote-cc2538_armgcc/openstack/03b-IPv6/icmpv6rpl.c **** 
 942:build/openmote-cc2538_armgcc/openstack/03b-IPv6/icmpv6rpl.c ****    // copy my prefix into the PIO
 943:build/openmote-cc2538_armgcc/openstack/03b-IPv6/icmpv6rpl.c ****    
 944:build/openmote-cc2538_armgcc/openstack/03b-IPv6/icmpv6rpl.c ****    memcpy(
 945:build/openmote-cc2538_armgcc/openstack/03b-IPv6/icmpv6rpl.c ****       &(icmpv6rpl_vars.pio.prefix[0]),
 946:build/openmote-cc2538_armgcc/openstack/03b-IPv6/icmpv6rpl.c ****       idmanager_getMyID(ADDR_PREFIX)->prefix,
 2595              		.loc 1 946 0
 2596 0f0e 0520     		movs	r0, #5
 2597 0f10 FFF7FEFF 		bl	idmanager_getMyID
 2598 0f14 0346     		mov	r3, r0
 2599 0f16 0133     		adds	r3, r3, #1
 944:build/openmote-cc2538_armgcc/openstack/03b-IPv6/icmpv6rpl.c ****       &(icmpv6rpl_vars.pio.prefix[0]),
 2600              		.loc 1 944 0
 2601 0f18 0822     		movs	r2, #8
 2602 0f1a 1946     		mov	r1, r3
 2603 0f1c 3948     		ldr	r0, .L160+4
 2604 0f1e FFF7FEFF 		bl	memcpy
 947:build/openmote-cc2538_armgcc/openstack/03b-IPv6/icmpv6rpl.c ****       sizeof(idmanager_getMyID(ADDR_PREFIX)->prefix)
 948:build/openmote-cc2538_armgcc/openstack/03b-IPv6/icmpv6rpl.c ****    );
 949:build/openmote-cc2538_armgcc/openstack/03b-IPv6/icmpv6rpl.c ****    // host address is not needed. Only prefix.
 950:build/openmote-cc2538_armgcc/openstack/03b-IPv6/icmpv6rpl.c ****    /* memcpy(
 951:build/openmote-cc2538_armgcc/openstack/03b-IPv6/icmpv6rpl.c ****       &(icmpv6rpl_vars.pio.prefix[8]),
 952:build/openmote-cc2538_armgcc/openstack/03b-IPv6/icmpv6rpl.c ****       idmanager_getMyID(ADDR_64B)->addr_64b,
 953:build/openmote-cc2538_armgcc/openstack/03b-IPv6/icmpv6rpl.c ****       sizeof(idmanager_getMyID(ADDR_64B)->addr_64b)
 954:build/openmote-cc2538_armgcc/openstack/03b-IPv6/icmpv6rpl.c ****    );*/
 955:build/openmote-cc2538_armgcc/openstack/03b-IPv6/icmpv6rpl.c ****    
 956:build/openmote-cc2538_armgcc/openstack/03b-IPv6/icmpv6rpl.c ****    //copy the PIO in the packet
 957:build/openmote-cc2538_armgcc/openstack/03b-IPv6/icmpv6rpl.c ****    memcpy(
 958:build/openmote-cc2538_armgcc/openstack/03b-IPv6/icmpv6rpl.c ****       ((icmpv6rpl_pio_t*)(msg->payload)),
 2605              		.loc 1 958 0
 2606 0f22 7B68     		ldr	r3, [r7, #4]
 2607 0f24 5A68     		ldr	r2, [r3, #4]
 957:build/openmote-cc2538_armgcc/openstack/03b-IPv6/icmpv6rpl.c ****       ((icmpv6rpl_pio_t*)(msg->payload)),
 2608              		.loc 1 957 0
 2609 0f26 364B     		ldr	r3, .L160
 2610 0f28 1B33     		adds	r3, r3, #27
 2611 0f2a 1D68     		ldr	r5, [r3]	@ unaligned
 2612 0f2c 5C68     		ldr	r4, [r3, #4]	@ unaligned
 2613 0f2e 9868     		ldr	r0, [r3, #8]	@ unaligned
 2614 0f30 D968     		ldr	r1, [r3, #12]	@ unaligned
 2615 0f32 1560     		str	r5, [r2]	@ unaligned
 2616 0f34 5460     		str	r4, [r2, #4]	@ unaligned
 2617 0f36 9060     		str	r0, [r2, #8]	@ unaligned
 2618 0f38 D160     		str	r1, [r2, #12]	@ unaligned
 2619 0f3a 1D69     		ldr	r5, [r3, #16]	@ unaligned
 2620 0f3c 5C69     		ldr	r4, [r3, #20]	@ unaligned
 2621 0f3e 9869     		ldr	r0, [r3, #24]	@ unaligned
 2622 0f40 D969     		ldr	r1, [r3, #28]	@ unaligned
 2623 0f42 1561     		str	r5, [r2, #16]	@ unaligned
 2624 0f44 5461     		str	r4, [r2, #20]	@ unaligned
 2625 0f46 9061     		str	r0, [r2, #24]	@ unaligned
 2626 0f48 D161     		str	r1, [r2, #28]	@ unaligned
 959:build/openmote-cc2538_armgcc/openstack/03b-IPv6/icmpv6rpl.c ****       &(icmpv6rpl_vars.pio),
 960:build/openmote-cc2538_armgcc/openstack/03b-IPv6/icmpv6rpl.c ****       sizeof(icmpv6rpl_pio_t)
 961:build/openmote-cc2538_armgcc/openstack/03b-IPv6/icmpv6rpl.c ****    );
 962:build/openmote-cc2538_armgcc/openstack/03b-IPv6/icmpv6rpl.c **** 
 963:build/openmote-cc2538_armgcc/openstack/03b-IPv6/icmpv6rpl.c **** 
 964:build/openmote-cc2538_armgcc/openstack/03b-IPv6/icmpv6rpl.c ****    //===== DIO payload
 965:build/openmote-cc2538_armgcc/openstack/03b-IPv6/icmpv6rpl.c ****    // note: DIO is already mostly populated
 966:build/openmote-cc2538_armgcc/openstack/03b-IPv6/icmpv6rpl.c ****    icmpv6rpl_vars.dio.rank                  = icmpv6rpl_getMyDAGrank();
 2627              		.loc 1 966 0
 2628 0f4a FFF7FEFF 		bl	icmpv6rpl_getMyDAGrank
 2629 0f4e 0346     		mov	r3, r0
 2630 0f50 1A46     		mov	r2, r3
 2631 0f52 2B4B     		ldr	r3, .L160
 2632 0f54 A3F80520 		strh	r2, [r3, #5]	@ unaligned
 967:build/openmote-cc2538_armgcc/openstack/03b-IPv6/icmpv6rpl.c ****    packetfunctions_reserveHeaderSize(msg,sizeof(icmpv6rpl_dio_ht));
 2633              		.loc 1 967 0
 2634 0f58 1821     		movs	r1, #24
 2635 0f5a 7868     		ldr	r0, [r7, #4]
 2636 0f5c FFF7FEFF 		bl	packetfunctions_reserveHeaderSize
 968:build/openmote-cc2538_armgcc/openstack/03b-IPv6/icmpv6rpl.c ****    memcpy(
 969:build/openmote-cc2538_armgcc/openstack/03b-IPv6/icmpv6rpl.c ****       ((icmpv6rpl_dio_ht*)(msg->payload)),
 2637              		.loc 1 969 0
 2638 0f60 7B68     		ldr	r3, [r7, #4]
 2639 0f62 5A68     		ldr	r2, [r3, #4]
 968:build/openmote-cc2538_armgcc/openstack/03b-IPv6/icmpv6rpl.c ****    memcpy(
 2640              		.loc 1 968 0
 2641 0f64 264B     		ldr	r3, .L160
 2642 0f66 0333     		adds	r3, r3, #3
 2643 0f68 1868     		ldr	r0, [r3]	@ unaligned
 2644 0f6a 5968     		ldr	r1, [r3, #4]	@ unaligned
 2645 0f6c 9D68     		ldr	r5, [r3, #8]	@ unaligned
 2646 0f6e DC68     		ldr	r4, [r3, #12]	@ unaligned
 2647 0f70 1060     		str	r0, [r2]	@ unaligned
 2648 0f72 5160     		str	r1, [r2, #4]	@ unaligned
 2649 0f74 9560     		str	r5, [r2, #8]	@ unaligned
 2650 0f76 D460     		str	r4, [r2, #12]	@ unaligned
 2651 0f78 1869     		ldr	r0, [r3, #16]	@ unaligned
 2652 0f7a 5969     		ldr	r1, [r3, #20]	@ unaligned
 2653 0f7c 1061     		str	r0, [r2, #16]	@ unaligned
 2654 0f7e 5161     		str	r1, [r2, #20]	@ unaligned
 970:build/openmote-cc2538_armgcc/openstack/03b-IPv6/icmpv6rpl.c ****       &(icmpv6rpl_vars.dio),
 971:build/openmote-cc2538_armgcc/openstack/03b-IPv6/icmpv6rpl.c ****       sizeof(icmpv6rpl_dio_ht)
 972:build/openmote-cc2538_armgcc/openstack/03b-IPv6/icmpv6rpl.c ****    );
 973:build/openmote-cc2538_armgcc/openstack/03b-IPv6/icmpv6rpl.c ****    
 974:build/openmote-cc2538_armgcc/openstack/03b-IPv6/icmpv6rpl.c ****    // reverse the rank bytes order in Big Endian
 975:build/openmote-cc2538_armgcc/openstack/03b-IPv6/icmpv6rpl.c ****    *(msg->payload+2) = (icmpv6rpl_vars.dio.rank >> 8) & 0xFF;
 2655              		.loc 1 975 0
 2656 0f80 7B68     		ldr	r3, [r7, #4]
 2657 0f82 5B68     		ldr	r3, [r3, #4]
 2658 0f84 0233     		adds	r3, r3, #2
 2659 0f86 1E4A     		ldr	r2, .L160
 2660 0f88 B2F80520 		ldrh	r2, [r2, #5]	@ unaligned
 2661 0f8c 92B2     		uxth	r2, r2
 2662 0f8e 120A     		lsrs	r2, r2, #8
 2663 0f90 92B2     		uxth	r2, r2
 2664 0f92 D2B2     		uxtb	r2, r2
 2665 0f94 1A70     		strb	r2, [r3]
 976:build/openmote-cc2538_armgcc/openstack/03b-IPv6/icmpv6rpl.c ****    *(msg->payload+3) = icmpv6rpl_vars.dio.rank        & 0xFF;
 2666              		.loc 1 976 0
 2667 0f96 7B68     		ldr	r3, [r7, #4]
 2668 0f98 5B68     		ldr	r3, [r3, #4]
 2669 0f9a 0333     		adds	r3, r3, #3
 2670 0f9c 184A     		ldr	r2, .L160
 2671 0f9e B2F80520 		ldrh	r2, [r2, #5]	@ unaligned
 2672 0fa2 92B2     		uxth	r2, r2
 2673 0fa4 D2B2     		uxtb	r2, r2
 2674 0fa6 1A70     		strb	r2, [r3]
 977:build/openmote-cc2538_armgcc/openstack/03b-IPv6/icmpv6rpl.c ****    
 978:build/openmote-cc2538_armgcc/openstack/03b-IPv6/icmpv6rpl.c ****    //===== ICMPv6 header
 979:build/openmote-cc2538_armgcc/openstack/03b-IPv6/icmpv6rpl.c ****    packetfunctions_reserveHeaderSize(msg,sizeof(ICMPv6_ht));
 2675              		.loc 1 979 0
 2676 0fa8 0421     		movs	r1, #4
 2677 0faa 7868     		ldr	r0, [r7, #4]
 2678 0fac FFF7FEFF 		bl	packetfunctions_reserveHeaderSize
 980:build/openmote-cc2538_armgcc/openstack/03b-IPv6/icmpv6rpl.c ****    ((ICMPv6_ht*)(msg->payload))->type       = msg->l4_sourcePortORicmpv6Type;
 2679              		.loc 1 980 0
 2680 0fb0 7B68     		ldr	r3, [r7, #4]
 2681 0fb2 5B68     		ldr	r3, [r3, #4]
 2682 0fb4 7A68     		ldr	r2, [r7, #4]
 2683 0fb6 128A     		ldrh	r2, [r2, #16]
 2684 0fb8 D2B2     		uxtb	r2, r2
 2685 0fba 1A70     		strb	r2, [r3]
 981:build/openmote-cc2538_armgcc/openstack/03b-IPv6/icmpv6rpl.c ****    ((ICMPv6_ht*)(msg->payload))->code       = IANA_ICMPv6_RPL_DIO;
 2686              		.loc 1 981 0
 2687 0fbc 7B68     		ldr	r3, [r7, #4]
 2688 0fbe 5B68     		ldr	r3, [r3, #4]
 2689 0fc0 0122     		movs	r2, #1
 2690 0fc2 5A70     		strb	r2, [r3, #1]
 982:build/openmote-cc2538_armgcc/openstack/03b-IPv6/icmpv6rpl.c ****    packetfunctions_calculateChecksum(msg,(uint8_t*)&(((ICMPv6_ht*)(msg->payload))->checksum));//cal
 2691              		.loc 1 982 0
 2692 0fc4 7B68     		ldr	r3, [r7, #4]
 2693 0fc6 5B68     		ldr	r3, [r3, #4]
 2694 0fc8 0233     		adds	r3, r3, #2
 2695 0fca 1946     		mov	r1, r3
 2696 0fcc 7868     		ldr	r0, [r7, #4]
 2697 0fce FFF7FEFF 		bl	packetfunctions_calculateChecksum
 983:build/openmote-cc2538_armgcc/openstack/03b-IPv6/icmpv6rpl.c ****    
 984:build/openmote-cc2538_armgcc/openstack/03b-IPv6/icmpv6rpl.c ****    //printf("I am node %d, Enqueuing DIO with rank %d \n", idmanager_getMyID(ADDR_64B)->addr_64b[7]
 985:build/openmote-cc2538_armgcc/openstack/03b-IPv6/icmpv6rpl.c **** 
 986:build/openmote-cc2538_armgcc/openstack/03b-IPv6/icmpv6rpl.c ****     //send
 987:build/openmote-cc2538_armgcc/openstack/03b-IPv6/icmpv6rpl.c ****     if (icmpv6_send(msg)==E_SUCCESS) {
 2698              		.loc 1 987 0
 2699 0fd2 7868     		ldr	r0, [r7, #4]
 2700 0fd4 FFF7FEFF 		bl	icmpv6_send
 2701 0fd8 0346     		mov	r3, r0
 2702 0fda 002B     		cmp	r3, #0
 2703 0fdc 03D1     		bne	.L156
 988:build/openmote-cc2538_armgcc/openstack/03b-IPv6/icmpv6rpl.c ****         icmpv6rpl_vars.busySendingDIO = TRUE; 
 2704              		.loc 1 988 0
 2705 0fde 084B     		ldr	r3, .L160
 2706 0fe0 0122     		movs	r2, #1
 2707 0fe2 1A70     		strb	r2, [r3]
 2708 0fe4 08E0     		b	.L149
 2709              	.L156:
 989:build/openmote-cc2538_armgcc/openstack/03b-IPv6/icmpv6rpl.c ****     } else {
 990:build/openmote-cc2538_armgcc/openstack/03b-IPv6/icmpv6rpl.c ****         openqueue_freePacketBuffer(msg);
 2710              		.loc 1 990 0
 2711 0fe6 7868     		ldr	r0, [r7, #4]
 2712 0fe8 FFF7FEFF 		bl	openqueue_freePacketBuffer
 2713 0fec 04E0     		b	.L149
 2714              	.L157:
 890:build/openmote-cc2538_armgcc/openstack/03b-IPv6/icmpv6rpl.c ****    }
 2715              		.loc 1 890 0
 2716 0fee 00BF     		nop
 2717 0ff0 02E0     		b	.L149
 2718              	.L158:
 895:build/openmote-cc2538_armgcc/openstack/03b-IPv6/icmpv6rpl.c ****    }
 2719              		.loc 1 895 0
 2720 0ff2 00BF     		nop
 2721 0ff4 00E0     		b	.L149
 2722              	.L159:
 900:build/openmote-cc2538_armgcc/openstack/03b-IPv6/icmpv6rpl.c ****    }
 2723              		.loc 1 900 0
 2724 0ff6 00BF     		nop
 2725              	.L149:
 991:build/openmote-cc2538_armgcc/openstack/03b-IPv6/icmpv6rpl.c ****     }
 992:build/openmote-cc2538_armgcc/openstack/03b-IPv6/icmpv6rpl.c **** }
 2726              		.loc 1 992 0
 2727 0ff8 0837     		adds	r7, r7, #8
 2728              		.cfi_def_cfa_offset 16
 2729 0ffa BD46     		mov	sp, r7
 2730              		.cfi_def_cfa_register 13
 2731              		@ sp needed
 2732 0ffc B0BD     		pop	{r4, r5, r7, pc}
 2733              	.L161:
 2734 0ffe 00BF     		.align	2
 2735              	.L160:
 2736 1000 00000000 		.word	icmpv6rpl_vars
 2737 1004 2B000000 		.word	icmpv6rpl_vars+43
 2738              		.cfi_endproc
 2739              	.LFE17:
 2741              		.align	2
 2742              		.global	icmpv6rpl_timer_DAO_cb
 2743              		.thumb
 2744              		.thumb_func
 2746              	icmpv6rpl_timer_DAO_cb:
 2747              	.LFB18:
 993:build/openmote-cc2538_armgcc/openstack/03b-IPv6/icmpv6rpl.c **** 
 994:build/openmote-cc2538_armgcc/openstack/03b-IPv6/icmpv6rpl.c **** //===== DAO-related
 995:build/openmote-cc2538_armgcc/openstack/03b-IPv6/icmpv6rpl.c **** 
 996:build/openmote-cc2538_armgcc/openstack/03b-IPv6/icmpv6rpl.c **** /**
 997:build/openmote-cc2538_armgcc/openstack/03b-IPv6/icmpv6rpl.c **** \brief DAO timer callback function.
 998:build/openmote-cc2538_armgcc/openstack/03b-IPv6/icmpv6rpl.c **** 
 999:build/openmote-cc2538_armgcc/openstack/03b-IPv6/icmpv6rpl.c **** \note This function is executed in interrupt context, and should only push a
1000:build/openmote-cc2538_armgcc/openstack/03b-IPv6/icmpv6rpl.c ****    task.
1001:build/openmote-cc2538_armgcc/openstack/03b-IPv6/icmpv6rpl.c **** */
1002:build/openmote-cc2538_armgcc/openstack/03b-IPv6/icmpv6rpl.c **** void icmpv6rpl_timer_DAO_cb(opentimers_id_t id) {
 2748              		.loc 1 1002 0
 2749              		.cfi_startproc
 2750              		@ args = 0, pretend = 0, frame = 8
 2751              		@ frame_needed = 1, uses_anonymous_args = 0
 2752 1008 90B5     		push	{r4, r7, lr}
 2753              		.cfi_def_cfa_offset 12
 2754              		.cfi_offset 4, -12
 2755              		.cfi_offset 7, -8
 2756              		.cfi_offset 14, -4
 2757 100a 85B0     		sub	sp, sp, #20
 2758              		.cfi_def_cfa_offset 32
 2759 100c 02AF     		add	r7, sp, #8
 2760              		.cfi_def_cfa 7, 24
 2761 100e 0346     		mov	r3, r0
 2762 1010 FB71     		strb	r3, [r7, #7]
1003:build/openmote-cc2538_armgcc/openstack/03b-IPv6/icmpv6rpl.c ****     scheduler_push_task(icmpv6rpl_timer_DAO_task,TASKPRIO_RPL);
 2763              		.loc 1 1003 0
 2764 1012 0421     		movs	r1, #4
 2765 1014 0B48     		ldr	r0, .L163
 2766 1016 FFF7FEFF 		bl	scheduler_push_task
1004:build/openmote-cc2538_armgcc/openstack/03b-IPv6/icmpv6rpl.c ****     // update the period
1005:build/openmote-cc2538_armgcc/openstack/03b-IPv6/icmpv6rpl.c ****     opentimers_scheduleIn(
 2767              		.loc 1 1005 0
 2768 101a 0B4B     		ldr	r3, .L163+4
 2769 101c 93F88040 		ldrb	r4, [r3, #128]	@ zero_extendqisi2
1006:build/openmote-cc2538_armgcc/openstack/03b-IPv6/icmpv6rpl.c ****         icmpv6rpl_vars.timerIdDAO,
1007:build/openmote-cc2538_armgcc/openstack/03b-IPv6/icmpv6rpl.c ****         872 +(openrandom_get16b()&0xff),
 2770              		.loc 1 1007 0
 2771 1020 FFF7FEFF 		bl	openrandom_get16b
 2772 1024 0346     		mov	r3, r0
 2773 1026 DBB2     		uxtb	r3, r3
 2774 1028 03F55A73 		add	r3, r3, #872
1005:build/openmote-cc2538_armgcc/openstack/03b-IPv6/icmpv6rpl.c ****         icmpv6rpl_vars.timerIdDAO,
 2775              		.loc 1 1005 0
 2776 102c 1946     		mov	r1, r3
 2777 102e 074B     		ldr	r3, .L163+8
 2778 1030 0093     		str	r3, [sp]
 2779 1032 0123     		movs	r3, #1
 2780 1034 0022     		movs	r2, #0
 2781 1036 2046     		mov	r0, r4
 2782 1038 FFF7FEFF 		bl	opentimers_scheduleIn
1008:build/openmote-cc2538_armgcc/openstack/03b-IPv6/icmpv6rpl.c ****         TIME_MS,
1009:build/openmote-cc2538_armgcc/openstack/03b-IPv6/icmpv6rpl.c ****         TIMER_ONESHOT,
1010:build/openmote-cc2538_armgcc/openstack/03b-IPv6/icmpv6rpl.c ****         icmpv6rpl_timer_DAO_cb
1011:build/openmote-cc2538_armgcc/openstack/03b-IPv6/icmpv6rpl.c ****     );
1012:build/openmote-cc2538_armgcc/openstack/03b-IPv6/icmpv6rpl.c **** }
 2783              		.loc 1 1012 0
 2784 103c 00BF     		nop
 2785 103e 0C37     		adds	r7, r7, #12
 2786              		.cfi_def_cfa_offset 12
 2787 1040 BD46     		mov	sp, r7
 2788              		.cfi_def_cfa_register 13
 2789              		@ sp needed
 2790 1042 90BD     		pop	{r4, r7, pc}
 2791              	.L164:
 2792              		.align	2
 2793              	.L163:
 2794 1044 00000000 		.word	icmpv6rpl_timer_DAO_task
 2795 1048 00000000 		.word	icmpv6rpl_vars
 2796 104c 00000000 		.word	icmpv6rpl_timer_DAO_cb
 2797              		.cfi_endproc
 2798              	.LFE18:
 2800              		.align	2
 2801              		.global	icmpv6rpl_timer_DAO_task
 2802              		.thumb
 2803              		.thumb_func
 2805              	icmpv6rpl_timer_DAO_task:
 2806              	.LFB19:
1013:build/openmote-cc2538_armgcc/openstack/03b-IPv6/icmpv6rpl.c **** 
1014:build/openmote-cc2538_armgcc/openstack/03b-IPv6/icmpv6rpl.c **** /**
1015:build/openmote-cc2538_armgcc/openstack/03b-IPv6/icmpv6rpl.c **** \brief Handler for DAO timer event.
1016:build/openmote-cc2538_armgcc/openstack/03b-IPv6/icmpv6rpl.c **** 
1017:build/openmote-cc2538_armgcc/openstack/03b-IPv6/icmpv6rpl.c **** \note This function is executed in task context, called by the scheduler.
1018:build/openmote-cc2538_armgcc/openstack/03b-IPv6/icmpv6rpl.c **** */
1019:build/openmote-cc2538_armgcc/openstack/03b-IPv6/icmpv6rpl.c **** void icmpv6rpl_timer_DAO_task() {
 2807              		.loc 1 1019 0
 2808              		.cfi_startproc
 2809              		@ args = 0, pretend = 0, frame = 0
 2810              		@ frame_needed = 1, uses_anonymous_args = 0
 2811 1050 80B5     		push	{r7, lr}
 2812              		.cfi_def_cfa_offset 8
 2813              		.cfi_offset 7, -8
 2814              		.cfi_offset 14, -4
 2815 1052 00AF     		add	r7, sp, #0
 2816              		.cfi_def_cfa_register 7
1020:build/openmote-cc2538_armgcc/openstack/03b-IPv6/icmpv6rpl.c ****     icmpv6rpl_vars.daoTimerCounter = (icmpv6rpl_vars.daoTimerCounter+1)%icmpv6rpl_vars.daoPeriod;
 2817              		.loc 1 1020 0
 2818 1054 0D4B     		ldr	r3, .L169
 2819 1056 B3F88230 		ldrh	r3, [r3, #130]
 2820 105a 0133     		adds	r3, r3, #1
 2821 105c 0B4A     		ldr	r2, .L169
 2822 105e B2F88420 		ldrh	r2, [r2, #132]
 2823 1062 93FBF2F1 		sdiv	r1, r3, r2
 2824 1066 02FB01F2 		mul	r2, r2, r1
 2825 106a 9B1A     		subs	r3, r3, r2
 2826 106c 9AB2     		uxth	r2, r3
 2827 106e 074B     		ldr	r3, .L169
 2828 1070 A3F88220 		strh	r2, [r3, #130]	@ movhi
1021:build/openmote-cc2538_armgcc/openstack/03b-IPv6/icmpv6rpl.c ****     switch (icmpv6rpl_vars.daoTimerCounter) {
 2829              		.loc 1 1021 0
 2830 1074 054B     		ldr	r3, .L169
 2831 1076 B3F88230 		ldrh	r3, [r3, #130]
 2832 107a 002B     		cmp	r3, #0
 2833 107c 00D0     		beq	.L167
1022:build/openmote-cc2538_armgcc/openstack/03b-IPv6/icmpv6rpl.c ****     case 0:
1023:build/openmote-cc2538_armgcc/openstack/03b-IPv6/icmpv6rpl.c ****         // called every TIMER_DAO_TIMEOUT seconds
1024:build/openmote-cc2538_armgcc/openstack/03b-IPv6/icmpv6rpl.c ****         sendDAO();
1025:build/openmote-cc2538_armgcc/openstack/03b-IPv6/icmpv6rpl.c ****         break;
1026:build/openmote-cc2538_armgcc/openstack/03b-IPv6/icmpv6rpl.c ****     default:
1027:build/openmote-cc2538_armgcc/openstack/03b-IPv6/icmpv6rpl.c ****         break;
 2834              		.loc 1 1027 0
 2835 107e 02E0     		b	.L168
 2836              	.L167:
1024:build/openmote-cc2538_armgcc/openstack/03b-IPv6/icmpv6rpl.c ****         break;
 2837              		.loc 1 1024 0
 2838 1080 FFF7FEFF 		bl	sendDAO
1025:build/openmote-cc2538_armgcc/openstack/03b-IPv6/icmpv6rpl.c ****     default:
 2839              		.loc 1 1025 0
 2840 1084 00BF     		nop
 2841              	.L168:
1028:build/openmote-cc2538_armgcc/openstack/03b-IPv6/icmpv6rpl.c ****     }
1029:build/openmote-cc2538_armgcc/openstack/03b-IPv6/icmpv6rpl.c **** }
 2842              		.loc 1 1029 0
 2843 1086 00BF     		nop
 2844 1088 80BD     		pop	{r7, pc}
 2845              	.L170:
 2846 108a 00BF     		.align	2
 2847              	.L169:
 2848 108c 00000000 		.word	icmpv6rpl_vars
 2849              		.cfi_endproc
 2850              	.LFE19:
 2852              		.align	2
 2853              		.global	sendDAO
 2854              		.thumb
 2855              		.thumb_func
 2857              	sendDAO:
 2858              	.LFB20:
1030:build/openmote-cc2538_armgcc/openstack/03b-IPv6/icmpv6rpl.c **** 
1031:build/openmote-cc2538_armgcc/openstack/03b-IPv6/icmpv6rpl.c **** /**
1032:build/openmote-cc2538_armgcc/openstack/03b-IPv6/icmpv6rpl.c **** \brief Prepare and a send a RPL DAO.
1033:build/openmote-cc2538_armgcc/openstack/03b-IPv6/icmpv6rpl.c **** */
1034:build/openmote-cc2538_armgcc/openstack/03b-IPv6/icmpv6rpl.c **** void sendDAO() {
 2859              		.loc 1 1034 0
 2860              		.cfi_startproc
 2861              		@ args = 0, pretend = 0, frame = 40
 2862              		@ frame_needed = 1, uses_anonymous_args = 0
 2863 1090 B0B5     		push	{r4, r5, r7, lr}
 2864              		.cfi_def_cfa_offset 16
 2865              		.cfi_offset 4, -16
 2866              		.cfi_offset 5, -12
 2867              		.cfi_offset 7, -8
 2868              		.cfi_offset 14, -4
 2869 1092 8AB0     		sub	sp, sp, #40
 2870              		.cfi_def_cfa_offset 56
 2871 1094 00AF     		add	r7, sp, #0
 2872              		.cfi_def_cfa_register 7
1035:build/openmote-cc2538_armgcc/openstack/03b-IPv6/icmpv6rpl.c ****    OpenQueueEntry_t*    msg;                // pointer to DAO messages
1036:build/openmote-cc2538_armgcc/openstack/03b-IPv6/icmpv6rpl.c ****    uint8_t              nbrIdx;             // running neighbor index
1037:build/openmote-cc2538_armgcc/openstack/03b-IPv6/icmpv6rpl.c ****    uint8_t              numTransitParents,numTargetParents;  // the number of parents indicated in 
1038:build/openmote-cc2538_armgcc/openstack/03b-IPv6/icmpv6rpl.c ****    open_addr_t         address;
1039:build/openmote-cc2538_armgcc/openstack/03b-IPv6/icmpv6rpl.c ****    open_addr_t*        prefix;
1040:build/openmote-cc2538_armgcc/openstack/03b-IPv6/icmpv6rpl.c ****    
1041:build/openmote-cc2538_armgcc/openstack/03b-IPv6/icmpv6rpl.c ****    if (ieee154e_isSynch()==FALSE) {
 2873              		.loc 1 1041 0
 2874 1096 FFF7FEFF 		bl	ieee154e_isSynch
 2875 109a 0346     		mov	r3, r0
 2876 109c 83F00103 		eor	r3, r3, #1
 2877 10a0 DBB2     		uxtb	r3, r3
 2878 10a2 002B     		cmp	r3, #0
 2879 10a4 09D0     		beq	.L172
1042:build/openmote-cc2538_armgcc/openstack/03b-IPv6/icmpv6rpl.c ****       // I'm not sync'ed 
1043:build/openmote-cc2538_armgcc/openstack/03b-IPv6/icmpv6rpl.c ****       
1044:build/openmote-cc2538_armgcc/openstack/03b-IPv6/icmpv6rpl.c ****       // delete packets genereted by this module (DIO and DAO) from openqueue
1045:build/openmote-cc2538_armgcc/openstack/03b-IPv6/icmpv6rpl.c ****       openqueue_removeAllCreatedBy(COMPONENT_ICMPv6RPL);
 2880              		.loc 1 1045 0
 2881 10a6 1720     		movs	r0, #23
 2882 10a8 FFF7FEFF 		bl	openqueue_removeAllCreatedBy
1046:build/openmote-cc2538_armgcc/openstack/03b-IPv6/icmpv6rpl.c ****       
1047:build/openmote-cc2538_armgcc/openstack/03b-IPv6/icmpv6rpl.c ****       // I'm not busy sending a DIO/DAO
1048:build/openmote-cc2538_armgcc/openstack/03b-IPv6/icmpv6rpl.c ****       icmpv6rpl_vars.busySendingDAO = FALSE;
 2883              		.loc 1 1048 0
 2884 10ac 914B     		ldr	r3, .L191
 2885 10ae 0022     		movs	r2, #0
 2886 10b0 5A70     		strb	r2, [r3, #1]
1049:build/openmote-cc2538_armgcc/openstack/03b-IPv6/icmpv6rpl.c ****       icmpv6rpl_vars.busySendingDIO = FALSE;
 2887              		.loc 1 1049 0
 2888 10b2 904B     		ldr	r3, .L191
 2889 10b4 0022     		movs	r2, #0
 2890 10b6 1A70     		strb	r2, [r3]
1050:build/openmote-cc2538_armgcc/openstack/03b-IPv6/icmpv6rpl.c ****       
1051:build/openmote-cc2538_armgcc/openstack/03b-IPv6/icmpv6rpl.c ****       // stop here
1052:build/openmote-cc2538_armgcc/openstack/03b-IPv6/icmpv6rpl.c ****       return;
 2891              		.loc 1 1052 0
 2892 10b8 19E1     		b	.L171
 2893              	.L172:
1053:build/openmote-cc2538_armgcc/openstack/03b-IPv6/icmpv6rpl.c ****    }
1054:build/openmote-cc2538_armgcc/openstack/03b-IPv6/icmpv6rpl.c ****    
1055:build/openmote-cc2538_armgcc/openstack/03b-IPv6/icmpv6rpl.c ****    // dont' send a DAO if you're the DAG root
1056:build/openmote-cc2538_armgcc/openstack/03b-IPv6/icmpv6rpl.c ****    if (idmanager_getIsDAGroot()==TRUE) {
 2894              		.loc 1 1056 0
 2895 10ba FFF7FEFF 		bl	idmanager_getIsDAGroot
 2896 10be 0346     		mov	r3, r0
 2897 10c0 002B     		cmp	r3, #0
 2898 10c2 40F00F81 		bne	.L187
1057:build/openmote-cc2538_armgcc/openstack/03b-IPv6/icmpv6rpl.c ****       return;
1058:build/openmote-cc2538_armgcc/openstack/03b-IPv6/icmpv6rpl.c ****    }
1059:build/openmote-cc2538_armgcc/openstack/03b-IPv6/icmpv6rpl.c ****    
1060:build/openmote-cc2538_armgcc/openstack/03b-IPv6/icmpv6rpl.c ****    // dont' send a DAO if you did not acquire a DAGrank
1061:build/openmote-cc2538_armgcc/openstack/03b-IPv6/icmpv6rpl.c ****    if (icmpv6rpl_getMyDAGrank()==DEFAULTDAGRANK) {
 2899              		.loc 1 1061 0
 2900 10c6 FFF7FEFF 		bl	icmpv6rpl_getMyDAGrank
 2901 10ca 0346     		mov	r3, r0
 2902 10cc 1A46     		mov	r2, r3
 2903 10ce 4FF6FF73 		movw	r3, #65535
 2904 10d2 9A42     		cmp	r2, r3
 2905 10d4 00F00881 		beq	.L188
1062:build/openmote-cc2538_armgcc/openstack/03b-IPv6/icmpv6rpl.c ****        return;
1063:build/openmote-cc2538_armgcc/openstack/03b-IPv6/icmpv6rpl.c ****    }
1064:build/openmote-cc2538_armgcc/openstack/03b-IPv6/icmpv6rpl.c ****    
1065:build/openmote-cc2538_armgcc/openstack/03b-IPv6/icmpv6rpl.c ****    // dont' send a DAO if you're still busy sending the previous one
1066:build/openmote-cc2538_armgcc/openstack/03b-IPv6/icmpv6rpl.c ****    if (icmpv6rpl_vars.busySendingDAO==TRUE) {
 2906              		.loc 1 1066 0
 2907 10d8 864B     		ldr	r3, .L191
 2908 10da 5B78     		ldrb	r3, [r3, #1]	@ zero_extendqisi2
 2909 10dc 002B     		cmp	r3, #0
 2910 10de 40F00581 		bne	.L189
1067:build/openmote-cc2538_armgcc/openstack/03b-IPv6/icmpv6rpl.c ****       return;
1068:build/openmote-cc2538_armgcc/openstack/03b-IPv6/icmpv6rpl.c ****    }
1069:build/openmote-cc2538_armgcc/openstack/03b-IPv6/icmpv6rpl.c ****    
1070:build/openmote-cc2538_armgcc/openstack/03b-IPv6/icmpv6rpl.c ****    // if you get here, you start construct DAO
1071:build/openmote-cc2538_armgcc/openstack/03b-IPv6/icmpv6rpl.c ****    
1072:build/openmote-cc2538_armgcc/openstack/03b-IPv6/icmpv6rpl.c ****    // reserve a free packet buffer for DAO
1073:build/openmote-cc2538_armgcc/openstack/03b-IPv6/icmpv6rpl.c ****    msg = openqueue_getFreePacketBuffer(COMPONENT_ICMPv6RPL);
 2911              		.loc 1 1073 0
 2912 10e2 1720     		movs	r0, #23
 2913 10e4 FFF7FEFF 		bl	openqueue_getFreePacketBuffer
 2914 10e8 3862     		str	r0, [r7, #32]
1074:build/openmote-cc2538_armgcc/openstack/03b-IPv6/icmpv6rpl.c ****    if (msg==NULL) {
 2915              		.loc 1 1074 0
 2916 10ea 3B6A     		ldr	r3, [r7, #32]
 2917 10ec 002B     		cmp	r3, #0
 2918 10ee 06D1     		bne	.L177
1075:build/openmote-cc2538_armgcc/openstack/03b-IPv6/icmpv6rpl.c ****       openserial_printError(COMPONENT_ICMPv6RPL,ERR_NO_FREE_PACKET_BUFFER,
 2919              		.loc 1 1075 0
 2920 10f0 0023     		movs	r3, #0
 2921 10f2 0022     		movs	r2, #0
 2922 10f4 2C21     		movs	r1, #44
 2923 10f6 1720     		movs	r0, #23
 2924 10f8 FFF7FEFF 		bl	openserial_printError
1076:build/openmote-cc2538_armgcc/openstack/03b-IPv6/icmpv6rpl.c ****                             (errorparameter_t)0,
1077:build/openmote-cc2538_armgcc/openstack/03b-IPv6/icmpv6rpl.c ****                             (errorparameter_t)0);
1078:build/openmote-cc2538_armgcc/openstack/03b-IPv6/icmpv6rpl.c ****       return;
 2925              		.loc 1 1078 0
 2926 10fc F7E0     		b	.L171
 2927              	.L177:
1079:build/openmote-cc2538_armgcc/openstack/03b-IPv6/icmpv6rpl.c ****    }
1080:build/openmote-cc2538_armgcc/openstack/03b-IPv6/icmpv6rpl.c ****    
1081:build/openmote-cc2538_armgcc/openstack/03b-IPv6/icmpv6rpl.c ****    // take ownership
1082:build/openmote-cc2538_armgcc/openstack/03b-IPv6/icmpv6rpl.c ****    msg->creator                             = COMPONENT_ICMPv6RPL;
 2928              		.loc 1 1082 0
 2929 10fe 3B6A     		ldr	r3, [r7, #32]
 2930 1100 1722     		movs	r2, #23
 2931 1102 1A70     		strb	r2, [r3]
1083:build/openmote-cc2538_armgcc/openstack/03b-IPv6/icmpv6rpl.c ****    msg->owner                               = COMPONENT_ICMPv6RPL;
 2932              		.loc 1 1083 0
 2933 1104 3B6A     		ldr	r3, [r7, #32]
 2934 1106 1722     		movs	r2, #23
 2935 1108 5A70     		strb	r2, [r3, #1]
1084:build/openmote-cc2538_armgcc/openstack/03b-IPv6/icmpv6rpl.c ****    
1085:build/openmote-cc2538_armgcc/openstack/03b-IPv6/icmpv6rpl.c ****    // set transport information
1086:build/openmote-cc2538_armgcc/openstack/03b-IPv6/icmpv6rpl.c ****    msg->l4_protocol                         = IANA_ICMPv6;
 2936              		.loc 1 1086 0
 2937 110a 3B6A     		ldr	r3, [r7, #32]
 2938 110c 3A22     		movs	r2, #58
 2939 110e 9A73     		strb	r2, [r3, #14]
1087:build/openmote-cc2538_armgcc/openstack/03b-IPv6/icmpv6rpl.c ****    msg->l4_sourcePortORicmpv6Type           = IANA_ICMPv6_RPL;
 2940              		.loc 1 1087 0
 2941 1110 3B6A     		ldr	r3, [r7, #32]
 2942 1112 9B22     		movs	r2, #155
 2943 1114 1A82     		strh	r2, [r3, #16]	@ movhi
1088:build/openmote-cc2538_armgcc/openstack/03b-IPv6/icmpv6rpl.c ****    
1089:build/openmote-cc2538_armgcc/openstack/03b-IPv6/icmpv6rpl.c ****    // set DAO destination
1090:build/openmote-cc2538_armgcc/openstack/03b-IPv6/icmpv6rpl.c ****    msg->l3_destinationAdd.type=ADDR_128B;
 2944              		.loc 1 1090 0
 2945 1116 3B6A     		ldr	r3, [r7, #32]
 2946 1118 0322     		movs	r2, #3
 2947 111a 5A76     		strb	r2, [r3, #25]
1091:build/openmote-cc2538_armgcc/openstack/03b-IPv6/icmpv6rpl.c ****    memcpy(msg->l3_destinationAdd.addr_128b,icmpv6rpl_vars.dio.DODAGID,sizeof(icmpv6rpl_vars.dio.DOD
 2948              		.loc 1 1091 0
 2949 111c 3B6A     		ldr	r3, [r7, #32]
 2950 111e 03F11A02 		add	r2, r3, #26
 2951 1122 744B     		ldr	r3, .L191
 2952 1124 0B33     		adds	r3, r3, #11
 2953 1126 1C68     		ldr	r4, [r3]	@ unaligned
 2954 1128 5868     		ldr	r0, [r3, #4]	@ unaligned
 2955 112a 9968     		ldr	r1, [r3, #8]	@ unaligned
 2956 112c DB68     		ldr	r3, [r3, #12]	@ unaligned
 2957 112e 1460     		str	r4, [r2]	@ unaligned
 2958 1130 5060     		str	r0, [r2, #4]	@ unaligned
 2959 1132 9160     		str	r1, [r2, #8]	@ unaligned
 2960 1134 D360     		str	r3, [r2, #12]	@ unaligned
1092:build/openmote-cc2538_armgcc/openstack/03b-IPv6/icmpv6rpl.c ****    
1093:build/openmote-cc2538_armgcc/openstack/03b-IPv6/icmpv6rpl.c ****    //===== fill in packet
1094:build/openmote-cc2538_armgcc/openstack/03b-IPv6/icmpv6rpl.c ****    
1095:build/openmote-cc2538_armgcc/openstack/03b-IPv6/icmpv6rpl.c ****    //NOTE: limit to preferrred parent only the number of DAO transit addresses to send
1096:build/openmote-cc2538_armgcc/openstack/03b-IPv6/icmpv6rpl.c ****    
1097:build/openmote-cc2538_armgcc/openstack/03b-IPv6/icmpv6rpl.c ****    //=== transit option -- from RFC 6550, page 55 - 1 transit information header per parent is requ
1098:build/openmote-cc2538_armgcc/openstack/03b-IPv6/icmpv6rpl.c ****    //getting only preferred parent as transit
1099:build/openmote-cc2538_armgcc/openstack/03b-IPv6/icmpv6rpl.c ****    numTransitParents=0;
 2961              		.loc 1 1099 0
 2962 1136 0023     		movs	r3, #0
 2963 1138 FB77     		strb	r3, [r7, #31]
1100:build/openmote-cc2538_armgcc/openstack/03b-IPv6/icmpv6rpl.c ****    icmpv6rpl_getPreferredParentEui64(&address);
 2964              		.loc 1 1100 0
 2965 113a 3B1D     		adds	r3, r7, #4
 2966 113c 1846     		mov	r0, r3
 2967 113e FFF7FEFF 		bl	icmpv6rpl_getPreferredParentEui64
1101:build/openmote-cc2538_armgcc/openstack/03b-IPv6/icmpv6rpl.c ****    packetfunctions_writeAddress(msg,&address,OW_BIG_ENDIAN);
 2968              		.loc 1 1101 0
 2969 1142 3B1D     		adds	r3, r7, #4
 2970 1144 0022     		movs	r2, #0
 2971 1146 1946     		mov	r1, r3
 2972 1148 386A     		ldr	r0, [r7, #32]
 2973 114a FFF7FEFF 		bl	packetfunctions_writeAddress
1102:build/openmote-cc2538_armgcc/openstack/03b-IPv6/icmpv6rpl.c ****    prefix=idmanager_getMyID(ADDR_PREFIX);
 2974              		.loc 1 1102 0
 2975 114e 0520     		movs	r0, #5
 2976 1150 FFF7FEFF 		bl	idmanager_getMyID
 2977 1154 B861     		str	r0, [r7, #24]
1103:build/openmote-cc2538_armgcc/openstack/03b-IPv6/icmpv6rpl.c ****    packetfunctions_writeAddress(msg,prefix,OW_BIG_ENDIAN);
 2978              		.loc 1 1103 0
 2979 1156 0022     		movs	r2, #0
 2980 1158 B969     		ldr	r1, [r7, #24]
 2981 115a 386A     		ldr	r0, [r7, #32]
 2982 115c FFF7FEFF 		bl	packetfunctions_writeAddress
1104:build/openmote-cc2538_armgcc/openstack/03b-IPv6/icmpv6rpl.c ****    // update transit info fields
1105:build/openmote-cc2538_armgcc/openstack/03b-IPv6/icmpv6rpl.c ****    // from rfc6550 p.55 -- Variable, depending on whether or not the DODAG ParentAddress subfield i
1106:build/openmote-cc2538_armgcc/openstack/03b-IPv6/icmpv6rpl.c ****    // poipoi xv: it is not very clear if this includes all fields in the header. or as target info 
1107:build/openmote-cc2538_armgcc/openstack/03b-IPv6/icmpv6rpl.c ****    // using the same pattern as in target information.
1108:build/openmote-cc2538_armgcc/openstack/03b-IPv6/icmpv6rpl.c ****    icmpv6rpl_vars.dao_transit.optionLength  = LENGTH_ADDR128b + sizeof(icmpv6rpl_dao_transit_ht)-2;
 2983              		.loc 1 1108 0
 2984 1160 644B     		ldr	r3, .L191
 2985 1162 1422     		movs	r2, #20
 2986 1164 83F87720 		strb	r2, [r3, #119]
1109:build/openmote-cc2538_armgcc/openstack/03b-IPv6/icmpv6rpl.c ****    icmpv6rpl_vars.dao_transit.PathControl=0; //todo. this is to set the preference of this parent. 
 2987              		.loc 1 1109 0
 2988 1168 624B     		ldr	r3, .L191
 2989 116a 0022     		movs	r2, #0
 2990 116c 83F87920 		strb	r2, [r3, #121]
1110:build/openmote-cc2538_armgcc/openstack/03b-IPv6/icmpv6rpl.c ****    icmpv6rpl_vars.dao_transit.type=OPTION_TRANSIT_INFORMATION_TYPE;
 2991              		.loc 1 1110 0
 2992 1170 604B     		ldr	r3, .L191
 2993 1172 0622     		movs	r2, #6
 2994 1174 83F87620 		strb	r2, [r3, #118]
1111:build/openmote-cc2538_armgcc/openstack/03b-IPv6/icmpv6rpl.c ****            
1112:build/openmote-cc2538_armgcc/openstack/03b-IPv6/icmpv6rpl.c ****    // write transit info in packet
1113:build/openmote-cc2538_armgcc/openstack/03b-IPv6/icmpv6rpl.c ****    packetfunctions_reserveHeaderSize(msg,sizeof(icmpv6rpl_dao_transit_ht));
 2995              		.loc 1 1113 0
 2996 1178 0621     		movs	r1, #6
 2997 117a 386A     		ldr	r0, [r7, #32]
 2998 117c FFF7FEFF 		bl	packetfunctions_reserveHeaderSize
1114:build/openmote-cc2538_armgcc/openstack/03b-IPv6/icmpv6rpl.c ****    memcpy(
1115:build/openmote-cc2538_armgcc/openstack/03b-IPv6/icmpv6rpl.c ****           ((icmpv6rpl_dao_transit_ht*)(msg->payload)),
 2999              		.loc 1 1115 0
 3000 1180 3B6A     		ldr	r3, [r7, #32]
 3001 1182 5A68     		ldr	r2, [r3, #4]
1114:build/openmote-cc2538_armgcc/openstack/03b-IPv6/icmpv6rpl.c ****    memcpy(
 3002              		.loc 1 1114 0
 3003 1184 5B4B     		ldr	r3, .L191
 3004 1186 7633     		adds	r3, r3, #118
 3005 1188 1968     		ldr	r1, [r3]	@ unaligned
 3006 118a 1160     		str	r1, [r2]	@ unaligned
 3007 118c 9B88     		ldrh	r3, [r3, #4]	@ unaligned
 3008 118e 9380     		strh	r3, [r2, #4]	@ unaligned
1116:build/openmote-cc2538_armgcc/openstack/03b-IPv6/icmpv6rpl.c ****           &(icmpv6rpl_vars.dao_transit),
1117:build/openmote-cc2538_armgcc/openstack/03b-IPv6/icmpv6rpl.c ****           sizeof(icmpv6rpl_dao_transit_ht)
1118:build/openmote-cc2538_armgcc/openstack/03b-IPv6/icmpv6rpl.c ****    );
1119:build/openmote-cc2538_armgcc/openstack/03b-IPv6/icmpv6rpl.c ****    numTransitParents++;
 3009              		.loc 1 1119 0
 3010 1190 FB7F     		ldrb	r3, [r7, #31]	@ zero_extendqisi2
 3011 1192 0133     		adds	r3, r3, #1
 3012 1194 FB77     		strb	r3, [r7, #31]
1120:build/openmote-cc2538_armgcc/openstack/03b-IPv6/icmpv6rpl.c ****    
1121:build/openmote-cc2538_armgcc/openstack/03b-IPv6/icmpv6rpl.c ****    //target information is required. RFC 6550 page 55.
1122:build/openmote-cc2538_armgcc/openstack/03b-IPv6/icmpv6rpl.c ****    /*
1123:build/openmote-cc2538_armgcc/openstack/03b-IPv6/icmpv6rpl.c ****    One or more Transit Information options MUST be preceded by one or
1124:build/openmote-cc2538_armgcc/openstack/03b-IPv6/icmpv6rpl.c ****    more RPL Target options.   
1125:build/openmote-cc2538_armgcc/openstack/03b-IPv6/icmpv6rpl.c ****    */
1126:build/openmote-cc2538_armgcc/openstack/03b-IPv6/icmpv6rpl.c ****     numTargetParents                        = 0;
 3013              		.loc 1 1126 0
 3014 1196 0023     		movs	r3, #0
 3015 1198 87F82630 		strb	r3, [r7, #38]
1127:build/openmote-cc2538_armgcc/openstack/03b-IPv6/icmpv6rpl.c ****     for (nbrIdx=0;nbrIdx<MAXNUMNEIGHBORS;nbrIdx++) {
 3016              		.loc 1 1127 0
 3017 119c 0023     		movs	r3, #0
 3018 119e 87F82730 		strb	r3, [r7, #39]
 3019 11a2 45E0     		b	.L178
 3020              	.L182:
1128:build/openmote-cc2538_armgcc/openstack/03b-IPv6/icmpv6rpl.c ****       if ((neighbors_isNeighborWithHigherDAGrank(nbrIdx))==TRUE) {
 3021              		.loc 1 1128 0
 3022 11a4 97F82730 		ldrb	r3, [r7, #39]	@ zero_extendqisi2
 3023 11a8 1846     		mov	r0, r3
 3024 11aa FFF7FEFF 		bl	neighbors_isNeighborWithHigherDAGrank
 3025 11ae 0346     		mov	r3, r0
 3026 11b0 002B     		cmp	r3, #0
 3027 11b2 34D0     		beq	.L179
1129:build/openmote-cc2538_armgcc/openstack/03b-IPv6/icmpv6rpl.c ****          // this neighbor is of higher DAGrank as I am. so it is my child
1130:build/openmote-cc2538_armgcc/openstack/03b-IPv6/icmpv6rpl.c ****          
1131:build/openmote-cc2538_armgcc/openstack/03b-IPv6/icmpv6rpl.c ****          // write it's address in DAO RFC6550 page 80 check point 1.
1132:build/openmote-cc2538_armgcc/openstack/03b-IPv6/icmpv6rpl.c ****          neighbors_getNeighborEui64(&address,ADDR_64B,nbrIdx); 
 3028              		.loc 1 1132 0
 3029 11b4 97F82720 		ldrb	r2, [r7, #39]	@ zero_extendqisi2
 3030 11b8 3B1D     		adds	r3, r7, #4
 3031 11ba 0221     		movs	r1, #2
 3032 11bc 1846     		mov	r0, r3
 3033 11be FFF7FEFF 		bl	neighbors_getNeighborEui64
1133:build/openmote-cc2538_armgcc/openstack/03b-IPv6/icmpv6rpl.c ****          packetfunctions_writeAddress(msg,&address,OW_BIG_ENDIAN);
 3034              		.loc 1 1133 0
 3035 11c2 3B1D     		adds	r3, r7, #4
 3036 11c4 0022     		movs	r2, #0
 3037 11c6 1946     		mov	r1, r3
 3038 11c8 386A     		ldr	r0, [r7, #32]
 3039 11ca FFF7FEFF 		bl	packetfunctions_writeAddress
1134:build/openmote-cc2538_armgcc/openstack/03b-IPv6/icmpv6rpl.c ****          prefix=idmanager_getMyID(ADDR_PREFIX);
 3040              		.loc 1 1134 0
 3041 11ce 0520     		movs	r0, #5
 3042 11d0 FFF7FEFF 		bl	idmanager_getMyID
 3043 11d4 B861     		str	r0, [r7, #24]
1135:build/openmote-cc2538_armgcc/openstack/03b-IPv6/icmpv6rpl.c ****          packetfunctions_writeAddress(msg,prefix,OW_BIG_ENDIAN);
 3044              		.loc 1 1135 0
 3045 11d6 0022     		movs	r2, #0
 3046 11d8 B969     		ldr	r1, [r7, #24]
 3047 11da 386A     		ldr	r0, [r7, #32]
 3048 11dc FFF7FEFF 		bl	packetfunctions_writeAddress
1136:build/openmote-cc2538_armgcc/openstack/03b-IPv6/icmpv6rpl.c ****         
1137:build/openmote-cc2538_armgcc/openstack/03b-IPv6/icmpv6rpl.c ****          // update target info fields 
1138:build/openmote-cc2538_armgcc/openstack/03b-IPv6/icmpv6rpl.c ****          // from rfc6550 p.55 -- Variable, length of the option in octets excluding the Type and Le
1139:build/openmote-cc2538_armgcc/openstack/03b-IPv6/icmpv6rpl.c ****          // poipoi xv: assuming that type and length fields refer to the 2 first bytes of the heade
1140:build/openmote-cc2538_armgcc/openstack/03b-IPv6/icmpv6rpl.c ****          icmpv6rpl_vars.dao_target.optionLength  = LENGTH_ADDR128b +sizeof(icmpv6rpl_dao_target_ht)
 3049              		.loc 1 1140 0
 3050 11e0 444B     		ldr	r3, .L191
 3051 11e2 1222     		movs	r2, #18
 3052 11e4 83F87D20 		strb	r2, [r3, #125]
1141:build/openmote-cc2538_armgcc/openstack/03b-IPv6/icmpv6rpl.c ****          icmpv6rpl_vars.dao_target.type  = OPTION_TARGET_INFORMATION_TYPE;
 3053              		.loc 1 1141 0
 3054 11e8 424B     		ldr	r3, .L191
 3055 11ea 0522     		movs	r2, #5
 3056 11ec 83F87C20 		strb	r2, [r3, #124]
1142:build/openmote-cc2538_armgcc/openstack/03b-IPv6/icmpv6rpl.c ****          icmpv6rpl_vars.dao_target.flags  = 0;       //must be 0
 3057              		.loc 1 1142 0
 3058 11f0 404B     		ldr	r3, .L191
 3059 11f2 0022     		movs	r2, #0
 3060 11f4 83F87E20 		strb	r2, [r3, #126]
1143:build/openmote-cc2538_armgcc/openstack/03b-IPv6/icmpv6rpl.c ****          icmpv6rpl_vars.dao_target.prefixLength = 128; //128 leading bits  -- full address.
 3061              		.loc 1 1143 0
 3062 11f8 3E4B     		ldr	r3, .L191
 3063 11fa 8022     		movs	r2, #128
 3064 11fc 83F87F20 		strb	r2, [r3, #127]
1144:build/openmote-cc2538_armgcc/openstack/03b-IPv6/icmpv6rpl.c ****          
1145:build/openmote-cc2538_armgcc/openstack/03b-IPv6/icmpv6rpl.c ****          // write transit info in packet
1146:build/openmote-cc2538_armgcc/openstack/03b-IPv6/icmpv6rpl.c ****          packetfunctions_reserveHeaderSize(msg,sizeof(icmpv6rpl_dao_target_ht));
 3065              		.loc 1 1146 0
 3066 1200 0421     		movs	r1, #4
 3067 1202 386A     		ldr	r0, [r7, #32]
 3068 1204 FFF7FEFF 		bl	packetfunctions_reserveHeaderSize
1147:build/openmote-cc2538_armgcc/openstack/03b-IPv6/icmpv6rpl.c ****          memcpy(
1148:build/openmote-cc2538_armgcc/openstack/03b-IPv6/icmpv6rpl.c ****                ((icmpv6rpl_dao_target_ht*)(msg->payload)),
 3069              		.loc 1 1148 0
 3070 1208 3B6A     		ldr	r3, [r7, #32]
 3071 120a 5A68     		ldr	r2, [r3, #4]
1147:build/openmote-cc2538_armgcc/openstack/03b-IPv6/icmpv6rpl.c ****          memcpy(
 3072              		.loc 1 1147 0
 3073 120c 394B     		ldr	r3, .L191
 3074 120e 7C33     		adds	r3, r3, #124
 3075 1210 1868     		ldr	r0, [r3]	@ unaligned
 3076 1212 1060     		str	r0, [r2]	@ unaligned
1149:build/openmote-cc2538_armgcc/openstack/03b-IPv6/icmpv6rpl.c ****                &(icmpv6rpl_vars.dao_target),
1150:build/openmote-cc2538_armgcc/openstack/03b-IPv6/icmpv6rpl.c ****                sizeof(icmpv6rpl_dao_target_ht)
1151:build/openmote-cc2538_armgcc/openstack/03b-IPv6/icmpv6rpl.c ****          );
1152:build/openmote-cc2538_armgcc/openstack/03b-IPv6/icmpv6rpl.c ****          
1153:build/openmote-cc2538_armgcc/openstack/03b-IPv6/icmpv6rpl.c ****          // remember I found it
1154:build/openmote-cc2538_armgcc/openstack/03b-IPv6/icmpv6rpl.c ****          numTargetParents++;
 3077              		.loc 1 1154 0
 3078 1214 97F82630 		ldrb	r3, [r7, #38]	@ zero_extendqisi2
 3079 1218 0133     		adds	r3, r3, #1
 3080 121a 87F82630 		strb	r3, [r7, #38]
 3081              	.L179:
1155:build/openmote-cc2538_armgcc/openstack/03b-IPv6/icmpv6rpl.c ****       }  
1156:build/openmote-cc2538_armgcc/openstack/03b-IPv6/icmpv6rpl.c ****       //limit to MAX_TARGET_PARENTS the number of DAO target addresses to send
1157:build/openmote-cc2538_armgcc/openstack/03b-IPv6/icmpv6rpl.c ****       //section 8.2.1 pag 67 RFC6550 -- using a subset
1158:build/openmote-cc2538_armgcc/openstack/03b-IPv6/icmpv6rpl.c ****       // poipoi TODO base selection on ETX rather than first X.
1159:build/openmote-cc2538_armgcc/openstack/03b-IPv6/icmpv6rpl.c ****       if (numTargetParents>=MAX_TARGET_PARENTS) break;
 3082              		.loc 1 1159 0
 3083 121e 97F82630 		ldrb	r3, [r7, #38]	@ zero_extendqisi2
 3084 1222 002B     		cmp	r3, #0
 3085 1224 09D1     		bne	.L190
1127:build/openmote-cc2538_armgcc/openstack/03b-IPv6/icmpv6rpl.c ****       if ((neighbors_isNeighborWithHigherDAGrank(nbrIdx))==TRUE) {
 3086              		.loc 1 1127 0 discriminator 2
 3087 1226 97F82730 		ldrb	r3, [r7, #39]	@ zero_extendqisi2
 3088 122a 0133     		adds	r3, r3, #1
 3089 122c 87F82730 		strb	r3, [r7, #39]
 3090              	.L178:
1127:build/openmote-cc2538_armgcc/openstack/03b-IPv6/icmpv6rpl.c ****       if ((neighbors_isNeighborWithHigherDAGrank(nbrIdx))==TRUE) {
 3091              		.loc 1 1127 0 is_stmt 0 discriminator 1
 3092 1230 97F82730 		ldrb	r3, [r7, #39]	@ zero_extendqisi2
 3093 1234 1D2B     		cmp	r3, #29
 3094 1236 B5D9     		bls	.L182
 3095 1238 00E0     		b	.L181
 3096              	.L190:
 3097              		.loc 1 1159 0 is_stmt 1
 3098 123a 00BF     		nop
 3099              	.L181:
1160:build/openmote-cc2538_armgcc/openstack/03b-IPv6/icmpv6rpl.c ****    }
1161:build/openmote-cc2538_armgcc/openstack/03b-IPv6/icmpv6rpl.c ****    
1162:build/openmote-cc2538_armgcc/openstack/03b-IPv6/icmpv6rpl.c ****    
1163:build/openmote-cc2538_armgcc/openstack/03b-IPv6/icmpv6rpl.c ****    // stop here if no parents found
1164:build/openmote-cc2538_armgcc/openstack/03b-IPv6/icmpv6rpl.c ****    if (numTransitParents==0) {
 3100              		.loc 1 1164 0
 3101 123c FB7F     		ldrb	r3, [r7, #31]	@ zero_extendqisi2
 3102 123e 002B     		cmp	r3, #0
 3103 1240 03D1     		bne	.L183
1165:build/openmote-cc2538_armgcc/openstack/03b-IPv6/icmpv6rpl.c ****       openqueue_freePacketBuffer(msg);
 3104              		.loc 1 1165 0
 3105 1242 386A     		ldr	r0, [r7, #32]
 3106 1244 FFF7FEFF 		bl	openqueue_freePacketBuffer
1166:build/openmote-cc2538_armgcc/openstack/03b-IPv6/icmpv6rpl.c ****       return;
 3107              		.loc 1 1166 0
 3108 1248 51E0     		b	.L171
 3109              	.L183:
1167:build/openmote-cc2538_armgcc/openstack/03b-IPv6/icmpv6rpl.c ****    }
1168:build/openmote-cc2538_armgcc/openstack/03b-IPv6/icmpv6rpl.c ****    
1169:build/openmote-cc2538_armgcc/openstack/03b-IPv6/icmpv6rpl.c ****    icmpv6rpl_vars.dao_transit.PathSequence++; //increment path sequence.
 3110              		.loc 1 1169 0
 3111 124a 2A4B     		ldr	r3, .L191
 3112 124c 93F87A30 		ldrb	r3, [r3, #122]	@ zero_extendqisi2
 3113 1250 0133     		adds	r3, r3, #1
 3114 1252 DAB2     		uxtb	r2, r3
 3115 1254 274B     		ldr	r3, .L191
 3116 1256 83F87A20 		strb	r2, [r3, #122]
1170:build/openmote-cc2538_armgcc/openstack/03b-IPv6/icmpv6rpl.c ****    // if you get here, you will send a DAO
1171:build/openmote-cc2538_armgcc/openstack/03b-IPv6/icmpv6rpl.c ****    
1172:build/openmote-cc2538_armgcc/openstack/03b-IPv6/icmpv6rpl.c ****    
1173:build/openmote-cc2538_armgcc/openstack/03b-IPv6/icmpv6rpl.c ****    //=== DAO header
1174:build/openmote-cc2538_armgcc/openstack/03b-IPv6/icmpv6rpl.c ****    packetfunctions_reserveHeaderSize(msg,sizeof(icmpv6rpl_dao_ht));
 3117              		.loc 1 1174 0
 3118 125a 1421     		movs	r1, #20
 3119 125c 386A     		ldr	r0, [r7, #32]
 3120 125e FFF7FEFF 		bl	packetfunctions_reserveHeaderSize
1175:build/openmote-cc2538_armgcc/openstack/03b-IPv6/icmpv6rpl.c ****    icmpv6rpl_vars.dao.DAOSequence++;
 3121              		.loc 1 1175 0
 3122 1262 244B     		ldr	r3, .L191
 3123 1264 93F86530 		ldrb	r3, [r3, #101]	@ zero_extendqisi2
 3124 1268 0133     		adds	r3, r3, #1
 3125 126a DAB2     		uxtb	r2, r3
 3126 126c 214B     		ldr	r3, .L191
 3127 126e 83F86520 		strb	r2, [r3, #101]
1176:build/openmote-cc2538_armgcc/openstack/03b-IPv6/icmpv6rpl.c ****    memcpy(
1177:build/openmote-cc2538_armgcc/openstack/03b-IPv6/icmpv6rpl.c ****       ((icmpv6rpl_dao_ht*)(msg->payload)),
 3128              		.loc 1 1177 0
 3129 1272 3B6A     		ldr	r3, [r7, #32]
 3130 1274 5A68     		ldr	r2, [r3, #4]
1176:build/openmote-cc2538_armgcc/openstack/03b-IPv6/icmpv6rpl.c ****    memcpy(
 3131              		.loc 1 1176 0
 3132 1276 1F4B     		ldr	r3, .L191
 3133 1278 6233     		adds	r3, r3, #98
 3134 127a 1968     		ldr	r1, [r3]	@ unaligned
 3135 127c 5D68     		ldr	r5, [r3, #4]	@ unaligned
 3136 127e 9C68     		ldr	r4, [r3, #8]	@ unaligned
 3137 1280 D868     		ldr	r0, [r3, #12]	@ unaligned
 3138 1282 1160     		str	r1, [r2]	@ unaligned
 3139 1284 5560     		str	r5, [r2, #4]	@ unaligned
 3140 1286 9460     		str	r4, [r2, #8]	@ unaligned
 3141 1288 D060     		str	r0, [r2, #12]	@ unaligned
 3142 128a 1969     		ldr	r1, [r3, #16]	@ unaligned
 3143 128c 1161     		str	r1, [r2, #16]	@ unaligned
1178:build/openmote-cc2538_armgcc/openstack/03b-IPv6/icmpv6rpl.c ****       &(icmpv6rpl_vars.dao),
1179:build/openmote-cc2538_armgcc/openstack/03b-IPv6/icmpv6rpl.c ****       sizeof(icmpv6rpl_dao_ht)
1180:build/openmote-cc2538_armgcc/openstack/03b-IPv6/icmpv6rpl.c ****    );
1181:build/openmote-cc2538_armgcc/openstack/03b-IPv6/icmpv6rpl.c ****    
1182:build/openmote-cc2538_armgcc/openstack/03b-IPv6/icmpv6rpl.c ****    //=== ICMPv6 header
1183:build/openmote-cc2538_armgcc/openstack/03b-IPv6/icmpv6rpl.c ****    packetfunctions_reserveHeaderSize(msg,sizeof(ICMPv6_ht));
 3144              		.loc 1 1183 0
 3145 128e 0421     		movs	r1, #4
 3146 1290 386A     		ldr	r0, [r7, #32]
 3147 1292 FFF7FEFF 		bl	packetfunctions_reserveHeaderSize
1184:build/openmote-cc2538_armgcc/openstack/03b-IPv6/icmpv6rpl.c ****    ((ICMPv6_ht*)(msg->payload))->type       = msg->l4_sourcePortORicmpv6Type;
 3148              		.loc 1 1184 0
 3149 1296 3B6A     		ldr	r3, [r7, #32]
 3150 1298 5B68     		ldr	r3, [r3, #4]
 3151 129a 3A6A     		ldr	r2, [r7, #32]
 3152 129c 128A     		ldrh	r2, [r2, #16]
 3153 129e D2B2     		uxtb	r2, r2
 3154 12a0 1A70     		strb	r2, [r3]
1185:build/openmote-cc2538_armgcc/openstack/03b-IPv6/icmpv6rpl.c ****    ((ICMPv6_ht*)(msg->payload))->code       = IANA_ICMPv6_RPL_DAO;
 3155              		.loc 1 1185 0
 3156 12a2 3B6A     		ldr	r3, [r7, #32]
 3157 12a4 5B68     		ldr	r3, [r3, #4]
 3158 12a6 0222     		movs	r2, #2
 3159 12a8 5A70     		strb	r2, [r3, #1]
1186:build/openmote-cc2538_armgcc/openstack/03b-IPv6/icmpv6rpl.c ****    packetfunctions_calculateChecksum(msg,(uint8_t*)&(((ICMPv6_ht*)(msg->payload))->checksum)); //ca
 3160              		.loc 1 1186 0
 3161 12aa 3B6A     		ldr	r3, [r7, #32]
 3162 12ac 5B68     		ldr	r3, [r3, #4]
 3163 12ae 0233     		adds	r3, r3, #2
 3164 12b0 1946     		mov	r1, r3
 3165 12b2 386A     		ldr	r0, [r7, #32]
 3166 12b4 FFF7FEFF 		bl	packetfunctions_calculateChecksum
1187:build/openmote-cc2538_armgcc/openstack/03b-IPv6/icmpv6rpl.c ****    
1188:build/openmote-cc2538_armgcc/openstack/03b-IPv6/icmpv6rpl.c **** //   if (idmanager_getMyID(ADDR_64B)->addr_64b[7] == 5 ){
1189:build/openmote-cc2538_armgcc/openstack/03b-IPv6/icmpv6rpl.c **** //
1190:build/openmote-cc2538_armgcc/openstack/03b-IPv6/icmpv6rpl.c **** //   }
1191:build/openmote-cc2538_armgcc/openstack/03b-IPv6/icmpv6rpl.c ****    msg->isDioFake=FALSE;
 3167              		.loc 1 1191 0
 3168 12b8 3B6A     		ldr	r3, [r7, #32]
 3169 12ba 0022     		movs	r2, #0
 3170 12bc 83F84321 		strb	r2, [r3, #323]
1192:build/openmote-cc2538_armgcc/openstack/03b-IPv6/icmpv6rpl.c **** 
1193:build/openmote-cc2538_armgcc/openstack/03b-IPv6/icmpv6rpl.c **** 
1194:build/openmote-cc2538_armgcc/openstack/03b-IPv6/icmpv6rpl.c ****    //===== send
1195:build/openmote-cc2538_armgcc/openstack/03b-IPv6/icmpv6rpl.c ****    if (icmpv6_send(msg)==E_SUCCESS) {
 3171              		.loc 1 1195 0
 3172 12c0 386A     		ldr	r0, [r7, #32]
 3173 12c2 FFF7FEFF 		bl	icmpv6_send
 3174 12c6 0346     		mov	r3, r0
 3175 12c8 002B     		cmp	r3, #0
 3176 12ca 07D1     		bne	.L184
