   1              		.syntax unified
   2              		.cpu cortex-m3
   3              		.fpu softvfp
   4              		.eabi_attribute 20, 1
   5              		.eabi_attribute 21, 1
   6              		.eabi_attribute 23, 3
   7              		.eabi_attribute 24, 1
   8              		.eabi_attribute 25, 1
   9              		.eabi_attribute 26, 1
  10              		.eabi_attribute 30, 6
  11              		.eabi_attribute 34, 1
  12              		.eabi_attribute 18, 4
  13              		.thumb
  14              		.syntax unified
  15              		.file	"cbor.c"
  16              		.text
  17              	.Ltext0:
  18              		.cfi_sections	.debug_frame
  19              		.section	.rodata
  20              		.align	2
  23              	rreg_uriquery:
  24 0000 683D7563 		.ascii	"h=ucb\000"
  24      6200
  25 0006 0000     		.align	2
  28              	infoBoardname:
  29 0008 43433235 		.ascii	"CC2538\000"
  29      333800
  30 000f 00       		.align	2
  33              	infouCName:
  34 0010 43433235 		.ascii	"CC2538\000"
  34      333800
  35 0017 00       		.align	2
  38              	infoRadioName:
  39 0018 43433235 		.ascii	"CC2538 SoC\000"
  39      33382053 
  39      6F4300
  40 0023 00       		.align	2
  43              	infoStackName:
  44 0024 4F70656E 		.ascii	"OpenWSN \000"
  44      57534E20 
  44      00
  45              		.text
  46              		.align	2
  47              		.global	cbor_parse_join_response
  48              		.thumb
  49              		.thumb_func
  51              	cbor_parse_join_response:
  52              	.LFB0:
  53              		.file 1 "build/openmote-cc2538_armgcc/openapps/cjoin/cbor.c"
   1:build/openmote-cc2538_armgcc/openapps/cjoin/cbor.c **** /*e
   2:build/openmote-cc2538_armgcc/openapps/cjoin/cbor.c **** \brief A minimal CBOR parser implementation of draft-6tisch-minimal-security-02.
   3:build/openmote-cc2538_armgcc/openapps/cjoin/cbor.c **** */
   4:build/openmote-cc2538_armgcc/openapps/cjoin/cbor.c **** #include "cbor.h"
   5:build/openmote-cc2538_armgcc/openapps/cjoin/cbor.c **** //=========================== defines =========================================
   6:build/openmote-cc2538_armgcc/openapps/cjoin/cbor.c **** // number of bytes in 802.15.4 short address
   7:build/openmote-cc2538_armgcc/openapps/cjoin/cbor.c **** #define ASN_LENGTH              5
   8:build/openmote-cc2538_armgcc/openapps/cjoin/cbor.c **** //=========================== variables =======================================
   9:build/openmote-cc2538_armgcc/openapps/cjoin/cbor.c **** 
  10:build/openmote-cc2538_armgcc/openapps/cjoin/cbor.c **** //=========================== prototypes ======================================
  11:build/openmote-cc2538_armgcc/openapps/cjoin/cbor.c **** owerror_t cbor_parse_keyset(COSE_keyset_t *, uint8_t *, uint8_t *);
  12:build/openmote-cc2538_armgcc/openapps/cjoin/cbor.c **** owerror_t cbor_parse_short_address(short_address_t *, uint8_t *, uint8_t *);
  13:build/openmote-cc2538_armgcc/openapps/cjoin/cbor.c **** owerror_t cbor_parse_key(COSE_symmetric_key_t *, uint8_t *, uint8_t *);
  14:build/openmote-cc2538_armgcc/openapps/cjoin/cbor.c **** 
  15:build/openmote-cc2538_armgcc/openapps/cjoin/cbor.c **** 
  16:build/openmote-cc2538_armgcc/openapps/cjoin/cbor.c **** //=========================== public ==========================================
  17:build/openmote-cc2538_armgcc/openapps/cjoin/cbor.c **** /**
  18:build/openmote-cc2538_armgcc/openapps/cjoin/cbor.c **** \brief Parse the received join response.
  19:build/openmote-cc2538_armgcc/openapps/cjoin/cbor.c **** 
  20:build/openmote-cc2538_armgcc/openapps/cjoin/cbor.c **** This function expects the join response structure from minimal-security-02 draft.
  21:build/openmote-cc2538_armgcc/openapps/cjoin/cbor.c **** 
  22:build/openmote-cc2538_armgcc/openapps/cjoin/cbor.c **** \param[out] response The join_response_t structure containing parsed info.
  23:build/openmote-cc2538_armgcc/openapps/cjoin/cbor.c **** \param[in] buf The received join response.
  24:build/openmote-cc2538_armgcc/openapps/cjoin/cbor.c **** \param[in] len Length of the payload.
  25:build/openmote-cc2538_armgcc/openapps/cjoin/cbor.c **** */
  26:build/openmote-cc2538_armgcc/openapps/cjoin/cbor.c **** owerror_t cbor_parse_join_response(join_response_t *response, uint8_t *buf, uint8_t len) {
  54              		.loc 1 26 0
  55              		.cfi_startproc
  56              		@ args = 0, pretend = 0, frame = 24
  57              		@ frame_needed = 1, uses_anonymous_args = 0
  58 0000 80B5     		push	{r7, lr}
  59              		.cfi_def_cfa_offset 8
  60              		.cfi_offset 7, -8
  61              		.cfi_offset 14, -4
  62 0002 86B0     		sub	sp, sp, #24
  63              		.cfi_def_cfa_offset 32
  64 0004 00AF     		add	r7, sp, #0
  65              		.cfi_def_cfa_register 7
  66 0006 F860     		str	r0, [r7, #12]
  67 0008 B960     		str	r1, [r7, #8]
  68 000a 1346     		mov	r3, r2
  69 000c FB71     		strb	r3, [r7, #7]
  27:build/openmote-cc2538_armgcc/openapps/cjoin/cbor.c **** 
  28:build/openmote-cc2538_armgcc/openapps/cjoin/cbor.c ****     cbor_majortype_t major_type;
  29:build/openmote-cc2538_armgcc/openapps/cjoin/cbor.c ****     uint8_t additional_info;
  30:build/openmote-cc2538_armgcc/openapps/cjoin/cbor.c ****     uint8_t ret;
  31:build/openmote-cc2538_armgcc/openapps/cjoin/cbor.c ****     uint8_t *tmp;
  32:build/openmote-cc2538_armgcc/openapps/cjoin/cbor.c ****     owerror_t error;
  33:build/openmote-cc2538_armgcc/openapps/cjoin/cbor.c **** 
  34:build/openmote-cc2538_armgcc/openapps/cjoin/cbor.c ****     memset(response, 0x00, sizeof(join_response_t)); 
  70              		.loc 1 34 0
  71 000e 2B22     		movs	r2, #43
  72 0010 0021     		movs	r1, #0
  73 0012 F868     		ldr	r0, [r7, #12]
  74 0014 FFF7FEFF 		bl	memset
  35:build/openmote-cc2538_armgcc/openapps/cjoin/cbor.c **** 
  36:build/openmote-cc2538_armgcc/openapps/cjoin/cbor.c ****     error = E_SUCCESS;
  75              		.loc 1 36 0
  76 0018 0023     		movs	r3, #0
  77 001a FB74     		strb	r3, [r7, #19]
  37:build/openmote-cc2538_armgcc/openapps/cjoin/cbor.c ****     tmp = buf;
  78              		.loc 1 37 0
  79 001c BB68     		ldr	r3, [r7, #8]
  80 001e 7B61     		str	r3, [r7, #20]
  38:build/openmote-cc2538_armgcc/openapps/cjoin/cbor.c ****     major_type = (cbor_majortype_t) *buf >> 5;
  81              		.loc 1 38 0
  82 0020 BB68     		ldr	r3, [r7, #8]
  83 0022 1B78     		ldrb	r3, [r3]	@ zero_extendqisi2
  84 0024 5B09     		lsrs	r3, r3, #5
  85 0026 BB74     		strb	r3, [r7, #18]
  39:build/openmote-cc2538_armgcc/openapps/cjoin/cbor.c ****     additional_info = *buf & CBOR_ADDINFO_MASK;
  86              		.loc 1 39 0
  87 0028 BB68     		ldr	r3, [r7, #8]
  88 002a 1B78     		ldrb	r3, [r3]	@ zero_extendqisi2
  89 002c 03F01F03 		and	r3, r3, #31
  90 0030 7B74     		strb	r3, [r7, #17]
  40:build/openmote-cc2538_armgcc/openapps/cjoin/cbor.c ****         
  41:build/openmote-cc2538_armgcc/openapps/cjoin/cbor.c ****     do {
  42:build/openmote-cc2538_armgcc/openapps/cjoin/cbor.c ****         if (major_type != CBOR_MAJORTYPE_ARRAY) {
  91              		.loc 1 42 0
  92 0032 BB7C     		ldrb	r3, [r7, #18]	@ zero_extendqisi2
  93 0034 042B     		cmp	r3, #4
  94 0036 02D0     		beq	.L2
  43:build/openmote-cc2538_armgcc/openapps/cjoin/cbor.c ****             error = E_FAIL;
  95              		.loc 1 43 0
  96 0038 0123     		movs	r3, #1
  97 003a FB74     		strb	r3, [r7, #19]
  44:build/openmote-cc2538_armgcc/openapps/cjoin/cbor.c ****             break;
  98              		.loc 1 44 0
  99 003c 3DE0     		b	.L3
 100              	.L2:
  45:build/openmote-cc2538_armgcc/openapps/cjoin/cbor.c ****         }
  46:build/openmote-cc2538_armgcc/openapps/cjoin/cbor.c **** 
  47:build/openmote-cc2538_armgcc/openapps/cjoin/cbor.c ****         if (additional_info > 2 || additional_info == 0) {
 101              		.loc 1 47 0
 102 003e 7B7C     		ldrb	r3, [r7, #17]	@ zero_extendqisi2
 103 0040 022B     		cmp	r3, #2
 104 0042 02D8     		bhi	.L4
 105              		.loc 1 47 0 is_stmt 0 discriminator 1
 106 0044 7B7C     		ldrb	r3, [r7, #17]	@ zero_extendqisi2
 107 0046 002B     		cmp	r3, #0
 108 0048 02D1     		bne	.L5
 109              	.L4:
  48:build/openmote-cc2538_armgcc/openapps/cjoin/cbor.c ****             error = E_FAIL; // unsupported join response structure
 110              		.loc 1 48 0 is_stmt 1
 111 004a 0123     		movs	r3, #1
 112 004c FB74     		strb	r3, [r7, #19]
  49:build/openmote-cc2538_armgcc/openapps/cjoin/cbor.c ****             break;
 113              		.loc 1 49 0
 114 004e 34E0     		b	.L3
 115              	.L5:
  50:build/openmote-cc2538_armgcc/openapps/cjoin/cbor.c ****         }
  51:build/openmote-cc2538_armgcc/openapps/cjoin/cbor.c **** 
  52:build/openmote-cc2538_armgcc/openapps/cjoin/cbor.c ****         tmp++;
 116              		.loc 1 52 0
 117 0050 7B69     		ldr	r3, [r7, #20]
 118 0052 0133     		adds	r3, r3, #1
 119 0054 7B61     		str	r3, [r7, #20]
  53:build/openmote-cc2538_armgcc/openapps/cjoin/cbor.c **** 
  54:build/openmote-cc2538_armgcc/openapps/cjoin/cbor.c ****         if (cbor_parse_keyset(&(response->keyset), tmp, &ret) == E_FAIL) {
 120              		.loc 1 54 0
 121 0056 FB68     		ldr	r3, [r7, #12]
 122 0058 07F11002 		add	r2, r7, #16
 123 005c 7969     		ldr	r1, [r7, #20]
 124 005e 1846     		mov	r0, r3
 125 0060 FFF7FEFF 		bl	cbor_parse_keyset
 126 0064 0346     		mov	r3, r0
 127 0066 012B     		cmp	r3, #1
 128 0068 02D1     		bne	.L6
  55:build/openmote-cc2538_armgcc/openapps/cjoin/cbor.c ****             error = E_FAIL;
 129              		.loc 1 55 0
 130 006a 0123     		movs	r3, #1
 131 006c FB74     		strb	r3, [r7, #19]
  56:build/openmote-cc2538_armgcc/openapps/cjoin/cbor.c ****             break;
 132              		.loc 1 56 0
 133 006e 24E0     		b	.L3
 134              	.L6:
  57:build/openmote-cc2538_armgcc/openapps/cjoin/cbor.c ****         }
  58:build/openmote-cc2538_armgcc/openapps/cjoin/cbor.c **** 
  59:build/openmote-cc2538_armgcc/openapps/cjoin/cbor.c ****         tmp += ret;
 135              		.loc 1 59 0
 136 0070 3B7C     		ldrb	r3, [r7, #16]	@ zero_extendqisi2
 137 0072 1A46     		mov	r2, r3
 138 0074 7B69     		ldr	r3, [r7, #20]
 139 0076 1344     		add	r3, r3, r2
 140 0078 7B61     		str	r3, [r7, #20]
  60:build/openmote-cc2538_armgcc/openapps/cjoin/cbor.c ****     
  61:build/openmote-cc2538_armgcc/openapps/cjoin/cbor.c ****         if (additional_info == 2) { // short address present
 141              		.loc 1 61 0
 142 007a 7B7C     		ldrb	r3, [r7, #17]	@ zero_extendqisi2
 143 007c 022B     		cmp	r3, #2
 144 007e 12D1     		bne	.L7
  62:build/openmote-cc2538_armgcc/openapps/cjoin/cbor.c ****             if (cbor_parse_short_address(&(response->short_address), tmp, &ret) == E_FAIL) {
 145              		.loc 1 62 0
 146 0080 FB68     		ldr	r3, [r7, #12]
 147 0082 2433     		adds	r3, r3, #36
 148 0084 07F11002 		add	r2, r7, #16
 149 0088 7969     		ldr	r1, [r7, #20]
 150 008a 1846     		mov	r0, r3
 151 008c FFF7FEFF 		bl	cbor_parse_short_address
 152 0090 0346     		mov	r3, r0
 153 0092 012B     		cmp	r3, #1
 154 0094 02D1     		bne	.L8
  63:build/openmote-cc2538_armgcc/openapps/cjoin/cbor.c ****                 error = E_FAIL;
 155              		.loc 1 63 0
 156 0096 0123     		movs	r3, #1
 157 0098 FB74     		strb	r3, [r7, #19]
  64:build/openmote-cc2538_armgcc/openapps/cjoin/cbor.c ****                 break;
 158              		.loc 1 64 0
 159 009a 0EE0     		b	.L3
 160              	.L8:
  65:build/openmote-cc2538_armgcc/openapps/cjoin/cbor.c ****             }
  66:build/openmote-cc2538_armgcc/openapps/cjoin/cbor.c ****             tmp += ret;
 161              		.loc 1 66 0
 162 009c 3B7C     		ldrb	r3, [r7, #16]	@ zero_extendqisi2
 163 009e 1A46     		mov	r2, r3
 164 00a0 7B69     		ldr	r3, [r7, #20]
 165 00a2 1344     		add	r3, r3, r2
 166 00a4 7B61     		str	r3, [r7, #20]
 167              	.L7:
  67:build/openmote-cc2538_armgcc/openapps/cjoin/cbor.c ****         }
  68:build/openmote-cc2538_armgcc/openapps/cjoin/cbor.c **** 
  69:build/openmote-cc2538_armgcc/openapps/cjoin/cbor.c ****         if ( (uint8_t)(tmp - buf) != len) { // final check that everything has been parsed 
 168              		.loc 1 69 0
 169 00a6 7A69     		ldr	r2, [r7, #20]
 170 00a8 BB68     		ldr	r3, [r7, #8]
 171 00aa D31A     		subs	r3, r2, r3
 172 00ac DBB2     		uxtb	r3, r3
 173 00ae FA79     		ldrb	r2, [r7, #7]	@ zero_extendqisi2
 174 00b0 9A42     		cmp	r2, r3
 175 00b2 02D0     		beq	.L3
  70:build/openmote-cc2538_armgcc/openapps/cjoin/cbor.c ****             error = E_FAIL;
 176              		.loc 1 70 0
 177 00b4 0123     		movs	r3, #1
 178 00b6 FB74     		strb	r3, [r7, #19]
  71:build/openmote-cc2538_armgcc/openapps/cjoin/cbor.c ****             break;
 179              		.loc 1 71 0
 180 00b8 00BF     		nop
 181              	.L3:
  72:build/openmote-cc2538_armgcc/openapps/cjoin/cbor.c ****         }
  73:build/openmote-cc2538_armgcc/openapps/cjoin/cbor.c ****     } while(0); // while loop that gets executed only once
  74:build/openmote-cc2538_armgcc/openapps/cjoin/cbor.c **** 
  75:build/openmote-cc2538_armgcc/openapps/cjoin/cbor.c ****     if (error == E_FAIL) {
 182              		.loc 1 75 0
 183 00ba FB7C     		ldrb	r3, [r7, #19]	@ zero_extendqisi2
 184 00bc 012B     		cmp	r3, #1
 185 00be 04D1     		bne	.L9
  76:build/openmote-cc2538_armgcc/openapps/cjoin/cbor.c ****         memset(response, 0x00, sizeof(join_response_t)); // invalidate join response
 186              		.loc 1 76 0
 187 00c0 2B22     		movs	r2, #43
 188 00c2 0021     		movs	r1, #0
 189 00c4 F868     		ldr	r0, [r7, #12]
 190 00c6 FFF7FEFF 		bl	memset
 191              	.L9:
  77:build/openmote-cc2538_armgcc/openapps/cjoin/cbor.c ****     }
  78:build/openmote-cc2538_armgcc/openapps/cjoin/cbor.c ****     return error;
 192              		.loc 1 78 0
 193 00ca FB7C     		ldrb	r3, [r7, #19]	@ zero_extendqisi2
  79:build/openmote-cc2538_armgcc/openapps/cjoin/cbor.c **** }
 194              		.loc 1 79 0
 195 00cc 1846     		mov	r0, r3
 196 00ce 1837     		adds	r7, r7, #24
 197              		.cfi_def_cfa_offset 8
 198 00d0 BD46     		mov	sp, r7
 199              		.cfi_def_cfa_register 13
 200              		@ sp needed
 201 00d2 80BD     		pop	{r7, pc}
 202              		.cfi_endproc
 203              	.LFE0:
 205              		.align	2
 206              		.global	cbor_parse_keyset
 207              		.thumb
 208              		.thumb_func
 210              	cbor_parse_keyset:
 211              	.LFB1:
  80:build/openmote-cc2538_armgcc/openapps/cjoin/cbor.c **** 
  81:build/openmote-cc2538_armgcc/openapps/cjoin/cbor.c **** 
  82:build/openmote-cc2538_armgcc/openapps/cjoin/cbor.c **** //=========================== private =========================================
  83:build/openmote-cc2538_armgcc/openapps/cjoin/cbor.c **** 
  84:build/openmote-cc2538_armgcc/openapps/cjoin/cbor.c **** /**
  85:build/openmote-cc2538_armgcc/openapps/cjoin/cbor.c **** \brief Parse the received COSE_Keyset.
  86:build/openmote-cc2538_armgcc/openapps/cjoin/cbor.c **** 
  87:build/openmote-cc2538_armgcc/openapps/cjoin/cbor.c **** The function expects COSE_Keyset with symmetric keys as per minimal-security-02 draft
  88:build/openmote-cc2538_armgcc/openapps/cjoin/cbor.c **** and parses it into COSE_symmetric_key_t structure.
  89:build/openmote-cc2538_armgcc/openapps/cjoin/cbor.c **** 
  90:build/openmote-cc2538_armgcc/openapps/cjoin/cbor.c **** \param[out] keyset The COSE_keyset_t structure containing parsed keys.
  91:build/openmote-cc2538_armgcc/openapps/cjoin/cbor.c **** \param[in] buf Input buffer.
  92:build/openmote-cc2538_armgcc/openapps/cjoin/cbor.c **** \param[out] len Processed length.
  93:build/openmote-cc2538_armgcc/openapps/cjoin/cbor.c **** */
  94:build/openmote-cc2538_armgcc/openapps/cjoin/cbor.c **** owerror_t cbor_parse_keyset(COSE_keyset_t *keyset, uint8_t *buf, uint8_t* len) {
 212              		.loc 1 94 0
 213              		.cfi_startproc
 214              		@ args = 0, pretend = 0, frame = 32
 215              		@ frame_needed = 1, uses_anonymous_args = 0
 216 00d4 80B5     		push	{r7, lr}
 217              		.cfi_def_cfa_offset 8
 218              		.cfi_offset 7, -8
 219              		.cfi_offset 14, -4
 220 00d6 88B0     		sub	sp, sp, #32
 221              		.cfi_def_cfa_offset 40
 222 00d8 00AF     		add	r7, sp, #0
 223              		.cfi_def_cfa_register 7
 224 00da F860     		str	r0, [r7, #12]
 225 00dc B960     		str	r1, [r7, #8]
 226 00de 7A60     		str	r2, [r7, #4]
  95:build/openmote-cc2538_armgcc/openapps/cjoin/cbor.c **** 
  96:build/openmote-cc2538_armgcc/openapps/cjoin/cbor.c ****     cbor_majortype_t major_type;
  97:build/openmote-cc2538_armgcc/openapps/cjoin/cbor.c ****     uint8_t additional_info;
  98:build/openmote-cc2538_armgcc/openapps/cjoin/cbor.c ****     uint8_t i;
  99:build/openmote-cc2538_armgcc/openapps/cjoin/cbor.c ****     uint8_t ret;
 100:build/openmote-cc2538_armgcc/openapps/cjoin/cbor.c ****     uint8_t *tmp;
 101:build/openmote-cc2538_armgcc/openapps/cjoin/cbor.c **** 
 102:build/openmote-cc2538_armgcc/openapps/cjoin/cbor.c ****     tmp = buf;
 227              		.loc 1 102 0
 228 00e0 BB68     		ldr	r3, [r7, #8]
 229 00e2 BB61     		str	r3, [r7, #24]
 103:build/openmote-cc2538_armgcc/openapps/cjoin/cbor.c ****     major_type = (cbor_majortype_t) *buf >> 5;
 230              		.loc 1 103 0
 231 00e4 BB68     		ldr	r3, [r7, #8]
 232 00e6 1B78     		ldrb	r3, [r3]	@ zero_extendqisi2
 233 00e8 5B09     		lsrs	r3, r3, #5
 234 00ea FB75     		strb	r3, [r7, #23]
 104:build/openmote-cc2538_armgcc/openapps/cjoin/cbor.c ****     additional_info = *buf & CBOR_ADDINFO_MASK;
 235              		.loc 1 104 0
 236 00ec BB68     		ldr	r3, [r7, #8]
 237 00ee 1B78     		ldrb	r3, [r3]	@ zero_extendqisi2
 238 00f0 03F01F03 		and	r3, r3, #31
 239 00f4 BB75     		strb	r3, [r7, #22]
 105:build/openmote-cc2538_armgcc/openapps/cjoin/cbor.c ****         
 106:build/openmote-cc2538_armgcc/openapps/cjoin/cbor.c ****     if (major_type != CBOR_MAJORTYPE_ARRAY) {
 240              		.loc 1 106 0
 241 00f6 FB7D     		ldrb	r3, [r7, #23]	@ zero_extendqisi2
 242 00f8 042B     		cmp	r3, #4
 243 00fa 01D0     		beq	.L12
 107:build/openmote-cc2538_armgcc/openapps/cjoin/cbor.c ****         return E_FAIL;
 244              		.loc 1 107 0
 245 00fc 0123     		movs	r3, #1
 246 00fe 32E0     		b	.L19
 247              	.L12:
 108:build/openmote-cc2538_armgcc/openapps/cjoin/cbor.c ****     }
 109:build/openmote-cc2538_armgcc/openapps/cjoin/cbor.c **** 
 110:build/openmote-cc2538_armgcc/openapps/cjoin/cbor.c ****     if (additional_info > COSE_KEYSET_MAX_NUM_KEYS || additional_info == 0) {
 248              		.loc 1 110 0
 249 0100 BB7D     		ldrb	r3, [r7, #22]	@ zero_extendqisi2
 250 0102 022B     		cmp	r3, #2
 251 0104 02D8     		bhi	.L14
 252              		.loc 1 110 0 is_stmt 0 discriminator 1
 253 0106 BB7D     		ldrb	r3, [r7, #22]	@ zero_extendqisi2
 254 0108 002B     		cmp	r3, #0
 255 010a 01D1     		bne	.L15
 256              	.L14:
 111:build/openmote-cc2538_armgcc/openapps/cjoin/cbor.c ****         return E_FAIL;  // unsupported join response structure
 257              		.loc 1 111 0 is_stmt 1
 258 010c 0123     		movs	r3, #1
 259 010e 2AE0     		b	.L19
 260              	.L15:
 112:build/openmote-cc2538_armgcc/openapps/cjoin/cbor.c ****     }
 113:build/openmote-cc2538_armgcc/openapps/cjoin/cbor.c **** 
 114:build/openmote-cc2538_armgcc/openapps/cjoin/cbor.c ****     tmp++;
 261              		.loc 1 114 0
 262 0110 BB69     		ldr	r3, [r7, #24]
 263 0112 0133     		adds	r3, r3, #1
 264 0114 BB61     		str	r3, [r7, #24]
 115:build/openmote-cc2538_armgcc/openapps/cjoin/cbor.c **** 
 116:build/openmote-cc2538_armgcc/openapps/cjoin/cbor.c ****     for(i = 0; i < additional_info; i++) {
 265              		.loc 1 116 0
 266 0116 0023     		movs	r3, #0
 267 0118 FB77     		strb	r3, [r7, #31]
 268 011a 19E0     		b	.L16
 269              	.L18:
 117:build/openmote-cc2538_armgcc/openapps/cjoin/cbor.c ****         // parse symmetric key map
 118:build/openmote-cc2538_armgcc/openapps/cjoin/cbor.c ****         if (cbor_parse_key(&keyset->key[i], tmp, &ret) == E_FAIL) {
 270              		.loc 1 118 0
 271 011c FA7F     		ldrb	r2, [r7, #31]	@ zero_extendqisi2
 272 011e 1346     		mov	r3, r2
 273 0120 DB00     		lsls	r3, r3, #3
 274 0122 1344     		add	r3, r3, r2
 275 0124 5B00     		lsls	r3, r3, #1
 276 0126 FA68     		ldr	r2, [r7, #12]
 277 0128 1344     		add	r3, r3, r2
 278 012a 07F11502 		add	r2, r7, #21
 279 012e B969     		ldr	r1, [r7, #24]
 280 0130 1846     		mov	r0, r3
 281 0132 FFF7FEFF 		bl	cbor_parse_key
 282 0136 0346     		mov	r3, r0
 283 0138 012B     		cmp	r3, #1
 284 013a 01D1     		bne	.L17
 119:build/openmote-cc2538_armgcc/openapps/cjoin/cbor.c ****             return E_FAIL;
 285              		.loc 1 119 0
 286 013c 0123     		movs	r3, #1
 287 013e 12E0     		b	.L19
 288              	.L17:
 120:build/openmote-cc2538_armgcc/openapps/cjoin/cbor.c ****         }
 121:build/openmote-cc2538_armgcc/openapps/cjoin/cbor.c ****         tmp += ret;
 289              		.loc 1 121 0 discriminator 2
 290 0140 7B7D     		ldrb	r3, [r7, #21]	@ zero_extendqisi2
 291 0142 1A46     		mov	r2, r3
 292 0144 BB69     		ldr	r3, [r7, #24]
 293 0146 1344     		add	r3, r3, r2
 294 0148 BB61     		str	r3, [r7, #24]
 116:build/openmote-cc2538_armgcc/openapps/cjoin/cbor.c ****         // parse symmetric key map
 295              		.loc 1 116 0 discriminator 2
 296 014a FB7F     		ldrb	r3, [r7, #31]	@ zero_extendqisi2
 297 014c 0133     		adds	r3, r3, #1
 298 014e FB77     		strb	r3, [r7, #31]
 299              	.L16:
 116:build/openmote-cc2538_armgcc/openapps/cjoin/cbor.c ****         // parse symmetric key map
 300              		.loc 1 116 0 is_stmt 0 discriminator 1
 301 0150 FA7F     		ldrb	r2, [r7, #31]	@ zero_extendqisi2
 302 0152 BB7D     		ldrb	r3, [r7, #22]	@ zero_extendqisi2
 303 0154 9A42     		cmp	r2, r3
 304 0156 E1D3     		bcc	.L18
 122:build/openmote-cc2538_armgcc/openapps/cjoin/cbor.c ****     }
 123:build/openmote-cc2538_armgcc/openapps/cjoin/cbor.c **** 
 124:build/openmote-cc2538_armgcc/openapps/cjoin/cbor.c ****     *len = (uint8_t) (tmp - buf);
 305              		.loc 1 124 0 is_stmt 1
 306 0158 BA69     		ldr	r2, [r7, #24]
 307 015a BB68     		ldr	r3, [r7, #8]
 308 015c D31A     		subs	r3, r2, r3
 309 015e DAB2     		uxtb	r2, r3
 310 0160 7B68     		ldr	r3, [r7, #4]
 311 0162 1A70     		strb	r2, [r3]
 125:build/openmote-cc2538_armgcc/openapps/cjoin/cbor.c ****     return E_SUCCESS;
 312              		.loc 1 125 0
 313 0164 0023     		movs	r3, #0
 314              	.L19:
 126:build/openmote-cc2538_armgcc/openapps/cjoin/cbor.c **** }
 315              		.loc 1 126 0 discriminator 1
 316 0166 1846     		mov	r0, r3
 317 0168 2037     		adds	r7, r7, #32
 318              		.cfi_def_cfa_offset 8
 319 016a BD46     		mov	sp, r7
 320              		.cfi_def_cfa_register 13
 321              		@ sp needed
 322 016c 80BD     		pop	{r7, pc}
 323              		.cfi_endproc
 324              	.LFE1:
 326 016e 00BF     		.align	2
 327              		.global	cbor_parse_key
 328              		.thumb
 329              		.thumb_func
 331              	cbor_parse_key:
 332              	.LFB2:
 127:build/openmote-cc2538_armgcc/openapps/cjoin/cbor.c **** 
 128:build/openmote-cc2538_armgcc/openapps/cjoin/cbor.c **** /**
 129:build/openmote-cc2538_armgcc/openapps/cjoin/cbor.c **** \brief Parse a COSE symmetric key.
 130:build/openmote-cc2538_armgcc/openapps/cjoin/cbor.c **** 
 131:build/openmote-cc2538_armgcc/openapps/cjoin/cbor.c **** The function expects COSE symmetric key as per minimal-security-02 draft
 132:build/openmote-cc2538_armgcc/openapps/cjoin/cbor.c **** and parses it into COSE_symmetric_key_t structure.
 133:build/openmote-cc2538_armgcc/openapps/cjoin/cbor.c **** 
 134:build/openmote-cc2538_armgcc/openapps/cjoin/cbor.c **** \param[out] key The COSE_symmetric_ket_t structure containing parsed key.
 135:build/openmote-cc2538_armgcc/openapps/cjoin/cbor.c **** \param[in] buf Input buffer.
 136:build/openmote-cc2538_armgcc/openapps/cjoin/cbor.c **** \param[out] len Processed length.
 137:build/openmote-cc2538_armgcc/openapps/cjoin/cbor.c **** */
 138:build/openmote-cc2538_armgcc/openapps/cjoin/cbor.c **** owerror_t cbor_parse_key(COSE_symmetric_key_t *key, uint8_t* buf, uint8_t* len) {
 333              		.loc 1 138 0
 334              		.cfi_startproc
 335              		@ args = 0, pretend = 0, frame = 32
 336              		@ frame_needed = 1, uses_anonymous_args = 0
 337 0170 80B5     		push	{r7, lr}
 338              		.cfi_def_cfa_offset 8
 339              		.cfi_offset 7, -8
 340              		.cfi_offset 14, -4
 341 0172 88B0     		sub	sp, sp, #32
 342              		.cfi_def_cfa_offset 40
 343 0174 00AF     		add	r7, sp, #0
 344              		.cfi_def_cfa_register 7
 345 0176 F860     		str	r0, [r7, #12]
 346 0178 B960     		str	r1, [r7, #8]
 347 017a 7A60     		str	r2, [r7, #4]
 139:build/openmote-cc2538_armgcc/openapps/cjoin/cbor.c **** 
 140:build/openmote-cc2538_armgcc/openapps/cjoin/cbor.c ****     cbor_majortype_t major_type;
 141:build/openmote-cc2538_armgcc/openapps/cjoin/cbor.c ****     uint8_t additional_info;
 142:build/openmote-cc2538_armgcc/openapps/cjoin/cbor.c ****     uint8_t i;
 143:build/openmote-cc2538_armgcc/openapps/cjoin/cbor.c ****     uint8_t *tmp;
 144:build/openmote-cc2538_armgcc/openapps/cjoin/cbor.c ****     uint8_t l;
 145:build/openmote-cc2538_armgcc/openapps/cjoin/cbor.c **** 
 146:build/openmote-cc2538_armgcc/openapps/cjoin/cbor.c ****     tmp = buf;
 348              		.loc 1 146 0
 349 017c BB68     		ldr	r3, [r7, #8]
 350 017e BB61     		str	r3, [r7, #24]
 147:build/openmote-cc2538_armgcc/openapps/cjoin/cbor.c ****     major_type = (cbor_majortype_t) *buf >> 5;
 351              		.loc 1 147 0
 352 0180 BB68     		ldr	r3, [r7, #8]
 353 0182 1B78     		ldrb	r3, [r3]	@ zero_extendqisi2
 354 0184 5B09     		lsrs	r3, r3, #5
 355 0186 FB75     		strb	r3, [r7, #23]
 148:build/openmote-cc2538_armgcc/openapps/cjoin/cbor.c ****     additional_info = *buf & CBOR_ADDINFO_MASK;
 356              		.loc 1 148 0
 357 0188 BB68     		ldr	r3, [r7, #8]
 358 018a 1B78     		ldrb	r3, [r3]	@ zero_extendqisi2
 359 018c 03F01F03 		and	r3, r3, #31
 360 0190 BB75     		strb	r3, [r7, #22]
 149:build/openmote-cc2538_armgcc/openapps/cjoin/cbor.c ****         
 150:build/openmote-cc2538_armgcc/openapps/cjoin/cbor.c ****     if (major_type != CBOR_MAJORTYPE_MAP) {
 361              		.loc 1 150 0
 362 0192 FB7D     		ldrb	r3, [r7, #23]	@ zero_extendqisi2
 363 0194 052B     		cmp	r3, #5
 364 0196 01D0     		beq	.L21
 151:build/openmote-cc2538_armgcc/openapps/cjoin/cbor.c ****         return E_FAIL;
 365              		.loc 1 151 0
 366 0198 0123     		movs	r3, #1
 367 019a D0E0     		b	.L22
 368              	.L21:
 152:build/openmote-cc2538_armgcc/openapps/cjoin/cbor.c ****     }
 153:build/openmote-cc2538_armgcc/openapps/cjoin/cbor.c **** 
 154:build/openmote-cc2538_armgcc/openapps/cjoin/cbor.c ****     if (additional_info > COSE_SYMKEY_MAXNUMPAIRS || additional_info == 0) {
 369              		.loc 1 154 0
 370 019c BB7D     		ldrb	r3, [r7, #22]	@ zero_extendqisi2
 371 019e 062B     		cmp	r3, #6
 372 01a0 02D8     		bhi	.L23
 373              		.loc 1 154 0 is_stmt 0 discriminator 1
 374 01a2 BB7D     		ldrb	r3, [r7, #22]	@ zero_extendqisi2
 375 01a4 002B     		cmp	r3, #0
 376 01a6 01D1     		bne	.L24
 377              	.L23:
 155:build/openmote-cc2538_armgcc/openapps/cjoin/cbor.c ****         return E_FAIL;  // unsupported join response structure
 378              		.loc 1 155 0 is_stmt 1
 379 01a8 0123     		movs	r3, #1
 380 01aa C8E0     		b	.L22
 381              	.L24:
 156:build/openmote-cc2538_armgcc/openapps/cjoin/cbor.c ****     }
 157:build/openmote-cc2538_armgcc/openapps/cjoin/cbor.c **** 
 158:build/openmote-cc2538_armgcc/openapps/cjoin/cbor.c ****     tmp++;
 382              		.loc 1 158 0
 383 01ac BB69     		ldr	r3, [r7, #24]
 384 01ae 0133     		adds	r3, r3, #1
 385 01b0 BB61     		str	r3, [r7, #24]
 159:build/openmote-cc2538_armgcc/openapps/cjoin/cbor.c **** 
 160:build/openmote-cc2538_armgcc/openapps/cjoin/cbor.c ****     for (i = 0; i < additional_info; i++) {
 386              		.loc 1 160 0
 387 01b2 0023     		movs	r3, #0
 388 01b4 FB77     		strb	r3, [r7, #31]
 389 01b6 B6E0     		b	.L25
 390              	.L37:
 161:build/openmote-cc2538_armgcc/openapps/cjoin/cbor.c ****         switch((cose_key_label_t) *tmp) {
 391              		.loc 1 161 0
 392 01b8 BB69     		ldr	r3, [r7, #24]
 393 01ba 1B78     		ldrb	r3, [r3]	@ zero_extendqisi2
 394 01bc 013B     		subs	r3, r3, #1
 395 01be 1F2B     		cmp	r3, #31
 396 01c0 00F2AC80 		bhi	.L26
 397 01c4 01A2     		adr	r2, .L28
 398 01c6 52F823F0 		ldr	pc, [r2, r3, lsl #2]
 399 01ca 00BF     		.p2align 2
 400              	.L28:
 401 01cc 4D020000 		.word	.L27+1
 402 01d0 71020000 		.word	.L29+1
 403 01d4 63020000 		.word	.L30+1
 404 01d8 FD020000 		.word	.L31+1
 405 01dc DD020000 		.word	.L32+1
 406 01e0 1D030000 		.word	.L26+1
 407 01e4 1D030000 		.word	.L26+1
 408 01e8 1D030000 		.word	.L26+1
 409 01ec 1D030000 		.word	.L26+1
 410 01f0 1D030000 		.word	.L26+1
 411 01f4 1D030000 		.word	.L26+1
 412 01f8 1D030000 		.word	.L26+1
 413 01fc 1D030000 		.word	.L26+1
 414 0200 1D030000 		.word	.L26+1
 415 0204 1D030000 		.word	.L26+1
 416 0208 1D030000 		.word	.L26+1
 417 020c 1D030000 		.word	.L26+1
 418 0210 1D030000 		.word	.L26+1
 419 0214 1D030000 		.word	.L26+1
 420 0218 1D030000 		.word	.L26+1
 421 021c 1D030000 		.word	.L26+1
 422 0220 1D030000 		.word	.L26+1
 423 0224 1D030000 		.word	.L26+1
 424 0228 1D030000 		.word	.L26+1
 425 022c 1D030000 		.word	.L26+1
 426 0230 1D030000 		.word	.L26+1
 427 0234 1D030000 		.word	.L26+1
 428 0238 1D030000 		.word	.L26+1
 429 023c 1D030000 		.word	.L26+1
 430 0240 1D030000 		.word	.L26+1
 431 0244 1D030000 		.word	.L26+1
 432 0248 A5020000 		.word	.L33+1
 433              		.p2align 1
 434              	.L27:
 162:build/openmote-cc2538_armgcc/openapps/cjoin/cbor.c ****             case COSE_KEY_LABEL_KTY:
 163:build/openmote-cc2538_armgcc/openapps/cjoin/cbor.c ****                 tmp++;
 435              		.loc 1 163 0
 436 024c BB69     		ldr	r3, [r7, #24]
 437 024e 0133     		adds	r3, r3, #1
 438 0250 BB61     		str	r3, [r7, #24]
 164:build/openmote-cc2538_armgcc/openapps/cjoin/cbor.c ****                 key->kty = (cose_key_value_t) *tmp;
 439              		.loc 1 164 0
 440 0252 BB69     		ldr	r3, [r7, #24]
 441 0254 1A78     		ldrb	r2, [r3]	@ zero_extendqisi2
 442 0256 FB68     		ldr	r3, [r7, #12]
 443 0258 1A70     		strb	r2, [r3]
 165:build/openmote-cc2538_armgcc/openapps/cjoin/cbor.c ****                 tmp++;
 444              		.loc 1 165 0
 445 025a BB69     		ldr	r3, [r7, #24]
 446 025c 0133     		adds	r3, r3, #1
 447 025e BB61     		str	r3, [r7, #24]
 166:build/openmote-cc2538_armgcc/openapps/cjoin/cbor.c ****                 break;
 448              		.loc 1 166 0
 449 0260 5EE0     		b	.L34
 450              	.L30:
 167:build/openmote-cc2538_armgcc/openapps/cjoin/cbor.c ****             case COSE_KEY_LABEL_ALG: // step by key alg
 168:build/openmote-cc2538_armgcc/openapps/cjoin/cbor.c ****                 tmp++;
 451              		.loc 1 168 0
 452 0262 BB69     		ldr	r3, [r7, #24]
 453 0264 0133     		adds	r3, r3, #1
 454 0266 BB61     		str	r3, [r7, #24]
 169:build/openmote-cc2538_armgcc/openapps/cjoin/cbor.c ****                 tmp++;
 455              		.loc 1 169 0
 456 0268 BB69     		ldr	r3, [r7, #24]
 457 026a 0133     		adds	r3, r3, #1
 458 026c BB61     		str	r3, [r7, #24]
 170:build/openmote-cc2538_armgcc/openapps/cjoin/cbor.c ****                 break;
 459              		.loc 1 170 0
 460 026e 57E0     		b	.L34
 461              	.L29:
 171:build/openmote-cc2538_armgcc/openapps/cjoin/cbor.c ****             case COSE_KEY_LABEL_KID:
 172:build/openmote-cc2538_armgcc/openapps/cjoin/cbor.c ****                 tmp++;
 462              		.loc 1 172 0
 463 0270 BB69     		ldr	r3, [r7, #24]
 464 0272 0133     		adds	r3, r3, #1
 465 0274 BB61     		str	r3, [r7, #24]
 173:build/openmote-cc2538_armgcc/openapps/cjoin/cbor.c ****                 l = *tmp & CBOR_ADDINFO_MASK;
 466              		.loc 1 173 0
 467 0276 BB69     		ldr	r3, [r7, #24]
 468 0278 1B78     		ldrb	r3, [r3]	@ zero_extendqisi2
 469 027a 03F01F03 		and	r3, r3, #31
 470 027e 7B75     		strb	r3, [r7, #21]
 174:build/openmote-cc2538_armgcc/openapps/cjoin/cbor.c ****                 if (l != COSE_SYMKEY_KEYID_LENGTH) {
 471              		.loc 1 174 0
 472 0280 7B7D     		ldrb	r3, [r7, #21]	@ zero_extendqisi2
 473 0282 012B     		cmp	r3, #1
 474 0284 01D0     		beq	.L35
 175:build/openmote-cc2538_armgcc/openapps/cjoin/cbor.c ****                     return E_FAIL;
 475              		.loc 1 175 0
 476 0286 0123     		movs	r3, #1
 477 0288 59E0     		b	.L22
 478              	.L35:
 176:build/openmote-cc2538_armgcc/openapps/cjoin/cbor.c ****                 }
 177:build/openmote-cc2538_armgcc/openapps/cjoin/cbor.c ****                 tmp++;
 479              		.loc 1 177 0
 480 028a BB69     		ldr	r3, [r7, #24]
 481 028c 0133     		adds	r3, r3, #1
 482 028e BB61     		str	r3, [r7, #24]
 178:build/openmote-cc2538_armgcc/openapps/cjoin/cbor.c ****                 memcpy(key->kid, tmp, COSE_SYMKEY_KEYID_LENGTH);
 483              		.loc 1 178 0
 484 0290 FB68     		ldr	r3, [r7, #12]
 485 0292 0133     		adds	r3, r3, #1
 486 0294 BA69     		ldr	r2, [r7, #24]
 487 0296 1278     		ldrb	r2, [r2]	@ zero_extendqisi2
 488 0298 1A70     		strb	r2, [r3]
 179:build/openmote-cc2538_armgcc/openapps/cjoin/cbor.c ****                 tmp += l;
 489              		.loc 1 179 0
 490 029a 7B7D     		ldrb	r3, [r7, #21]	@ zero_extendqisi2
 491 029c BA69     		ldr	r2, [r7, #24]
 492 029e 1344     		add	r3, r3, r2
 493 02a0 BB61     		str	r3, [r7, #24]
 180:build/openmote-cc2538_armgcc/openapps/cjoin/cbor.c ****                 break;
 494              		.loc 1 180 0
 495 02a2 3DE0     		b	.L34
 496              	.L33:
 181:build/openmote-cc2538_armgcc/openapps/cjoin/cbor.c ****             case COSE_KEY_LABEL_K:
 182:build/openmote-cc2538_armgcc/openapps/cjoin/cbor.c ****                 tmp++;
 497              		.loc 1 182 0
 498 02a4 BB69     		ldr	r3, [r7, #24]
 499 02a6 0133     		adds	r3, r3, #1
 500 02a8 BB61     		str	r3, [r7, #24]
 183:build/openmote-cc2538_armgcc/openapps/cjoin/cbor.c ****                 l = *tmp & CBOR_ADDINFO_MASK;
 501              		.loc 1 183 0
 502 02aa BB69     		ldr	r3, [r7, #24]
 503 02ac 1B78     		ldrb	r3, [r3]	@ zero_extendqisi2
 504 02ae 03F01F03 		and	r3, r3, #31
 505 02b2 7B75     		strb	r3, [r7, #21]
 184:build/openmote-cc2538_armgcc/openapps/cjoin/cbor.c ****                 if (l!= COSE_SYMKEY_LENGTH) {
 506              		.loc 1 184 0
 507 02b4 7B7D     		ldrb	r3, [r7, #21]	@ zero_extendqisi2
 508 02b6 102B     		cmp	r3, #16
 509 02b8 01D0     		beq	.L36
 185:build/openmote-cc2538_armgcc/openapps/cjoin/cbor.c ****                     return E_FAIL;
 510              		.loc 1 185 0
 511 02ba 0123     		movs	r3, #1
 512 02bc 3FE0     		b	.L22
 513              	.L36:
 186:build/openmote-cc2538_armgcc/openapps/cjoin/cbor.c ****                 }
 187:build/openmote-cc2538_armgcc/openapps/cjoin/cbor.c ****                 tmp++;
 514              		.loc 1 187 0
 515 02be BB69     		ldr	r3, [r7, #24]
 516 02c0 0133     		adds	r3, r3, #1
 517 02c2 BB61     		str	r3, [r7, #24]
 188:build/openmote-cc2538_armgcc/openapps/cjoin/cbor.c ****                 memcpy(key->k, tmp, COSE_SYMKEY_LENGTH);
 518              		.loc 1 188 0
 519 02c4 FB68     		ldr	r3, [r7, #12]
 520 02c6 0233     		adds	r3, r3, #2
 521 02c8 1022     		movs	r2, #16
 522 02ca B969     		ldr	r1, [r7, #24]
 523 02cc 1846     		mov	r0, r3
 524 02ce FFF7FEFF 		bl	memcpy
 189:build/openmote-cc2538_armgcc/openapps/cjoin/cbor.c ****                 tmp += l;
 525              		.loc 1 189 0
 526 02d2 7B7D     		ldrb	r3, [r7, #21]	@ zero_extendqisi2
 527 02d4 BA69     		ldr	r2, [r7, #24]
 528 02d6 1344     		add	r3, r3, r2
 529 02d8 BB61     		str	r3, [r7, #24]
 190:build/openmote-cc2538_armgcc/openapps/cjoin/cbor.c ****                 break;
 530              		.loc 1 190 0
 531 02da 21E0     		b	.L34
 532              	.L32:
 191:build/openmote-cc2538_armgcc/openapps/cjoin/cbor.c ****             case COSE_KEY_LABEL_BASEIV:   // step by base iv
 192:build/openmote-cc2538_armgcc/openapps/cjoin/cbor.c ****                 tmp++;
 533              		.loc 1 192 0
 534 02dc BB69     		ldr	r3, [r7, #24]
 535 02de 0133     		adds	r3, r3, #1
 536 02e0 BB61     		str	r3, [r7, #24]
 193:build/openmote-cc2538_armgcc/openapps/cjoin/cbor.c ****                 l = *tmp & CBOR_ADDINFO_MASK;
 537              		.loc 1 193 0
 538 02e2 BB69     		ldr	r3, [r7, #24]
 539 02e4 1B78     		ldrb	r3, [r3]	@ zero_extendqisi2
 540 02e6 03F01F03 		and	r3, r3, #31
 541 02ea 7B75     		strb	r3, [r7, #21]
 194:build/openmote-cc2538_armgcc/openapps/cjoin/cbor.c ****                 tmp++;
 542              		.loc 1 194 0
 543 02ec BB69     		ldr	r3, [r7, #24]
 544 02ee 0133     		adds	r3, r3, #1
 545 02f0 BB61     		str	r3, [r7, #24]
 195:build/openmote-cc2538_armgcc/openapps/cjoin/cbor.c ****                 tmp += l;
 546              		.loc 1 195 0
 547 02f2 7B7D     		ldrb	r3, [r7, #21]	@ zero_extendqisi2
 548 02f4 BA69     		ldr	r2, [r7, #24]
 549 02f6 1344     		add	r3, r3, r2
 550 02f8 BB61     		str	r3, [r7, #24]
 196:build/openmote-cc2538_armgcc/openapps/cjoin/cbor.c ****                 break;
 551              		.loc 1 196 0
 552 02fa 11E0     		b	.L34
 553              	.L31:
 197:build/openmote-cc2538_armgcc/openapps/cjoin/cbor.c ****             case COSE_KEY_LABEL_KEYOPS: // step by key ops
 198:build/openmote-cc2538_armgcc/openapps/cjoin/cbor.c ****                 tmp++;
 554              		.loc 1 198 0
 555 02fc BB69     		ldr	r3, [r7, #24]
 556 02fe 0133     		adds	r3, r3, #1
 557 0300 BB61     		str	r3, [r7, #24]
 199:build/openmote-cc2538_armgcc/openapps/cjoin/cbor.c ****                 l = *tmp & CBOR_ADDINFO_MASK;
 558              		.loc 1 199 0
 559 0302 BB69     		ldr	r3, [r7, #24]
 560 0304 1B78     		ldrb	r3, [r3]	@ zero_extendqisi2
 561 0306 03F01F03 		and	r3, r3, #31
 562 030a 7B75     		strb	r3, [r7, #21]
 200:build/openmote-cc2538_armgcc/openapps/cjoin/cbor.c ****                 tmp++;
 563              		.loc 1 200 0
 564 030c BB69     		ldr	r3, [r7, #24]
 565 030e 0133     		adds	r3, r3, #1
 566 0310 BB61     		str	r3, [r7, #24]
 201:build/openmote-cc2538_armgcc/openapps/cjoin/cbor.c ****                 tmp += l;
 567              		.loc 1 201 0
 568 0312 7B7D     		ldrb	r3, [r7, #21]	@ zero_extendqisi2
 569 0314 BA69     		ldr	r2, [r7, #24]
 570 0316 1344     		add	r3, r3, r2
 571 0318 BB61     		str	r3, [r7, #24]
 202:build/openmote-cc2538_armgcc/openapps/cjoin/cbor.c ****                 break;
 572              		.loc 1 202 0
 573 031a 01E0     		b	.L34
 574              	.L26:
 203:build/openmote-cc2538_armgcc/openapps/cjoin/cbor.c ****             default:
 204:build/openmote-cc2538_armgcc/openapps/cjoin/cbor.c ****                 return E_FAIL;
 575              		.loc 1 204 0
 576 031c 0123     		movs	r3, #1
 577 031e 0EE0     		b	.L22
 578              	.L34:
 160:build/openmote-cc2538_armgcc/openapps/cjoin/cbor.c ****         switch((cose_key_label_t) *tmp) {
 579              		.loc 1 160 0 discriminator 2
 580 0320 FB7F     		ldrb	r3, [r7, #31]	@ zero_extendqisi2
 581 0322 0133     		adds	r3, r3, #1
 582 0324 FB77     		strb	r3, [r7, #31]
 583              	.L25:
 160:build/openmote-cc2538_armgcc/openapps/cjoin/cbor.c ****         switch((cose_key_label_t) *tmp) {
 584              		.loc 1 160 0 is_stmt 0 discriminator 1
 585 0326 FA7F     		ldrb	r2, [r7, #31]	@ zero_extendqisi2
 586 0328 BB7D     		ldrb	r3, [r7, #22]	@ zero_extendqisi2
 587 032a 9A42     		cmp	r2, r3
 588 032c FFF444AF 		bcc	.L37
 205:build/openmote-cc2538_armgcc/openapps/cjoin/cbor.c ****         }
 206:build/openmote-cc2538_armgcc/openapps/cjoin/cbor.c ****     }
 207:build/openmote-cc2538_armgcc/openapps/cjoin/cbor.c **** 
 208:build/openmote-cc2538_armgcc/openapps/cjoin/cbor.c ****     *len = (uint8_t) (tmp - buf);
 589              		.loc 1 208 0 is_stmt 1
 590 0330 BA69     		ldr	r2, [r7, #24]
 591 0332 BB68     		ldr	r3, [r7, #8]
 592 0334 D31A     		subs	r3, r2, r3
 593 0336 DAB2     		uxtb	r2, r3
 594 0338 7B68     		ldr	r3, [r7, #4]
 595 033a 1A70     		strb	r2, [r3]
 209:build/openmote-cc2538_armgcc/openapps/cjoin/cbor.c ****     return E_SUCCESS;
 596              		.loc 1 209 0
 597 033c 0023     		movs	r3, #0
 598              	.L22:
 210:build/openmote-cc2538_armgcc/openapps/cjoin/cbor.c **** }
 599              		.loc 1 210 0
 600 033e 1846     		mov	r0, r3
 601 0340 2037     		adds	r7, r7, #32
 602              		.cfi_def_cfa_offset 8
 603 0342 BD46     		mov	sp, r7
 604              		.cfi_def_cfa_register 13
 605              		@ sp needed
 606 0344 80BD     		pop	{r7, pc}
 607              		.cfi_endproc
 608              	.LFE2:
 610 0346 00BF     		.align	2
 611              		.global	cbor_parse_short_address
 612              		.thumb
 613              		.thumb_func
 615              	cbor_parse_short_address:
 616              	.LFB3:
 211:build/openmote-cc2538_armgcc/openapps/cjoin/cbor.c **** 
 212:build/openmote-cc2538_armgcc/openapps/cjoin/cbor.c **** /**
 213:build/openmote-cc2538_armgcc/openapps/cjoin/cbor.c **** \brief Parse the received short address.
 214:build/openmote-cc2538_armgcc/openapps/cjoin/cbor.c **** 
 215:build/openmote-cc2538_armgcc/openapps/cjoin/cbor.c **** The function expects short_address as per minimal-security-02 draft
 216:build/openmote-cc2538_armgcc/openapps/cjoin/cbor.c **** and parses it into short_address_t structure.
 217:build/openmote-cc2538_armgcc/openapps/cjoin/cbor.c **** 
 218:build/openmote-cc2538_armgcc/openapps/cjoin/cbor.c **** \param[out] address The short_address_t structure containing parsed short_address and lease time.
 219:build/openmote-cc2538_armgcc/openapps/cjoin/cbor.c **** \param[in] buf Input buffer.
 220:build/openmote-cc2538_armgcc/openapps/cjoin/cbor.c **** \param[out] len Processed length.
 221:build/openmote-cc2538_armgcc/openapps/cjoin/cbor.c **** */
 222:build/openmote-cc2538_armgcc/openapps/cjoin/cbor.c **** owerror_t cbor_parse_short_address(short_address_t *short_address, uint8_t *buf, uint8_t* len) {
 617              		.loc 1 222 0
 618              		.cfi_startproc
 619              		@ args = 0, pretend = 0, frame = 24
 620              		@ frame_needed = 1, uses_anonymous_args = 0
 621 0348 80B5     		push	{r7, lr}
 622              		.cfi_def_cfa_offset 8
 623              		.cfi_offset 7, -8
 624              		.cfi_offset 14, -4
 625 034a 86B0     		sub	sp, sp, #24
 626              		.cfi_def_cfa_offset 32
 627 034c 00AF     		add	r7, sp, #0
 628              		.cfi_def_cfa_register 7
 629 034e F860     		str	r0, [r7, #12]
 630 0350 B960     		str	r1, [r7, #8]
 631 0352 7A60     		str	r2, [r7, #4]
 223:build/openmote-cc2538_armgcc/openapps/cjoin/cbor.c ****     
 224:build/openmote-cc2538_armgcc/openapps/cjoin/cbor.c ****     cbor_majortype_t major_type;
 225:build/openmote-cc2538_armgcc/openapps/cjoin/cbor.c ****     uint8_t additional_info;
 226:build/openmote-cc2538_armgcc/openapps/cjoin/cbor.c ****     uint8_t *tmp;
 227:build/openmote-cc2538_armgcc/openapps/cjoin/cbor.c ****     uint8_t l;
 228:build/openmote-cc2538_armgcc/openapps/cjoin/cbor.c **** 
 229:build/openmote-cc2538_armgcc/openapps/cjoin/cbor.c ****     tmp = buf;
 632              		.loc 1 229 0
 633 0354 BB68     		ldr	r3, [r7, #8]
 634 0356 7B61     		str	r3, [r7, #20]
 230:build/openmote-cc2538_armgcc/openapps/cjoin/cbor.c ****     major_type = (cbor_majortype_t) *buf >> 5;
 635              		.loc 1 230 0
 636 0358 BB68     		ldr	r3, [r7, #8]
 637 035a 1B78     		ldrb	r3, [r3]	@ zero_extendqisi2
 638 035c 5B09     		lsrs	r3, r3, #5
 639 035e FB74     		strb	r3, [r7, #19]
 231:build/openmote-cc2538_armgcc/openapps/cjoin/cbor.c ****     additional_info = *buf & CBOR_ADDINFO_MASK;
 640              		.loc 1 231 0
 641 0360 BB68     		ldr	r3, [r7, #8]
 642 0362 1B78     		ldrb	r3, [r3]	@ zero_extendqisi2
 643 0364 03F01F03 		and	r3, r3, #31
 644 0368 BB74     		strb	r3, [r7, #18]
 232:build/openmote-cc2538_armgcc/openapps/cjoin/cbor.c ****         
 233:build/openmote-cc2538_armgcc/openapps/cjoin/cbor.c ****     if (major_type != CBOR_MAJORTYPE_ARRAY) {
 645              		.loc 1 233 0
 646 036a FB7C     		ldrb	r3, [r7, #19]	@ zero_extendqisi2
 647 036c 042B     		cmp	r3, #4
 648 036e 01D0     		beq	.L39
 234:build/openmote-cc2538_armgcc/openapps/cjoin/cbor.c ****         return E_FAIL;
 649              		.loc 1 234 0
 650 0370 0123     		movs	r3, #1
 651 0372 5DE0     		b	.L40
 652              	.L39:
 235:build/openmote-cc2538_armgcc/openapps/cjoin/cbor.c ****     }
 236:build/openmote-cc2538_armgcc/openapps/cjoin/cbor.c **** 
 237:build/openmote-cc2538_armgcc/openapps/cjoin/cbor.c ****     if (additional_info > 2 || additional_info == 0) {
 653              		.loc 1 237 0
 654 0374 BB7C     		ldrb	r3, [r7, #18]	@ zero_extendqisi2
 655 0376 022B     		cmp	r3, #2
 656 0378 02D8     		bhi	.L41
 657              		.loc 1 237 0 is_stmt 0 discriminator 1
 658 037a BB7C     		ldrb	r3, [r7, #18]	@ zero_extendqisi2
 659 037c 002B     		cmp	r3, #0
 660 037e 01D1     		bne	.L42
 661              	.L41:
 238:build/openmote-cc2538_armgcc/openapps/cjoin/cbor.c ****         return E_FAIL;  // unsupported join response structure
 662              		.loc 1 238 0 is_stmt 1
 663 0380 0123     		movs	r3, #1
 664 0382 55E0     		b	.L40
 665              	.L42:
 239:build/openmote-cc2538_armgcc/openapps/cjoin/cbor.c ****     }
 240:build/openmote-cc2538_armgcc/openapps/cjoin/cbor.c **** 
 241:build/openmote-cc2538_armgcc/openapps/cjoin/cbor.c ****     tmp++;
 666              		.loc 1 241 0
 667 0384 7B69     		ldr	r3, [r7, #20]
 668 0386 0133     		adds	r3, r3, #1
 669 0388 7B61     		str	r3, [r7, #20]
 242:build/openmote-cc2538_armgcc/openapps/cjoin/cbor.c ****     l = *tmp & CBOR_ADDINFO_MASK;
 670              		.loc 1 242 0
 671 038a 7B69     		ldr	r3, [r7, #20]
 672 038c 1B78     		ldrb	r3, [r3]	@ zero_extendqisi2
 673 038e 03F01F03 		and	r3, r3, #31
 674 0392 7B74     		strb	r3, [r7, #17]
 243:build/openmote-cc2538_armgcc/openapps/cjoin/cbor.c ****     
 244:build/openmote-cc2538_armgcc/openapps/cjoin/cbor.c ****     if (l != SHORT_ADDRESS_LENGTH) {
 675              		.loc 1 244 0
 676 0394 7B7C     		ldrb	r3, [r7, #17]	@ zero_extendqisi2
 677 0396 022B     		cmp	r3, #2
 678 0398 01D0     		beq	.L43
 245:build/openmote-cc2538_armgcc/openapps/cjoin/cbor.c ****         return E_FAIL;
 679              		.loc 1 245 0
 680 039a 0123     		movs	r3, #1
 681 039c 48E0     		b	.L40
 682              	.L43:
 246:build/openmote-cc2538_armgcc/openapps/cjoin/cbor.c ****     }
 247:build/openmote-cc2538_armgcc/openapps/cjoin/cbor.c **** 
 248:build/openmote-cc2538_armgcc/openapps/cjoin/cbor.c ****     tmp++;
 683              		.loc 1 248 0
 684 039e 7B69     		ldr	r3, [r7, #20]
 685 03a0 0133     		adds	r3, r3, #1
 686 03a2 7B61     		str	r3, [r7, #20]
 249:build/openmote-cc2538_armgcc/openapps/cjoin/cbor.c ****     memcpy(short_address->address, tmp, SHORT_ADDRESS_LENGTH);
 687              		.loc 1 249 0
 688 03a4 FB68     		ldr	r3, [r7, #12]
 689 03a6 0222     		movs	r2, #2
 690 03a8 7969     		ldr	r1, [r7, #20]
 691 03aa 1846     		mov	r0, r3
 692 03ac FFF7FEFF 		bl	memcpy
 250:build/openmote-cc2538_armgcc/openapps/cjoin/cbor.c **** 
 251:build/openmote-cc2538_armgcc/openapps/cjoin/cbor.c ****     tmp += l;
 693              		.loc 1 251 0
 694 03b0 7B7C     		ldrb	r3, [r7, #17]	@ zero_extendqisi2
 695 03b2 7A69     		ldr	r2, [r7, #20]
 696 03b4 1344     		add	r3, r3, r2
 697 03b6 7B61     		str	r3, [r7, #20]
 252:build/openmote-cc2538_armgcc/openapps/cjoin/cbor.c **** 
 253:build/openmote-cc2538_armgcc/openapps/cjoin/cbor.c ****     if (additional_info == 2) { // lease time present
 698              		.loc 1 253 0
 699 03b8 BB7C     		ldrb	r3, [r7, #18]	@ zero_extendqisi2
 700 03ba 022B     		cmp	r3, #2
 701 03bc 31D1     		bne	.L44
 254:build/openmote-cc2538_armgcc/openapps/cjoin/cbor.c ****         l = *tmp & CBOR_ADDINFO_MASK;
 702              		.loc 1 254 0
 703 03be 7B69     		ldr	r3, [r7, #20]
 704 03c0 1B78     		ldrb	r3, [r3]	@ zero_extendqisi2
 705 03c2 03F01F03 		and	r3, r3, #31
 706 03c6 7B74     		strb	r3, [r7, #17]
 255:build/openmote-cc2538_armgcc/openapps/cjoin/cbor.c ****         if (l != ASN_LENGTH) { // 5 byte ASN expected
 707              		.loc 1 255 0
 708 03c8 7B7C     		ldrb	r3, [r7, #17]	@ zero_extendqisi2
 709 03ca 052B     		cmp	r3, #5
 710 03cc 01D0     		beq	.L45
 256:build/openmote-cc2538_armgcc/openapps/cjoin/cbor.c ****             return E_FAIL;
 711              		.loc 1 256 0
 712 03ce 0123     		movs	r3, #1
 713 03d0 2EE0     		b	.L40
 714              	.L45:
 257:build/openmote-cc2538_armgcc/openapps/cjoin/cbor.c ****         }
 258:build/openmote-cc2538_armgcc/openapps/cjoin/cbor.c ****         tmp++;
 715              		.loc 1 258 0
 716 03d2 7B69     		ldr	r3, [r7, #20]
 717 03d4 0133     		adds	r3, r3, #1
 718 03d6 7B61     		str	r3, [r7, #20]
 259:build/openmote-cc2538_armgcc/openapps/cjoin/cbor.c ****         
 260:build/openmote-cc2538_armgcc/openapps/cjoin/cbor.c ****         // ASN is in network byte order
 261:build/openmote-cc2538_armgcc/openapps/cjoin/cbor.c ****         (short_address->lease_asn).byte4                = tmp[0]; 
 719              		.loc 1 261 0
 720 03d8 7B69     		ldr	r3, [r7, #20]
 721 03da 1A78     		ldrb	r2, [r3]	@ zero_extendqisi2
 722 03dc FB68     		ldr	r3, [r7, #12]
 723 03de 9A70     		strb	r2, [r3, #2]
 262:build/openmote-cc2538_armgcc/openapps/cjoin/cbor.c ****         (short_address->lease_asn).bytes2and3           = ((uint16_t) tmp[1] << 8) | ((uint16_t) tm
 724              		.loc 1 262 0
 725 03e0 7B69     		ldr	r3, [r7, #20]
 726 03e2 0133     		adds	r3, r3, #1
 727 03e4 1B78     		ldrb	r3, [r3]	@ zero_extendqisi2
 728 03e6 1B02     		lsls	r3, r3, #8
 729 03e8 1AB2     		sxth	r2, r3
 730 03ea 7B69     		ldr	r3, [r7, #20]
 731 03ec 0233     		adds	r3, r3, #2
 732 03ee 1B78     		ldrb	r3, [r3]	@ zero_extendqisi2
 733 03f0 1BB2     		sxth	r3, r3
 734 03f2 1343     		orrs	r3, r3, r2
 735 03f4 1BB2     		sxth	r3, r3
 736 03f6 9AB2     		uxth	r2, r3
 737 03f8 FB68     		ldr	r3, [r7, #12]
 738 03fa A3F80320 		strh	r2, [r3, #3]	@ unaligned
 263:build/openmote-cc2538_armgcc/openapps/cjoin/cbor.c ****         (short_address->lease_asn).bytes0and1           = ((uint16_t) tmp[3] << 8) | ((uint16_t) tm
 739              		.loc 1 263 0
 740 03fe 7B69     		ldr	r3, [r7, #20]
 741 0400 0333     		adds	r3, r3, #3
 742 0402 1B78     		ldrb	r3, [r3]	@ zero_extendqisi2
 743 0404 1B02     		lsls	r3, r3, #8
 744 0406 1AB2     		sxth	r2, r3
 745 0408 7B69     		ldr	r3, [r7, #20]
 746 040a 0433     		adds	r3, r3, #4
 747 040c 1B78     		ldrb	r3, [r3]	@ zero_extendqisi2
 748 040e 1BB2     		sxth	r3, r3
 749 0410 1343     		orrs	r3, r3, r2
 750 0412 1BB2     		sxth	r3, r3
 751 0414 9AB2     		uxth	r2, r3
 752 0416 FB68     		ldr	r3, [r7, #12]
 753 0418 A3F80520 		strh	r2, [r3, #5]	@ unaligned
 264:build/openmote-cc2538_armgcc/openapps/cjoin/cbor.c **** 
 265:build/openmote-cc2538_armgcc/openapps/cjoin/cbor.c ****         tmp += ASN_LENGTH;
 754              		.loc 1 265 0
 755 041c 7B69     		ldr	r3, [r7, #20]
 756 041e 0533     		adds	r3, r3, #5
 757 0420 7B61     		str	r3, [r7, #20]
 758              	.L44:
 266:build/openmote-cc2538_armgcc/openapps/cjoin/cbor.c ****     }
 267:build/openmote-cc2538_armgcc/openapps/cjoin/cbor.c **** 
 268:build/openmote-cc2538_armgcc/openapps/cjoin/cbor.c ****     *len = (uint8_t) (tmp - buf);
 759              		.loc 1 268 0
 760 0422 7A69     		ldr	r2, [r7, #20]
 761 0424 BB68     		ldr	r3, [r7, #8]
 762 0426 D31A     		subs	r3, r2, r3
 763 0428 DAB2     		uxtb	r2, r3
 764 042a 7B68     		ldr	r3, [r7, #4]
 765 042c 1A70     		strb	r2, [r3]
 269:build/openmote-cc2538_armgcc/openapps/cjoin/cbor.c ****     return E_SUCCESS;
 766              		.loc 1 269 0
 767 042e 0023     		movs	r3, #0
 768              	.L40:
 270:build/openmote-cc2538_armgcc/openapps/cjoin/cbor.c **** }
 769              		.loc 1 270 0
 770 0430 1846     		mov	r0, r3
 771 0432 1837     		adds	r7, r7, #24
 772              		.cfi_def_cfa_offset 8
 773 0434 BD46     		mov	sp, r7
 774              		.cfi_def_cfa_register 13
 775              		@ sp needed
 776 0436 80BD     		pop	{r7, pc}
 777              		.cfi_endproc
 778              	.LFE3:
 780              	.Letext0:
 781              		.file 2 "/usr/include/newlib/machine/_default_types.h"
 782              		.file 3 "/usr/include/newlib/sys/_stdint.h"
 783              		.file 4 "inc/opendefs.h"
 784              		.file 5 "build/openmote-cc2538_armgcc/openapps/cjoin/cbor.h"
 785              		.file 6 "bsp/boards/openmote-cc2538/board_info.h"