   1              		.syntax unified
   2              		.cpu cortex-m3
   3              		.fpu softvfp
   4              		.eabi_attribute 20, 1
   5              		.eabi_attribute 21, 1
   6              		.eabi_attribute 23, 3
   7              		.eabi_attribute 24, 1
   8              		.eabi_attribute 25, 1
   9              		.eabi_attribute 26, 1
  10              		.eabi_attribute 30, 6
  11              		.eabi_attribute 34, 1
  12              		.eabi_attribute 18, 4
  13              		.thumb
  14              		.syntax unified
  15              		.file	"iphc.c"
  16              		.text
  17              	.Ltext0:
  18              		.cfi_sections	.debug_frame
  19              		.section	.rodata
  20              		.align	2
  23              	rreg_uriquery:
  24 0000 683D7563 		.ascii	"h=ucb\000"
  24      6200
  25 0006 0000     		.align	2
  28              	infoBoardname:
  29 0008 43433235 		.ascii	"CC2538\000"
  29      333800
  30 000f 00       		.align	2
  33              	infouCName:
  34 0010 43433235 		.ascii	"CC2538\000"
  34      333800
  35 0017 00       		.align	2
  38              	infoRadioName:
  39 0018 43433235 		.ascii	"CC2538 SoC\000"
  39      33382053 
  39      6F4300
  40 0023 00       		.align	2
  43              	infoStackName:
  44 0024 4F70656E 		.ascii	"OpenWSN \000"
  44      57534E20 
  44      00
  45 002d 000000   		.align	2
  48              	linklocalprefix:
  49 0030 FE       		.byte	-2
  50 0031 80       		.byte	-128
  51 0032 00       		.byte	0
  52 0033 00       		.byte	0
  53 0034 00       		.byte	0
  54 0035 00       		.byte	0
  55 0036 00       		.byte	0
  56 0037 00       		.byte	0
  57              		.align	2
  60              	chTemplate_default:
  61 0038 05       		.byte	5
  62 0039 06       		.byte	6
  63 003a 0C       		.byte	12
  64 003b 07       		.byte	7
  65 003c 0F       		.byte	15
  66 003d 04       		.byte	4
  67 003e 0E       		.byte	14
  68 003f 0B       		.byte	11
  69 0040 08       		.byte	8
  70 0041 00       		.byte	0
  71 0042 01       		.byte	1
  72 0043 02       		.byte	2
  73 0044 0D       		.byte	13
  74 0045 03       		.byte	3
  75 0046 09       		.byte	9
  76 0047 0A       		.byte	10
  77              		.align	2
  80              	ebIEsBytestream:
  81 0048 1A       		.byte	26
  82 0049 88       		.byte	-120
  83 004a 06       		.byte	6
  84 004b 1A       		.byte	26
  85 004c 00       		.byte	0
  86 004d 00       		.byte	0
  87 004e 00       		.byte	0
  88 004f 00       		.byte	0
  89 0050 00       		.byte	0
  90 0051 00       		.byte	0
  91 0052 01       		.byte	1
  92 0053 1C       		.byte	28
  93 0054 00       		.byte	0
  94 0055 01       		.byte	1
  95 0056 C8       		.byte	-56
  96 0057 00       		.byte	0
  97 0058 0A       		.byte	10
  98 0059 1B       		.byte	27
  99 005a 01       		.byte	1
 100 005b 00       		.byte	0
 101 005c 17       		.byte	23
 102 005d 00       		.byte	0
 103 005e 01       		.byte	1
 104 005f 00       		.byte	0
 105 0060 00       		.byte	0
 106 0061 00       		.byte	0
 107 0062 00       		.byte	0
 108 0063 0F       		.byte	15
 109              		.align	2
 112              	all_routers_multicast:
 113 0064 FF       		.byte	-1
 114 0065 02       		.byte	2
 115 0066 00       		.byte	0
 116 0067 00       		.byte	0
 117 0068 00       		.byte	0
 118 0069 00       		.byte	0
 119 006a 00       		.byte	0
 120 006b 00       		.byte	0
 121 006c 00       		.byte	0
 122 006d 00       		.byte	0
 123 006e 00       		.byte	0
 124 006f 00       		.byte	0
 125 0070 00       		.byte	0
 126 0071 00       		.byte	0
 127 0072 00       		.byte	0
 128 0073 1A       		.byte	26
 129              		.align	2
 132              	dagroot_mac64b:
 133 0074 02       		.byte	2
 134 0075 00       		.byte	0
 135 0076 00       		.byte	0
 136 0077 00       		.byte	0
 137 0078 00       		.byte	0
 138 0079 00       		.byte	0
 139 007a 00       		.byte	0
 140 007b 00       		.byte	0
 141 007c 01       		.byte	1
 142              		.bss
 143              		.align	2
 144              	monitor_expiration_vars:
 145 0000 00000000 		.space	4
 146              		.text
 147              		.align	2
 148              		.global	iphc_init
 149              		.thumb
 150              		.thumb_func
 152              	iphc_init:
 153              	.LFB0:
 154              		.file 1 "build/openmote-cc2538_armgcc/openstack/03a-IPHC/iphc.c"
   1:build/openmote-cc2538_armgcc/openstack/03a-IPHC/iphc.c **** #include "opendefs.h"
   2:build/openmote-cc2538_armgcc/openstack/03a-IPHC/iphc.c **** #include "iphc.h"
   3:build/openmote-cc2538_armgcc/openstack/03a-IPHC/iphc.c **** #include "packetfunctions.h"
   4:build/openmote-cc2538_armgcc/openstack/03a-IPHC/iphc.c **** #include "idmanager.h"
   5:build/openmote-cc2538_armgcc/openstack/03a-IPHC/iphc.c **** #include "openserial.h"
   6:build/openmote-cc2538_armgcc/openstack/03a-IPHC/iphc.c **** #include "IEEE802154E.h"
   7:build/openmote-cc2538_armgcc/openstack/03a-IPHC/iphc.c **** #include "sixtop.h"
   8:build/openmote-cc2538_armgcc/openstack/03a-IPHC/iphc.c **** #include "forwarding.h"
   9:build/openmote-cc2538_armgcc/openstack/03a-IPHC/iphc.c **** #include "neighbors.h"
  10:build/openmote-cc2538_armgcc/openstack/03a-IPHC/iphc.c **** #include "openbridge.h"
  11:build/openmote-cc2538_armgcc/openstack/03a-IPHC/iphc.c **** #include "icmpv6rpl.h"
  12:build/openmote-cc2538_armgcc/openstack/03a-IPHC/iphc.c **** 
  13:build/openmote-cc2538_armgcc/openstack/03a-IPHC/iphc.c **** //=========================== variables =======================================
  14:build/openmote-cc2538_armgcc/openstack/03a-IPHC/iphc.c **** 
  15:build/openmote-cc2538_armgcc/openstack/03a-IPHC/iphc.c **** static const uint8_t dagroot_mac64b[]   = {0x02,
  16:build/openmote-cc2538_armgcc/openstack/03a-IPHC/iphc.c ****    0x00, 0x00, 0x00, 0x00, 0x00, 0x00, 0x00, 0x01
  17:build/openmote-cc2538_armgcc/openstack/03a-IPHC/iphc.c **** }; 
  18:build/openmote-cc2538_armgcc/openstack/03a-IPHC/iphc.c **** 
  19:build/openmote-cc2538_armgcc/openstack/03a-IPHC/iphc.c **** #ifdef DEADLINE_OPTION_ENABLED
  20:build/openmote-cc2538_armgcc/openstack/03a-IPHC/iphc.c ****     static monitor_expiration_vars_t  monitor_expiration_vars;
  21:build/openmote-cc2538_armgcc/openstack/03a-IPHC/iphc.c **** #endif
  22:build/openmote-cc2538_armgcc/openstack/03a-IPHC/iphc.c **** 
  23:build/openmote-cc2538_armgcc/openstack/03a-IPHC/iphc.c **** //=========================== prototypes ======================================
  24:build/openmote-cc2538_armgcc/openstack/03a-IPHC/iphc.c **** 
  25:build/openmote-cc2538_armgcc/openstack/03a-IPHC/iphc.c **** //===== IPv6 header
  26:build/openmote-cc2538_armgcc/openstack/03a-IPHC/iphc.c **** void iphc_retrieveIPv6Header(
  27:build/openmote-cc2538_armgcc/openstack/03a-IPHC/iphc.c ****    OpenQueueEntry_t* msg, 
  28:build/openmote-cc2538_armgcc/openstack/03a-IPHC/iphc.c ****    ipv6_header_iht* ipv6_outer_header,
  29:build/openmote-cc2538_armgcc/openstack/03a-IPHC/iphc.c ****    ipv6_header_iht* ipv6_inner_header,
  30:build/openmote-cc2538_armgcc/openstack/03a-IPHC/iphc.c ****    uint8_t*         page_length
  31:build/openmote-cc2538_armgcc/openstack/03a-IPHC/iphc.c **** );
  32:build/openmote-cc2538_armgcc/openstack/03a-IPHC/iphc.c **** uint8_t iphc_retrieveIphcHeader(open_addr_t* temp_addr_16b,
  33:build/openmote-cc2538_armgcc/openstack/03a-IPHC/iphc.c ****    open_addr_t*         temp_addr_64b,
  34:build/openmote-cc2538_armgcc/openstack/03a-IPHC/iphc.c ****    uint8_t*             dispatch,
  35:build/openmote-cc2538_armgcc/openstack/03a-IPHC/iphc.c ****    uint8_t*             tf,
  36:build/openmote-cc2538_armgcc/openstack/03a-IPHC/iphc.c ****    uint8_t*             nh,
  37:build/openmote-cc2538_armgcc/openstack/03a-IPHC/iphc.c ****    uint8_t*             hlim,
  38:build/openmote-cc2538_armgcc/openstack/03a-IPHC/iphc.c ****    uint8_t*             sam,
  39:build/openmote-cc2538_armgcc/openstack/03a-IPHC/iphc.c ****    uint8_t*             m,
  40:build/openmote-cc2538_armgcc/openstack/03a-IPHC/iphc.c ****    uint8_t*             dam,
  41:build/openmote-cc2538_armgcc/openstack/03a-IPHC/iphc.c ****    OpenQueueEntry_t*    msg,
  42:build/openmote-cc2538_armgcc/openstack/03a-IPHC/iphc.c ****    ipv6_header_iht*     ipv6_header,
  43:build/openmote-cc2538_armgcc/openstack/03a-IPHC/iphc.c ****    uint8_t              previousLen);
  44:build/openmote-cc2538_armgcc/openstack/03a-IPHC/iphc.c **** 
  45:build/openmote-cc2538_armgcc/openstack/03a-IPHC/iphc.c **** //===== IPv6 hop-by-hop header
  46:build/openmote-cc2538_armgcc/openstack/03a-IPHC/iphc.c **** void iphc_prependIPv6HopByHopHeader(
  47:build/openmote-cc2538_armgcc/openstack/03a-IPHC/iphc.c ****    OpenQueueEntry_t*    msg,
  48:build/openmote-cc2538_armgcc/openstack/03a-IPHC/iphc.c ****    uint8_t              nextheader,
  49:build/openmote-cc2538_armgcc/openstack/03a-IPHC/iphc.c ****    rpl_option_ht*       rpl_option
  50:build/openmote-cc2538_armgcc/openstack/03a-IPHC/iphc.c **** );
  51:build/openmote-cc2538_armgcc/openstack/03a-IPHC/iphc.c **** 
  52:build/openmote-cc2538_armgcc/openstack/03a-IPHC/iphc.c **** #ifdef DEADLINE_OPTION_ENABLED
  53:build/openmote-cc2538_armgcc/openstack/03a-IPHC/iphc.c **** // IPv6 Deadline hop-by-hop header
  54:build/openmote-cc2538_armgcc/openstack/03a-IPHC/iphc.c **** void iphc_prependIPv6DeadlineHeader(
  55:build/openmote-cc2538_armgcc/openstack/03a-IPHC/iphc.c ****    OpenQueueEntry_t* msg
  56:build/openmote-cc2538_armgcc/openstack/03a-IPHC/iphc.c **** );
  57:build/openmote-cc2538_armgcc/openstack/03a-IPHC/iphc.c **** 
  58:build/openmote-cc2538_armgcc/openstack/03a-IPHC/iphc.c **** uint8_t iphc_getAsnLen(
  59:build/openmote-cc2538_armgcc/openstack/03a-IPHC/iphc.c ****    uint8_t* asn
  60:build/openmote-cc2538_armgcc/openstack/03a-IPHC/iphc.c **** );
  61:build/openmote-cc2538_armgcc/openstack/03a-IPHC/iphc.c **** #endif
  62:build/openmote-cc2538_armgcc/openstack/03a-IPHC/iphc.c **** 
  63:build/openmote-cc2538_armgcc/openstack/03a-IPHC/iphc.c **** //=========================== public ==========================================
  64:build/openmote-cc2538_armgcc/openstack/03a-IPHC/iphc.c **** 
  65:build/openmote-cc2538_armgcc/openstack/03a-IPHC/iphc.c **** void      iphc_init() {
 155              		.loc 1 65 0
 156              		.cfi_startproc
 157              		@ args = 0, pretend = 0, frame = 0
 158              		@ frame_needed = 1, uses_anonymous_args = 0
 159              		@ link register save eliminated.
 160 0000 80B4     		push	{r7}
 161              		.cfi_def_cfa_offset 4
 162              		.cfi_offset 7, -4
 163 0002 00AF     		add	r7, sp, #0
 164              		.cfi_def_cfa_register 7
  66:build/openmote-cc2538_armgcc/openstack/03a-IPHC/iphc.c **** }
 165              		.loc 1 66 0
 166 0004 00BF     		nop
 167 0006 BD46     		mov	sp, r7
 168              		.cfi_def_cfa_register 13
 169              		@ sp needed
 170 0008 80BC     		pop	{r7}
 171              		.cfi_restore 7
 172              		.cfi_def_cfa_offset 0
 173 000a 7047     		bx	lr
 174              		.cfi_endproc
 175              	.LFE0:
 177              		.align	2
 178              		.global	iphc_sendFromForwarding
 179              		.thumb
 180              		.thumb_func
 182              	iphc_sendFromForwarding:
 183              	.LFB1:
  67:build/openmote-cc2538_armgcc/openstack/03a-IPHC/iphc.c **** 
  68:build/openmote-cc2538_armgcc/openstack/03a-IPHC/iphc.c **** // send from upper layer: I need to add 6LoWPAN header
  69:build/openmote-cc2538_armgcc/openstack/03a-IPHC/iphc.c **** owerror_t iphc_sendFromForwarding(
  70:build/openmote-cc2538_armgcc/openstack/03a-IPHC/iphc.c ****     OpenQueueEntry_t* msg,
  71:build/openmote-cc2538_armgcc/openstack/03a-IPHC/iphc.c ****     ipv6_header_iht*  ipv6_outer_header,
  72:build/openmote-cc2538_armgcc/openstack/03a-IPHC/iphc.c ****     ipv6_header_iht*  ipv6_inner_header,
  73:build/openmote-cc2538_armgcc/openstack/03a-IPHC/iphc.c ****     rpl_option_ht*    rpl_option,
  74:build/openmote-cc2538_armgcc/openstack/03a-IPHC/iphc.c **** #ifdef DEADLINE_OPTION_ENABLED
  75:build/openmote-cc2538_armgcc/openstack/03a-IPHC/iphc.c ****     deadline_option_ht*	deadline_option,
  76:build/openmote-cc2538_armgcc/openstack/03a-IPHC/iphc.c **** #endif    
  77:build/openmote-cc2538_armgcc/openstack/03a-IPHC/iphc.c ****     uint32_t*         flow_label,
  78:build/openmote-cc2538_armgcc/openstack/03a-IPHC/iphc.c ****     uint8_t*          rh3_copy,
  79:build/openmote-cc2538_armgcc/openstack/03a-IPHC/iphc.c ****     uint8_t           rh3_length,
  80:build/openmote-cc2538_armgcc/openstack/03a-IPHC/iphc.c ****     uint8_t           fw_SendOrfw_Rcv
  81:build/openmote-cc2538_armgcc/openstack/03a-IPHC/iphc.c ****     ) {
 184              		.loc 1 81 0
 185              		.cfi_startproc
 186              		@ args = 20, pretend = 0, frame = 120
 187              		@ frame_needed = 1, uses_anonymous_args = 0
 188 000c 80B5     		push	{r7, lr}
 189              		.cfi_def_cfa_offset 8
 190              		.cfi_offset 7, -8
 191              		.cfi_offset 14, -4
 192 000e 9EB0     		sub	sp, sp, #120
 193              		.cfi_def_cfa_offset 128
 194 0010 00AF     		add	r7, sp, #0
 195              		.cfi_def_cfa_register 7
 196 0012 F860     		str	r0, [r7, #12]
 197 0014 B960     		str	r1, [r7, #8]
 198 0016 7A60     		str	r2, [r7, #4]
 199 0018 3B60     		str	r3, [r7]
  82:build/openmote-cc2538_armgcc/openstack/03a-IPHC/iphc.c ****     open_addr_t  temp_dest_prefix;
  83:build/openmote-cc2538_armgcc/openstack/03a-IPHC/iphc.c ****     open_addr_t  temp_dest_mac64b; 
  84:build/openmote-cc2538_armgcc/openstack/03a-IPHC/iphc.c ****     open_addr_t  temp_src_prefix;
  85:build/openmote-cc2538_armgcc/openstack/03a-IPHC/iphc.c ****     open_addr_t  temp_src_mac64b;
  86:build/openmote-cc2538_armgcc/openstack/03a-IPHC/iphc.c ****     open_addr_t  temp_dagroot_ip128b;
  87:build/openmote-cc2538_armgcc/openstack/03a-IPHC/iphc.c ****     uint8_t      sam;
  88:build/openmote-cc2538_armgcc/openstack/03a-IPHC/iphc.c ****     // take ownership over the packet
  89:build/openmote-cc2538_armgcc/openstack/03a-IPHC/iphc.c ****     msg->owner = COMPONENT_IPHC;
 200              		.loc 1 89 0
 201 001a FB68     		ldr	r3, [r7, #12]
 202 001c 1222     		movs	r2, #18
 203 001e 5A70     		strb	r2, [r3, #1]
  90:build/openmote-cc2538_armgcc/openstack/03a-IPHC/iphc.c ****    
  91:build/openmote-cc2538_armgcc/openstack/03a-IPHC/iphc.c ****     // error checking
  92:build/openmote-cc2538_armgcc/openstack/03a-IPHC/iphc.c ****     if (idmanager_getIsDAGroot()==TRUE &&
 204              		.loc 1 92 0
 205 0020 FFF7FEFF 		bl	idmanager_getIsDAGroot
 206 0024 0346     		mov	r3, r0
 207 0026 002B     		cmp	r3, #0
 208 0028 12D0     		beq	.L3
  93:build/openmote-cc2538_armgcc/openstack/03a-IPHC/iphc.c ****         packetfunctions_isAllRoutersMulticast(&(msg->l3_destinationAdd))==FALSE) {
 209              		.loc 1 93 0 discriminator 1
 210 002a FB68     		ldr	r3, [r7, #12]
 211 002c 1933     		adds	r3, r3, #25
 212 002e 1846     		mov	r0, r3
 213 0030 FFF7FEFF 		bl	packetfunctions_isAllRoutersMulticast
 214 0034 0346     		mov	r3, r0
 215 0036 83F00103 		eor	r3, r3, #1
 216 003a DBB2     		uxtb	r3, r3
  92:build/openmote-cc2538_armgcc/openstack/03a-IPHC/iphc.c ****         packetfunctions_isAllRoutersMulticast(&(msg->l3_destinationAdd))==FALSE) {
 217              		.loc 1 92 0 discriminator 1
 218 003c 002B     		cmp	r3, #0
 219 003e 07D0     		beq	.L3
  94:build/openmote-cc2538_armgcc/openstack/03a-IPHC/iphc.c ****         openserial_printCritical(COMPONENT_IPHC,ERR_BRIDGE_MISMATCH,
 220              		.loc 1 94 0
 221 0040 0023     		movs	r3, #0
 222 0042 0022     		movs	r2, #0
 223 0044 3221     		movs	r1, #50
 224 0046 1220     		movs	r0, #18
 225 0048 FFF7FEFF 		bl	openserial_printCritical
  95:build/openmote-cc2538_armgcc/openstack/03a-IPHC/iphc.c ****                             (errorparameter_t)0,
  96:build/openmote-cc2538_armgcc/openstack/03a-IPHC/iphc.c ****                             (errorparameter_t)0);
  97:build/openmote-cc2538_armgcc/openstack/03a-IPHC/iphc.c ****         return E_FAIL;
 226              		.loc 1 97 0
 227 004c 0123     		movs	r3, #1
 228 004e 46E1     		b	.L22
 229              	.L3:
  98:build/openmote-cc2538_armgcc/openstack/03a-IPHC/iphc.c ****     }
  99:build/openmote-cc2538_armgcc/openstack/03a-IPHC/iphc.c ****    
 100:build/openmote-cc2538_armgcc/openstack/03a-IPHC/iphc.c ****     //discard the packet.. hop limit reached.
 101:build/openmote-cc2538_armgcc/openstack/03a-IPHC/iphc.c ****     if (ipv6_outer_header->src.type != ADDR_NONE){
 230              		.loc 1 101 0
 231 0050 BB68     		ldr	r3, [r7, #8]
 232 0052 93F82230 		ldrb	r3, [r3, #34]	@ zero_extendqisi2
 233 0056 002B     		cmp	r3, #0
 234 0058 15D0     		beq	.L5
 102:build/openmote-cc2538_armgcc/openstack/03a-IPHC/iphc.c ****         // there is IPinIP check hop limit in ip in ip encapsulation
 103:build/openmote-cc2538_armgcc/openstack/03a-IPHC/iphc.c ****         if (ipv6_outer_header->hop_limit==0){
 235              		.loc 1 103 0
 236 005a BB68     		ldr	r3, [r7, #8]
 237 005c 93F82030 		ldrb	r3, [r3, #32]	@ zero_extendqisi2
 238 0060 002B     		cmp	r3, #0
 239 0062 07D1     		bne	.L6
 104:build/openmote-cc2538_armgcc/openstack/03a-IPHC/iphc.c ****             openserial_printError(COMPONENT_IPHC,ERR_HOP_LIMIT_REACHED,
 240              		.loc 1 104 0
 241 0064 0023     		movs	r3, #0
 242 0066 0022     		movs	r2, #0
 243 0068 1121     		movs	r1, #17
 244 006a 1220     		movs	r0, #18
 245 006c FFF7FEFF 		bl	openserial_printError
 105:build/openmote-cc2538_armgcc/openstack/03a-IPHC/iphc.c ****                                 (errorparameter_t)0,
 106:build/openmote-cc2538_armgcc/openstack/03a-IPHC/iphc.c ****                                 (errorparameter_t)0);
 107:build/openmote-cc2538_armgcc/openstack/03a-IPHC/iphc.c ****             return E_FAIL;
 246              		.loc 1 107 0
 247 0070 0123     		movs	r3, #1
 248 0072 34E1     		b	.L22
 249              	.L6:
 108:build/openmote-cc2538_armgcc/openstack/03a-IPHC/iphc.c ****         } else {
 109:build/openmote-cc2538_armgcc/openstack/03a-IPHC/iphc.c ****             // decrement the packet's hop limit
 110:build/openmote-cc2538_armgcc/openstack/03a-IPHC/iphc.c ****             ipv6_outer_header->hop_limit--;
 250              		.loc 1 110 0
 251 0074 BB68     		ldr	r3, [r7, #8]
 252 0076 93F82030 		ldrb	r3, [r3, #32]	@ zero_extendqisi2
 253 007a 013B     		subs	r3, r3, #1
 254 007c DAB2     		uxtb	r2, r3
 255 007e BB68     		ldr	r3, [r7, #8]
 256 0080 83F82020 		strb	r2, [r3, #32]
 257 0084 14E0     		b	.L7
 258              	.L5:
 111:build/openmote-cc2538_armgcc/openstack/03a-IPHC/iphc.c ****         }
 112:build/openmote-cc2538_armgcc/openstack/03a-IPHC/iphc.c ****     } else {
 113:build/openmote-cc2538_armgcc/openstack/03a-IPHC/iphc.c ****         if (ipv6_inner_header->hop_limit==0) {
 259              		.loc 1 113 0
 260 0086 7B68     		ldr	r3, [r7, #4]
 261 0088 93F82030 		ldrb	r3, [r3, #32]	@ zero_extendqisi2
 262 008c 002B     		cmp	r3, #0
 263 008e 07D1     		bne	.L8
 114:build/openmote-cc2538_armgcc/openstack/03a-IPHC/iphc.c ****             openserial_printError(COMPONENT_IPHC,ERR_HOP_LIMIT_REACHED,
 264              		.loc 1 114 0
 265 0090 0023     		movs	r3, #0
 266 0092 0022     		movs	r2, #0
 267 0094 1121     		movs	r1, #17
 268 0096 1220     		movs	r0, #18
 269 0098 FFF7FEFF 		bl	openserial_printError
 115:build/openmote-cc2538_armgcc/openstack/03a-IPHC/iphc.c ****                                 (errorparameter_t)0,
 116:build/openmote-cc2538_armgcc/openstack/03a-IPHC/iphc.c ****                                 (errorparameter_t)0);
 117:build/openmote-cc2538_armgcc/openstack/03a-IPHC/iphc.c ****             return E_FAIL;
 270              		.loc 1 117 0
 271 009c 0123     		movs	r3, #1
 272 009e 1EE1     		b	.L22
 273              	.L8:
 118:build/openmote-cc2538_armgcc/openstack/03a-IPHC/iphc.c ****         } else {
 119:build/openmote-cc2538_armgcc/openstack/03a-IPHC/iphc.c ****             // decrement the packet's hop limit
 120:build/openmote-cc2538_armgcc/openstack/03a-IPHC/iphc.c ****             ipv6_inner_header->hop_limit--;
 274              		.loc 1 120 0
 275 00a0 7B68     		ldr	r3, [r7, #4]
 276 00a2 93F82030 		ldrb	r3, [r3, #32]	@ zero_extendqisi2
 277 00a6 013B     		subs	r3, r3, #1
 278 00a8 DAB2     		uxtb	r2, r3
 279 00aa 7B68     		ldr	r3, [r7, #4]
 280 00ac 83F82020 		strb	r2, [r3, #32]
 281              	.L7:
 121:build/openmote-cc2538_armgcc/openstack/03a-IPHC/iphc.c ****         }
 122:build/openmote-cc2538_armgcc/openstack/03a-IPHC/iphc.c ****     }
 123:build/openmote-cc2538_armgcc/openstack/03a-IPHC/iphc.c ****    
 124:build/openmote-cc2538_armgcc/openstack/03a-IPHC/iphc.c ****     packetfunctions_ip128bToMac64b(&(msg->l3_destinationAdd),&temp_dest_prefix,&temp_dest_mac64b);
 282              		.loc 1 124 0
 283 00b0 FB68     		ldr	r3, [r7, #12]
 284 00b2 1933     		adds	r3, r3, #25
 285 00b4 07F15002 		add	r2, r7, #80
 286 00b8 07F16401 		add	r1, r7, #100
 287 00bc 1846     		mov	r0, r3
 288 00be FFF7FEFF 		bl	packetfunctions_ip128bToMac64b
 125:build/openmote-cc2538_armgcc/openstack/03a-IPHC/iphc.c ****     //xv poipoi -- get the src prefix as well
 126:build/openmote-cc2538_armgcc/openstack/03a-IPHC/iphc.c ****     packetfunctions_ip128bToMac64b(&(msg->l3_sourceAdd),&temp_src_prefix,&temp_src_mac64b);
 289              		.loc 1 126 0
 290 00c2 FB68     		ldr	r3, [r7, #12]
 291 00c4 2A33     		adds	r3, r3, #42
 292 00c6 07F12802 		add	r2, r7, #40
 293 00ca 07F13C01 		add	r1, r7, #60
 294 00ce 1846     		mov	r0, r3
 295 00d0 FFF7FEFF 		bl	packetfunctions_ip128bToMac64b
 127:build/openmote-cc2538_armgcc/openstack/03a-IPHC/iphc.c ****     //XV -poipoi we want to check if the source address prefix is the same as destination prefix
 128:build/openmote-cc2538_armgcc/openstack/03a-IPHC/iphc.c ****     if (packetfunctions_sameAddress(&temp_dest_prefix,&temp_src_prefix)) {
 296              		.loc 1 128 0
 297 00d4 07F13C02 		add	r2, r7, #60
 298 00d8 07F16403 		add	r3, r7, #100
 299 00dc 1146     		mov	r1, r2
 300 00de 1846     		mov	r0, r3
 301 00e0 FFF7FEFF 		bl	packetfunctions_sameAddress
 302 00e4 0346     		mov	r3, r0
 303 00e6 002B     		cmp	r3, #0
 304 00e8 03D0     		beq	.L9
 129:build/openmote-cc2538_armgcc/openstack/03a-IPHC/iphc.c ****         sam = IPHC_SAM_64B;    // no ipinip 6loRH if in the same prefix
 305              		.loc 1 129 0
 306 00ea 0123     		movs	r3, #1
 307 00ec 87F87730 		strb	r3, [r7, #119]
 308 00f0 11E0     		b	.L10
 309              	.L9:
 130:build/openmote-cc2538_armgcc/openstack/03a-IPHC/iphc.c ****     } else {
 131:build/openmote-cc2538_armgcc/openstack/03a-IPHC/iphc.c ****         //not the same prefix. so the packet travels to another network
 132:build/openmote-cc2538_armgcc/openstack/03a-IPHC/iphc.c ****         //check if this is a source routing pkt. in case it is then the DAM is elided as it is in t
 133:build/openmote-cc2538_armgcc/openstack/03a-IPHC/iphc.c ****         if (packetfunctions_isBroadcastMulticast(&(msg->l3_destinationAdd))==FALSE){
 310              		.loc 1 133 0
 311 00f2 FB68     		ldr	r3, [r7, #12]
 312 00f4 1933     		adds	r3, r3, #25
 313 00f6 1846     		mov	r0, r3
 314 00f8 FFF7FEFF 		bl	packetfunctions_isBroadcastMulticast
 315 00fc 0346     		mov	r3, r0
 316 00fe 83F00103 		eor	r3, r3, #1
 317 0102 DBB2     		uxtb	r3, r3
 318 0104 002B     		cmp	r3, #0
 319 0106 03D0     		beq	.L11
 134:build/openmote-cc2538_armgcc/openstack/03a-IPHC/iphc.c ****             // ip in ip will be presented
 135:build/openmote-cc2538_armgcc/openstack/03a-IPHC/iphc.c ****             sam = IPHC_SAM_128B;
 320              		.loc 1 135 0
 321 0108 0023     		movs	r3, #0
 322 010a 87F87730 		strb	r3, [r7, #119]
 323 010e 02E0     		b	.L10
 324              	.L11:
 136:build/openmote-cc2538_armgcc/openstack/03a-IPHC/iphc.c ****         } else {
 137:build/openmote-cc2538_armgcc/openstack/03a-IPHC/iphc.c ****             // this is DIO, source address elided, multicast bit is set
 138:build/openmote-cc2538_armgcc/openstack/03a-IPHC/iphc.c ****             sam = IPHC_SAM_ELIDED;
 325              		.loc 1 138 0
 326 0110 0323     		movs	r3, #3
 327 0112 87F87730 		strb	r3, [r7, #119]
 328              	.L10:
 139:build/openmote-cc2538_armgcc/openstack/03a-IPHC/iphc.c ****         }
 140:build/openmote-cc2538_armgcc/openstack/03a-IPHC/iphc.c ****     }
 141:build/openmote-cc2538_armgcc/openstack/03a-IPHC/iphc.c **** 
 142:build/openmote-cc2538_armgcc/openstack/03a-IPHC/iphc.c ****     //IPinIP 6LoRH will be added at here if necessary.
 143:build/openmote-cc2538_armgcc/openstack/03a-IPHC/iphc.c ****     if (packetfunctions_sameAddress(&temp_dest_prefix,&temp_src_prefix)){
 329              		.loc 1 143 0
 330 0116 07F13C02 		add	r2, r7, #60
 331 011a 07F16403 		add	r3, r7, #100
 332 011e 1146     		mov	r1, r2
 333 0120 1846     		mov	r0, r3
 334 0122 FFF7FEFF 		bl	packetfunctions_sameAddress
 335 0126 0346     		mov	r3, r0
 336 0128 002B     		cmp	r3, #0
 337 012a 7AD1     		bne	.L12
 144:build/openmote-cc2538_armgcc/openstack/03a-IPHC/iphc.c ****         // same network, IPinIP is elided
 145:build/openmote-cc2538_armgcc/openstack/03a-IPHC/iphc.c ****     } else {
 146:build/openmote-cc2538_armgcc/openstack/03a-IPHC/iphc.c ****         if (packetfunctions_isBroadcastMulticast(&(msg->l3_destinationAdd))==FALSE){
 338              		.loc 1 146 0
 339 012c FB68     		ldr	r3, [r7, #12]
 340 012e 1933     		adds	r3, r3, #25
 341 0130 1846     		mov	r0, r3
 342 0132 FFF7FEFF 		bl	packetfunctions_isBroadcastMulticast
 343 0136 0346     		mov	r3, r0
 344 0138 83F00103 		eor	r3, r3, #1
 345 013c DBB2     		uxtb	r3, r3
 346 013e 002B     		cmp	r3, #0
 347 0140 6FD0     		beq	.L12
 147:build/openmote-cc2538_armgcc/openstack/03a-IPHC/iphc.c ****           memset(&(temp_dagroot_ip128b),0,sizeof(open_addr_t));
 348              		.loc 1 147 0
 349 0142 07F11403 		add	r3, r7, #20
 350 0146 1122     		movs	r2, #17
 351 0148 0021     		movs	r1, #0
 352 014a 1846     		mov	r0, r3
 353 014c FFF7FEFF 		bl	memset
 148:build/openmote-cc2538_armgcc/openstack/03a-IPHC/iphc.c ****           packetfunctions_mac64bToIp128b(idmanager_getMyID(ADDR_PREFIX),(open_addr_t*)dagroot_mac64
 354              		.loc 1 148 0
 355 0150 0520     		movs	r0, #5
 356 0152 FFF7FEFF 		bl	idmanager_getMyID
 357 0156 07F11403 		add	r3, r7, #20
 358 015a 1A46     		mov	r2, r3
 359 015c 6249     		ldr	r1, .L23
 360 015e FFF7FEFF 		bl	packetfunctions_mac64bToIp128b
 149:build/openmote-cc2538_armgcc/openstack/03a-IPHC/iphc.c ****             if (
 150:build/openmote-cc2538_armgcc/openstack/03a-IPHC/iphc.c ****                 (
 151:build/openmote-cc2538_armgcc/openstack/03a-IPHC/iphc.c ****                   ipv6_outer_header->src.type == ADDR_NONE &&
 361              		.loc 1 151 0
 362 0162 BB68     		ldr	r3, [r7, #8]
 363 0164 93F82230 		ldrb	r3, [r3, #34]	@ zero_extendqisi2
 149:build/openmote-cc2538_armgcc/openstack/03a-IPHC/iphc.c ****             if (
 364              		.loc 1 149 0
 365 0168 002B     		cmp	r3, #0
 366 016a 0AD1     		bne	.L13
 152:build/openmote-cc2538_armgcc/openstack/03a-IPHC/iphc.c ****                   packetfunctions_sameAddress(&(msg->l3_sourceAdd),&(temp_dagroot_ip128b))
 367              		.loc 1 152 0
 368 016c FB68     		ldr	r3, [r7, #12]
 369 016e 2A33     		adds	r3, r3, #42
 370 0170 07F11402 		add	r2, r7, #20
 371 0174 1146     		mov	r1, r2
 372 0176 1846     		mov	r0, r3
 373 0178 FFF7FEFF 		bl	packetfunctions_sameAddress
 374 017c 0346     		mov	r3, r0
 151:build/openmote-cc2538_armgcc/openstack/03a-IPHC/iphc.c ****                   packetfunctions_sameAddress(&(msg->l3_sourceAdd),&(temp_dagroot_ip128b))
 375              		.loc 1 151 0
 376 017e 002B     		cmp	r3, #0
 377 0180 0FD1     		bne	.L14
 378              	.L13:
 153:build/openmote-cc2538_armgcc/openstack/03a-IPHC/iphc.c ****                 ) || 
 154:build/openmote-cc2538_armgcc/openstack/03a-IPHC/iphc.c ****                 (
 155:build/openmote-cc2538_armgcc/openstack/03a-IPHC/iphc.c ****                   ipv6_outer_header->src.type != ADDR_NONE &&
 379              		.loc 1 155 0
 380 0182 BB68     		ldr	r3, [r7, #8]
 381 0184 93F82230 		ldrb	r3, [r3, #34]	@ zero_extendqisi2
 153:build/openmote-cc2538_armgcc/openstack/03a-IPHC/iphc.c ****                 ) || 
 382              		.loc 1 153 0
 383 0188 002B     		cmp	r3, #0
 384 018a 25D0     		beq	.L15
 156:build/openmote-cc2538_armgcc/openstack/03a-IPHC/iphc.c ****                   packetfunctions_sameAddress(&(ipv6_outer_header->src),&(temp_dagroot_ip128b))
 385              		.loc 1 156 0
 386 018c BB68     		ldr	r3, [r7, #8]
 387 018e 2233     		adds	r3, r3, #34
 388 0190 07F11402 		add	r2, r7, #20
 389 0194 1146     		mov	r1, r2
 390 0196 1846     		mov	r0, r3
 391 0198 FFF7FEFF 		bl	packetfunctions_sameAddress
 392 019c 0346     		mov	r3, r0
 155:build/openmote-cc2538_armgcc/openstack/03a-IPHC/iphc.c ****                   packetfunctions_sameAddress(&(ipv6_outer_header->src),&(temp_dagroot_ip128b))
 393              		.loc 1 155 0
 394 019e 002B     		cmp	r3, #0
 395 01a0 1AD0     		beq	.L15
 396              	.L14:
 157:build/openmote-cc2538_armgcc/openstack/03a-IPHC/iphc.c ****                  )
 158:build/openmote-cc2538_armgcc/openstack/03a-IPHC/iphc.c ****             ){
 159:build/openmote-cc2538_armgcc/openstack/03a-IPHC/iphc.c ****                 // hop limit
 160:build/openmote-cc2538_armgcc/openstack/03a-IPHC/iphc.c ****                 packetfunctions_reserveHeaderSize(msg,sizeof(uint8_t));
 397              		.loc 1 160 0
 398 01a2 0121     		movs	r1, #1
 399 01a4 F868     		ldr	r0, [r7, #12]
 400 01a6 FFF7FEFF 		bl	packetfunctions_reserveHeaderSize
 161:build/openmote-cc2538_armgcc/openstack/03a-IPHC/iphc.c ****                 *((uint8_t*)(msg->payload)) = ipv6_outer_header->hop_limit;
 401              		.loc 1 161 0
 402 01aa FB68     		ldr	r3, [r7, #12]
 403 01ac 5B68     		ldr	r3, [r3, #4]
 404 01ae BA68     		ldr	r2, [r7, #8]
 405 01b0 92F82020 		ldrb	r2, [r2, #32]	@ zero_extendqisi2
 406 01b4 1A70     		strb	r2, [r3]
 162:build/openmote-cc2538_armgcc/openstack/03a-IPHC/iphc.c ****                 // type
 163:build/openmote-cc2538_armgcc/openstack/03a-IPHC/iphc.c ****                 packetfunctions_reserveHeaderSize(msg,sizeof(uint8_t));
 407              		.loc 1 163 0
 408 01b6 0121     		movs	r1, #1
 409 01b8 F868     		ldr	r0, [r7, #12]
 410 01ba FFF7FEFF 		bl	packetfunctions_reserveHeaderSize
 164:build/openmote-cc2538_armgcc/openstack/03a-IPHC/iphc.c ****                 *((uint8_t*)(msg->payload)) = IPECAP_6LOTH_TYPE;
 411              		.loc 1 164 0
 412 01be FB68     		ldr	r3, [r7, #12]
 413 01c0 5B68     		ldr	r3, [r3, #4]
 414 01c2 0622     		movs	r2, #6
 415 01c4 1A70     		strb	r2, [r3]
 165:build/openmote-cc2538_armgcc/openstack/03a-IPHC/iphc.c ****                 // length 
 166:build/openmote-cc2538_armgcc/openstack/03a-IPHC/iphc.c ****                 packetfunctions_reserveHeaderSize(msg,sizeof(uint8_t));
 416              		.loc 1 166 0
 417 01c6 0121     		movs	r1, #1
 418 01c8 F868     		ldr	r0, [r7, #12]
 419 01ca FFF7FEFF 		bl	packetfunctions_reserveHeaderSize
 167:build/openmote-cc2538_armgcc/openstack/03a-IPHC/iphc.c ****                 *((uint8_t*)(msg->payload)) = ELECTIVE_6LoRH | 1;
 420              		.loc 1 167 0
 421 01ce FB68     		ldr	r3, [r7, #12]
 422 01d0 5B68     		ldr	r3, [r3, #4]
 423 01d2 A122     		movs	r2, #161
 424 01d4 1A70     		strb	r2, [r3]
 425 01d6 24E0     		b	.L12
 426              	.L15:
 168:build/openmote-cc2538_armgcc/openstack/03a-IPHC/iphc.c ****             }
 169:build/openmote-cc2538_armgcc/openstack/03a-IPHC/iphc.c ****             else {
 170:build/openmote-cc2538_armgcc/openstack/03a-IPHC/iphc.c ****                 if (sam == IPHC_SAM_128B){
 427              		.loc 1 170 0
 428 01d8 97F87730 		ldrb	r3, [r7, #119]	@ zero_extendqisi2
 429 01dc 002B     		cmp	r3, #0
 430 01de 20D1     		bne	.L12
 171:build/openmote-cc2538_armgcc/openstack/03a-IPHC/iphc.c ****                     // encapsulate address
 172:build/openmote-cc2538_armgcc/openstack/03a-IPHC/iphc.c ****                     packetfunctions_writeAddress(msg, &(msg->l3_sourceAdd),OW_BIG_ENDIAN);
 431              		.loc 1 172 0
 432 01e0 FB68     		ldr	r3, [r7, #12]
 433 01e2 2A33     		adds	r3, r3, #42
 434 01e4 0022     		movs	r2, #0
 435 01e6 1946     		mov	r1, r3
 436 01e8 F868     		ldr	r0, [r7, #12]
 437 01ea FFF7FEFF 		bl	packetfunctions_writeAddress
 173:build/openmote-cc2538_armgcc/openstack/03a-IPHC/iphc.c ****                     // hoplim
 174:build/openmote-cc2538_armgcc/openstack/03a-IPHC/iphc.c ****                     packetfunctions_reserveHeaderSize(msg,sizeof(uint8_t));
 438              		.loc 1 174 0
 439 01ee 0121     		movs	r1, #1
 440 01f0 F868     		ldr	r0, [r7, #12]
 441 01f2 FFF7FEFF 		bl	packetfunctions_reserveHeaderSize
 175:build/openmote-cc2538_armgcc/openstack/03a-IPHC/iphc.c ****                     *((uint8_t*)(msg->payload)) = ipv6_outer_header->hop_limit;
 442              		.loc 1 175 0
 443 01f6 FB68     		ldr	r3, [r7, #12]
 444 01f8 5B68     		ldr	r3, [r3, #4]
 445 01fa BA68     		ldr	r2, [r7, #8]
 446 01fc 92F82020 		ldrb	r2, [r2, #32]	@ zero_extendqisi2
 447 0200 1A70     		strb	r2, [r3]
 176:build/openmote-cc2538_armgcc/openstack/03a-IPHC/iphc.c ****                     // type
 177:build/openmote-cc2538_armgcc/openstack/03a-IPHC/iphc.c ****                     packetfunctions_reserveHeaderSize(msg,sizeof(uint8_t));
 448              		.loc 1 177 0
 449 0202 0121     		movs	r1, #1
 450 0204 F868     		ldr	r0, [r7, #12]
 451 0206 FFF7FEFF 		bl	packetfunctions_reserveHeaderSize
 178:build/openmote-cc2538_armgcc/openstack/03a-IPHC/iphc.c ****                     *((uint8_t*)(msg->payload)) = IPECAP_6LOTH_TYPE;
 452              		.loc 1 178 0
 453 020a FB68     		ldr	r3, [r7, #12]
 454 020c 5B68     		ldr	r3, [r3, #4]
 455 020e 0622     		movs	r2, #6
 456 0210 1A70     		strb	r2, [r3]
 179:build/openmote-cc2538_armgcc/openstack/03a-IPHC/iphc.c ****                     // length
 180:build/openmote-cc2538_armgcc/openstack/03a-IPHC/iphc.c ****                     packetfunctions_reserveHeaderSize(msg,sizeof(uint8_t));
 457              		.loc 1 180 0
 458 0212 0121     		movs	r1, #1
 459 0214 F868     		ldr	r0, [r7, #12]
 460 0216 FFF7FEFF 		bl	packetfunctions_reserveHeaderSize
 181:build/openmote-cc2538_armgcc/openstack/03a-IPHC/iphc.c ****                     *((uint8_t*)(msg->payload)) = ELECTIVE_6LoRH | 17;
 461              		.loc 1 181 0
 462 021a FB68     		ldr	r3, [r7, #12]
 463 021c 5B68     		ldr	r3, [r3, #4]
 464 021e B122     		movs	r2, #177
 465 0220 1A70     		strb	r2, [r3]
 466              	.L12:
 182:build/openmote-cc2538_armgcc/openstack/03a-IPHC/iphc.c ****                 }
 183:build/openmote-cc2538_armgcc/openstack/03a-IPHC/iphc.c ****             }
 184:build/openmote-cc2538_armgcc/openstack/03a-IPHC/iphc.c ****         } else {
 185:build/openmote-cc2538_armgcc/openstack/03a-IPHC/iphc.c ****             // this is DIO, no IPinIP either
 186:build/openmote-cc2538_armgcc/openstack/03a-IPHC/iphc.c ****         }
 187:build/openmote-cc2538_armgcc/openstack/03a-IPHC/iphc.c ****     }
 188:build/openmote-cc2538_armgcc/openstack/03a-IPHC/iphc.c ****     
 189:build/openmote-cc2538_armgcc/openstack/03a-IPHC/iphc.c **** #ifdef DEADLINE_OPTION_ENABLED
 190:build/openmote-cc2538_armgcc/openstack/03a-IPHC/iphc.c ****     if ( (msg->creator == COMPONENT_UEXPIRATION) && (deadline_option != NULL) ) { 
 467              		.loc 1 190 0
 468 0222 FB68     		ldr	r3, [r7, #12]
 469 0224 1B78     		ldrb	r3, [r3]	@ zero_extendqisi2
 470 0226 292B     		cmp	r3, #41
 471 0228 16D1     		bne	.L17
 472              		.loc 1 190 0 is_stmt 0 discriminator 1
 473 022a D7F88030 		ldr	r3, [r7, #128]
 474 022e 002B     		cmp	r3, #0
 475 0230 12D0     		beq	.L17
 191:build/openmote-cc2538_armgcc/openstack/03a-IPHC/iphc.c ****         if (
 192:build/openmote-cc2538_armgcc/openstack/03a-IPHC/iphc.c ****             deadline_option->optionType==DEADLINE_HOPBYHOP_HEADER_OPTION_TYPE && 
 476              		.loc 1 192 0 is_stmt 1
 477 0232 D7F88030 		ldr	r3, [r7, #128]
 478 0236 1B78     		ldrb	r3, [r3]	@ zero_extendqisi2
 191:build/openmote-cc2538_armgcc/openstack/03a-IPHC/iphc.c ****         if (
 479              		.loc 1 191 0
 480 0238 AB2B     		cmp	r3, #171
 481 023a 0DD1     		bne	.L17
 193:build/openmote-cc2538_armgcc/openstack/03a-IPHC/iphc.c ****             packetfunctions_isBroadcastMulticast(&(msg->l3_destinationAdd))==FALSE
 482              		.loc 1 193 0
 483 023c FB68     		ldr	r3, [r7, #12]
 484 023e 1933     		adds	r3, r3, #25
 485 0240 1846     		mov	r0, r3
 486 0242 FFF7FEFF 		bl	packetfunctions_isBroadcastMulticast
 487 0246 0346     		mov	r3, r0
 488 0248 83F00103 		eor	r3, r3, #1
 489 024c DBB2     		uxtb	r3, r3
 192:build/openmote-cc2538_armgcc/openstack/03a-IPHC/iphc.c ****             packetfunctions_isBroadcastMulticast(&(msg->l3_destinationAdd))==FALSE
 490              		.loc 1 192 0
 491 024e 002B     		cmp	r3, #0
 492 0250 02D0     		beq	.L17
 194:build/openmote-cc2538_armgcc/openstack/03a-IPHC/iphc.c ****         ){                    
 195:build/openmote-cc2538_armgcc/openstack/03a-IPHC/iphc.c **** 						iphc_prependIPv6DeadlineHeader(msg);
 493              		.loc 1 195 0
 494 0252 F868     		ldr	r0, [r7, #12]
 495 0254 FFF7FEFF 		bl	iphc_prependIPv6DeadlineHeader
 496              	.L17:
 196:build/openmote-cc2538_armgcc/openstack/03a-IPHC/iphc.c ****         }
 197:build/openmote-cc2538_armgcc/openstack/03a-IPHC/iphc.c ****     }
 198:build/openmote-cc2538_armgcc/openstack/03a-IPHC/iphc.c **** #endif     
 199:build/openmote-cc2538_armgcc/openstack/03a-IPHC/iphc.c ****     
 200:build/openmote-cc2538_armgcc/openstack/03a-IPHC/iphc.c ****     //prepend Option hop by hop header except when src routing and dst is not 0xffff
 201:build/openmote-cc2538_armgcc/openstack/03a-IPHC/iphc.c ****     //-- this is a little trick as src routing is using an option header set to 0x00
 202:build/openmote-cc2538_armgcc/openstack/03a-IPHC/iphc.c ****     if (
 203:build/openmote-cc2538_armgcc/openstack/03a-IPHC/iphc.c ****         rpl_option->optionType==RPL_HOPBYHOP_HEADER_OPTION_TYPE && 
 497              		.loc 1 203 0
 498 0258 3B68     		ldr	r3, [r7]
 499 025a 1B78     		ldrb	r3, [r3]	@ zero_extendqisi2
 202:build/openmote-cc2538_armgcc/openstack/03a-IPHC/iphc.c ****         rpl_option->optionType==RPL_HOPBYHOP_HEADER_OPTION_TYPE && 
 500              		.loc 1 202 0
 501 025c 632B     		cmp	r3, #99
 502 025e 11D1     		bne	.L18
 204:build/openmote-cc2538_armgcc/openstack/03a-IPHC/iphc.c ****         packetfunctions_isBroadcastMulticast(&(msg->l3_destinationAdd))==FALSE
 503              		.loc 1 204 0
 504 0260 FB68     		ldr	r3, [r7, #12]
 505 0262 1933     		adds	r3, r3, #25
 506 0264 1846     		mov	r0, r3
 507 0266 FFF7FEFF 		bl	packetfunctions_isBroadcastMulticast
 508 026a 0346     		mov	r3, r0
 509 026c 83F00103 		eor	r3, r3, #1
 510 0270 DBB2     		uxtb	r3, r3
 203:build/openmote-cc2538_armgcc/openstack/03a-IPHC/iphc.c ****         packetfunctions_isBroadcastMulticast(&(msg->l3_destinationAdd))==FALSE
 511              		.loc 1 203 0
 512 0272 002B     		cmp	r3, #0
 513 0274 06D0     		beq	.L18
 205:build/openmote-cc2538_armgcc/openstack/03a-IPHC/iphc.c ****     ){
 206:build/openmote-cc2538_armgcc/openstack/03a-IPHC/iphc.c ****         iphc_prependIPv6HopByHopHeader(msg, msg->l4_protocol, rpl_option);
 514              		.loc 1 206 0
 515 0276 FB68     		ldr	r3, [r7, #12]
 516 0278 9B7B     		ldrb	r3, [r3, #14]	@ zero_extendqisi2
 517 027a 3A68     		ldr	r2, [r7]
 518 027c 1946     		mov	r1, r3
 519 027e F868     		ldr	r0, [r7, #12]
 520 0280 FFF7FEFF 		bl	iphc_prependIPv6HopByHopHeader
 521              	.L18:
 207:build/openmote-cc2538_armgcc/openstack/03a-IPHC/iphc.c ****     }
 208:build/openmote-cc2538_armgcc/openstack/03a-IPHC/iphc.c ****     
 209:build/openmote-cc2538_armgcc/openstack/03a-IPHC/iphc.c ****     // copy RH3s back if length > 0
 210:build/openmote-cc2538_armgcc/openstack/03a-IPHC/iphc.c ****     if (rh3_length > 0){
 522              		.loc 1 210 0
 523 0284 97F88C30 		ldrb	r3, [r7, #140]	@ zero_extendqisi2
 524 0288 002B     		cmp	r3, #0
 525 028a 0ED0     		beq	.L19
 211:build/openmote-cc2538_armgcc/openstack/03a-IPHC/iphc.c ****         packetfunctions_reserveHeaderSize(msg,rh3_length);
 526              		.loc 1 211 0
 527 028c 97F88C30 		ldrb	r3, [r7, #140]	@ zero_extendqisi2
 528 0290 1946     		mov	r1, r3
 529 0292 F868     		ldr	r0, [r7, #12]
 530 0294 FFF7FEFF 		bl	packetfunctions_reserveHeaderSize
 212:build/openmote-cc2538_armgcc/openstack/03a-IPHC/iphc.c ****         memcpy(&msg->payload[0],&rh3_copy[0],rh3_length);
 531              		.loc 1 212 0
 532 0298 FB68     		ldr	r3, [r7, #12]
 533 029a 5B68     		ldr	r3, [r3, #4]
 534 029c 97F88C20 		ldrb	r2, [r7, #140]	@ zero_extendqisi2
 535 02a0 D7F88810 		ldr	r1, [r7, #136]
 536 02a4 1846     		mov	r0, r3
 537 02a6 FFF7FEFF 		bl	memcpy
 538              	.L19:
 213:build/openmote-cc2538_armgcc/openstack/03a-IPHC/iphc.c ****     }
 214:build/openmote-cc2538_armgcc/openstack/03a-IPHC/iphc.c ****     
 215:build/openmote-cc2538_armgcc/openstack/03a-IPHC/iphc.c ****     // if there are 6LoRH in the packet, add page dispatch no.1
 216:build/openmote-cc2538_armgcc/openstack/03a-IPHC/iphc.c ****     if (
 217:build/openmote-cc2538_armgcc/openstack/03a-IPHC/iphc.c ****         (*((uint8_t*)(msg->payload)) & FORMAT_6LORH_MASK) == CRITICAL_6LORH ||
 539              		.loc 1 217 0
 540 02aa FB68     		ldr	r3, [r7, #12]
 541 02ac 5B68     		ldr	r3, [r3, #4]
 542 02ae 1B78     		ldrb	r3, [r3]	@ zero_extendqisi2
 543 02b0 03F0E003 		and	r3, r3, #224
 216:build/openmote-cc2538_armgcc/openstack/03a-IPHC/iphc.c ****         (*((uint8_t*)(msg->payload)) & FORMAT_6LORH_MASK) == CRITICAL_6LORH ||
 544              		.loc 1 216 0
 545 02b4 802B     		cmp	r3, #128
 546 02b6 06D0     		beq	.L20
 218:build/openmote-cc2538_armgcc/openstack/03a-IPHC/iphc.c ****         (*((uint8_t*)(msg->payload)) & FORMAT_6LORH_MASK) == ELECTIVE_6LoRH
 547              		.loc 1 218 0
 548 02b8 FB68     		ldr	r3, [r7, #12]
 549 02ba 5B68     		ldr	r3, [r3, #4]
 550 02bc 1B78     		ldrb	r3, [r3]	@ zero_extendqisi2
 551 02be 03F0E003 		and	r3, r3, #224
 217:build/openmote-cc2538_armgcc/openstack/03a-IPHC/iphc.c ****         (*((uint8_t*)(msg->payload)) & FORMAT_6LORH_MASK) == ELECTIVE_6LoRH
 552              		.loc 1 217 0
 553 02c2 A02B     		cmp	r3, #160
 554 02c4 07D1     		bne	.L21
 555              	.L20:
 219:build/openmote-cc2538_armgcc/openstack/03a-IPHC/iphc.c ****     ){
 220:build/openmote-cc2538_armgcc/openstack/03a-IPHC/iphc.c ****         packetfunctions_reserveHeaderSize(msg,sizeof(uint8_t));
 556              		.loc 1 220 0
 557 02c6 0121     		movs	r1, #1
 558 02c8 F868     		ldr	r0, [r7, #12]
 559 02ca FFF7FEFF 		bl	packetfunctions_reserveHeaderSize
 221:build/openmote-cc2538_armgcc/openstack/03a-IPHC/iphc.c ****         *((uint8_t*)(msg->payload)) = PAGE_DISPATCH_NO_1;
 560              		.loc 1 221 0
 561 02ce FB68     		ldr	r3, [r7, #12]
 562 02d0 5B68     		ldr	r3, [r3, #4]
 563 02d2 F122     		movs	r2, #241
 564 02d4 1A70     		strb	r2, [r3]
 565              	.L21:
 222:build/openmote-cc2538_armgcc/openstack/03a-IPHC/iphc.c ****     }
 223:build/openmote-cc2538_armgcc/openstack/03a-IPHC/iphc.c ****     
 224:build/openmote-cc2538_armgcc/openstack/03a-IPHC/iphc.c ****     return sixtop_send(msg);
 566              		.loc 1 224 0
 567 02d6 F868     		ldr	r0, [r7, #12]
 568 02d8 FFF7FEFF 		bl	sixtop_send
 569 02dc 0346     		mov	r3, r0
 570              	.L22:
 225:build/openmote-cc2538_armgcc/openstack/03a-IPHC/iphc.c **** }
 571              		.loc 1 225 0 discriminator 1
 572 02de 1846     		mov	r0, r3
 573 02e0 7837     		adds	r7, r7, #120
 574              		.cfi_def_cfa_offset 8
 575 02e2 BD46     		mov	sp, r7
 576              		.cfi_def_cfa_register 13
 577              		@ sp needed
 578 02e4 80BD     		pop	{r7, pc}
 579              	.L24:
 580 02e6 00BF     		.align	2
 581              	.L23:
 582 02e8 74000000 		.word	dagroot_mac64b
 583              		.cfi_endproc
 584              	.LFE1:
 586              		.align	2
 587              		.global	iphc_sendFromBridge
 588              		.thumb
 589              		.thumb_func
 591              	iphc_sendFromBridge:
 592              	.LFB2:
 226:build/openmote-cc2538_armgcc/openstack/03a-IPHC/iphc.c **** 
 227:build/openmote-cc2538_armgcc/openstack/03a-IPHC/iphc.c **** //send from bridge: 6LoWPAN header already added by OpenLBR, send as is
 228:build/openmote-cc2538_armgcc/openstack/03a-IPHC/iphc.c **** owerror_t iphc_sendFromBridge(OpenQueueEntry_t *msg) {
 593              		.loc 1 228 0
 594              		.cfi_startproc
 595              		@ args = 0, pretend = 0, frame = 8
 596              		@ frame_needed = 1, uses_anonymous_args = 0
 597 02ec 80B5     		push	{r7, lr}
 598              		.cfi_def_cfa_offset 8
 599              		.cfi_offset 7, -8
 600              		.cfi_offset 14, -4
 601 02ee 82B0     		sub	sp, sp, #8
 602              		.cfi_def_cfa_offset 16
 603 02f0 00AF     		add	r7, sp, #0
 604              		.cfi_def_cfa_register 7
 605 02f2 7860     		str	r0, [r7, #4]
 229:build/openmote-cc2538_armgcc/openstack/03a-IPHC/iphc.c ****    msg->owner = COMPONENT_IPHC;
 606              		.loc 1 229 0
 607 02f4 7B68     		ldr	r3, [r7, #4]
 608 02f6 1222     		movs	r2, #18
 609 02f8 5A70     		strb	r2, [r3, #1]
 230:build/openmote-cc2538_armgcc/openstack/03a-IPHC/iphc.c ****    // error checking
 231:build/openmote-cc2538_armgcc/openstack/03a-IPHC/iphc.c ****    if (idmanager_getIsDAGroot()==FALSE) {
 610              		.loc 1 231 0
 611 02fa FFF7FEFF 		bl	idmanager_getIsDAGroot
 612 02fe 0346     		mov	r3, r0
 613 0300 83F00103 		eor	r3, r3, #1
 614 0304 DBB2     		uxtb	r3, r3
 615 0306 002B     		cmp	r3, #0
 616 0308 07D0     		beq	.L26
 232:build/openmote-cc2538_armgcc/openstack/03a-IPHC/iphc.c ****       openserial_printCritical(COMPONENT_IPHC,ERR_BRIDGE_MISMATCH,
 617              		.loc 1 232 0
 618 030a 0023     		movs	r3, #0
 619 030c 0122     		movs	r2, #1
 620 030e 3221     		movs	r1, #50
 621 0310 1220     		movs	r0, #18
 622 0312 FFF7FEFF 		bl	openserial_printCritical
 233:build/openmote-cc2538_armgcc/openstack/03a-IPHC/iphc.c ****                             (errorparameter_t)1,
 234:build/openmote-cc2538_armgcc/openstack/03a-IPHC/iphc.c ****                             (errorparameter_t)0);
 235:build/openmote-cc2538_armgcc/openstack/03a-IPHC/iphc.c ****       return E_FAIL;
 623              		.loc 1 235 0
 624 0316 0123     		movs	r3, #1
 625 0318 03E0     		b	.L27
 626              	.L26:
 236:build/openmote-cc2538_armgcc/openstack/03a-IPHC/iphc.c ****    }
 237:build/openmote-cc2538_armgcc/openstack/03a-IPHC/iphc.c ****    return sixtop_send(msg);
 627              		.loc 1 237 0
 628 031a 7868     		ldr	r0, [r7, #4]
 629 031c FFF7FEFF 		bl	sixtop_send
 630 0320 0346     		mov	r3, r0
 631              	.L27:
 238:build/openmote-cc2538_armgcc/openstack/03a-IPHC/iphc.c **** }
 632              		.loc 1 238 0
 633 0322 1846     		mov	r0, r3
 634 0324 0837     		adds	r7, r7, #8
 635              		.cfi_def_cfa_offset 8
 636 0326 BD46     		mov	sp, r7
 637              		.cfi_def_cfa_register 13
 638              		@ sp needed
 639 0328 80BD     		pop	{r7, pc}
 640              		.cfi_endproc
 641              	.LFE2:
 643 032a 00BF     		.align	2
 644              		.global	iphc_sendDone
 645              		.thumb
 646              		.thumb_func
 648              	iphc_sendDone:
 649              	.LFB3:
 239:build/openmote-cc2538_armgcc/openstack/03a-IPHC/iphc.c **** 
 240:build/openmote-cc2538_armgcc/openstack/03a-IPHC/iphc.c **** void iphc_sendDone(OpenQueueEntry_t* msg, owerror_t error) {
 650              		.loc 1 240 0
 651              		.cfi_startproc
 652              		@ args = 0, pretend = 0, frame = 8
 653              		@ frame_needed = 1, uses_anonymous_args = 0
 654 032c 80B5     		push	{r7, lr}
 655              		.cfi_def_cfa_offset 8
 656              		.cfi_offset 7, -8
 657              		.cfi_offset 14, -4
 658 032e 82B0     		sub	sp, sp, #8
 659              		.cfi_def_cfa_offset 16
 660 0330 00AF     		add	r7, sp, #0
 661              		.cfi_def_cfa_register 7
 662 0332 7860     		str	r0, [r7, #4]
 663 0334 0B46     		mov	r3, r1
 664 0336 FB70     		strb	r3, [r7, #3]
 241:build/openmote-cc2538_armgcc/openstack/03a-IPHC/iphc.c ****    msg->owner = COMPONENT_IPHC;
 665              		.loc 1 241 0
 666 0338 7B68     		ldr	r3, [r7, #4]
 667 033a 1222     		movs	r2, #18
 668 033c 5A70     		strb	r2, [r3, #1]
 242:build/openmote-cc2538_armgcc/openstack/03a-IPHC/iphc.c ****    if (msg->creator==COMPONENT_OPENBRIDGE) {
 669              		.loc 1 242 0
 670 033e 7B68     		ldr	r3, [r7, #4]
 671 0340 1B78     		ldrb	r3, [r3]	@ zero_extendqisi2
 672 0342 112B     		cmp	r3, #17
 673 0344 05D1     		bne	.L29
 243:build/openmote-cc2538_armgcc/openstack/03a-IPHC/iphc.c ****       openbridge_sendDone(msg,error);
 674              		.loc 1 243 0
 675 0346 FB78     		ldrb	r3, [r7, #3]	@ zero_extendqisi2
 676 0348 1946     		mov	r1, r3
 677 034a 7868     		ldr	r0, [r7, #4]
 678 034c FFF7FEFF 		bl	openbridge_sendDone
 244:build/openmote-cc2538_armgcc/openstack/03a-IPHC/iphc.c ****    } else {
 245:build/openmote-cc2538_armgcc/openstack/03a-IPHC/iphc.c ****       forwarding_sendDone(msg,error);
 246:build/openmote-cc2538_armgcc/openstack/03a-IPHC/iphc.c ****    }
 247:build/openmote-cc2538_armgcc/openstack/03a-IPHC/iphc.c **** }
 679              		.loc 1 247 0
 680 0350 04E0     		b	.L31
 681              	.L29:
 245:build/openmote-cc2538_armgcc/openstack/03a-IPHC/iphc.c ****    }
 682              		.loc 1 245 0
 683 0352 FB78     		ldrb	r3, [r7, #3]	@ zero_extendqisi2
 684 0354 1946     		mov	r1, r3
 685 0356 7868     		ldr	r0, [r7, #4]
 686 0358 FFF7FEFF 		bl	forwarding_sendDone
 687              	.L31:
 688              		.loc 1 247 0
 689 035c 00BF     		nop
 690 035e 0837     		adds	r7, r7, #8
 691              		.cfi_def_cfa_offset 8
 692 0360 BD46     		mov	sp, r7
 693              		.cfi_def_cfa_register 13
 694              		@ sp needed
 695 0362 80BD     		pop	{r7, pc}
 696              		.cfi_endproc
 697              	.LFE3:
 699              		.align	2
 700              		.global	iphc_receive
 701              		.thumb
 702              		.thumb_func
 704              	iphc_receive:
 705              	.LFB4:
 248:build/openmote-cc2538_armgcc/openstack/03a-IPHC/iphc.c **** 
 249:build/openmote-cc2538_armgcc/openstack/03a-IPHC/iphc.c **** void iphc_receive(OpenQueueEntry_t* msg) {
 706              		.loc 1 249 0
 707              		.cfi_startproc
 708              		@ args = 0, pretend = 0, frame = 192
 709              		@ frame_needed = 1, uses_anonymous_args = 0
 710 0364 80B5     		push	{r7, lr}
 711              		.cfi_def_cfa_offset 8
 712              		.cfi_offset 7, -8
 713              		.cfi_offset 14, -4
 714 0366 B2B0     		sub	sp, sp, #200
 715              		.cfi_def_cfa_offset 208
 716 0368 02AF     		add	r7, sp, #8
 717              		.cfi_def_cfa 7, 200
 718 036a 7860     		str	r0, [r7, #4]
 250:build/openmote-cc2538_armgcc/openstack/03a-IPHC/iphc.c ****     ipv6_header_iht      ipv6_outer_header;
 251:build/openmote-cc2538_armgcc/openstack/03a-IPHC/iphc.c ****     ipv6_header_iht      ipv6_inner_header;
 252:build/openmote-cc2538_armgcc/openstack/03a-IPHC/iphc.c ****     uint8_t              page_length;
 253:build/openmote-cc2538_armgcc/openstack/03a-IPHC/iphc.c ****     rpl_option_ht        rpl_option;
 254:build/openmote-cc2538_armgcc/openstack/03a-IPHC/iphc.c ****     uint8_t              rpi_length;
 255:build/openmote-cc2538_armgcc/openstack/03a-IPHC/iphc.c **** #ifdef DEADLINE_OPTION_ENABLED    
 256:build/openmote-cc2538_armgcc/openstack/03a-IPHC/iphc.c ****     deadline_option_ht*  deadline_ptr = NULL; 
 719              		.loc 1 256 0
 720 036c 0023     		movs	r3, #0
 721 036e C7F8BC30 		str	r3, [r7, #188]
 257:build/openmote-cc2538_armgcc/openstack/03a-IPHC/iphc.c ****     deadline_option_ht   curr_deadline_option;
 258:build/openmote-cc2538_armgcc/openstack/03a-IPHC/iphc.c **** #endif    
 259:build/openmote-cc2538_armgcc/openstack/03a-IPHC/iphc.c ****    
 260:build/openmote-cc2538_armgcc/openstack/03a-IPHC/iphc.c ****     msg->owner      = COMPONENT_IPHC;
 722              		.loc 1 260 0
 723 0372 7B68     		ldr	r3, [r7, #4]
 724 0374 1222     		movs	r2, #18
 725 0376 5A70     		strb	r2, [r3, #1]
 261:build/openmote-cc2538_armgcc/openstack/03a-IPHC/iphc.c ****    
 262:build/openmote-cc2538_armgcc/openstack/03a-IPHC/iphc.c ****     memset(&ipv6_outer_header,0,sizeof(ipv6_header_iht));
 726              		.loc 1 262 0
 727 0378 07F17003 		add	r3, r7, #112
 728 037c 4822     		movs	r2, #72
 729 037e 0021     		movs	r1, #0
 730 0380 1846     		mov	r0, r3
 731 0382 FFF7FEFF 		bl	memset
 263:build/openmote-cc2538_armgcc/openstack/03a-IPHC/iphc.c ****     memset(&ipv6_inner_header,0,sizeof(ipv6_header_iht));
 732              		.loc 1 263 0
 733 0386 07F12803 		add	r3, r7, #40
 734 038a 4822     		movs	r2, #72
 735 038c 0021     		movs	r1, #0
 736 038e 1846     		mov	r0, r3
 737 0390 FFF7FEFF 		bl	memset
 264:build/openmote-cc2538_armgcc/openstack/03a-IPHC/iphc.c ****     memset(&rpl_option,0,sizeof(rpl_option_ht));
 738              		.loc 1 264 0
 739 0394 07F12003 		add	r3, r7, #32
 740 0398 0522     		movs	r2, #5
 741 039a 0021     		movs	r1, #0
 742 039c 1846     		mov	r0, r3
 743 039e FFF7FEFF 		bl	memset
 265:build/openmote-cc2538_armgcc/openstack/03a-IPHC/iphc.c **** 
 266:build/openmote-cc2538_armgcc/openstack/03a-IPHC/iphc.c **** #ifdef DEADLINE_OPTION_ENABLED    
 267:build/openmote-cc2538_armgcc/openstack/03a-IPHC/iphc.c ****     ipv6_outer_header.deadline_option = NULL;
 744              		.loc 1 267 0
 745 03a2 0023     		movs	r3, #0
 746 03a4 C7F88C30 		str	r3, [r7, #140]
 268:build/openmote-cc2538_armgcc/openstack/03a-IPHC/iphc.c **** #endif    
 269:build/openmote-cc2538_armgcc/openstack/03a-IPHC/iphc.c ****     					    
 270:build/openmote-cc2538_armgcc/openstack/03a-IPHC/iphc.c ****     // then regular header
 271:build/openmote-cc2538_armgcc/openstack/03a-IPHC/iphc.c ****     iphc_retrieveIPv6Header(msg,&ipv6_outer_header,&ipv6_inner_header,&page_length);
 747              		.loc 1 271 0
 748 03a8 07F12703 		add	r3, r7, #39
 749 03ac 07F12802 		add	r2, r7, #40
 750 03b0 07F17001 		add	r1, r7, #112
 751 03b4 7868     		ldr	r0, [r7, #4]
 752 03b6 FFF7FEFF 		bl	iphc_retrieveIPv6Header
 272:build/openmote-cc2538_armgcc/openstack/03a-IPHC/iphc.c ****     
 273:build/openmote-cc2538_armgcc/openstack/03a-IPHC/iphc.c ****     // if the address is broadcast address, the ipv6 header is the inner header
 274:build/openmote-cc2538_armgcc/openstack/03a-IPHC/iphc.c ****     if (
 275:build/openmote-cc2538_armgcc/openstack/03a-IPHC/iphc.c ****         idmanager_getIsDAGroot()==FALSE ||
 753              		.loc 1 275 0
 754 03ba FFF7FEFF 		bl	idmanager_getIsDAGroot
 755 03be 0346     		mov	r3, r0
 756 03c0 83F00103 		eor	r3, r3, #1
 757 03c4 DBB2     		uxtb	r3, r3
 274:build/openmote-cc2538_armgcc/openstack/03a-IPHC/iphc.c ****         idmanager_getIsDAGroot()==FALSE ||
 758              		.loc 1 274 0
 759 03c6 002B     		cmp	r3, #0
 760 03c8 08D1     		bne	.L33
 276:build/openmote-cc2538_armgcc/openstack/03a-IPHC/iphc.c ****         packetfunctions_isBroadcastMulticast(&(ipv6_inner_header.dest))
 761              		.loc 1 276 0
 762 03ca 07F12803 		add	r3, r7, #40
 763 03ce 3333     		adds	r3, r3, #51
 764 03d0 1846     		mov	r0, r3
 765 03d2 FFF7FEFF 		bl	packetfunctions_isBroadcastMulticast
 766 03d6 0346     		mov	r3, r0
 275:build/openmote-cc2538_armgcc/openstack/03a-IPHC/iphc.c ****         packetfunctions_isBroadcastMulticast(&(ipv6_inner_header.dest))
 767              		.loc 1 275 0
 768 03d8 002B     		cmp	r3, #0
 769 03da 40D0     		beq	.L34
 770              	.L33:
 277:build/openmote-cc2538_armgcc/openstack/03a-IPHC/iphc.c ****     ) {
 278:build/openmote-cc2538_armgcc/openstack/03a-IPHC/iphc.c ****         packetfunctions_tossHeader(msg,page_length);
 771              		.loc 1 278 0
 772 03dc 97F82730 		ldrb	r3, [r7, #39]	@ zero_extendqisi2
 773 03e0 1946     		mov	r1, r3
 774 03e2 7868     		ldr	r0, [r7, #4]
 775 03e4 FFF7FEFF 		bl	packetfunctions_tossHeader
 279:build/openmote-cc2538_armgcc/openstack/03a-IPHC/iphc.c ****         if (
 280:build/openmote-cc2538_armgcc/openstack/03a-IPHC/iphc.c ****             ipv6_outer_header.next_header==IANA_IPv6HOPOPT &&
 776              		.loc 1 280 0
 777 03e8 97F87930 		ldrb	r3, [r7, #121]	@ zero_extendqisi2
 279:build/openmote-cc2538_armgcc/openstack/03a-IPHC/iphc.c ****         if (
 778              		.loc 1 279 0
 779 03ec 002B     		cmp	r3, #0
 780 03ee 29D1     		bne	.L35
 281:build/openmote-cc2538_armgcc/openstack/03a-IPHC/iphc.c ****             ipv6_outer_header.hopByhop_option != NULL
 781              		.loc 1 281 0
 782 03f0 D7F88830 		ldr	r3, [r7, #136]
 280:build/openmote-cc2538_armgcc/openstack/03a-IPHC/iphc.c ****             ipv6_outer_header.hopByhop_option != NULL
 783              		.loc 1 280 0
 784 03f4 002B     		cmp	r3, #0
 785 03f6 25D0     		beq	.L35
 282:build/openmote-cc2538_armgcc/openstack/03a-IPHC/iphc.c ****         ) {
 283:build/openmote-cc2538_armgcc/openstack/03a-IPHC/iphc.c ****             // retrieve hop-by-hop header (includes RPL option)
 284:build/openmote-cc2538_armgcc/openstack/03a-IPHC/iphc.c ****             rpi_length = iphc_retrieveIPv6HopByHopHeader(
 786              		.loc 1 284 0
 787 03f8 07F12003 		add	r3, r7, #32
 788 03fc 1946     		mov	r1, r3
 789 03fe 7868     		ldr	r0, [r7, #4]
 790 0400 FFF7FEFF 		bl	iphc_retrieveIPv6HopByHopHeader
 791 0404 0346     		mov	r3, r0
 792 0406 87F8BB30 		strb	r3, [r7, #187]
 285:build/openmote-cc2538_armgcc/openstack/03a-IPHC/iphc.c ****                               msg,
 286:build/openmote-cc2538_armgcc/openstack/03a-IPHC/iphc.c ****                               &rpl_option
 287:build/openmote-cc2538_armgcc/openstack/03a-IPHC/iphc.c ****                          );
 288:build/openmote-cc2538_armgcc/openstack/03a-IPHC/iphc.c ****                
 289:build/openmote-cc2538_armgcc/openstack/03a-IPHC/iphc.c **** #ifdef DEADLINE_OPTION_ENABLED              
 290:build/openmote-cc2538_armgcc/openstack/03a-IPHC/iphc.c ****             if(ipv6_outer_header.deadline_option){  
 793              		.loc 1 290 0
 794 040a D7F88C30 		ldr	r3, [r7, #140]
 795 040e 002B     		cmp	r3, #0
 796 0410 12D0     		beq	.L36
 291:build/openmote-cc2538_armgcc/openstack/03a-IPHC/iphc.c ****                 
 292:build/openmote-cc2538_armgcc/openstack/03a-IPHC/iphc.c ****                 memset(&curr_deadline_option,0,sizeof(curr_deadline_option));     
 797              		.loc 1 292 0
 798 0412 07F10803 		add	r3, r7, #8
 799 0416 1522     		movs	r2, #21
 800 0418 0021     		movs	r1, #0
 801 041a 1846     		mov	r0, r3
 802 041c FFF7FEFF 		bl	memset
 293:build/openmote-cc2538_armgcc/openstack/03a-IPHC/iphc.c ****             		iphc_retrieveIPv6DeadlineHeader(
 803              		.loc 1 293 0
 804 0420 D7F88C30 		ldr	r3, [r7, #140]
 805 0424 07F10802 		add	r2, r7, #8
 806 0428 1946     		mov	r1, r3
 807 042a 7868     		ldr	r0, [r7, #4]
 808 042c FFF7FEFF 		bl	iphc_retrieveIPv6DeadlineHeader
 294:build/openmote-cc2538_armgcc/openstack/03a-IPHC/iphc.c ****                                   msg,
 295:build/openmote-cc2538_armgcc/openstack/03a-IPHC/iphc.c ****                                   ipv6_outer_header.deadline_option,
 296:build/openmote-cc2538_armgcc/openstack/03a-IPHC/iphc.c ****                                   &curr_deadline_option
 297:build/openmote-cc2538_armgcc/openstack/03a-IPHC/iphc.c ****                              );                 
 298:build/openmote-cc2538_armgcc/openstack/03a-IPHC/iphc.c ****                  deadline_ptr = &curr_deadline_option;               
 809              		.loc 1 298 0
 810 0430 07F10803 		add	r3, r7, #8
 811 0434 C7F8BC30 		str	r3, [r7, #188]
 812              	.L36:
 299:build/openmote-cc2538_armgcc/openstack/03a-IPHC/iphc.c ****             }           
 300:build/openmote-cc2538_armgcc/openstack/03a-IPHC/iphc.c **** #endif
 301:build/openmote-cc2538_armgcc/openstack/03a-IPHC/iphc.c ****          
 302:build/openmote-cc2538_armgcc/openstack/03a-IPHC/iphc.c ****             // toss the headers
 303:build/openmote-cc2538_armgcc/openstack/03a-IPHC/iphc.c ****             packetfunctions_tossHeader(
 813              		.loc 1 303 0
 814 0438 97F8BB30 		ldrb	r3, [r7, #187]	@ zero_extendqisi2
 815 043c 1946     		mov	r1, r3
 816 043e 7868     		ldr	r0, [r7, #4]
 817 0440 FFF7FEFF 		bl	packetfunctions_tossHeader
 818              	.L35:
 304:build/openmote-cc2538_armgcc/openstack/03a-IPHC/iphc.c ****                 msg,
 305:build/openmote-cc2538_armgcc/openstack/03a-IPHC/iphc.c ****                 rpi_length
 306:build/openmote-cc2538_armgcc/openstack/03a-IPHC/iphc.c ****             );
 307:build/openmote-cc2538_armgcc/openstack/03a-IPHC/iphc.c ****         }
 308:build/openmote-cc2538_armgcc/openstack/03a-IPHC/iphc.c ****       
 309:build/openmote-cc2538_armgcc/openstack/03a-IPHC/iphc.c ****         // send up the stack
 310:build/openmote-cc2538_armgcc/openstack/03a-IPHC/iphc.c ****         forwarding_receive(
 819              		.loc 1 310 0
 820 0444 07F12802 		add	r2, r7, #40
 821 0448 07F17001 		add	r1, r7, #112
 822 044c 07F12003 		add	r3, r7, #32
 823 0450 0093     		str	r3, [sp]
 824 0452 D7F8BC30 		ldr	r3, [r7, #188]
 825 0456 7868     		ldr	r0, [r7, #4]
 826 0458 FFF7FEFF 		bl	forwarding_receive
 827 045c 02E0     		b	.L37
 828              	.L34:
 311:build/openmote-cc2538_armgcc/openstack/03a-IPHC/iphc.c ****             msg,
 312:build/openmote-cc2538_armgcc/openstack/03a-IPHC/iphc.c ****             &ipv6_outer_header,
 313:build/openmote-cc2538_armgcc/openstack/03a-IPHC/iphc.c ****             &ipv6_inner_header,
 314:build/openmote-cc2538_armgcc/openstack/03a-IPHC/iphc.c **** #ifdef DEADLINE_OPTION_ENABLED   
 315:build/openmote-cc2538_armgcc/openstack/03a-IPHC/iphc.c ****             deadline_ptr,
 316:build/openmote-cc2538_armgcc/openstack/03a-IPHC/iphc.c **** #endif            
 317:build/openmote-cc2538_armgcc/openstack/03a-IPHC/iphc.c ****             &rpl_option
 318:build/openmote-cc2538_armgcc/openstack/03a-IPHC/iphc.c ****         );
 319:build/openmote-cc2538_armgcc/openstack/03a-IPHC/iphc.c ****    } else {
 320:build/openmote-cc2538_armgcc/openstack/03a-IPHC/iphc.c ****       openbridge_receive(msg);                   //out to the OpenVisualizer
 829              		.loc 1 320 0
 830 045e 7868     		ldr	r0, [r7, #4]
 831 0460 FFF7FEFF 		bl	openbridge_receive
 832              	.L37:
 321:build/openmote-cc2538_armgcc/openstack/03a-IPHC/iphc.c ****    }
 322:build/openmote-cc2538_armgcc/openstack/03a-IPHC/iphc.c **** }
 833              		.loc 1 322 0
 834 0464 00BF     		nop
 835 0466 C037     		adds	r7, r7, #192
 836              		.cfi_def_cfa_offset 8
 837 0468 BD46     		mov	sp, r7
 838              		.cfi_def_cfa_register 13
 839              		@ sp needed
 840 046a 80BD     		pop	{r7, pc}
 841              		.cfi_endproc
 842              	.LFE4:
 844              		.align	2
 845              		.global	iphc_prependIPv6Header
 846              		.thumb
 847              		.thumb_func
 849              	iphc_prependIPv6Header:
 850              	.LFB5:
 323:build/openmote-cc2538_armgcc/openstack/03a-IPHC/iphc.c **** 
 324:build/openmote-cc2538_armgcc/openstack/03a-IPHC/iphc.c **** //=========================== private =========================================
 325:build/openmote-cc2538_armgcc/openstack/03a-IPHC/iphc.c **** 
 326:build/openmote-cc2538_armgcc/openstack/03a-IPHC/iphc.c **** //===== IPv6 header
 327:build/openmote-cc2538_armgcc/openstack/03a-IPHC/iphc.c **** 
 328:build/openmote-cc2538_armgcc/openstack/03a-IPHC/iphc.c **** /**
 329:build/openmote-cc2538_armgcc/openstack/03a-IPHC/iphc.c **** \brief Prepend an IPv6 header to a message.
 330:build/openmote-cc2538_armgcc/openstack/03a-IPHC/iphc.c **** */
 331:build/openmote-cc2538_armgcc/openstack/03a-IPHC/iphc.c **** owerror_t iphc_prependIPv6Header(
 332:build/openmote-cc2538_armgcc/openstack/03a-IPHC/iphc.c ****       OpenQueueEntry_t* msg,
 333:build/openmote-cc2538_armgcc/openstack/03a-IPHC/iphc.c ****       uint8_t           tf,
 334:build/openmote-cc2538_armgcc/openstack/03a-IPHC/iphc.c ****       uint32_t          value_flowLabel,
 335:build/openmote-cc2538_armgcc/openstack/03a-IPHC/iphc.c ****       uint8_t           nh,
 336:build/openmote-cc2538_armgcc/openstack/03a-IPHC/iphc.c ****       uint8_t           value_nextHeader,
 337:build/openmote-cc2538_armgcc/openstack/03a-IPHC/iphc.c ****       uint8_t           hlim,
 338:build/openmote-cc2538_armgcc/openstack/03a-IPHC/iphc.c ****       uint8_t           value_hopLimit,
 339:build/openmote-cc2538_armgcc/openstack/03a-IPHC/iphc.c ****       bool              cid,
 340:build/openmote-cc2538_armgcc/openstack/03a-IPHC/iphc.c ****       bool              sac,
 341:build/openmote-cc2538_armgcc/openstack/03a-IPHC/iphc.c ****       uint8_t           sam,
 342:build/openmote-cc2538_armgcc/openstack/03a-IPHC/iphc.c ****       bool              m,
 343:build/openmote-cc2538_armgcc/openstack/03a-IPHC/iphc.c ****       bool              dac,
 344:build/openmote-cc2538_armgcc/openstack/03a-IPHC/iphc.c ****       uint8_t           dam,
 345:build/openmote-cc2538_armgcc/openstack/03a-IPHC/iphc.c ****       open_addr_t*      value_dest,
 346:build/openmote-cc2538_armgcc/openstack/03a-IPHC/iphc.c ****       open_addr_t*      value_src,
 347:build/openmote-cc2538_armgcc/openstack/03a-IPHC/iphc.c ****       uint8_t           fw_SendOrfw_Rcv
 348:build/openmote-cc2538_armgcc/openstack/03a-IPHC/iphc.c ****    ) {
 851              		.loc 1 348 0
 852              		.cfi_startproc
 853              		@ args = 48, pretend = 0, frame = 24
 854              		@ frame_needed = 1, uses_anonymous_args = 0
 855 046c 80B5     		push	{r7, lr}
 856              		.cfi_def_cfa_offset 8
 857              		.cfi_offset 7, -8
 858              		.cfi_offset 14, -4
 859 046e 86B0     		sub	sp, sp, #24
 860              		.cfi_def_cfa_offset 32
 861 0470 00AF     		add	r7, sp, #0
 862              		.cfi_def_cfa_register 7
 863 0472 F860     		str	r0, [r7, #12]
 864 0474 7A60     		str	r2, [r7, #4]
 865 0476 1A46     		mov	r2, r3
 866 0478 0B46     		mov	r3, r1
 867 047a FB72     		strb	r3, [r7, #11]
 868 047c 1346     		mov	r3, r2
 869 047e BB72     		strb	r3, [r7, #10]
 349:build/openmote-cc2538_armgcc/openstack/03a-IPHC/iphc.c ****    
 350:build/openmote-cc2538_armgcc/openstack/03a-IPHC/iphc.c ****    uint8_t temp_8b;
 351:build/openmote-cc2538_armgcc/openstack/03a-IPHC/iphc.c ****    
 352:build/openmote-cc2538_armgcc/openstack/03a-IPHC/iphc.c ****    // destination address
 353:build/openmote-cc2538_armgcc/openstack/03a-IPHC/iphc.c ****    switch (dam) {
 870              		.loc 1 353 0
 871 0480 97F84030 		ldrb	r3, [r7, #64]	@ zero_extendqisi2
 872 0484 032B     		cmp	r3, #3
 873 0486 61D8     		bhi	.L39
 874 0488 01A2     		adr	r2, .L41
 875 048a 52F823F0 		ldr	pc, [r2, r3, lsl #2]
 876 048e 00BF     		.p2align 2
 877              	.L41:
 878 0490 1D050000 		.word	.L40+1
 879 0494 ED040000 		.word	.L42+1
 880 0498 BD040000 		.word	.L43+1
 881 049c A1040000 		.word	.L44+1
 882              		.p2align 1
 883              	.L44:
 354:build/openmote-cc2538_armgcc/openstack/03a-IPHC/iphc.c ****       case IPHC_DAM_ELIDED:
 355:build/openmote-cc2538_armgcc/openstack/03a-IPHC/iphc.c ****          if (m == IPHC_M_YES){
 884              		.loc 1 355 0
 885 04a0 97F83830 		ldrb	r3, [r7, #56]	@ zero_extendqisi2
 886 04a4 002B     		cmp	r3, #0
 887 04a6 5BD0     		beq	.L84
 356:build/openmote-cc2538_armgcc/openstack/03a-IPHC/iphc.c ****             packetfunctions_reserveHeaderSize(msg,sizeof(uint8_t));
 888              		.loc 1 356 0
 889 04a8 0121     		movs	r1, #1
 890 04aa F868     		ldr	r0, [r7, #12]
 891 04ac FFF7FEFF 		bl	packetfunctions_reserveHeaderSize
 357:build/openmote-cc2538_armgcc/openstack/03a-IPHC/iphc.c ****             *((uint8_t*)(msg->payload)) = value_dest->addr_128b[15];
 892              		.loc 1 357 0
 893 04b0 FB68     		ldr	r3, [r7, #12]
 894 04b2 5B68     		ldr	r3, [r3, #4]
 895 04b4 7A6C     		ldr	r2, [r7, #68]
 896 04b6 127C     		ldrb	r2, [r2, #16]	@ zero_extendqisi2
 897 04b8 1A70     		strb	r2, [r3]
 358:build/openmote-cc2538_armgcc/openstack/03a-IPHC/iphc.c ****          } else {
 359:build/openmote-cc2538_armgcc/openstack/03a-IPHC/iphc.c ****              //nothing
 360:build/openmote-cc2538_armgcc/openstack/03a-IPHC/iphc.c ****          }
 361:build/openmote-cc2538_armgcc/openstack/03a-IPHC/iphc.c ****          break;
 898              		.loc 1 361 0
 899 04ba 51E0     		b	.L84
 900              	.L43:
 362:build/openmote-cc2538_armgcc/openstack/03a-IPHC/iphc.c ****       case IPHC_DAM_16B:
 363:build/openmote-cc2538_armgcc/openstack/03a-IPHC/iphc.c ****          if (m == IPHC_M_YES){
 901              		.loc 1 363 0
 902 04bc 97F83830 		ldrb	r3, [r7, #56]	@ zero_extendqisi2
 903 04c0 002B     		cmp	r3, #0
 904 04c2 4FD1     		bne	.L85
 364:build/openmote-cc2538_armgcc/openstack/03a-IPHC/iphc.c ****              // tengfei: to do
 365:build/openmote-cc2538_armgcc/openstack/03a-IPHC/iphc.c ****          } else {
 366:build/openmote-cc2538_armgcc/openstack/03a-IPHC/iphc.c ****              if (value_dest->type!=ADDR_16B) {
 905              		.loc 1 366 0
 906 04c4 7B6C     		ldr	r3, [r7, #68]
 907 04c6 1B78     		ldrb	r3, [r3]	@ zero_extendqisi2
 908 04c8 012B     		cmp	r3, #1
 909 04ca 09D0     		beq	.L48
 367:build/openmote-cc2538_armgcc/openstack/03a-IPHC/iphc.c ****                 openserial_printCritical(
 368:build/openmote-cc2538_armgcc/openstack/03a-IPHC/iphc.c ****                    COMPONENT_IPHC,
 369:build/openmote-cc2538_armgcc/openstack/03a-IPHC/iphc.c ****                    ERR_WRONG_ADDR_TYPE,
 370:build/openmote-cc2538_armgcc/openstack/03a-IPHC/iphc.c ****                    (errorparameter_t)value_dest->type,
 910              		.loc 1 370 0
 911 04cc 7B6C     		ldr	r3, [r7, #68]
 912 04ce 1B78     		ldrb	r3, [r3]	@ zero_extendqisi2
 367:build/openmote-cc2538_armgcc/openstack/03a-IPHC/iphc.c ****                 openserial_printCritical(
 913              		.loc 1 367 0
 914 04d0 9AB2     		uxth	r2, r3
 915 04d2 0023     		movs	r3, #0
 916 04d4 3121     		movs	r1, #49
 917 04d6 1220     		movs	r0, #18
 918 04d8 FFF7FEFF 		bl	openserial_printCritical
 371:build/openmote-cc2538_armgcc/openstack/03a-IPHC/iphc.c ****                    (errorparameter_t)0
 372:build/openmote-cc2538_armgcc/openstack/03a-IPHC/iphc.c ****                 );
 373:build/openmote-cc2538_armgcc/openstack/03a-IPHC/iphc.c ****                 return E_FAIL;
 919              		.loc 1 373 0
 920 04dc 0123     		movs	r3, #1
 921 04de A5E1     		b	.L49
 922              	.L48:
 374:build/openmote-cc2538_armgcc/openstack/03a-IPHC/iphc.c ****              };
 375:build/openmote-cc2538_armgcc/openstack/03a-IPHC/iphc.c ****              packetfunctions_writeAddress(msg,value_dest,OW_BIG_ENDIAN);
 923              		.loc 1 375 0
 924 04e0 0022     		movs	r2, #0
 925 04e2 796C     		ldr	r1, [r7, #68]
 926 04e4 F868     		ldr	r0, [r7, #12]
 927 04e6 FFF7FEFF 		bl	packetfunctions_writeAddress
 376:build/openmote-cc2538_armgcc/openstack/03a-IPHC/iphc.c ****          }
 377:build/openmote-cc2538_armgcc/openstack/03a-IPHC/iphc.c ****          break;
 928              		.loc 1 377 0
 929 04ea 3BE0     		b	.L85
 930              	.L42:
 378:build/openmote-cc2538_armgcc/openstack/03a-IPHC/iphc.c ****       case IPHC_DAM_64B:
 379:build/openmote-cc2538_armgcc/openstack/03a-IPHC/iphc.c ****          if (m == IPHC_M_YES){
 931              		.loc 1 379 0
 932 04ec 97F83830 		ldrb	r3, [r7, #56]	@ zero_extendqisi2
 933 04f0 002B     		cmp	r3, #0
 934 04f2 39D1     		bne	.L86
 380:build/openmote-cc2538_armgcc/openstack/03a-IPHC/iphc.c ****              // tengfei: to do
 381:build/openmote-cc2538_armgcc/openstack/03a-IPHC/iphc.c ****          } else {
 382:build/openmote-cc2538_armgcc/openstack/03a-IPHC/iphc.c ****              if (value_dest->type!=ADDR_64B) {
 935              		.loc 1 382 0
 936 04f4 7B6C     		ldr	r3, [r7, #68]
 937 04f6 1B78     		ldrb	r3, [r3]	@ zero_extendqisi2
 938 04f8 022B     		cmp	r3, #2
 939 04fa 09D0     		beq	.L51
 383:build/openmote-cc2538_armgcc/openstack/03a-IPHC/iphc.c ****                 openserial_printCritical(
 384:build/openmote-cc2538_armgcc/openstack/03a-IPHC/iphc.c ****                    COMPONENT_IPHC,
 385:build/openmote-cc2538_armgcc/openstack/03a-IPHC/iphc.c ****                    ERR_WRONG_ADDR_TYPE,
 386:build/openmote-cc2538_armgcc/openstack/03a-IPHC/iphc.c ****                    (errorparameter_t)value_dest->type,
 940              		.loc 1 386 0
 941 04fc 7B6C     		ldr	r3, [r7, #68]
 942 04fe 1B78     		ldrb	r3, [r3]	@ zero_extendqisi2
 383:build/openmote-cc2538_armgcc/openstack/03a-IPHC/iphc.c ****                 openserial_printCritical(
 943              		.loc 1 383 0
 944 0500 9AB2     		uxth	r2, r3
 945 0502 0123     		movs	r3, #1
 946 0504 3121     		movs	r1, #49
 947 0506 1220     		movs	r0, #18
 948 0508 FFF7FEFF 		bl	openserial_printCritical
 387:build/openmote-cc2538_armgcc/openstack/03a-IPHC/iphc.c ****                    (errorparameter_t)1
 388:build/openmote-cc2538_armgcc/openstack/03a-IPHC/iphc.c ****                 );
 389:build/openmote-cc2538_armgcc/openstack/03a-IPHC/iphc.c ****                 return E_FAIL;
 949              		.loc 1 389 0
 950 050c 0123     		movs	r3, #1
 951 050e 8DE1     		b	.L49
 952              	.L51:
 390:build/openmote-cc2538_armgcc/openstack/03a-IPHC/iphc.c ****              };
 391:build/openmote-cc2538_armgcc/openstack/03a-IPHC/iphc.c ****              packetfunctions_writeAddress(msg,value_dest,OW_BIG_ENDIAN);
 953              		.loc 1 391 0
 954 0510 0022     		movs	r2, #0
 955 0512 796C     		ldr	r1, [r7, #68]
 956 0514 F868     		ldr	r0, [r7, #12]
 957 0516 FFF7FEFF 		bl	packetfunctions_writeAddress
 392:build/openmote-cc2538_armgcc/openstack/03a-IPHC/iphc.c ****          }
 393:build/openmote-cc2538_armgcc/openstack/03a-IPHC/iphc.c ****          break;
 958              		.loc 1 393 0
 959 051a 25E0     		b	.L86
 960              	.L40:
 394:build/openmote-cc2538_armgcc/openstack/03a-IPHC/iphc.c ****       case IPHC_DAM_128B:
 395:build/openmote-cc2538_armgcc/openstack/03a-IPHC/iphc.c ****          if (m == IPHC_M_YES){
 961              		.loc 1 395 0
 962 051c 97F83830 		ldrb	r3, [r7, #56]	@ zero_extendqisi2
 963 0520 002B     		cmp	r3, #0
 964 0522 23D1     		bne	.L87
 396:build/openmote-cc2538_armgcc/openstack/03a-IPHC/iphc.c ****              // tengfei: to do
 397:build/openmote-cc2538_armgcc/openstack/03a-IPHC/iphc.c ****          } else {
 398:build/openmote-cc2538_armgcc/openstack/03a-IPHC/iphc.c ****              if (value_dest->type!=ADDR_128B) {
 965              		.loc 1 398 0
 966 0524 7B6C     		ldr	r3, [r7, #68]
 967 0526 1B78     		ldrb	r3, [r3]	@ zero_extendqisi2
 968 0528 032B     		cmp	r3, #3
 969 052a 09D0     		beq	.L53
 399:build/openmote-cc2538_armgcc/openstack/03a-IPHC/iphc.c ****                 openserial_printCritical(
 400:build/openmote-cc2538_armgcc/openstack/03a-IPHC/iphc.c ****                    COMPONENT_IPHC,
 401:build/openmote-cc2538_armgcc/openstack/03a-IPHC/iphc.c ****                    ERR_WRONG_ADDR_TYPE,
 402:build/openmote-cc2538_armgcc/openstack/03a-IPHC/iphc.c ****                    (errorparameter_t)value_dest->type,
 970              		.loc 1 402 0
 971 052c 7B6C     		ldr	r3, [r7, #68]
 972 052e 1B78     		ldrb	r3, [r3]	@ zero_extendqisi2
 399:build/openmote-cc2538_armgcc/openstack/03a-IPHC/iphc.c ****                 openserial_printCritical(
 973              		.loc 1 399 0
 974 0530 9AB2     		uxth	r2, r3
 975 0532 0223     		movs	r3, #2
 976 0534 3121     		movs	r1, #49
 977 0536 1220     		movs	r0, #18
 978 0538 FFF7FEFF 		bl	openserial_printCritical
 403:build/openmote-cc2538_armgcc/openstack/03a-IPHC/iphc.c ****                    (errorparameter_t)2
 404:build/openmote-cc2538_armgcc/openstack/03a-IPHC/iphc.c ****                 );
 405:build/openmote-cc2538_armgcc/openstack/03a-IPHC/iphc.c ****                 return E_FAIL;
 979              		.loc 1 405 0
 980 053c 0123     		movs	r3, #1
 981 053e 75E1     		b	.L49
 982              	.L53:
 406:build/openmote-cc2538_armgcc/openstack/03a-IPHC/iphc.c ****              };
 407:build/openmote-cc2538_armgcc/openstack/03a-IPHC/iphc.c ****              packetfunctions_writeAddress(msg,value_dest,OW_BIG_ENDIAN);
 983              		.loc 1 407 0
 984 0540 0022     		movs	r2, #0
 985 0542 796C     		ldr	r1, [r7, #68]
 986 0544 F868     		ldr	r0, [r7, #12]
 987 0546 FFF7FEFF 		bl	packetfunctions_writeAddress
 408:build/openmote-cc2538_armgcc/openstack/03a-IPHC/iphc.c ****          }
 409:build/openmote-cc2538_armgcc/openstack/03a-IPHC/iphc.c ****          break;
 988              		.loc 1 409 0
 989 054a 0FE0     		b	.L87
 990              	.L39:
 410:build/openmote-cc2538_armgcc/openstack/03a-IPHC/iphc.c ****       default:
 411:build/openmote-cc2538_armgcc/openstack/03a-IPHC/iphc.c ****          openserial_printCritical(
 991              		.loc 1 411 0
 992 054c 97F84030 		ldrb	r3, [r7, #64]	@ zero_extendqisi2
 993 0550 9BB2     		uxth	r3, r3
 994 0552 0022     		movs	r2, #0
 995 0554 0C21     		movs	r1, #12
 996 0556 1220     		movs	r0, #18
 997 0558 FFF7FEFF 		bl	openserial_printCritical
 412:build/openmote-cc2538_armgcc/openstack/03a-IPHC/iphc.c ****             COMPONENT_IPHC,
 413:build/openmote-cc2538_armgcc/openstack/03a-IPHC/iphc.c ****             ERR_6LOWPAN_UNSUPPORTED,
 414:build/openmote-cc2538_armgcc/openstack/03a-IPHC/iphc.c ****             (errorparameter_t)0,
 415:build/openmote-cc2538_armgcc/openstack/03a-IPHC/iphc.c ****             (errorparameter_t)dam
 416:build/openmote-cc2538_armgcc/openstack/03a-IPHC/iphc.c ****          );
 417:build/openmote-cc2538_armgcc/openstack/03a-IPHC/iphc.c ****          return E_FAIL;
 998              		.loc 1 417 0
 999 055c 0123     		movs	r3, #1
 1000 055e 65E1     		b	.L49
 1001              	.L84:
 361:build/openmote-cc2538_armgcc/openstack/03a-IPHC/iphc.c ****       case IPHC_DAM_16B:
 1002              		.loc 1 361 0
 1003 0560 00BF     		nop
 1004 0562 04E0     		b	.L46
 1005              	.L85:
 377:build/openmote-cc2538_armgcc/openstack/03a-IPHC/iphc.c ****       case IPHC_DAM_64B:
 1006              		.loc 1 377 0
 1007 0564 00BF     		nop
 1008 0566 02E0     		b	.L46
 1009              	.L86:
 393:build/openmote-cc2538_armgcc/openstack/03a-IPHC/iphc.c ****       case IPHC_DAM_128B:
 1010              		.loc 1 393 0
 1011 0568 00BF     		nop
 1012 056a 00E0     		b	.L46
 1013              	.L87:
 409:build/openmote-cc2538_armgcc/openstack/03a-IPHC/iphc.c ****       default:
 1014              		.loc 1 409 0
 1015 056c 00BF     		nop
 1016              	.L46:
 418:build/openmote-cc2538_armgcc/openstack/03a-IPHC/iphc.c ****    }
 419:build/openmote-cc2538_armgcc/openstack/03a-IPHC/iphc.c ****    
 420:build/openmote-cc2538_armgcc/openstack/03a-IPHC/iphc.c ****    // source address
 421:build/openmote-cc2538_armgcc/openstack/03a-IPHC/iphc.c ****    switch (sam) {
 1017              		.loc 1 421 0
 1018 056e 97F83430 		ldrb	r3, [r7, #52]	@ zero_extendqisi2
 1019 0572 032B     		cmp	r3, #3
 1020 0574 00F28480 		bhi	.L54
 1021 0578 01A2     		adr	r2, .L56
 1022 057a 52F823F0 		ldr	pc, [r2, r3, lsl #2]
 1023 057e 00BF     		.p2align 2
 1024              	.L56:
 1025 0580 25060000 		.word	.L55+1
 1026 0584 DB050000 		.word	.L57+1
 1027 0588 91050000 		.word	.L58+1
 1028 058c 95060000 		.word	.L88+1
 1029              		.p2align 1
 1030              	.L58:
 422:build/openmote-cc2538_armgcc/openstack/03a-IPHC/iphc.c ****       case IPHC_SAM_ELIDED:
 423:build/openmote-cc2538_armgcc/openstack/03a-IPHC/iphc.c ****          break;
 424:build/openmote-cc2538_armgcc/openstack/03a-IPHC/iphc.c ****       case IPHC_SAM_16B:
 425:build/openmote-cc2538_armgcc/openstack/03a-IPHC/iphc.c ****          if(fw_SendOrfw_Rcv==PCKTSEND) {
 1031              		.loc 1 425 0
 1032 0590 97F84C30 		ldrb	r3, [r7, #76]	@ zero_extendqisi2
 1033 0594 022B     		cmp	r3, #2
 1034 0596 08D1     		bne	.L61
 426:build/openmote-cc2538_armgcc/openstack/03a-IPHC/iphc.c ****             packetfunctions_writeAddress(msg, (idmanager_getMyID(ADDR_16B)),OW_BIG_ENDIAN);
 1035              		.loc 1 426 0
 1036 0598 0120     		movs	r0, #1
 1037 059a FFF7FEFF 		bl	idmanager_getMyID
 1038 059e 0346     		mov	r3, r0
 1039 05a0 0022     		movs	r2, #0
 1040 05a2 1946     		mov	r1, r3
 1041 05a4 F868     		ldr	r0, [r7, #12]
 1042 05a6 FFF7FEFF 		bl	packetfunctions_writeAddress
 1043              	.L61:
 427:build/openmote-cc2538_armgcc/openstack/03a-IPHC/iphc.c ****          }
 428:build/openmote-cc2538_armgcc/openstack/03a-IPHC/iphc.c ****          if(fw_SendOrfw_Rcv==PCKTFORWARD) {
 1044              		.loc 1 428 0
 1045 05aa 97F84C30 		ldrb	r3, [r7, #76]	@ zero_extendqisi2
 1046 05ae 012B     		cmp	r3, #1
 1047 05b0 72D1     		bne	.L89
 429:build/openmote-cc2538_armgcc/openstack/03a-IPHC/iphc.c ****             if (value_src->type!=ADDR_16B) {
 1048              		.loc 1 429 0
 1049 05b2 BB6C     		ldr	r3, [r7, #72]
 1050 05b4 1B78     		ldrb	r3, [r3]	@ zero_extendqisi2
 1051 05b6 012B     		cmp	r3, #1
 1052 05b8 09D0     		beq	.L63
 430:build/openmote-cc2538_armgcc/openstack/03a-IPHC/iphc.c ****                openserial_printCritical(
 431:build/openmote-cc2538_armgcc/openstack/03a-IPHC/iphc.c ****                   COMPONENT_IPHC,
 432:build/openmote-cc2538_armgcc/openstack/03a-IPHC/iphc.c ****                   ERR_WRONG_ADDR_TYPE,
 433:build/openmote-cc2538_armgcc/openstack/03a-IPHC/iphc.c ****                   (errorparameter_t)value_src->type,
 1053              		.loc 1 433 0
 1054 05ba BB6C     		ldr	r3, [r7, #72]
 1055 05bc 1B78     		ldrb	r3, [r3]	@ zero_extendqisi2
 430:build/openmote-cc2538_armgcc/openstack/03a-IPHC/iphc.c ****                openserial_printCritical(
 1056              		.loc 1 430 0
 1057 05be 9AB2     		uxth	r2, r3
 1058 05c0 0023     		movs	r3, #0
 1059 05c2 3121     		movs	r1, #49
 1060 05c4 1220     		movs	r0, #18
 1061 05c6 FFF7FEFF 		bl	openserial_printCritical
 434:build/openmote-cc2538_armgcc/openstack/03a-IPHC/iphc.c ****                   (errorparameter_t)0
 435:build/openmote-cc2538_armgcc/openstack/03a-IPHC/iphc.c ****                );
 436:build/openmote-cc2538_armgcc/openstack/03a-IPHC/iphc.c ****                return E_FAIL;
 1062              		.loc 1 436 0
 1063 05ca 0123     		movs	r3, #1
 1064 05cc 2EE1     		b	.L49
 1065              	.L63:
 437:build/openmote-cc2538_armgcc/openstack/03a-IPHC/iphc.c ****             } 
 438:build/openmote-cc2538_armgcc/openstack/03a-IPHC/iphc.c ****             packetfunctions_writeAddress(msg,value_src,OW_BIG_ENDIAN);
 1066              		.loc 1 438 0
 1067 05ce 0022     		movs	r2, #0
 1068 05d0 B96C     		ldr	r1, [r7, #72]
 1069 05d2 F868     		ldr	r0, [r7, #12]
 1070 05d4 FFF7FEFF 		bl	packetfunctions_writeAddress
 439:build/openmote-cc2538_armgcc/openstack/03a-IPHC/iphc.c ****          }
 440:build/openmote-cc2538_armgcc/openstack/03a-IPHC/iphc.c ****          break;
 1071              		.loc 1 440 0
 1072 05d8 5EE0     		b	.L89
 1073              	.L57:
 441:build/openmote-cc2538_armgcc/openstack/03a-IPHC/iphc.c ****       case IPHC_SAM_64B:
 442:build/openmote-cc2538_armgcc/openstack/03a-IPHC/iphc.c ****          if(fw_SendOrfw_Rcv==PCKTSEND) {
 1074              		.loc 1 442 0
 1075 05da 97F84C30 		ldrb	r3, [r7, #76]	@ zero_extendqisi2
 1076 05de 022B     		cmp	r3, #2
 1077 05e0 08D1     		bne	.L64
 443:build/openmote-cc2538_armgcc/openstack/03a-IPHC/iphc.c ****             packetfunctions_writeAddress(msg, (idmanager_getMyID(ADDR_64B)),OW_BIG_ENDIAN);
 1078              		.loc 1 443 0
 1079 05e2 0220     		movs	r0, #2
 1080 05e4 FFF7FEFF 		bl	idmanager_getMyID
 1081 05e8 0346     		mov	r3, r0
 1082 05ea 0022     		movs	r2, #0
 1083 05ec 1946     		mov	r1, r3
 1084 05ee F868     		ldr	r0, [r7, #12]
 1085 05f0 FFF7FEFF 		bl	packetfunctions_writeAddress
 1086              	.L64:
 444:build/openmote-cc2538_armgcc/openstack/03a-IPHC/iphc.c ****          }
 445:build/openmote-cc2538_armgcc/openstack/03a-IPHC/iphc.c ****          if(fw_SendOrfw_Rcv==PCKTFORWARD) {
 1087              		.loc 1 445 0
 1088 05f4 97F84C30 		ldrb	r3, [r7, #76]	@ zero_extendqisi2
 1089 05f8 012B     		cmp	r3, #1
 1090 05fa 4FD1     		bne	.L90
 446:build/openmote-cc2538_armgcc/openstack/03a-IPHC/iphc.c ****             if (value_src->type!=ADDR_64B) {
 1091              		.loc 1 446 0
 1092 05fc BB6C     		ldr	r3, [r7, #72]
 1093 05fe 1B78     		ldrb	r3, [r3]	@ zero_extendqisi2
 1094 0600 022B     		cmp	r3, #2
 1095 0602 09D0     		beq	.L66
 447:build/openmote-cc2538_armgcc/openstack/03a-IPHC/iphc.c ****                openserial_printCritical(
 448:build/openmote-cc2538_armgcc/openstack/03a-IPHC/iphc.c ****                   COMPONENT_IPHC,
 449:build/openmote-cc2538_armgcc/openstack/03a-IPHC/iphc.c ****                   ERR_WRONG_ADDR_TYPE,
 450:build/openmote-cc2538_armgcc/openstack/03a-IPHC/iphc.c ****                   (errorparameter_t)value_src->type,
 1096              		.loc 1 450 0
 1097 0604 BB6C     		ldr	r3, [r7, #72]
 1098 0606 1B78     		ldrb	r3, [r3]	@ zero_extendqisi2
 447:build/openmote-cc2538_armgcc/openstack/03a-IPHC/iphc.c ****                openserial_printCritical(
 1099              		.loc 1 447 0
 1100 0608 9AB2     		uxth	r2, r3
 1101 060a 0123     		movs	r3, #1
 1102 060c 3121     		movs	r1, #49
 1103 060e 1220     		movs	r0, #18
 1104 0610 FFF7FEFF 		bl	openserial_printCritical
 451:build/openmote-cc2538_armgcc/openstack/03a-IPHC/iphc.c ****                   (errorparameter_t)1
 452:build/openmote-cc2538_armgcc/openstack/03a-IPHC/iphc.c ****                );
 453:build/openmote-cc2538_armgcc/openstack/03a-IPHC/iphc.c ****                return E_FAIL;
 1105              		.loc 1 453 0
 1106 0614 0123     		movs	r3, #1
 1107 0616 09E1     		b	.L49
 1108              	.L66:
 454:build/openmote-cc2538_armgcc/openstack/03a-IPHC/iphc.c ****             }      
 455:build/openmote-cc2538_armgcc/openstack/03a-IPHC/iphc.c ****             packetfunctions_writeAddress(msg, value_src,OW_BIG_ENDIAN);
 1109              		.loc 1 455 0
 1110 0618 0022     		movs	r2, #0
 1111 061a B96C     		ldr	r1, [r7, #72]
 1112 061c F868     		ldr	r0, [r7, #12]
 1113 061e FFF7FEFF 		bl	packetfunctions_writeAddress
 456:build/openmote-cc2538_armgcc/openstack/03a-IPHC/iphc.c ****          }
 457:build/openmote-cc2538_armgcc/openstack/03a-IPHC/iphc.c ****          break;
 1114              		.loc 1 457 0
 1115 0622 3BE0     		b	.L90
 1116              	.L55:
 458:build/openmote-cc2538_armgcc/openstack/03a-IPHC/iphc.c ****       case IPHC_SAM_128B:
 459:build/openmote-cc2538_armgcc/openstack/03a-IPHC/iphc.c ****          if(fw_SendOrfw_Rcv==PCKTSEND) {
 1117              		.loc 1 459 0
 1118 0624 97F84C30 		ldrb	r3, [r7, #76]	@ zero_extendqisi2
 1119 0628 022B     		cmp	r3, #2
 1120 062a 11D1     		bne	.L67
 460:build/openmote-cc2538_armgcc/openstack/03a-IPHC/iphc.c ****             packetfunctions_writeAddress(msg, (idmanager_getMyID(ADDR_64B)),OW_BIG_ENDIAN);
 1121              		.loc 1 460 0
 1122 062c 0220     		movs	r0, #2
 1123 062e FFF7FEFF 		bl	idmanager_getMyID
 1124 0632 0346     		mov	r3, r0
 1125 0634 0022     		movs	r2, #0
 1126 0636 1946     		mov	r1, r3
 1127 0638 F868     		ldr	r0, [r7, #12]
 1128 063a FFF7FEFF 		bl	packetfunctions_writeAddress
 461:build/openmote-cc2538_armgcc/openstack/03a-IPHC/iphc.c ****             packetfunctions_writeAddress(msg, (idmanager_getMyID(ADDR_PREFIX)),OW_BIG_ENDIAN);
 1129              		.loc 1 461 0
 1130 063e 0520     		movs	r0, #5
 1131 0640 FFF7FEFF 		bl	idmanager_getMyID
 1132 0644 0346     		mov	r3, r0
 1133 0646 0022     		movs	r2, #0
 1134 0648 1946     		mov	r1, r3
 1135 064a F868     		ldr	r0, [r7, #12]
 1136 064c FFF7FEFF 		bl	packetfunctions_writeAddress
 1137              	.L67:
 462:build/openmote-cc2538_armgcc/openstack/03a-IPHC/iphc.c ****          }
 463:build/openmote-cc2538_armgcc/openstack/03a-IPHC/iphc.c ****          if(fw_SendOrfw_Rcv==PCKTFORWARD) {
 1138              		.loc 1 463 0
 1139 0650 97F84C30 		ldrb	r3, [r7, #76]	@ zero_extendqisi2
 1140 0654 012B     		cmp	r3, #1
 1141 0656 23D1     		bne	.L91
 464:build/openmote-cc2538_armgcc/openstack/03a-IPHC/iphc.c ****             if (value_src->type!=ADDR_128B) {
 1142              		.loc 1 464 0
 1143 0658 BB6C     		ldr	r3, [r7, #72]
 1144 065a 1B78     		ldrb	r3, [r3]	@ zero_extendqisi2
 1145 065c 032B     		cmp	r3, #3
 1146 065e 09D0     		beq	.L69
 465:build/openmote-cc2538_armgcc/openstack/03a-IPHC/iphc.c ****                openserial_printCritical(
 466:build/openmote-cc2538_armgcc/openstack/03a-IPHC/iphc.c ****                   COMPONENT_IPHC,
 467:build/openmote-cc2538_armgcc/openstack/03a-IPHC/iphc.c ****                   ERR_WRONG_ADDR_TYPE,
 468:build/openmote-cc2538_armgcc/openstack/03a-IPHC/iphc.c ****                   (errorparameter_t)value_src->type,
 1147              		.loc 1 468 0
 1148 0660 BB6C     		ldr	r3, [r7, #72]
 1149 0662 1B78     		ldrb	r3, [r3]	@ zero_extendqisi2
 465:build/openmote-cc2538_armgcc/openstack/03a-IPHC/iphc.c ****                openserial_printCritical(
 1150              		.loc 1 465 0
 1151 0664 9AB2     		uxth	r2, r3
 1152 0666 0223     		movs	r3, #2
 1153 0668 3121     		movs	r1, #49
 1154 066a 1220     		movs	r0, #18
 1155 066c FFF7FEFF 		bl	openserial_printCritical
 469:build/openmote-cc2538_armgcc/openstack/03a-IPHC/iphc.c ****                   (errorparameter_t)2
 470:build/openmote-cc2538_armgcc/openstack/03a-IPHC/iphc.c ****                );
 471:build/openmote-cc2538_armgcc/openstack/03a-IPHC/iphc.c ****                return E_FAIL;
 1156              		.loc 1 471 0
 1157 0670 0123     		movs	r3, #1
 1158 0672 DBE0     		b	.L49
 1159              	.L69:
 472:build/openmote-cc2538_armgcc/openstack/03a-IPHC/iphc.c ****             }
 473:build/openmote-cc2538_armgcc/openstack/03a-IPHC/iphc.c ****             packetfunctions_writeAddress(msg,value_src,OW_BIG_ENDIAN);
 1160              		.loc 1 473 0
 1161 0674 0022     		movs	r2, #0
 1162 0676 B96C     		ldr	r1, [r7, #72]
 1163 0678 F868     		ldr	r0, [r7, #12]
 1164 067a FFF7FEFF 		bl	packetfunctions_writeAddress
 474:build/openmote-cc2538_armgcc/openstack/03a-IPHC/iphc.c ****          }
 475:build/openmote-cc2538_armgcc/openstack/03a-IPHC/iphc.c ****          break;
 1165              		.loc 1 475 0
 1166 067e 0FE0     		b	.L91
 1167              	.L54:
 476:build/openmote-cc2538_armgcc/openstack/03a-IPHC/iphc.c ****       default:
 477:build/openmote-cc2538_armgcc/openstack/03a-IPHC/iphc.c ****          openserial_printCritical(
 1168              		.loc 1 477 0
 1169 0680 97F83430 		ldrb	r3, [r7, #52]	@ zero_extendqisi2
 1170 0684 9BB2     		uxth	r3, r3
 1171 0686 0122     		movs	r2, #1
 1172 0688 0C21     		movs	r1, #12
 1173 068a 1220     		movs	r0, #18
 1174 068c FFF7FEFF 		bl	openserial_printCritical
 478:build/openmote-cc2538_armgcc/openstack/03a-IPHC/iphc.c ****             COMPONENT_IPHC,
 479:build/openmote-cc2538_armgcc/openstack/03a-IPHC/iphc.c ****             ERR_6LOWPAN_UNSUPPORTED,
 480:build/openmote-cc2538_armgcc/openstack/03a-IPHC/iphc.c ****             (errorparameter_t)1,
 481:build/openmote-cc2538_armgcc/openstack/03a-IPHC/iphc.c ****             (errorparameter_t)sam
 482:build/openmote-cc2538_armgcc/openstack/03a-IPHC/iphc.c ****          );
 483:build/openmote-cc2538_armgcc/openstack/03a-IPHC/iphc.c ****          return E_FAIL;
 1175              		.loc 1 483 0
 1176 0690 0123     		movs	r3, #1
 1177 0692 CBE0     		b	.L49
 1178              	.L88:
 423:build/openmote-cc2538_armgcc/openstack/03a-IPHC/iphc.c ****       case IPHC_SAM_16B:
 1179              		.loc 1 423 0
 1180 0694 00BF     		nop
 1181 0696 04E0     		b	.L60
 1182              	.L89:
 440:build/openmote-cc2538_armgcc/openstack/03a-IPHC/iphc.c ****       case IPHC_SAM_64B:
 1183              		.loc 1 440 0
 1184 0698 00BF     		nop
 1185 069a 02E0     		b	.L60
 1186              	.L90:
 457:build/openmote-cc2538_armgcc/openstack/03a-IPHC/iphc.c ****       case IPHC_SAM_128B:
 1187              		.loc 1 457 0
 1188 069c 00BF     		nop
 1189 069e 00E0     		b	.L60
 1190              	.L91:
 475:build/openmote-cc2538_armgcc/openstack/03a-IPHC/iphc.c ****       default:
 1191              		.loc 1 475 0
 1192 06a0 00BF     		nop
 1193              	.L60:
 484:build/openmote-cc2538_armgcc/openstack/03a-IPHC/iphc.c ****    }
 485:build/openmote-cc2538_armgcc/openstack/03a-IPHC/iphc.c ****    
 486:build/openmote-cc2538_armgcc/openstack/03a-IPHC/iphc.c ****    // hop limit
 487:build/openmote-cc2538_armgcc/openstack/03a-IPHC/iphc.c ****    switch (hlim) {
 1194              		.loc 1 487 0
 1195 06a2 97F82430 		ldrb	r3, [r7, #36]	@ zero_extendqisi2
 1196 06a6 002B     		cmp	r3, #0
 1197 06a8 04D0     		beq	.L71
 1198 06aa 002B     		cmp	r3, #0
 1199 06ac 0CDB     		blt	.L70
 1200 06ae 032B     		cmp	r3, #3
 1201 06b0 0ADC     		bgt	.L70
 488:build/openmote-cc2538_armgcc/openstack/03a-IPHC/iphc.c ****       case IPHC_HLIM_INLINE:
 489:build/openmote-cc2538_armgcc/openstack/03a-IPHC/iphc.c ****          packetfunctions_reserveHeaderSize(msg,sizeof(uint8_t));
 490:build/openmote-cc2538_armgcc/openstack/03a-IPHC/iphc.c ****          *((uint8_t*)(msg->payload)) = value_hopLimit;
 491:build/openmote-cc2538_armgcc/openstack/03a-IPHC/iphc.c ****          break;
 492:build/openmote-cc2538_armgcc/openstack/03a-IPHC/iphc.c ****       case IPHC_HLIM_1:
 493:build/openmote-cc2538_armgcc/openstack/03a-IPHC/iphc.c ****       case IPHC_HLIM_64:
 494:build/openmote-cc2538_armgcc/openstack/03a-IPHC/iphc.c ****       case IPHC_HLIM_255:
 495:build/openmote-cc2538_armgcc/openstack/03a-IPHC/iphc.c ****          break;
 1202              		.loc 1 495 0
 1203 06b2 13E0     		b	.L73
 1204              	.L71:
 489:build/openmote-cc2538_armgcc/openstack/03a-IPHC/iphc.c ****          *((uint8_t*)(msg->payload)) = value_hopLimit;
 1205              		.loc 1 489 0
 1206 06b4 0121     		movs	r1, #1
 1207 06b6 F868     		ldr	r0, [r7, #12]
 1208 06b8 FFF7FEFF 		bl	packetfunctions_reserveHeaderSize
 490:build/openmote-cc2538_armgcc/openstack/03a-IPHC/iphc.c ****          break;
 1209              		.loc 1 490 0
 1210 06bc FB68     		ldr	r3, [r7, #12]
 1211 06be 5B68     		ldr	r3, [r3, #4]
 1212 06c0 97F82820 		ldrb	r2, [r7, #40]
 1213 06c4 1A70     		strb	r2, [r3]
 491:build/openmote-cc2538_armgcc/openstack/03a-IPHC/iphc.c ****       case IPHC_HLIM_1:
 1214              		.loc 1 491 0
 1215 06c6 09E0     		b	.L73
 1216              	.L70:
 496:build/openmote-cc2538_armgcc/openstack/03a-IPHC/iphc.c ****       default:
 497:build/openmote-cc2538_armgcc/openstack/03a-IPHC/iphc.c ****          openserial_printCritical(
 1217              		.loc 1 497 0
 1218 06c8 97F82430 		ldrb	r3, [r7, #36]	@ zero_extendqisi2
 1219 06cc 9BB2     		uxth	r3, r3
 1220 06ce 0222     		movs	r2, #2
 1221 06d0 0C21     		movs	r1, #12
 1222 06d2 1220     		movs	r0, #18
 1223 06d4 FFF7FEFF 		bl	openserial_printCritical
 498:build/openmote-cc2538_armgcc/openstack/03a-IPHC/iphc.c ****             COMPONENT_IPHC,
 499:build/openmote-cc2538_armgcc/openstack/03a-IPHC/iphc.c ****             ERR_6LOWPAN_UNSUPPORTED,
 500:build/openmote-cc2538_armgcc/openstack/03a-IPHC/iphc.c ****             (errorparameter_t)2,
 501:build/openmote-cc2538_armgcc/openstack/03a-IPHC/iphc.c ****             (errorparameter_t)hlim
 502:build/openmote-cc2538_armgcc/openstack/03a-IPHC/iphc.c ****          );
 503:build/openmote-cc2538_armgcc/openstack/03a-IPHC/iphc.c ****          return E_FAIL;
 1224              		.loc 1 503 0
 1225 06d8 0123     		movs	r3, #1
 1226 06da A7E0     		b	.L49
 1227              	.L73:
 504:build/openmote-cc2538_armgcc/openstack/03a-IPHC/iphc.c ****    }
 505:build/openmote-cc2538_armgcc/openstack/03a-IPHC/iphc.c ****    
 506:build/openmote-cc2538_armgcc/openstack/03a-IPHC/iphc.c ****    // next header
 507:build/openmote-cc2538_armgcc/openstack/03a-IPHC/iphc.c ****    switch (nh) {
 1228              		.loc 1 507 0
 1229 06dc BB7A     		ldrb	r3, [r7, #10]	@ zero_extendqisi2
 1230 06de 002B     		cmp	r3, #0
 1231 06e0 02D0     		beq	.L75
 1232 06e2 012B     		cmp	r3, #1
 1233 06e4 13D0     		beq	.L92
 1234 06e6 09E0     		b	.L82
 1235              	.L75:
 508:build/openmote-cc2538_armgcc/openstack/03a-IPHC/iphc.c ****       case IPHC_NH_INLINE:
 509:build/openmote-cc2538_armgcc/openstack/03a-IPHC/iphc.c ****          packetfunctions_reserveHeaderSize(msg,sizeof(uint8_t));
 1236              		.loc 1 509 0
 1237 06e8 0121     		movs	r1, #1
 1238 06ea F868     		ldr	r0, [r7, #12]
 1239 06ec FFF7FEFF 		bl	packetfunctions_reserveHeaderSize
 510:build/openmote-cc2538_armgcc/openstack/03a-IPHC/iphc.c ****          *((uint8_t*)(msg->payload)) = value_nextHeader;
 1240              		.loc 1 510 0
 1241 06f0 FB68     		ldr	r3, [r7, #12]
 1242 06f2 5B68     		ldr	r3, [r3, #4]
 1243 06f4 97F82020 		ldrb	r2, [r7, #32]
 1244 06f8 1A70     		strb	r2, [r3]
 511:build/openmote-cc2538_armgcc/openstack/03a-IPHC/iphc.c ****          break;
 1245              		.loc 1 511 0
 1246 06fa 09E0     		b	.L77
 1247              	.L82:
 512:build/openmote-cc2538_armgcc/openstack/03a-IPHC/iphc.c ****       case IPHC_NH_COMPRESSED:
 513:build/openmote-cc2538_armgcc/openstack/03a-IPHC/iphc.c ****          //do nothing, the next header will be there
 514:build/openmote-cc2538_armgcc/openstack/03a-IPHC/iphc.c ****         break;
 515:build/openmote-cc2538_armgcc/openstack/03a-IPHC/iphc.c ****       default:
 516:build/openmote-cc2538_armgcc/openstack/03a-IPHC/iphc.c ****          openserial_printCritical(
 1248              		.loc 1 516 0
 1249 06fc BB7A     		ldrb	r3, [r7, #10]	@ zero_extendqisi2
 1250 06fe 9BB2     		uxth	r3, r3
 1251 0700 0322     		movs	r2, #3
 1252 0702 0C21     		movs	r1, #12
 1253 0704 1220     		movs	r0, #18
 1254 0706 FFF7FEFF 		bl	openserial_printCritical
 517:build/openmote-cc2538_armgcc/openstack/03a-IPHC/iphc.c ****             COMPONENT_IPHC,
 518:build/openmote-cc2538_armgcc/openstack/03a-IPHC/iphc.c ****             ERR_6LOWPAN_UNSUPPORTED,
 519:build/openmote-cc2538_armgcc/openstack/03a-IPHC/iphc.c ****             (errorparameter_t)3,
 520:build/openmote-cc2538_armgcc/openstack/03a-IPHC/iphc.c ****             (errorparameter_t)nh
 521:build/openmote-cc2538_armgcc/openstack/03a-IPHC/iphc.c ****          );
 522:build/openmote-cc2538_armgcc/openstack/03a-IPHC/iphc.c ****          return E_FAIL;
 1255              		.loc 1 522 0
 1256 070a 0123     		movs	r3, #1
 1257 070c 8EE0     		b	.L49
 1258              	.L92:
 514:build/openmote-cc2538_armgcc/openstack/03a-IPHC/iphc.c ****       default:
 1259              		.loc 1 514 0
 1260 070e 00BF     		nop
 1261              	.L77:
 523:build/openmote-cc2538_armgcc/openstack/03a-IPHC/iphc.c ****    }
 524:build/openmote-cc2538_armgcc/openstack/03a-IPHC/iphc.c ****    
 525:build/openmote-cc2538_armgcc/openstack/03a-IPHC/iphc.c ****    // flowlabel
 526:build/openmote-cc2538_armgcc/openstack/03a-IPHC/iphc.c ****    switch (tf) {
 1262              		.loc 1 526 0
 1263 0710 FB7A     		ldrb	r3, [r7, #11]	@ zero_extendqisi2
 1264 0712 012B     		cmp	r3, #1
 1265 0714 02D0     		beq	.L79
 1266 0716 032B     		cmp	r3, #3
 1267 0718 27D0     		beq	.L93
 1268 071a 1DE0     		b	.L83
 1269              	.L79:
 527:build/openmote-cc2538_armgcc/openstack/03a-IPHC/iphc.c ****       case IPHC_TF_3B:
 528:build/openmote-cc2538_armgcc/openstack/03a-IPHC/iphc.c ****              packetfunctions_reserveHeaderSize(msg,sizeof(uint8_t));
 1270              		.loc 1 528 0
 1271 071c 0121     		movs	r1, #1
 1272 071e F868     		ldr	r0, [r7, #12]
 1273 0720 FFF7FEFF 		bl	packetfunctions_reserveHeaderSize
 529:build/openmote-cc2538_armgcc/openstack/03a-IPHC/iphc.c **** 			 *((uint8_t*)(msg->payload)) = ((uint32_t)(value_flowLabel & 0x000000ff) >> 0);
 1274              		.loc 1 529 0
 1275 0724 FB68     		ldr	r3, [r7, #12]
 1276 0726 5B68     		ldr	r3, [r3, #4]
 1277 0728 7A68     		ldr	r2, [r7, #4]
 1278 072a D2B2     		uxtb	r2, r2
 1279 072c 1A70     		strb	r2, [r3]
 530:build/openmote-cc2538_armgcc/openstack/03a-IPHC/iphc.c **** 			 packetfunctions_reserveHeaderSize(msg,sizeof(uint8_t));
 1280              		.loc 1 530 0
 1281 072e 0121     		movs	r1, #1
 1282 0730 F868     		ldr	r0, [r7, #12]
 1283 0732 FFF7FEFF 		bl	packetfunctions_reserveHeaderSize
 531:build/openmote-cc2538_armgcc/openstack/03a-IPHC/iphc.c **** 			 *((uint8_t*)(msg->payload)) = ((uint32_t)(value_flowLabel & 0x0000ff00) >> 8);
 1284              		.loc 1 531 0
 1285 0736 FB68     		ldr	r3, [r7, #12]
 1286 0738 5B68     		ldr	r3, [r3, #4]
 1287 073a 7A68     		ldr	r2, [r7, #4]
 1288 073c 120A     		lsrs	r2, r2, #8
 1289 073e D2B2     		uxtb	r2, r2
 1290 0740 1A70     		strb	r2, [r3]
 532:build/openmote-cc2538_armgcc/openstack/03a-IPHC/iphc.c **** 			 packetfunctions_reserveHeaderSize(msg,sizeof(uint8_t));
 1291              		.loc 1 532 0
 1292 0742 0121     		movs	r1, #1
 1293 0744 F868     		ldr	r0, [r7, #12]
 1294 0746 FFF7FEFF 		bl	packetfunctions_reserveHeaderSize
 533:build/openmote-cc2538_armgcc/openstack/03a-IPHC/iphc.c **** 			 *((uint8_t*)(msg->payload)) = ((uint32_t)(value_flowLabel & 0x00ff0000) >> 16);
 1295              		.loc 1 533 0
 1296 074a FB68     		ldr	r3, [r7, #12]
 1297 074c 5B68     		ldr	r3, [r3, #4]
 1298 074e 7A68     		ldr	r2, [r7, #4]
 1299 0750 120C     		lsrs	r2, r2, #16
 1300 0752 D2B2     		uxtb	r2, r2
 1301 0754 1A70     		strb	r2, [r3]
 534:build/openmote-cc2538_armgcc/openstack/03a-IPHC/iphc.c ****          break;            
 1302              		.loc 1 534 0
 1303 0756 09E0     		b	.L81
 1304              	.L83:
 535:build/openmote-cc2538_armgcc/openstack/03a-IPHC/iphc.c ****       case IPHC_TF_ELIDED:
 536:build/openmote-cc2538_armgcc/openstack/03a-IPHC/iphc.c ****          break;
 537:build/openmote-cc2538_armgcc/openstack/03a-IPHC/iphc.c ****       case IPHC_TF_4B:
 538:build/openmote-cc2538_armgcc/openstack/03a-IPHC/iphc.c ****          //unsupported
 539:build/openmote-cc2538_armgcc/openstack/03a-IPHC/iphc.c ****       case IPHC_TF_1B:
 540:build/openmote-cc2538_armgcc/openstack/03a-IPHC/iphc.c ****          //unsupported
 541:build/openmote-cc2538_armgcc/openstack/03a-IPHC/iphc.c ****       default:
 542:build/openmote-cc2538_armgcc/openstack/03a-IPHC/iphc.c ****          openserial_printCritical(
 1305              		.loc 1 542 0
 1306 0758 FB7A     		ldrb	r3, [r7, #11]	@ zero_extendqisi2
 1307 075a 9BB2     		uxth	r3, r3
 1308 075c 0422     		movs	r2, #4
 1309 075e 0C21     		movs	r1, #12
 1310 0760 1220     		movs	r0, #18
 1311 0762 FFF7FEFF 		bl	openserial_printCritical
 543:build/openmote-cc2538_armgcc/openstack/03a-IPHC/iphc.c ****             COMPONENT_IPHC,
 544:build/openmote-cc2538_armgcc/openstack/03a-IPHC/iphc.c ****             ERR_6LOWPAN_UNSUPPORTED,
 545:build/openmote-cc2538_armgcc/openstack/03a-IPHC/iphc.c ****             (errorparameter_t)4,
 546:build/openmote-cc2538_armgcc/openstack/03a-IPHC/iphc.c ****             (errorparameter_t)tf
 547:build/openmote-cc2538_armgcc/openstack/03a-IPHC/iphc.c ****          );
 548:build/openmote-cc2538_armgcc/openstack/03a-IPHC/iphc.c ****          return E_FAIL;
 1312              		.loc 1 548 0
 1313 0766 0123     		movs	r3, #1
 1314 0768 60E0     		b	.L49
 1315              	.L93:
 536:build/openmote-cc2538_armgcc/openstack/03a-IPHC/iphc.c ****       case IPHC_TF_4B:
 1316              		.loc 1 536 0
 1317 076a 00BF     		nop
 1318              	.L81:
 549:build/openmote-cc2538_armgcc/openstack/03a-IPHC/iphc.c ****    }
 550:build/openmote-cc2538_armgcc/openstack/03a-IPHC/iphc.c ****    
 551:build/openmote-cc2538_armgcc/openstack/03a-IPHC/iphc.c ****    // header
 552:build/openmote-cc2538_armgcc/openstack/03a-IPHC/iphc.c ****    temp_8b    = 0;
 1319              		.loc 1 552 0
 1320 076c 0023     		movs	r3, #0
 1321 076e FB75     		strb	r3, [r7, #23]
 553:build/openmote-cc2538_armgcc/openstack/03a-IPHC/iphc.c ****    temp_8b   |= cid                    << IPHC_CID;
 1322              		.loc 1 553 0
 1323 0770 97F82C30 		ldrb	r3, [r7, #44]	@ zero_extendqisi2
 1324 0774 DB01     		lsls	r3, r3, #7
 1325 0776 5AB2     		sxtb	r2, r3
 1326 0778 97F91730 		ldrsb	r3, [r7, #23]
 1327 077c 1343     		orrs	r3, r3, r2
 1328 077e 5BB2     		sxtb	r3, r3
 1329 0780 FB75     		strb	r3, [r7, #23]
 554:build/openmote-cc2538_armgcc/openstack/03a-IPHC/iphc.c ****    temp_8b   |= sac                    << IPHC_SAC;
 1330              		.loc 1 554 0
 1331 0782 97F83030 		ldrb	r3, [r7, #48]	@ zero_extendqisi2
 1332 0786 9B01     		lsls	r3, r3, #6
 1333 0788 5AB2     		sxtb	r2, r3
 1334 078a 97F91730 		ldrsb	r3, [r7, #23]
 1335 078e 1343     		orrs	r3, r3, r2
 1336 0790 5BB2     		sxtb	r3, r3
 1337 0792 FB75     		strb	r3, [r7, #23]
 555:build/openmote-cc2538_armgcc/openstack/03a-IPHC/iphc.c ****    temp_8b   |= sam                    << IPHC_SAM;
 1338              		.loc 1 555 0
 1339 0794 97F83430 		ldrb	r3, [r7, #52]	@ zero_extendqisi2
 1340 0798 1B01     		lsls	r3, r3, #4
 1341 079a 5AB2     		sxtb	r2, r3
 1342 079c 97F91730 		ldrsb	r3, [r7, #23]
 1343 07a0 1343     		orrs	r3, r3, r2
 1344 07a2 5BB2     		sxtb	r3, r3
 1345 07a4 FB75     		strb	r3, [r7, #23]
 556:build/openmote-cc2538_armgcc/openstack/03a-IPHC/iphc.c ****    temp_8b   |= m                      << IPHC_M;
 1346              		.loc 1 556 0
 1347 07a6 97F83830 		ldrb	r3, [r7, #56]	@ zero_extendqisi2
 1348 07aa DB00     		lsls	r3, r3, #3
 1349 07ac 5AB2     		sxtb	r2, r3
 1350 07ae 97F91730 		ldrsb	r3, [r7, #23]
 1351 07b2 1343     		orrs	r3, r3, r2
 1352 07b4 5BB2     		sxtb	r3, r3
 1353 07b6 FB75     		strb	r3, [r7, #23]
 557:build/openmote-cc2538_armgcc/openstack/03a-IPHC/iphc.c ****    temp_8b   |= dac                    << IPHC_DAC;
 1354              		.loc 1 557 0
 1355 07b8 97F83C30 		ldrb	r3, [r7, #60]	@ zero_extendqisi2
 1356 07bc 9B00     		lsls	r3, r3, #2
 1357 07be 5AB2     		sxtb	r2, r3
 1358 07c0 97F91730 		ldrsb	r3, [r7, #23]
 1359 07c4 1343     		orrs	r3, r3, r2
 1360 07c6 5BB2     		sxtb	r3, r3
 1361 07c8 FB75     		strb	r3, [r7, #23]
 558:build/openmote-cc2538_armgcc/openstack/03a-IPHC/iphc.c ****    temp_8b   |= dam                    << IPHC_DAM;
 1362              		.loc 1 558 0
 1363 07ca FA7D     		ldrb	r2, [r7, #23]
 1364 07cc 97F84030 		ldrb	r3, [r7, #64]
 1365 07d0 1343     		orrs	r3, r3, r2
 1366 07d2 FB75     		strb	r3, [r7, #23]
 559:build/openmote-cc2538_armgcc/openstack/03a-IPHC/iphc.c ****    packetfunctions_reserveHeaderSize(msg,sizeof(uint8_t));
 1367              		.loc 1 559 0
 1368 07d4 0121     		movs	r1, #1
 1369 07d6 F868     		ldr	r0, [r7, #12]
 1370 07d8 FFF7FEFF 		bl	packetfunctions_reserveHeaderSize
 560:build/openmote-cc2538_armgcc/openstack/03a-IPHC/iphc.c ****    *((uint8_t*)(msg->payload)) = temp_8b;
 1371              		.loc 1 560 0
 1372 07dc FB68     		ldr	r3, [r7, #12]
 1373 07de 5B68     		ldr	r3, [r3, #4]
 1374 07e0 FA7D     		ldrb	r2, [r7, #23]
 1375 07e2 1A70     		strb	r2, [r3]
 561:build/openmote-cc2538_armgcc/openstack/03a-IPHC/iphc.c ****    temp_8b    = 0;
 1376              		.loc 1 561 0
 1377 07e4 0023     		movs	r3, #0
 1378 07e6 FB75     		strb	r3, [r7, #23]
 562:build/openmote-cc2538_armgcc/openstack/03a-IPHC/iphc.c ****    temp_8b   |= IPHC_DISPATCH_IPHC     << IPHC_DISPATCH;
 1379              		.loc 1 562 0
 1380 07e8 FB7D     		ldrb	r3, [r7, #23]
 1381 07ea 43F06003 		orr	r3, r3, #96
 1382 07ee FB75     		strb	r3, [r7, #23]
 563:build/openmote-cc2538_armgcc/openstack/03a-IPHC/iphc.c ****    temp_8b   |= tf                     << IPHC_TF;
 1383              		.loc 1 563 0
 1384 07f0 FB7A     		ldrb	r3, [r7, #11]	@ zero_extendqisi2
 1385 07f2 DB00     		lsls	r3, r3, #3
 1386 07f4 5AB2     		sxtb	r2, r3
 1387 07f6 97F91730 		ldrsb	r3, [r7, #23]
 1388 07fa 1343     		orrs	r3, r3, r2
 1389 07fc 5BB2     		sxtb	r3, r3
 1390 07fe FB75     		strb	r3, [r7, #23]
 564:build/openmote-cc2538_armgcc/openstack/03a-IPHC/iphc.c ****    temp_8b   |= nh                     << IPHC_NH;
 1391              		.loc 1 564 0
 1392 0800 BB7A     		ldrb	r3, [r7, #10]	@ zero_extendqisi2
 1393 0802 9B00     		lsls	r3, r3, #2
 1394 0804 5AB2     		sxtb	r2, r3
 1395 0806 97F91730 		ldrsb	r3, [r7, #23]
 1396 080a 1343     		orrs	r3, r3, r2
 1397 080c 5BB2     		sxtb	r3, r3
 1398 080e FB75     		strb	r3, [r7, #23]
 565:build/openmote-cc2538_armgcc/openstack/03a-IPHC/iphc.c ****    temp_8b   |= hlim                   << IPHC_HLIM;
 1399              		.loc 1 565 0
 1400 0810 FA7D     		ldrb	r2, [r7, #23]
 1401 0812 97F82430 		ldrb	r3, [r7, #36]
 1402 0816 1343     		orrs	r3, r3, r2
 1403 0818 FB75     		strb	r3, [r7, #23]
 566:build/openmote-cc2538_armgcc/openstack/03a-IPHC/iphc.c ****    packetfunctions_reserveHeaderSize(msg,sizeof(uint8_t));
 1404              		.loc 1 566 0
 1405 081a 0121     		movs	r1, #1
 1406 081c F868     		ldr	r0, [r7, #12]
 1407 081e FFF7FEFF 		bl	packetfunctions_reserveHeaderSize
 567:build/openmote-cc2538_armgcc/openstack/03a-IPHC/iphc.c ****    *((uint8_t*)(msg->payload)) = temp_8b;
 1408              		.loc 1 567 0
 1409 0822 FB68     		ldr	r3, [r7, #12]
 1410 0824 5B68     		ldr	r3, [r3, #4]
 1411 0826 FA7D     		ldrb	r2, [r7, #23]
 1412 0828 1A70     		strb	r2, [r3]
 568:build/openmote-cc2538_armgcc/openstack/03a-IPHC/iphc.c ****    
 569:build/openmote-cc2538_armgcc/openstack/03a-IPHC/iphc.c ****    return E_SUCCESS;
 1413              		.loc 1 569 0
 1414 082a 0023     		movs	r3, #0
 1415              	.L49:
 570:build/openmote-cc2538_armgcc/openstack/03a-IPHC/iphc.c **** }
 1416              		.loc 1 570 0
 1417 082c 1846     		mov	r0, r3
 1418 082e 1837     		adds	r7, r7, #24
 1419              		.cfi_def_cfa_offset 8
 1420 0830 BD46     		mov	sp, r7
 1421              		.cfi_def_cfa_register 13
 1422              		@ sp needed
 1423 0832 80BD     		pop	{r7, pc}
 1424              		.cfi_endproc
 1425              	.LFE5:
 1427              		.align	2
 1428              		.global	iphc_retrieveIPv6Header
 1429              		.thumb
 1430              		.thumb_func
 1432              	iphc_retrieveIPv6Header:
 1433              	.LFB6:
 571:build/openmote-cc2538_armgcc/openstack/03a-IPHC/iphc.c **** 
 572:build/openmote-cc2538_armgcc/openstack/03a-IPHC/iphc.c **** /**
 573:build/openmote-cc2538_armgcc/openstack/03a-IPHC/iphc.c **** \brief Retrieve an IPv6 header from a message.
 574:build/openmote-cc2538_armgcc/openstack/03a-IPHC/iphc.c **** */
 575:build/openmote-cc2538_armgcc/openstack/03a-IPHC/iphc.c **** void iphc_retrieveIPv6Header(OpenQueueEntry_t* msg, ipv6_header_iht* ipv6_outer_header, ipv6_header
 1434              		.loc 1 575 0
 1435              		.cfi_startproc
 1436              		@ args = 0, pretend = 0, frame = 72
 1437              		@ frame_needed = 1, uses_anonymous_args = 0
 1438 0834 90B5     		push	{r4, r7, lr}
 1439              		.cfi_def_cfa_offset 12
 1440              		.cfi_offset 4, -12
 1441              		.cfi_offset 7, -8
 1442              		.cfi_offset 14, -4
 1443 0836 9BB0     		sub	sp, sp, #108
 1444              		.cfi_def_cfa_offset 120
 1445 0838 08AF     		add	r7, sp, #32
 1446              		.cfi_def_cfa 7, 88
 1447 083a F860     		str	r0, [r7, #12]
 1448 083c B960     		str	r1, [r7, #8]
 1449 083e 7A60     		str	r2, [r7, #4]
 1450 0840 3B60     		str	r3, [r7]
 576:build/openmote-cc2538_armgcc/openstack/03a-IPHC/iphc.c ****     uint8_t         temp_8b;
 577:build/openmote-cc2538_armgcc/openstack/03a-IPHC/iphc.c ****     open_addr_t     temp_addr_16b;
 578:build/openmote-cc2538_armgcc/openstack/03a-IPHC/iphc.c ****     open_addr_t     temp_addr_64b;
 579:build/openmote-cc2538_armgcc/openstack/03a-IPHC/iphc.c ****     uint8_t         dispatch;
 580:build/openmote-cc2538_armgcc/openstack/03a-IPHC/iphc.c ****     uint8_t         tf;
 581:build/openmote-cc2538_armgcc/openstack/03a-IPHC/iphc.c ****     uint8_t         nh;
 582:build/openmote-cc2538_armgcc/openstack/03a-IPHC/iphc.c ****     uint8_t         hlim;
 583:build/openmote-cc2538_armgcc/openstack/03a-IPHC/iphc.c ****     uint8_t         sam;
 584:build/openmote-cc2538_armgcc/openstack/03a-IPHC/iphc.c ****     uint8_t         m;
 585:build/openmote-cc2538_armgcc/openstack/03a-IPHC/iphc.c ****     uint8_t         dam;
 586:build/openmote-cc2538_armgcc/openstack/03a-IPHC/iphc.c ****     uint8_t         size;
 587:build/openmote-cc2538_armgcc/openstack/03a-IPHC/iphc.c ****     uint8_t         lorh_type;
 588:build/openmote-cc2538_armgcc/openstack/03a-IPHC/iphc.c ****     uint8_t         rh3_index;
 589:build/openmote-cc2538_armgcc/openstack/03a-IPHC/iphc.c ****     uint8_t         page;
 590:build/openmote-cc2538_armgcc/openstack/03a-IPHC/iphc.c ****     uint8_t         lorh_length;
 591:build/openmote-cc2538_armgcc/openstack/03a-IPHC/iphc.c ****     
 592:build/openmote-cc2538_armgcc/openstack/03a-IPHC/iphc.c ****     uint8_t         extention_header_length;
 593:build/openmote-cc2538_armgcc/openstack/03a-IPHC/iphc.c ****     
 594:build/openmote-cc2538_armgcc/openstack/03a-IPHC/iphc.c ****     *page_length                      = 0;
 1451              		.loc 1 594 0
 1452 0842 3B68     		ldr	r3, [r7]
 1453 0844 0022     		movs	r2, #0
 1454 0846 1A70     		strb	r2, [r3]
 595:build/openmote-cc2538_armgcc/openstack/03a-IPHC/iphc.c ****     extention_header_length          = 0;
 1455              		.loc 1 595 0
 1456 0848 0023     		movs	r3, #0
 1457 084a 87F84530 		strb	r3, [r7, #69]
 596:build/openmote-cc2538_armgcc/openstack/03a-IPHC/iphc.c ****     rh3_index                        = 0;
 1458              		.loc 1 596 0
 1459 084e 0023     		movs	r3, #0
 1460 0850 87F84430 		strb	r3, [r7, #68]
 597:build/openmote-cc2538_armgcc/openstack/03a-IPHC/iphc.c ****     ipv6_outer_header->header_length = 0;
 1461              		.loc 1 597 0
 1462 0854 BB68     		ldr	r3, [r7, #8]
 1463 0856 0022     		movs	r2, #0
 1464 0858 83F84420 		strb	r2, [r3, #68]
 598:build/openmote-cc2538_armgcc/openstack/03a-IPHC/iphc.c ****     ipv6_inner_header->header_length = 0;
 1465              		.loc 1 598 0
 1466 085c 7B68     		ldr	r3, [r7, #4]
 1467 085e 0022     		movs	r2, #0
 1468 0860 83F84420 		strb	r2, [r3, #68]
 599:build/openmote-cc2538_armgcc/openstack/03a-IPHC/iphc.c ****     ipv6_outer_header->rhe_length	 = 0;
 1469              		.loc 1 599 0
 1470 0864 BB68     		ldr	r3, [r7, #8]
 1471 0866 0022     		movs	r2, #0
 1472 0868 83F82120 		strb	r2, [r3, #33]
 600:build/openmote-cc2538_armgcc/openstack/03a-IPHC/iphc.c **** 
 601:build/openmote-cc2538_armgcc/openstack/03a-IPHC/iphc.c **** 
 602:build/openmote-cc2538_armgcc/openstack/03a-IPHC/iphc.c ****     // four steps to retrieve:
 603:build/openmote-cc2538_armgcc/openstack/03a-IPHC/iphc.c ****     // step 1. Paging number
 604:build/openmote-cc2538_armgcc/openstack/03a-IPHC/iphc.c ****     // step 2. IP in IP 6LoRH
 605:build/openmote-cc2538_armgcc/openstack/03a-IPHC/iphc.c ****     // step 3. IPv6 extention header
 606:build/openmote-cc2538_armgcc/openstack/03a-IPHC/iphc.c ****     // step 4. IPv6 inner header
 607:build/openmote-cc2538_armgcc/openstack/03a-IPHC/iphc.c ****     // ====================== 1. paging number =================================
 608:build/openmote-cc2538_armgcc/openstack/03a-IPHC/iphc.c ****     temp_8b = *((uint8_t*)(msg->payload)+ipv6_outer_header->header_length);
 1473              		.loc 1 608 0
 1474 086c FB68     		ldr	r3, [r7, #12]
 1475 086e 5B68     		ldr	r3, [r3, #4]
 1476 0870 BA68     		ldr	r2, [r7, #8]
 1477 0872 92F84420 		ldrb	r2, [r2, #68]	@ zero_extendqisi2
 1478 0876 1344     		add	r3, r3, r2
 1479 0878 1B78     		ldrb	r3, [r3]
 1480 087a 87F84730 		strb	r3, [r7, #71]
 609:build/openmote-cc2538_armgcc/openstack/03a-IPHC/iphc.c ****     if ((temp_8b&PAGE_DISPATCH_TAG) == PAGE_DISPATCH_TAG){
 1481              		.loc 1 609 0
 1482 087e 97F84730 		ldrb	r3, [r7, #71]	@ zero_extendqisi2
 1483 0882 03F0F003 		and	r3, r3, #240
 1484 0886 F02B     		cmp	r3, #240
 1485 0888 09D1     		bne	.L95
 610:build/openmote-cc2538_armgcc/openstack/03a-IPHC/iphc.c ****         page = temp_8b&PAGE_DISPATCH_NUM; 
 1486              		.loc 1 610 0
 1487 088a 97F84730 		ldrb	r3, [r7, #71]
 1488 088e 03F00F03 		and	r3, r3, #15
 1489 0892 87F84630 		strb	r3, [r7, #70]
 611:build/openmote-cc2538_armgcc/openstack/03a-IPHC/iphc.c ****         *page_length = 1;
 1490              		.loc 1 611 0
 1491 0896 3B68     		ldr	r3, [r7]
 1492 0898 0122     		movs	r2, #1
 1493 089a 1A70     		strb	r2, [r3]
 1494 089c 02E0     		b	.L96
 1495              	.L95:
 612:build/openmote-cc2538_armgcc/openstack/03a-IPHC/iphc.c ****     } else {
 613:build/openmote-cc2538_armgcc/openstack/03a-IPHC/iphc.c ****         page = 0;
 1496              		.loc 1 613 0
 1497 089e 0023     		movs	r3, #0
 1498 08a0 87F84630 		strb	r3, [r7, #70]
 1499              	.L96:
 614:build/openmote-cc2538_armgcc/openstack/03a-IPHC/iphc.c ****     }
 615:build/openmote-cc2538_armgcc/openstack/03a-IPHC/iphc.c ****     //======================= 2. and 3. IPv6 extention header and IPv6 inner header ===============
 616:build/openmote-cc2538_armgcc/openstack/03a-IPHC/iphc.c ****     if(page==1){
 1500              		.loc 1 616 0
 1501 08a4 97F84630 		ldrb	r3, [r7, #70]	@ zero_extendqisi2
 1502 08a8 012B     		cmp	r3, #1
 1503 08aa 40F01F82 		bne	.L97
 617:build/openmote-cc2538_armgcc/openstack/03a-IPHC/iphc.c ****     	extention_header_length = 0;
 1504              		.loc 1 617 0
 1505 08ae 0023     		movs	r3, #0
 1506 08b0 87F84530 		strb	r3, [r7, #69]
 618:build/openmote-cc2538_armgcc/openstack/03a-IPHC/iphc.c ****     	temp_8b = *((uint8_t*)(msg->payload)+*page_length+extention_header_length);
 1507              		.loc 1 618 0
 1508 08b4 FB68     		ldr	r3, [r7, #12]
 1509 08b6 5A68     		ldr	r2, [r3, #4]
 1510 08b8 3B68     		ldr	r3, [r7]
 1511 08ba 1B78     		ldrb	r3, [r3]	@ zero_extendqisi2
 1512 08bc 1946     		mov	r1, r3
 1513 08be 97F84530 		ldrb	r3, [r7, #69]	@ zero_extendqisi2
 1514 08c2 0B44     		add	r3, r3, r1
 1515 08c4 1344     		add	r3, r3, r2
 1516 08c6 1B78     		ldrb	r3, [r3]
 1517 08c8 87F84730 		strb	r3, [r7, #71]
 619:build/openmote-cc2538_armgcc/openstack/03a-IPHC/iphc.c ****     	while ((temp_8b&FORMAT_6LORH_MASK) == CRITICAL_6LORH || (temp_8b&FORMAT_6LORH_MASK) == ELECTIV
 1518              		.loc 1 619 0
 1519 08cc 00E2     		b	.L98
 1520              	.L129:
 620:build/openmote-cc2538_armgcc/openstack/03a-IPHC/iphc.c ****     		switch (temp_8b&FORMAT_6LORH_MASK) {
 1521              		.loc 1 620 0
 1522 08ce 97F84730 		ldrb	r3, [r7, #71]	@ zero_extendqisi2
 1523 08d2 03F0E003 		and	r3, r3, #224
 1524 08d6 802B     		cmp	r3, #128
 1525 08d8 03D0     		beq	.L99
 1526 08da A02B     		cmp	r3, #160
 1527 08dc 00F0F680 		beq	.L100
 1528 08e0 F6E1     		b	.L98
 1529              	.L99:
 621:build/openmote-cc2538_armgcc/openstack/03a-IPHC/iphc.c ****     		case CRITICAL_6LORH :
 622:build/openmote-cc2538_armgcc/openstack/03a-IPHC/iphc.c ****     			lorh_type = *((uint8_t*)(msg->payload)+*page_length+extention_header_length+1);
 1530              		.loc 1 622 0
 1531 08e2 FB68     		ldr	r3, [r7, #12]
 1532 08e4 5A68     		ldr	r2, [r3, #4]
 1533 08e6 3B68     		ldr	r3, [r7]
 1534 08e8 1B78     		ldrb	r3, [r3]	@ zero_extendqisi2
 1535 08ea 1946     		mov	r1, r3
 1536 08ec 97F84530 		ldrb	r3, [r7, #69]	@ zero_extendqisi2
 1537 08f0 0B44     		add	r3, r3, r1
 1538 08f2 0133     		adds	r3, r3, #1
 1539 08f4 1344     		add	r3, r3, r2
 1540 08f6 1B78     		ldrb	r3, [r3]
 1541 08f8 87F84330 		strb	r3, [r7, #67]
 623:build/openmote-cc2538_armgcc/openstack/03a-IPHC/iphc.c ****     			if(lorh_type<=RH3_6LOTH_TYPE_4){
 1542              		.loc 1 623 0
 1543 08fc 97F84330 		ldrb	r3, [r7, #67]	@ zero_extendqisi2
 1544 0900 042B     		cmp	r3, #4
 1545 0902 00F29080 		bhi	.L101
 624:build/openmote-cc2538_armgcc/openstack/03a-IPHC/iphc.c ****     				if (rh3_index == MAXNUM_RH3){
 1546              		.loc 1 624 0
 1547 0906 97F84430 		ldrb	r3, [r7, #68]	@ zero_extendqisi2
 1548 090a 032B     		cmp	r3, #3
 1549 090c 08D1     		bne	.L102
 625:build/openmote-cc2538_armgcc/openstack/03a-IPHC/iphc.c ****     					openserial_printError(
 1550              		.loc 1 625 0
 1551 090e 97F84430 		ldrb	r3, [r7, #68]	@ zero_extendqisi2
 1552 0912 9BB2     		uxth	r3, r3
 1553 0914 0D22     		movs	r2, #13
 1554 0916 0C21     		movs	r1, #12
 1555 0918 1220     		movs	r0, #18
 1556 091a FFF7FEFF 		bl	openserial_printError
 1557 091e 0FE2     		b	.L94
 1558              	.L102:
 626:build/openmote-cc2538_armgcc/openstack/03a-IPHC/iphc.c ****     							COMPONENT_IPHC,
 627:build/openmote-cc2538_armgcc/openstack/03a-IPHC/iphc.c **** 								ERR_6LOWPAN_UNSUPPORTED,
 628:build/openmote-cc2538_armgcc/openstack/03a-IPHC/iphc.c **** 								(errorparameter_t)13,
 629:build/openmote-cc2538_armgcc/openstack/03a-IPHC/iphc.c **** 								(errorparameter_t)(rh3_index)
 630:build/openmote-cc2538_armgcc/openstack/03a-IPHC/iphc.c ****     					);
 631:build/openmote-cc2538_armgcc/openstack/03a-IPHC/iphc.c ****     					return;
 632:build/openmote-cc2538_armgcc/openstack/03a-IPHC/iphc.c ****     				}
 633:build/openmote-cc2538_armgcc/openstack/03a-IPHC/iphc.c ****     				if (rh3_index==0){
 1559              		.loc 1 633 0
 1560 0920 97F84430 		ldrb	r3, [r7, #68]	@ zero_extendqisi2
 1561 0924 002B     		cmp	r3, #0
 1562 0926 16D1     		bne	.L104
 634:build/openmote-cc2538_armgcc/openstack/03a-IPHC/iphc.c ****     					if (ipv6_outer_header->hopByhop_option == NULL){
 1563              		.loc 1 634 0
 1564 0928 BB68     		ldr	r3, [r7, #8]
 1565 092a 9B69     		ldr	r3, [r3, #24]
 1566 092c 002B     		cmp	r3, #0
 1567 092e 02D1     		bne	.L105
 635:build/openmote-cc2538_armgcc/openstack/03a-IPHC/iphc.c ****     						ipv6_outer_header->next_header = IANA_IPv6ROUTE;
 1568              		.loc 1 635 0
 1569 0930 BB68     		ldr	r3, [r7, #8]
 1570 0932 2B22     		movs	r2, #43
 1571 0934 5A72     		strb	r2, [r3, #9]
 1572              	.L105:
 636:build/openmote-cc2538_armgcc/openstack/03a-IPHC/iphc.c ****     					}
 637:build/openmote-cc2538_armgcc/openstack/03a-IPHC/iphc.c ****     					ipv6_outer_header->routing_header[rh3_index] = (uint8_t*)(msg->payload) + \
 1573              		.loc 1 637 0
 1574 0936 97F84430 		ldrb	r3, [r7, #68]	@ zero_extendqisi2
 1575 093a FA68     		ldr	r2, [r7, #12]
 1576 093c 5168     		ldr	r1, [r2, #4]
 638:build/openmote-cc2538_armgcc/openstack/03a-IPHC/iphc.c ****     							*page_length + \
 1577              		.loc 1 638 0
 1578 093e 3A68     		ldr	r2, [r7]
 1579 0940 1278     		ldrb	r2, [r2]	@ zero_extendqisi2
 1580 0942 1046     		mov	r0, r2
 1581 0944 97F84520 		ldrb	r2, [r7, #69]	@ zero_extendqisi2
 1582 0948 0244     		add	r2, r2, r0
 1583 094a 0A44     		add	r2, r2, r1
 637:build/openmote-cc2538_armgcc/openstack/03a-IPHC/iphc.c ****     							*page_length + \
 1584              		.loc 1 637 0
 1585 094c B968     		ldr	r1, [r7, #8]
 1586 094e 0233     		adds	r3, r3, #2
 1587 0950 9B00     		lsls	r3, r3, #2
 1588 0952 0B44     		add	r3, r3, r1
 1589 0954 5A60     		str	r2, [r3, #4]
 1590              	.L104:
 639:build/openmote-cc2538_armgcc/openstack/03a-IPHC/iphc.c **** 								extention_header_length;
 640:build/openmote-cc2538_armgcc/openstack/03a-IPHC/iphc.c ****     				}
 641:build/openmote-cc2538_armgcc/openstack/03a-IPHC/iphc.c ****     				size = temp_8b & RH3_6LOTH_SIZE_MASK;
 1591              		.loc 1 641 0
 1592 0956 97F84730 		ldrb	r3, [r7, #71]
 1593 095a 03F01F03 		and	r3, r3, #31
 1594 095e 87F84230 		strb	r3, [r7, #66]
 642:build/openmote-cc2538_armgcc/openstack/03a-IPHC/iphc.c ****     				size += 1;
 1595              		.loc 1 642 0
 1596 0962 97F84230 		ldrb	r3, [r7, #66]
 1597 0966 0133     		adds	r3, r3, #1
 1598 0968 87F84230 		strb	r3, [r7, #66]
 643:build/openmote-cc2538_armgcc/openstack/03a-IPHC/iphc.c ****     				switch(lorh_type){
 1599              		.loc 1 643 0
 1600 096c 97F84330 		ldrb	r3, [r7, #67]	@ zero_extendqisi2
 1601 0970 042B     		cmp	r3, #4
 1602 0972 47D8     		bhi	.L106
 1603 0974 01A2     		adr	r2, .L108
 1604 0976 52F823F0 		ldr	pc, [r2, r3, lsl #2]
 1605 097a 00BF     		.p2align 2
 1606              	.L108:
 1607 097c 91090000 		.word	.L107+1
 1608 0980 A5090000 		.word	.L109+1
 1609 0984 BD090000 		.word	.L110+1
 1610 0988 D5090000 		.word	.L111+1
 1611 098c ED090000 		.word	.L112+1
 1612              		.p2align 1
 1613              	.L107:
 644:build/openmote-cc2538_armgcc/openstack/03a-IPHC/iphc.c ****     				case 0:
 645:build/openmote-cc2538_armgcc/openstack/03a-IPHC/iphc.c ****     					extention_header_length += 2+ 1*size;
 1614              		.loc 1 645 0
 1615 0990 97F84220 		ldrb	r2, [r7, #66]
 1616 0994 97F84530 		ldrb	r3, [r7, #69]
 1617 0998 1344     		add	r3, r3, r2
 1618 099a DBB2     		uxtb	r3, r3
 1619 099c 0233     		adds	r3, r3, #2
 1620 099e 87F84530 		strb	r3, [r7, #69]
 646:build/openmote-cc2538_armgcc/openstack/03a-IPHC/iphc.c ****     					break;
 1621              		.loc 1 646 0
 1622 09a2 2FE0     		b	.L106
 1623              	.L109:
 647:build/openmote-cc2538_armgcc/openstack/03a-IPHC/iphc.c ****     				case 1:
 648:build/openmote-cc2538_armgcc/openstack/03a-IPHC/iphc.c ****     					extention_header_length += 2+ 2*size;
 1624              		.loc 1 648 0
 1625 09a4 97F84230 		ldrb	r3, [r7, #66]	@ zero_extendqisi2
 1626 09a8 0133     		adds	r3, r3, #1
 1627 09aa DBB2     		uxtb	r3, r3
 1628 09ac 5B00     		lsls	r3, r3, #1
 1629 09ae DAB2     		uxtb	r2, r3
 1630 09b0 97F84530 		ldrb	r3, [r7, #69]
 1631 09b4 1344     		add	r3, r3, r2
 1632 09b6 87F84530 		strb	r3, [r7, #69]
 649:build/openmote-cc2538_armgcc/openstack/03a-IPHC/iphc.c ****     					break;
 1633              		.loc 1 649 0
 1634 09ba 23E0     		b	.L106
 1635              	.L110:
 650:build/openmote-cc2538_armgcc/openstack/03a-IPHC/iphc.c ****     				case 2:
 651:build/openmote-cc2538_armgcc/openstack/03a-IPHC/iphc.c ****     					extention_header_length += 2+ 4*size;
 1636              		.loc 1 651 0
 1637 09bc 97F84230 		ldrb	r3, [r7, #66]
 1638 09c0 9B00     		lsls	r3, r3, #2
 1639 09c2 DAB2     		uxtb	r2, r3
 1640 09c4 97F84530 		ldrb	r3, [r7, #69]
 1641 09c8 1344     		add	r3, r3, r2
 1642 09ca DBB2     		uxtb	r3, r3
 1643 09cc 0233     		adds	r3, r3, #2
 1644 09ce 87F84530 		strb	r3, [r7, #69]
 652:build/openmote-cc2538_armgcc/openstack/03a-IPHC/iphc.c ****     					break;
 1645              		.loc 1 652 0
 1646 09d2 17E0     		b	.L106
 1647              	.L111:
 653:build/openmote-cc2538_armgcc/openstack/03a-IPHC/iphc.c ****     				case 3:
 654:build/openmote-cc2538_armgcc/openstack/03a-IPHC/iphc.c ****     					extention_header_length += 2+ 8*size;
 1648              		.loc 1 654 0
 1649 09d4 97F84230 		ldrb	r3, [r7, #66]
 1650 09d8 DB00     		lsls	r3, r3, #3
 1651 09da DAB2     		uxtb	r2, r3
 1652 09dc 97F84530 		ldrb	r3, [r7, #69]
 1653 09e0 1344     		add	r3, r3, r2
 1654 09e2 DBB2     		uxtb	r3, r3
 1655 09e4 0233     		adds	r3, r3, #2
 1656 09e6 87F84530 		strb	r3, [r7, #69]
 655:build/openmote-cc2538_armgcc/openstack/03a-IPHC/iphc.c ****     					break;
 1657              		.loc 1 655 0
 1658 09ea 0BE0     		b	.L106
 1659              	.L112:
 656:build/openmote-cc2538_armgcc/openstack/03a-IPHC/iphc.c ****     				case 4:
 657:build/openmote-cc2538_armgcc/openstack/03a-IPHC/iphc.c ****     					extention_header_length += 2+ 16*size;
 1660              		.loc 1 657 0
 1661 09ec 97F84230 		ldrb	r3, [r7, #66]
 1662 09f0 1B01     		lsls	r3, r3, #4
 1663 09f2 DAB2     		uxtb	r2, r3
 1664 09f4 97F84530 		ldrb	r3, [r7, #69]
 1665 09f8 1344     		add	r3, r3, r2
 1666 09fa DBB2     		uxtb	r3, r3
 1667 09fc 0233     		adds	r3, r3, #2
 1668 09fe 87F84530 		strb	r3, [r7, #69]
 658:build/openmote-cc2538_armgcc/openstack/03a-IPHC/iphc.c ****     					break;
 1669              		.loc 1 658 0
 1670 0a02 00BF     		nop
 1671              	.L106:
 659:build/openmote-cc2538_armgcc/openstack/03a-IPHC/iphc.c ****     				}
 660:build/openmote-cc2538_armgcc/openstack/03a-IPHC/iphc.c ****     				temp_8b = *(uint8_t*)((msg->payload) + \
 1672              		.loc 1 660 0
 1673 0a04 FB68     		ldr	r3, [r7, #12]
 1674 0a06 5A68     		ldr	r2, [r3, #4]
 661:build/openmote-cc2538_armgcc/openstack/03a-IPHC/iphc.c ****     					*page_length + \
 1675              		.loc 1 661 0
 1676 0a08 3B68     		ldr	r3, [r7]
 1677 0a0a 1B78     		ldrb	r3, [r3]	@ zero_extendqisi2
 1678 0a0c 1946     		mov	r1, r3
 1679 0a0e 97F84530 		ldrb	r3, [r7, #69]	@ zero_extendqisi2
 1680 0a12 0B44     		add	r3, r3, r1
 662:build/openmote-cc2538_armgcc/openstack/03a-IPHC/iphc.c ****     				    extention_header_length +\
 663:build/openmote-cc2538_armgcc/openstack/03a-IPHC/iphc.c ****     					ipv6_outer_header->header_length);
 1681              		.loc 1 663 0
 1682 0a14 B968     		ldr	r1, [r7, #8]
 1683 0a16 91F84410 		ldrb	r1, [r1, #68]	@ zero_extendqisi2
 662:build/openmote-cc2538_armgcc/openstack/03a-IPHC/iphc.c ****     				    extention_header_length +\
 1684              		.loc 1 662 0
 1685 0a1a 0B44     		add	r3, r3, r1
 660:build/openmote-cc2538_armgcc/openstack/03a-IPHC/iphc.c ****     					*page_length + \
 1686              		.loc 1 660 0
 1687 0a1c 1344     		add	r3, r3, r2
 1688 0a1e 1B78     		ldrb	r3, [r3]
 1689 0a20 87F84730 		strb	r3, [r7, #71]
 1690 0a24 54E1     		b	.L98
 1691              	.L101:
 664:build/openmote-cc2538_armgcc/openstack/03a-IPHC/iphc.c ****     			} else {
 665:build/openmote-cc2538_armgcc/openstack/03a-IPHC/iphc.c ****     				if (lorh_type==5){
 1692              		.loc 1 665 0
 1693 0a26 97F84330 		ldrb	r3, [r7, #67]	@ zero_extendqisi2
 1694 0a2a 052B     		cmp	r3, #5
 1695 0a2c 45D1     		bne	.L114
 666:build/openmote-cc2538_armgcc/openstack/03a-IPHC/iphc.c ****     					if (ipv6_outer_header->routing_header[0] == NULL){
 1696              		.loc 1 666 0
 1697 0a2e BB68     		ldr	r3, [r7, #8]
 1698 0a30 DB68     		ldr	r3, [r3, #12]
 1699 0a32 002B     		cmp	r3, #0
 1700 0a34 02D1     		bne	.L115
 667:build/openmote-cc2538_armgcc/openstack/03a-IPHC/iphc.c ****     						ipv6_outer_header->next_header = IANA_IPv6HOPOPT;
 1701              		.loc 1 667 0
 1702 0a36 BB68     		ldr	r3, [r7, #8]
 1703 0a38 0022     		movs	r2, #0
 1704 0a3a 5A72     		strb	r2, [r3, #9]
 1705              	.L115:
 668:build/openmote-cc2538_armgcc/openstack/03a-IPHC/iphc.c ****     					}
 669:build/openmote-cc2538_armgcc/openstack/03a-IPHC/iphc.c ****     					ipv6_outer_header->hopByhop_option = (uint8_t*)(msg->payload) + \
 1706              		.loc 1 669 0
 1707 0a3c FB68     		ldr	r3, [r7, #12]
 1708 0a3e 5A68     		ldr	r2, [r3, #4]
 670:build/openmote-cc2538_armgcc/openstack/03a-IPHC/iphc.c ****     							*page_length + \
 1709              		.loc 1 670 0
 1710 0a40 3B68     		ldr	r3, [r7]
 1711 0a42 1B78     		ldrb	r3, [r3]	@ zero_extendqisi2
 1712 0a44 1946     		mov	r1, r3
 1713 0a46 97F84530 		ldrb	r3, [r7, #69]	@ zero_extendqisi2
 1714 0a4a 0B44     		add	r3, r3, r1
 1715 0a4c 1A44     		add	r2, r2, r3
 669:build/openmote-cc2538_armgcc/openstack/03a-IPHC/iphc.c ****     							*page_length + \
 1716              		.loc 1 669 0
 1717 0a4e BB68     		ldr	r3, [r7, #8]
 1718 0a50 9A61     		str	r2, [r3, #24]
 671:build/openmote-cc2538_armgcc/openstack/03a-IPHC/iphc.c **** 								extention_header_length;
 672:build/openmote-cc2538_armgcc/openstack/03a-IPHC/iphc.c ****     					switch(temp_8b & (I_FLAG | K_FLAG)){
 1719              		.loc 1 672 0
 1720 0a52 97F84730 		ldrb	r3, [r7, #71]	@ zero_extendqisi2
 1721 0a56 03F00303 		and	r3, r3, #3
 1722 0a5a 032B     		cmp	r3, #3
 1723 0a5c 1CD8     		bhi	.L116
 1724 0a5e 01A2     		adr	r2, .L118
 1725 0a60 52F823F0 		ldr	pc, [r2, r3, lsl #2]
 1726              		.p2align 2
 1727              	.L118:
 1728 0a64 750A0000 		.word	.L117+1
 1729 0a68 810A0000 		.word	.L119+1
 1730 0a6c 810A0000 		.word	.L119+1
 1731 0a70 8D0A0000 		.word	.L120+1
 1732              		.p2align 1
 1733              	.L117:
 673:build/openmote-cc2538_armgcc/openstack/03a-IPHC/iphc.c ****     					case 0:
 674:build/openmote-cc2538_armgcc/openstack/03a-IPHC/iphc.c ****     						extention_header_length += 2+3;
 1734              		.loc 1 674 0
 1735 0a74 97F84530 		ldrb	r3, [r7, #69]
 1736 0a78 0533     		adds	r3, r3, #5
 1737 0a7a 87F84530 		strb	r3, [r7, #69]
 675:build/openmote-cc2538_armgcc/openstack/03a-IPHC/iphc.c ****     						break;
 1738              		.loc 1 675 0
 1739 0a7e 0BE0     		b	.L116
 1740              	.L119:
 676:build/openmote-cc2538_armgcc/openstack/03a-IPHC/iphc.c ****     					case 1:
 677:build/openmote-cc2538_armgcc/openstack/03a-IPHC/iphc.c ****     					case 2:
 678:build/openmote-cc2538_armgcc/openstack/03a-IPHC/iphc.c ****     						extention_header_length += 2+2;
 1741              		.loc 1 678 0
 1742 0a80 97F84530 		ldrb	r3, [r7, #69]
 1743 0a84 0433     		adds	r3, r3, #4
 1744 0a86 87F84530 		strb	r3, [r7, #69]
 679:build/openmote-cc2538_armgcc/openstack/03a-IPHC/iphc.c ****     						break;
 1745              		.loc 1 679 0
 1746 0a8a 05E0     		b	.L116
 1747              	.L120:
 680:build/openmote-cc2538_armgcc/openstack/03a-IPHC/iphc.c ****     					case 3:
 681:build/openmote-cc2538_armgcc/openstack/03a-IPHC/iphc.c ****     						extention_header_length += 2+1;
 1748              		.loc 1 681 0
 1749 0a8c 97F84530 		ldrb	r3, [r7, #69]
 1750 0a90 0333     		adds	r3, r3, #3
 1751 0a92 87F84530 		strb	r3, [r7, #69]
 682:build/openmote-cc2538_armgcc/openstack/03a-IPHC/iphc.c ****     						break;
 1752              		.loc 1 682 0
 1753 0a96 00BF     		nop
 1754              	.L116:
 683:build/openmote-cc2538_armgcc/openstack/03a-IPHC/iphc.c ****     					}
 684:build/openmote-cc2538_armgcc/openstack/03a-IPHC/iphc.c ****     					temp_8b = *(uint8_t*)((msg->payload) + \
 1755              		.loc 1 684 0
 1756 0a98 FB68     		ldr	r3, [r7, #12]
 1757 0a9a 5A68     		ldr	r2, [r3, #4]
 685:build/openmote-cc2538_armgcc/openstack/03a-IPHC/iphc.c ****     					    *page_length + \
 1758              		.loc 1 685 0
 1759 0a9c 3B68     		ldr	r3, [r7]
 1760 0a9e 1B78     		ldrb	r3, [r3]	@ zero_extendqisi2
 1761 0aa0 1946     		mov	r1, r3
 1762 0aa2 97F84530 		ldrb	r3, [r7, #69]	@ zero_extendqisi2
 1763 0aa6 0B44     		add	r3, r3, r1
 686:build/openmote-cc2538_armgcc/openstack/03a-IPHC/iphc.c ****     					    extention_header_length +\
 687:build/openmote-cc2538_armgcc/openstack/03a-IPHC/iphc.c ****     						ipv6_outer_header->header_length);
 1764              		.loc 1 687 0
 1765 0aa8 B968     		ldr	r1, [r7, #8]
 1766 0aaa 91F84410 		ldrb	r1, [r1, #68]	@ zero_extendqisi2
 686:build/openmote-cc2538_armgcc/openstack/03a-IPHC/iphc.c ****     					    extention_header_length +\
 1767              		.loc 1 686 0
 1768 0aae 0B44     		add	r3, r3, r1
 684:build/openmote-cc2538_armgcc/openstack/03a-IPHC/iphc.c ****     					    *page_length + \
 1769              		.loc 1 684 0
 1770 0ab0 1344     		add	r3, r3, r2
 1771 0ab2 1B78     		ldrb	r3, [r3]
 1772 0ab4 87F84730 		strb	r3, [r7, #71]
 1773 0ab8 0AE1     		b	.L98
 1774              	.L114:
 688:build/openmote-cc2538_armgcc/openstack/03a-IPHC/iphc.c ****     				} else{
 689:build/openmote-cc2538_armgcc/openstack/03a-IPHC/iphc.c ****     					//log wrong inf
 690:build/openmote-cc2538_armgcc/openstack/03a-IPHC/iphc.c **** 						openserial_printError(
 1775              		.loc 1 690 0
 1776 0aba 97F84330 		ldrb	r3, [r7, #67]	@ zero_extendqisi2
 1777 0abe 9BB2     		uxth	r3, r3
 1778 0ac0 0E22     		movs	r2, #14
 1779 0ac2 0C21     		movs	r1, #12
 1780 0ac4 1220     		movs	r0, #18
 1781 0ac6 FFF7FEFF 		bl	openserial_printError
 691:build/openmote-cc2538_armgcc/openstack/03a-IPHC/iphc.c **** 								COMPONENT_IPHC,
 692:build/openmote-cc2538_armgcc/openstack/03a-IPHC/iphc.c **** 								ERR_6LOWPAN_UNSUPPORTED,
 693:build/openmote-cc2538_armgcc/openstack/03a-IPHC/iphc.c **** 								(errorparameter_t)14,
 694:build/openmote-cc2538_armgcc/openstack/03a-IPHC/iphc.c **** 								(errorparameter_t)(lorh_type)
 695:build/openmote-cc2538_armgcc/openstack/03a-IPHC/iphc.c **** 						);
 696:build/openmote-cc2538_armgcc/openstack/03a-IPHC/iphc.c ****     				}
 697:build/openmote-cc2538_armgcc/openstack/03a-IPHC/iphc.c ****     			}
 698:build/openmote-cc2538_armgcc/openstack/03a-IPHC/iphc.c ****     			break;
 1782              		.loc 1 698 0
 1783 0aca 01E1     		b	.L98
 1784              	.L100:
 699:build/openmote-cc2538_armgcc/openstack/03a-IPHC/iphc.c ****     		case ELECTIVE_6LoRH :
 700:build/openmote-cc2538_armgcc/openstack/03a-IPHC/iphc.c ****     			// this is an elective 6LoRH
 701:build/openmote-cc2538_armgcc/openstack/03a-IPHC/iphc.c ****     			lorh_length = temp_8b & IPINIP_LEN_6LORH_MASK;
 1785              		.loc 1 701 0
 1786 0acc 97F84730 		ldrb	r3, [r7, #71]
 1787 0ad0 03F01F03 		and	r3, r3, #31
 1788 0ad4 87F84130 		strb	r3, [r7, #65]
 702:build/openmote-cc2538_armgcc/openstack/03a-IPHC/iphc.c ****     			lorh_type = *(uint8_t*)(msg->payload+ipv6_outer_header->header_length+*page_length+extention
 1789              		.loc 1 702 0
 1790 0ad8 FB68     		ldr	r3, [r7, #12]
 1791 0ada 5A68     		ldr	r2, [r3, #4]
 1792 0adc BB68     		ldr	r3, [r7, #8]
 1793 0ade 93F84430 		ldrb	r3, [r3, #68]	@ zero_extendqisi2
 1794 0ae2 1946     		mov	r1, r3
 1795 0ae4 3B68     		ldr	r3, [r7]
 1796 0ae6 1B78     		ldrb	r3, [r3]	@ zero_extendqisi2
 1797 0ae8 1944     		add	r1, r1, r3
 1798 0aea 97F84530 		ldrb	r3, [r7, #69]	@ zero_extendqisi2
 1799 0aee 0B44     		add	r3, r3, r1
 1800 0af0 0133     		adds	r3, r3, #1
 1801 0af2 1344     		add	r3, r3, r2
 1802 0af4 1B78     		ldrb	r3, [r3]
 1803 0af6 87F84330 		strb	r3, [r7, #67]
 703:build/openmote-cc2538_armgcc/openstack/03a-IPHC/iphc.c ****     			if (lorh_type == IPINIP_TYPE_6LORH){
 1804              		.loc 1 703 0
 1805 0afa 97F84330 		ldrb	r3, [r7, #67]	@ zero_extendqisi2
 1806 0afe 062B     		cmp	r3, #6
 1807 0b00 40F09F80 		bne	.L121
 704:build/openmote-cc2538_armgcc/openstack/03a-IPHC/iphc.c ****         			ipv6_outer_header->header_length += 1;
 1808              		.loc 1 704 0
 1809 0b04 BB68     		ldr	r3, [r7, #8]
 1810 0b06 93F84430 		ldrb	r3, [r3, #68]	@ zero_extendqisi2
 1811 0b0a 0133     		adds	r3, r3, #1
 1812 0b0c DAB2     		uxtb	r2, r3
 1813 0b0e BB68     		ldr	r3, [r7, #8]
 1814 0b10 83F84420 		strb	r2, [r3, #68]
 705:build/openmote-cc2538_armgcc/openstack/03a-IPHC/iphc.c ****     				// this is IpinIP 6LoRH
 706:build/openmote-cc2538_armgcc/openstack/03a-IPHC/iphc.c ****     				ipv6_outer_header->header_length += 1;
 1815              		.loc 1 706 0
 1816 0b14 BB68     		ldr	r3, [r7, #8]
 1817 0b16 93F84430 		ldrb	r3, [r3, #68]	@ zero_extendqisi2
 1818 0b1a 0133     		adds	r3, r3, #1
 1819 0b1c DAB2     		uxtb	r2, r3
 1820 0b1e BB68     		ldr	r3, [r7, #8]
 1821 0b20 83F84420 		strb	r2, [r3, #68]
 707:build/openmote-cc2538_armgcc/openstack/03a-IPHC/iphc.c ****     				ipv6_outer_header->hop_limit = *(uint8_t*)(msg->payload+ipv6_outer_header->header_length+*p
 1822              		.loc 1 707 0
 1823 0b24 FB68     		ldr	r3, [r7, #12]
 1824 0b26 5A68     		ldr	r2, [r3, #4]
 1825 0b28 BB68     		ldr	r3, [r7, #8]
 1826 0b2a 93F84430 		ldrb	r3, [r3, #68]	@ zero_extendqisi2
 1827 0b2e 1946     		mov	r1, r3
 1828 0b30 3B68     		ldr	r3, [r7]
 1829 0b32 1B78     		ldrb	r3, [r3]	@ zero_extendqisi2
 1830 0b34 1944     		add	r1, r1, r3
 1831 0b36 97F84530 		ldrb	r3, [r7, #69]	@ zero_extendqisi2
 1832 0b3a 0B44     		add	r3, r3, r1
 1833 0b3c 1344     		add	r3, r3, r2
 1834 0b3e 1A78     		ldrb	r2, [r3]	@ zero_extendqisi2
 1835 0b40 BB68     		ldr	r3, [r7, #8]
 1836 0b42 83F82020 		strb	r2, [r3, #32]
 708:build/openmote-cc2538_armgcc/openstack/03a-IPHC/iphc.c ****     				ipv6_outer_header->header_length += 1;
 1837              		.loc 1 708 0
 1838 0b46 BB68     		ldr	r3, [r7, #8]
 1839 0b48 93F84430 		ldrb	r3, [r3, #68]	@ zero_extendqisi2
 1840 0b4c 0133     		adds	r3, r3, #1
 1841 0b4e DAB2     		uxtb	r2, r3
 1842 0b50 BB68     		ldr	r3, [r7, #8]
 1843 0b52 83F84420 		strb	r2, [r3, #68]
 709:build/openmote-cc2538_armgcc/openstack/03a-IPHC/iphc.c ****     				// destination address maybe is the first address in RH3 6LoRH OR dest adress in IPHC, rese
 710:build/openmote-cc2538_armgcc/openstack/03a-IPHC/iphc.c ****     				// update destination address if necessary after the processing
 711:build/openmote-cc2538_armgcc/openstack/03a-IPHC/iphc.c ****     				ipv6_outer_header->dest.type = ADDR_NONE;
 1844              		.loc 1 711 0
 1845 0b56 BB68     		ldr	r3, [r7, #8]
 1846 0b58 0022     		movs	r2, #0
 1847 0b5a 83F83320 		strb	r2, [r3, #51]
 712:build/openmote-cc2538_armgcc/openstack/03a-IPHC/iphc.c ****     				memset(&(ipv6_outer_header->dest.addr_128b[0]),0,16);
 1848              		.loc 1 712 0
 1849 0b5e BB68     		ldr	r3, [r7, #8]
 1850 0b60 3433     		adds	r3, r3, #52
 1851 0b62 1022     		movs	r2, #16
 1852 0b64 0021     		movs	r1, #0
 1853 0b66 1846     		mov	r0, r3
 1854 0b68 FFF7FEFF 		bl	memset
 713:build/openmote-cc2538_armgcc/openstack/03a-IPHC/iphc.c ****     				if (lorh_length == 1){
 1855              		.loc 1 713 0
 1856 0b6c 97F84130 		ldrb	r3, [r7, #65]	@ zero_extendqisi2
 1857 0b70 012B     		cmp	r3, #1
 1858 0b72 10D1     		bne	.L122
 714:build/openmote-cc2538_armgcc/openstack/03a-IPHC/iphc.c ****     					// source address is root
 715:build/openmote-cc2538_armgcc/openstack/03a-IPHC/iphc.c ****     					memset(&(ipv6_outer_header->src),0,sizeof(open_addr_t));
 1859              		.loc 1 715 0
 1860 0b74 BB68     		ldr	r3, [r7, #8]
 1861 0b76 2233     		adds	r3, r3, #34
 1862 0b78 1122     		movs	r2, #17
 1863 0b7a 0021     		movs	r1, #0
 1864 0b7c 1846     		mov	r0, r3
 1865 0b7e FFF7FEFF 		bl	memset
 716:build/openmote-cc2538_armgcc/openstack/03a-IPHC/iphc.c ****     					packetfunctions_mac64bToIp128b(idmanager_getMyID(ADDR_PREFIX),(open_addr_t*)dagroot_mac64b
 1866              		.loc 1 716 0
 1867 0b82 0520     		movs	r0, #5
 1868 0b84 FFF7FEFF 		bl	idmanager_getMyID
 1869 0b88 BB68     		ldr	r3, [r7, #8]
 1870 0b8a 2233     		adds	r3, r3, #34
 1871 0b8c 1A46     		mov	r2, r3
 1872 0b8e 6E49     		ldr	r1, .L131
 1873 0b90 FFF7FEFF 		bl	packetfunctions_mac64bToIp128b
 1874 0b94 8BE0     		b	.L127
 1875              	.L122:
 717:build/openmote-cc2538_armgcc/openstack/03a-IPHC/iphc.c ****     					// destination address is the first address in RH3 6LoRH OR dest adress in IPHC
 718:build/openmote-cc2538_armgcc/openstack/03a-IPHC/iphc.c ****     				} else{
 719:build/openmote-cc2538_armgcc/openstack/03a-IPHC/iphc.c ****     					switch(lorh_length-1){
 1876              		.loc 1 719 0
 1877 0b96 97F84130 		ldrb	r3, [r7, #65]	@ zero_extendqisi2
 1878 0b9a 013B     		subs	r3, r3, #1
 1879 0b9c 082B     		cmp	r3, #8
 1880 0b9e 1ED0     		beq	.L125
 1881 0ba0 102B     		cmp	r3, #16
 1882 0ba2 43D1     		bne	.L130
 720:build/openmote-cc2538_armgcc/openstack/03a-IPHC/iphc.c ****     					case 16:
 721:build/openmote-cc2538_armgcc/openstack/03a-IPHC/iphc.c ****     						// this is source address
 722:build/openmote-cc2538_armgcc/openstack/03a-IPHC/iphc.c ****     						packetfunctions_readAddress(((uint8_t*)(msg->payload+ipv6_outer_header->header_length+*pa
 1883              		.loc 1 722 0
 1884 0ba4 FB68     		ldr	r3, [r7, #12]
 1885 0ba6 5A68     		ldr	r2, [r3, #4]
 1886 0ba8 BB68     		ldr	r3, [r7, #8]
 1887 0baa 93F84430 		ldrb	r3, [r3, #68]	@ zero_extendqisi2
 1888 0bae 1946     		mov	r1, r3
 1889 0bb0 3B68     		ldr	r3, [r7]
 1890 0bb2 1B78     		ldrb	r3, [r3]	@ zero_extendqisi2
 1891 0bb4 1944     		add	r1, r1, r3
 1892 0bb6 97F84530 		ldrb	r3, [r7, #69]	@ zero_extendqisi2
 1893 0bba 0B44     		add	r3, r3, r1
 1894 0bbc D018     		adds	r0, r2, r3
 1895 0bbe BB68     		ldr	r3, [r7, #8]
 1896 0bc0 03F12202 		add	r2, r3, #34
 1897 0bc4 0023     		movs	r3, #0
 1898 0bc6 0321     		movs	r1, #3
 1899 0bc8 FFF7FEFF 		bl	packetfunctions_readAddress
 723:build/openmote-cc2538_armgcc/openstack/03a-IPHC/iphc.c ****     						ipv6_outer_header->header_length += 16*sizeof(uint8_t);
 1900              		.loc 1 723 0
 1901 0bcc BB68     		ldr	r3, [r7, #8]
 1902 0bce 93F84430 		ldrb	r3, [r3, #68]	@ zero_extendqisi2
 1903 0bd2 1033     		adds	r3, r3, #16
 1904 0bd4 DAB2     		uxtb	r2, r3
 1905 0bd6 BB68     		ldr	r3, [r7, #8]
 1906 0bd8 83F84420 		strb	r2, [r3, #68]
 724:build/openmote-cc2538_armgcc/openstack/03a-IPHC/iphc.c ****     						break;
 1907              		.loc 1 724 0
 1908 0bdc 67E0     		b	.L127
 1909              	.L125:
 725:build/openmote-cc2538_armgcc/openstack/03a-IPHC/iphc.c ****     					case 8:
 726:build/openmote-cc2538_armgcc/openstack/03a-IPHC/iphc.c ****     						// this is source address
 727:build/openmote-cc2538_armgcc/openstack/03a-IPHC/iphc.c ****     						packetfunctions_readAddress(((uint8_t*)(msg->payload+ipv6_outer_header->header_length+*pa
 1910              		.loc 1 727 0
 1911 0bde FB68     		ldr	r3, [r7, #12]
 1912 0be0 5A68     		ldr	r2, [r3, #4]
 1913 0be2 BB68     		ldr	r3, [r7, #8]
 1914 0be4 93F84430 		ldrb	r3, [r3, #68]	@ zero_extendqisi2
 1915 0be8 1946     		mov	r1, r3
 1916 0bea 3B68     		ldr	r3, [r7]
 1917 0bec 1B78     		ldrb	r3, [r3]	@ zero_extendqisi2
 1918 0bee 1944     		add	r1, r1, r3
 1919 0bf0 97F84530 		ldrb	r3, [r7, #69]	@ zero_extendqisi2
 1920 0bf4 0B44     		add	r3, r3, r1
 1921 0bf6 D018     		adds	r0, r2, r3
 1922 0bf8 07F11C02 		add	r2, r7, #28
 1923 0bfc 0023     		movs	r3, #0
 1924 0bfe 0221     		movs	r1, #2
 1925 0c00 FFF7FEFF 		bl	packetfunctions_readAddress
 728:build/openmote-cc2538_armgcc/openstack/03a-IPHC/iphc.c ****     						ipv6_outer_header->header_length += 8*sizeof(uint8_t);
 1926              		.loc 1 728 0
 1927 0c04 BB68     		ldr	r3, [r7, #8]
 1928 0c06 93F84430 		ldrb	r3, [r3, #68]	@ zero_extendqisi2
 1929 0c0a 0833     		adds	r3, r3, #8
 1930 0c0c DAB2     		uxtb	r2, r3
 1931 0c0e BB68     		ldr	r3, [r7, #8]
 1932 0c10 83F84420 		strb	r2, [r3, #68]
 729:build/openmote-cc2538_armgcc/openstack/03a-IPHC/iphc.c ****     						packetfunctions_mac64bToIp128b(idmanager_getMyID(ADDR_PREFIX),&temp_addr_64b,&ipv6_outer_
 1933              		.loc 1 729 0
 1934 0c14 0520     		movs	r0, #5
 1935 0c16 FFF7FEFF 		bl	idmanager_getMyID
 1936 0c1a BB68     		ldr	r3, [r7, #8]
 1937 0c1c 03F12202 		add	r2, r3, #34
 1938 0c20 07F11C03 		add	r3, r7, #28
 1939 0c24 1946     		mov	r1, r3
 1940 0c26 FFF7FEFF 		bl	packetfunctions_mac64bToIp128b
 730:build/openmote-cc2538_armgcc/openstack/03a-IPHC/iphc.c ****     						break;
 1941              		.loc 1 730 0
 1942 0c2a 40E0     		b	.L127
 1943              	.L130:
 731:build/openmote-cc2538_armgcc/openstack/03a-IPHC/iphc.c ****     					default:
 732:build/openmote-cc2538_armgcc/openstack/03a-IPHC/iphc.c ****     						// do not support other length yet and destination address will be in RH3 or IPHC
 733:build/openmote-cc2538_armgcc/openstack/03a-IPHC/iphc.c ****     						openserial_printError(
 1944              		.loc 1 733 0
 1945 0c2c 97F84130 		ldrb	r3, [r7, #65]	@ zero_extendqisi2
 1946 0c30 9BB2     		uxth	r3, r3
 1947 0c32 013B     		subs	r3, r3, #1
 1948 0c34 9BB2     		uxth	r3, r3
 1949 0c36 0C22     		movs	r2, #12
 1950 0c38 0C21     		movs	r1, #12
 1951 0c3a 1220     		movs	r0, #18
 1952 0c3c FFF7FEFF 		bl	openserial_printError
 1953 0c40 35E0     		b	.L127
 1954              	.L121:
 734:build/openmote-cc2538_armgcc/openstack/03a-IPHC/iphc.c ****     								COMPONENT_IPHC,
 735:build/openmote-cc2538_armgcc/openstack/03a-IPHC/iphc.c **** 									ERR_6LOWPAN_UNSUPPORTED,
 736:build/openmote-cc2538_armgcc/openstack/03a-IPHC/iphc.c **** 									(errorparameter_t)12,
 737:build/openmote-cc2538_armgcc/openstack/03a-IPHC/iphc.c **** 									(errorparameter_t)(lorh_length-1)
 738:build/openmote-cc2538_armgcc/openstack/03a-IPHC/iphc.c ****     						);
 739:build/openmote-cc2538_armgcc/openstack/03a-IPHC/iphc.c ****     					}
 740:build/openmote-cc2538_armgcc/openstack/03a-IPHC/iphc.c ****     				}
 741:build/openmote-cc2538_armgcc/openstack/03a-IPHC/iphc.c ****     			}
 742:build/openmote-cc2538_armgcc/openstack/03a-IPHC/iphc.c **** #ifdef DEADLINE_OPTION_ENABLED    			
 743:build/openmote-cc2538_armgcc/openstack/03a-IPHC/iphc.c ****     			else if (lorh_type == DEADLINE_6LOTH_TYPE){
 1955              		.loc 1 743 0
 1956 0c42 97F84330 		ldrb	r3, [r7, #67]	@ zero_extendqisi2
 1957 0c46 072B     		cmp	r3, #7
 1958 0c48 14D1     		bne	.L128
 744:build/openmote-cc2538_armgcc/openstack/03a-IPHC/iphc.c ****     						ipv6_outer_header->deadline_option = (uint8_t*)(msg->payload) + \
 1959              		.loc 1 744 0
 1960 0c4a FB68     		ldr	r3, [r7, #12]
 1961 0c4c 5A68     		ldr	r2, [r3, #4]
 745:build/openmote-cc2538_armgcc/openstack/03a-IPHC/iphc.c ****     							*page_length + \
 1962              		.loc 1 745 0
 1963 0c4e 3B68     		ldr	r3, [r7]
 1964 0c50 1B78     		ldrb	r3, [r3]	@ zero_extendqisi2
 1965 0c52 1946     		mov	r1, r3
 1966 0c54 97F84530 		ldrb	r3, [r7, #69]	@ zero_extendqisi2
 1967 0c58 0B44     		add	r3, r3, r1
 1968 0c5a 1A44     		add	r2, r2, r3
 744:build/openmote-cc2538_armgcc/openstack/03a-IPHC/iphc.c ****     						ipv6_outer_header->deadline_option = (uint8_t*)(msg->payload) + \
 1969              		.loc 1 744 0
 1970 0c5c BB68     		ldr	r3, [r7, #8]
 1971 0c5e DA61     		str	r2, [r3, #28]
 746:build/openmote-cc2538_armgcc/openstack/03a-IPHC/iphc.c **** 								extention_header_length;	
 747:build/openmote-cc2538_armgcc/openstack/03a-IPHC/iphc.c ****     						extention_header_length += (lorh_length + 1);
 1972              		.loc 1 747 0
 1973 0c60 97F84120 		ldrb	r2, [r7, #65]
 1974 0c64 97F84530 		ldrb	r3, [r7, #69]
 1975 0c68 1344     		add	r3, r3, r2
 1976 0c6a DBB2     		uxtb	r3, r3
 1977 0c6c 0133     		adds	r3, r3, #1
 1978 0c6e 87F84530 		strb	r3, [r7, #69]
 1979 0c72 1CE0     		b	.L127
 1980              	.L128:
 748:build/openmote-cc2538_armgcc/openstack/03a-IPHC/iphc.c ****     			}
 749:build/openmote-cc2538_armgcc/openstack/03a-IPHC/iphc.c **** #endif			
 750:build/openmote-cc2538_armgcc/openstack/03a-IPHC/iphc.c ****     			 else {
 751:build/openmote-cc2538_armgcc/openstack/03a-IPHC/iphc.c ****     				//unknown elective packet, print error and skip it
 752:build/openmote-cc2538_armgcc/openstack/03a-IPHC/iphc.c ****     				openserial_printError(
 1981              		.loc 1 752 0
 1982 0c74 97F84430 		ldrb	r3, [r7, #68]	@ zero_extendqisi2
 1983 0c78 9BB2     		uxth	r3, r3
 1984 0c7a 0D22     		movs	r2, #13
 1985 0c7c 0C21     		movs	r1, #12
 1986 0c7e 1220     		movs	r0, #18
 1987 0c80 FFF7FEFF 		bl	openserial_printError
 753:build/openmote-cc2538_armgcc/openstack/03a-IPHC/iphc.c ****     						COMPONENT_IPHC,
 754:build/openmote-cc2538_armgcc/openstack/03a-IPHC/iphc.c ****     				        ERR_6LOWPAN_UNSUPPORTED,
 755:build/openmote-cc2538_armgcc/openstack/03a-IPHC/iphc.c ****     				        (errorparameter_t)13,
 756:build/openmote-cc2538_armgcc/openstack/03a-IPHC/iphc.c ****     				        (errorparameter_t)(rh3_index)
 757:build/openmote-cc2538_armgcc/openstack/03a-IPHC/iphc.c ****     				);
 758:build/openmote-cc2538_armgcc/openstack/03a-IPHC/iphc.c ****     				extention_header_length += 2 + lorh_length;
 1988              		.loc 1 758 0
 1989 0c84 97F84120 		ldrb	r2, [r7, #65]
 1990 0c88 97F84530 		ldrb	r3, [r7, #69]
 1991 0c8c 1344     		add	r3, r3, r2
 1992 0c8e DBB2     		uxtb	r3, r3
 1993 0c90 0233     		adds	r3, r3, #2
 1994 0c92 87F84530 		strb	r3, [r7, #69]
 759:build/openmote-cc2538_armgcc/openstack/03a-IPHC/iphc.c ****     				ipv6_outer_header->rhe_length += 2 + lorh_length;
 1995              		.loc 1 759 0
 1996 0c96 BB68     		ldr	r3, [r7, #8]
 1997 0c98 93F82120 		ldrb	r2, [r3, #33]	@ zero_extendqisi2
 1998 0c9c 97F84130 		ldrb	r3, [r7, #65]
 1999 0ca0 1344     		add	r3, r3, r2
 2000 0ca2 DBB2     		uxtb	r3, r3
 2001 0ca4 0233     		adds	r3, r3, #2
 2002 0ca6 DAB2     		uxtb	r2, r3
 2003 0ca8 BB68     		ldr	r3, [r7, #8]
 2004 0caa 83F82120 		strb	r2, [r3, #33]
 2005              	.L127:
 760:build/openmote-cc2538_armgcc/openstack/03a-IPHC/iphc.c ****     			}
 761:build/openmote-cc2538_armgcc/openstack/03a-IPHC/iphc.c ****    				temp_8b = *(uint8_t*)((msg->payload) + \
 2006              		.loc 1 761 0
 2007 0cae FB68     		ldr	r3, [r7, #12]
 2008 0cb0 5A68     		ldr	r2, [r3, #4]
 762:build/openmote-cc2538_armgcc/openstack/03a-IPHC/iphc.c ****     				    *page_length + \
 2009              		.loc 1 762 0
 2010 0cb2 3B68     		ldr	r3, [r7]
 2011 0cb4 1B78     		ldrb	r3, [r3]	@ zero_extendqisi2
 2012 0cb6 1946     		mov	r1, r3
 2013 0cb8 97F84530 		ldrb	r3, [r7, #69]	@ zero_extendqisi2
 2014 0cbc 0B44     		add	r3, r3, r1
 763:build/openmote-cc2538_armgcc/openstack/03a-IPHC/iphc.c ****     					extention_header_length +\
 764:build/openmote-cc2538_armgcc/openstack/03a-IPHC/iphc.c **** 						ipv6_outer_header->header_length);
 2015              		.loc 1 764 0
 2016 0cbe B968     		ldr	r1, [r7, #8]
 2017 0cc0 91F84410 		ldrb	r1, [r1, #68]	@ zero_extendqisi2
 763:build/openmote-cc2538_armgcc/openstack/03a-IPHC/iphc.c ****     					extention_header_length +\
 2018              		.loc 1 763 0
 2019 0cc4 0B44     		add	r3, r3, r1
 761:build/openmote-cc2538_armgcc/openstack/03a-IPHC/iphc.c ****     				    *page_length + \
 2020              		.loc 1 761 0
 2021 0cc6 1344     		add	r3, r3, r2
 2022 0cc8 1B78     		ldrb	r3, [r3]
 2023 0cca 87F84730 		strb	r3, [r7, #71]
 765:build/openmote-cc2538_armgcc/openstack/03a-IPHC/iphc.c ****     			break;
 2024              		.loc 1 765 0
 2025 0cce 00BF     		nop
 2026              	.L98:
 619:build/openmote-cc2538_armgcc/openstack/03a-IPHC/iphc.c ****     		switch (temp_8b&FORMAT_6LORH_MASK) {
 2027              		.loc 1 619 0
 2028 0cd0 97F84730 		ldrb	r3, [r7, #71]	@ zero_extendqisi2
 2029 0cd4 03F0E003 		and	r3, r3, #224
 2030 0cd8 802B     		cmp	r3, #128
 2031 0cda 3FF4F8AD 		beq	.L129
 619:build/openmote-cc2538_armgcc/openstack/03a-IPHC/iphc.c ****     		switch (temp_8b&FORMAT_6LORH_MASK) {
 2032              		.loc 1 619 0 is_stmt 0 discriminator 1
 2033 0cde 97F84730 		ldrb	r3, [r7, #71]	@ zero_extendqisi2
 2034 0ce2 03F0E003 		and	r3, r3, #224
 2035 0ce6 A02B     		cmp	r3, #160
 2036 0ce8 3FF4F1AD 		beq	.L129
 2037              	.L97:
 766:build/openmote-cc2538_armgcc/openstack/03a-IPHC/iphc.c ****     		}
 767:build/openmote-cc2538_armgcc/openstack/03a-IPHC/iphc.c ****     	}
 768:build/openmote-cc2538_armgcc/openstack/03a-IPHC/iphc.c ****     }
 769:build/openmote-cc2538_armgcc/openstack/03a-IPHC/iphc.c **** 
 770:build/openmote-cc2538_armgcc/openstack/03a-IPHC/iphc.c ****     //======================= 4. IPHC inner header =============================
 771:build/openmote-cc2538_armgcc/openstack/03a-IPHC/iphc.c ****     iphc_retrieveIphcHeader(
 772:build/openmote-cc2538_armgcc/openstack/03a-IPHC/iphc.c ****         &temp_addr_16b, 
 773:build/openmote-cc2538_armgcc/openstack/03a-IPHC/iphc.c ****         &temp_addr_64b,
 774:build/openmote-cc2538_armgcc/openstack/03a-IPHC/iphc.c ****         &dispatch,
 775:build/openmote-cc2538_armgcc/openstack/03a-IPHC/iphc.c ****         &tf,
 776:build/openmote-cc2538_armgcc/openstack/03a-IPHC/iphc.c ****         &nh,
 777:build/openmote-cc2538_armgcc/openstack/03a-IPHC/iphc.c ****         &hlim,
 778:build/openmote-cc2538_armgcc/openstack/03a-IPHC/iphc.c ****         &sam,
 779:build/openmote-cc2538_armgcc/openstack/03a-IPHC/iphc.c ****         &m,
 780:build/openmote-cc2538_armgcc/openstack/03a-IPHC/iphc.c ****         &dam,
 781:build/openmote-cc2538_armgcc/openstack/03a-IPHC/iphc.c ****         msg,
 782:build/openmote-cc2538_armgcc/openstack/03a-IPHC/iphc.c ****         ipv6_inner_header,
 783:build/openmote-cc2538_armgcc/openstack/03a-IPHC/iphc.c ****         extention_header_length + ipv6_outer_header->header_length + *page_length
 2038              		.loc 1 783 0 is_stmt 1
 2039 0cec BB68     		ldr	r3, [r7, #8]
 2040 0cee 93F84420 		ldrb	r2, [r3, #68]	@ zero_extendqisi2
 771:build/openmote-cc2538_armgcc/openstack/03a-IPHC/iphc.c ****         &temp_addr_16b, 
 2041              		.loc 1 771 0
 2042 0cf2 97F84530 		ldrb	r3, [r7, #69]
 2043 0cf6 1344     		add	r3, r3, r2
 2044 0cf8 DAB2     		uxtb	r2, r3
 2045              		.loc 1 783 0
 2046 0cfa 3B68     		ldr	r3, [r7]
 2047 0cfc 1B78     		ldrb	r3, [r3]	@ zero_extendqisi2
 771:build/openmote-cc2538_armgcc/openstack/03a-IPHC/iphc.c ****         &temp_addr_16b, 
 2048              		.loc 1 771 0
 2049 0cfe 1344     		add	r3, r3, r2
 2050 0d00 DBB2     		uxtb	r3, r3
 2051 0d02 07F11A04 		add	r4, r7, #26
 2052 0d06 07F11B02 		add	r2, r7, #27
 2053 0d0a 07F11C01 		add	r1, r7, #28
 2054 0d0e 07F13000 		add	r0, r7, #48
 2055 0d12 0793     		str	r3, [sp, #28]
 2056 0d14 7B68     		ldr	r3, [r7, #4]
 2057 0d16 0693     		str	r3, [sp, #24]
 2058 0d18 FB68     		ldr	r3, [r7, #12]
 2059 0d1a 0593     		str	r3, [sp, #20]
 2060 0d1c 07F11503 		add	r3, r7, #21
 2061 0d20 0493     		str	r3, [sp, #16]
 2062 0d22 07F11603 		add	r3, r7, #22
 2063 0d26 0393     		str	r3, [sp, #12]
 2064 0d28 07F11703 		add	r3, r7, #23
 2065 0d2c 0293     		str	r3, [sp, #8]
 2066 0d2e 07F11803 		add	r3, r7, #24
 2067 0d32 0193     		str	r3, [sp, #4]
 2068 0d34 07F11903 		add	r3, r7, #25
 2069 0d38 0093     		str	r3, [sp]
 2070 0d3a 2346     		mov	r3, r4
 2071 0d3c FFF7FEFF 		bl	iphc_retrieveIphcHeader
 2072              	.L94:
 784:build/openmote-cc2538_armgcc/openstack/03a-IPHC/iphc.c ****     );
 785:build/openmote-cc2538_armgcc/openstack/03a-IPHC/iphc.c **** }
 2073              		.loc 1 785 0
 2074 0d40 4C37     		adds	r7, r7, #76
 2075              		.cfi_def_cfa_offset 12
 2076 0d42 BD46     		mov	sp, r7
 2077              		.cfi_def_cfa_register 13
 2078              		@ sp needed
 2079 0d44 90BD     		pop	{r4, r7, pc}
 2080              	.L132:
 2081 0d46 00BF     		.align	2
 2082              	.L131:
 2083 0d48 74000000 		.word	dagroot_mac64b
 2084              		.cfi_endproc
 2085              	.LFE6:
 2087              		.align	2
 2088              		.global	iphc_retrieveIphcHeader
 2089              		.thumb
 2090              		.thumb_func
 2092              	iphc_retrieveIphcHeader:
 2093              	.LFB7:
 786:build/openmote-cc2538_armgcc/openstack/03a-IPHC/iphc.c **** 
 787:build/openmote-cc2538_armgcc/openstack/03a-IPHC/iphc.c **** uint8_t iphc_retrieveIphcHeader(open_addr_t* temp_addr_16b,
 788:build/openmote-cc2538_armgcc/openstack/03a-IPHC/iphc.c ****     open_addr_t*         temp_addr_64b,
 789:build/openmote-cc2538_armgcc/openstack/03a-IPHC/iphc.c ****     uint8_t*             dispatch,
 790:build/openmote-cc2538_armgcc/openstack/03a-IPHC/iphc.c ****     uint8_t*             tf,
 791:build/openmote-cc2538_armgcc/openstack/03a-IPHC/iphc.c ****     uint8_t*             nh,
 792:build/openmote-cc2538_armgcc/openstack/03a-IPHC/iphc.c ****     uint8_t*             hlim,
 793:build/openmote-cc2538_armgcc/openstack/03a-IPHC/iphc.c ****     uint8_t*             sam,
 794:build/openmote-cc2538_armgcc/openstack/03a-IPHC/iphc.c ****     uint8_t*             m,
 795:build/openmote-cc2538_armgcc/openstack/03a-IPHC/iphc.c ****     uint8_t*             dam,
 796:build/openmote-cc2538_armgcc/openstack/03a-IPHC/iphc.c ****     OpenQueueEntry_t*    msg,
 797:build/openmote-cc2538_armgcc/openstack/03a-IPHC/iphc.c ****     ipv6_header_iht*     ipv6_header,
 798:build/openmote-cc2538_armgcc/openstack/03a-IPHC/iphc.c ****     uint8_t              previousLen){
 2094              		.loc 1 798 0
 2095              		.cfi_startproc
 2096              		@ args = 32, pretend = 0, frame = 24
 2097              		@ frame_needed = 1, uses_anonymous_args = 0
 2098 0d4c B0B5     		push	{r4, r5, r7, lr}
 2099              		.cfi_def_cfa_offset 16
 2100              		.cfi_offset 4, -16
 2101              		.cfi_offset 5, -12
 2102              		.cfi_offset 7, -8
 2103              		.cfi_offset 14, -4
 2104 0d4e 86B0     		sub	sp, sp, #24
 2105              		.cfi_def_cfa_offset 40
 2106 0d50 00AF     		add	r7, sp, #0
 2107              		.cfi_def_cfa_register 7
 2108 0d52 F860     		str	r0, [r7, #12]
 2109 0d54 B960     		str	r1, [r7, #8]
 2110 0d56 7A60     		str	r2, [r7, #4]
 2111 0d58 3B60     		str	r3, [r7]
 799:build/openmote-cc2538_armgcc/openstack/03a-IPHC/iphc.c ****        
 800:build/openmote-cc2538_armgcc/openstack/03a-IPHC/iphc.c ****     uint8_t page;
 801:build/openmote-cc2538_armgcc/openstack/03a-IPHC/iphc.c ****     uint8_t temp_8b;
 802:build/openmote-cc2538_armgcc/openstack/03a-IPHC/iphc.c ****     uint8_t ipinip_length;
 803:build/openmote-cc2538_armgcc/openstack/03a-IPHC/iphc.c ****     uint8_t lowpan_nhc;
 804:build/openmote-cc2538_armgcc/openstack/03a-IPHC/iphc.c **** 
 805:build/openmote-cc2538_armgcc/openstack/03a-IPHC/iphc.c ****     temp_8b = *((uint8_t*)(msg->payload)+ipv6_header->header_length+previousLen);
 2112              		.loc 1 805 0
 2113 0d5a FB6B     		ldr	r3, [r7, #60]
 2114 0d5c 5A68     		ldr	r2, [r3, #4]
 2115 0d5e 3B6C     		ldr	r3, [r7, #64]
 2116 0d60 93F84430 		ldrb	r3, [r3, #68]	@ zero_extendqisi2
 2117 0d64 1946     		mov	r1, r3
 2118 0d66 97F84430 		ldrb	r3, [r7, #68]	@ zero_extendqisi2
 2119 0d6a 0B44     		add	r3, r3, r1
 2120 0d6c 1344     		add	r3, r3, r2
 2121 0d6e 1B78     		ldrb	r3, [r3]
 2122 0d70 BB75     		strb	r3, [r7, #22]
 806:build/openmote-cc2538_armgcc/openstack/03a-IPHC/iphc.c ****     
 807:build/openmote-cc2538_armgcc/openstack/03a-IPHC/iphc.c ****     if ((temp_8b&PAGE_DISPATCH_TAG) == PAGE_DISPATCH_TAG){
 2123              		.loc 1 807 0
 2124 0d72 BB7D     		ldrb	r3, [r7, #22]	@ zero_extendqisi2
 2125 0d74 03F0F003 		and	r3, r3, #240
 2126 0d78 F02B     		cmp	r3, #240
 2127 0d7a 0CD1     		bne	.L134
 808:build/openmote-cc2538_armgcc/openstack/03a-IPHC/iphc.c ****         page = temp_8b&PAGE_DISPATCH_NUM; 
 2128              		.loc 1 808 0
 2129 0d7c BB7D     		ldrb	r3, [r7, #22]
 2130 0d7e 03F00F03 		and	r3, r3, #15
 2131 0d82 FB75     		strb	r3, [r7, #23]
 809:build/openmote-cc2538_armgcc/openstack/03a-IPHC/iphc.c ****         ipv6_header->header_length += sizeof(uint8_t);
 2132              		.loc 1 809 0
 2133 0d84 3B6C     		ldr	r3, [r7, #64]
 2134 0d86 93F84430 		ldrb	r3, [r3, #68]	@ zero_extendqisi2
 2135 0d8a 0133     		adds	r3, r3, #1
 2136 0d8c DAB2     		uxtb	r2, r3
 2137 0d8e 3B6C     		ldr	r3, [r7, #64]
 2138 0d90 83F84420 		strb	r2, [r3, #68]
 2139 0d94 01E0     		b	.L135
 2140              	.L134:
 810:build/openmote-cc2538_armgcc/openstack/03a-IPHC/iphc.c ****     } else {
 811:build/openmote-cc2538_armgcc/openstack/03a-IPHC/iphc.c ****         page = 0;
 2141              		.loc 1 811 0
 2142 0d96 0023     		movs	r3, #0
 2143 0d98 FB75     		strb	r3, [r7, #23]
 2144              	.L135:
 812:build/openmote-cc2538_armgcc/openstack/03a-IPHC/iphc.c ****     }
 813:build/openmote-cc2538_armgcc/openstack/03a-IPHC/iphc.c ****     
 814:build/openmote-cc2538_armgcc/openstack/03a-IPHC/iphc.c ****     if (
 2145              		.loc 1 814 0
 2146 0d9a FB7D     		ldrb	r3, [r7, #23]	@ zero_extendqisi2
 2147 0d9c 002B     		cmp	r3, #0
 2148 0d9e 13D0     		beq	.L136
 815:build/openmote-cc2538_armgcc/openstack/03a-IPHC/iphc.c ****         page==0 ||
 2149              		.loc 1 815 0
 2150 0da0 FB7D     		ldrb	r3, [r7, #23]	@ zero_extendqisi2
 2151 0da2 012B     		cmp	r3, #1
 2152 0da4 40F0AE82 		bne	.L137
 816:build/openmote-cc2538_armgcc/openstack/03a-IPHC/iphc.c ****         (page==1 && (*((uint8_t*)(msg->payload)+ipv6_header->header_length+previousLen) & 0xC0) != 
 2153              		.loc 1 816 0
 2154 0da8 FB6B     		ldr	r3, [r7, #60]
 2155 0daa 5A68     		ldr	r2, [r3, #4]
 2156 0dac 3B6C     		ldr	r3, [r7, #64]
 2157 0dae 93F84430 		ldrb	r3, [r3, #68]	@ zero_extendqisi2
 2158 0db2 1946     		mov	r1, r3
 2159 0db4 97F84430 		ldrb	r3, [r7, #68]	@ zero_extendqisi2
 2160 0db8 0B44     		add	r3, r3, r1
 2161 0dba 1344     		add	r3, r3, r2
 2162 0dbc 1B78     		ldrb	r3, [r3]	@ zero_extendqisi2
 2163 0dbe 03F0C003 		and	r3, r3, #192
 2164 0dc2 802B     		cmp	r3, #128
 2165 0dc4 00F09E82 		beq	.L137
 2166              	.L136:
 817:build/openmote-cc2538_armgcc/openstack/03a-IPHC/iphc.c ****     ){
 818:build/openmote-cc2538_armgcc/openstack/03a-IPHC/iphc.c ****         // header
 819:build/openmote-cc2538_armgcc/openstack/03a-IPHC/iphc.c ****         temp_8b    = *((uint8_t*)(msg->payload)+ipv6_header->header_length+previousLen);
 2167              		.loc 1 819 0
 2168 0dc8 FB6B     		ldr	r3, [r7, #60]
 2169 0dca 5A68     		ldr	r2, [r3, #4]
 2170 0dcc 3B6C     		ldr	r3, [r7, #64]
 2171 0dce 93F84430 		ldrb	r3, [r3, #68]	@ zero_extendqisi2
 2172 0dd2 1946     		mov	r1, r3
 2173 0dd4 97F84430 		ldrb	r3, [r7, #68]	@ zero_extendqisi2
 2174 0dd8 0B44     		add	r3, r3, r1
 2175 0dda 1344     		add	r3, r3, r2
 2176 0ddc 1B78     		ldrb	r3, [r3]
 2177 0dde BB75     		strb	r3, [r7, #22]
 820:build/openmote-cc2538_armgcc/openstack/03a-IPHC/iphc.c ****         *dispatch  = (temp_8b >> IPHC_DISPATCH)  & 0x07;   // 3b
 2178              		.loc 1 820 0
 2179 0de0 BB7D     		ldrb	r3, [r7, #22]	@ zero_extendqisi2
 2180 0de2 5B09     		lsrs	r3, r3, #5
 2181 0de4 DAB2     		uxtb	r2, r3
 2182 0de6 7B68     		ldr	r3, [r7, #4]
 2183 0de8 1A70     		strb	r2, [r3]
 821:build/openmote-cc2538_armgcc/openstack/03a-IPHC/iphc.c ****         *tf        = (temp_8b >> IPHC_TF)        & 0x03;   // 2b
 2184              		.loc 1 821 0
 2185 0dea BB7D     		ldrb	r3, [r7, #22]	@ zero_extendqisi2
 2186 0dec DB08     		lsrs	r3, r3, #3
 2187 0dee DBB2     		uxtb	r3, r3
 2188 0df0 03F00303 		and	r3, r3, #3
 2189 0df4 DAB2     		uxtb	r2, r3
 2190 0df6 3B68     		ldr	r3, [r7]
 2191 0df8 1A70     		strb	r2, [r3]
 822:build/openmote-cc2538_armgcc/openstack/03a-IPHC/iphc.c ****         *nh        = (temp_8b >> IPHC_NH)        & 0x01;   // 1b
 2192              		.loc 1 822 0
 2193 0dfa BB7D     		ldrb	r3, [r7, #22]	@ zero_extendqisi2
 2194 0dfc 9B08     		lsrs	r3, r3, #2
 2195 0dfe DBB2     		uxtb	r3, r3
 2196 0e00 03F00103 		and	r3, r3, #1
 2197 0e04 DAB2     		uxtb	r2, r3
 2198 0e06 BB6A     		ldr	r3, [r7, #40]
 2199 0e08 1A70     		strb	r2, [r3]
 823:build/openmote-cc2538_armgcc/openstack/03a-IPHC/iphc.c ****         *hlim      = (temp_8b >> IPHC_HLIM)      & 0x03;   // 2b
 2200              		.loc 1 823 0
 2201 0e0a BB7D     		ldrb	r3, [r7, #22]
 2202 0e0c 03F00303 		and	r3, r3, #3
 2203 0e10 DAB2     		uxtb	r2, r3
 2204 0e12 FB6A     		ldr	r3, [r7, #44]
 2205 0e14 1A70     		strb	r2, [r3]
 824:build/openmote-cc2538_armgcc/openstack/03a-IPHC/iphc.c ****         ipv6_header->header_length += sizeof(uint8_t);
 2206              		.loc 1 824 0
 2207 0e16 3B6C     		ldr	r3, [r7, #64]
 2208 0e18 93F84430 		ldrb	r3, [r3, #68]	@ zero_extendqisi2
 2209 0e1c 0133     		adds	r3, r3, #1
 2210 0e1e DAB2     		uxtb	r2, r3
 2211 0e20 3B6C     		ldr	r3, [r7, #64]
 2212 0e22 83F84420 		strb	r2, [r3, #68]
 825:build/openmote-cc2538_armgcc/openstack/03a-IPHC/iphc.c ****         temp_8b    = *((uint8_t*)(msg->payload)+ipv6_header->header_length+previousLen);
 2213              		.loc 1 825 0
 2214 0e26 FB6B     		ldr	r3, [r7, #60]
 2215 0e28 5A68     		ldr	r2, [r3, #4]
 2216 0e2a 3B6C     		ldr	r3, [r7, #64]
 2217 0e2c 93F84430 		ldrb	r3, [r3, #68]	@ zero_extendqisi2
 2218 0e30 1946     		mov	r1, r3
 2219 0e32 97F84430 		ldrb	r3, [r7, #68]	@ zero_extendqisi2
 2220 0e36 0B44     		add	r3, r3, r1
 2221 0e38 1344     		add	r3, r3, r2
 2222 0e3a 1B78     		ldrb	r3, [r3]
 2223 0e3c BB75     		strb	r3, [r7, #22]
 826:build/openmote-cc2538_armgcc/openstack/03a-IPHC/iphc.c ****        // cid unused
 827:build/openmote-cc2538_armgcc/openstack/03a-IPHC/iphc.c ****        // sac unused
 828:build/openmote-cc2538_armgcc/openstack/03a-IPHC/iphc.c ****        *sam       = (temp_8b >> IPHC_SAM)       & 0x03;   // 2b
 2224              		.loc 1 828 0
 2225 0e3e BB7D     		ldrb	r3, [r7, #22]	@ zero_extendqisi2
 2226 0e40 1B09     		lsrs	r3, r3, #4
 2227 0e42 DBB2     		uxtb	r3, r3
 2228 0e44 03F00303 		and	r3, r3, #3
 2229 0e48 DAB2     		uxtb	r2, r3
 2230 0e4a 3B6B     		ldr	r3, [r7, #48]
 2231 0e4c 1A70     		strb	r2, [r3]
 829:build/openmote-cc2538_armgcc/openstack/03a-IPHC/iphc.c ****        // m unused
 830:build/openmote-cc2538_armgcc/openstack/03a-IPHC/iphc.c ****        *m         = (temp_8b >> IPHC_M)         & 0x01;   // 1b
 2232              		.loc 1 830 0
 2233 0e4e BB7D     		ldrb	r3, [r7, #22]	@ zero_extendqisi2
 2234 0e50 DB08     		lsrs	r3, r3, #3
 2235 0e52 DBB2     		uxtb	r3, r3
 2236 0e54 03F00103 		and	r3, r3, #1
 2237 0e58 DAB2     		uxtb	r2, r3
 2238 0e5a 7B6B     		ldr	r3, [r7, #52]
 2239 0e5c 1A70     		strb	r2, [r3]
 831:build/openmote-cc2538_armgcc/openstack/03a-IPHC/iphc.c ****        // dac unused
 832:build/openmote-cc2538_armgcc/openstack/03a-IPHC/iphc.c ****        *dam       = (temp_8b >> IPHC_DAM)       & 0x03;   // 2b
 2240              		.loc 1 832 0
 2241 0e5e BB7D     		ldrb	r3, [r7, #22]
 2242 0e60 03F00303 		and	r3, r3, #3
 2243 0e64 DAB2     		uxtb	r2, r3
 2244 0e66 BB6B     		ldr	r3, [r7, #56]
 2245 0e68 1A70     		strb	r2, [r3]
 833:build/openmote-cc2538_armgcc/openstack/03a-IPHC/iphc.c ****        ipv6_header->header_length += sizeof(uint8_t);
 2246              		.loc 1 833 0
 2247 0e6a 3B6C     		ldr	r3, [r7, #64]
 2248 0e6c 93F84430 		ldrb	r3, [r3, #68]	@ zero_extendqisi2
 2249 0e70 0133     		adds	r3, r3, #1
 2250 0e72 DAB2     		uxtb	r2, r3
 2251 0e74 3B6C     		ldr	r3, [r7, #64]
 2252 0e76 83F84420 		strb	r2, [r3, #68]
 834:build/openmote-cc2538_armgcc/openstack/03a-IPHC/iphc.c ****        
 835:build/openmote-cc2538_armgcc/openstack/03a-IPHC/iphc.c ****        // dispatch
 836:build/openmote-cc2538_armgcc/openstack/03a-IPHC/iphc.c ****        switch (*dispatch) {
 2253              		.loc 1 836 0
 2254 0e7a 7B68     		ldr	r3, [r7, #4]
 2255 0e7c 1B78     		ldrb	r3, [r3]	@ zero_extendqisi2
 2256 0e7e 032B     		cmp	r3, #3
 2257 0e80 08D0     		beq	.L189
 837:build/openmote-cc2538_armgcc/openstack/03a-IPHC/iphc.c ****           case IPHC_DISPATCH_IPHC:
 838:build/openmote-cc2538_armgcc/openstack/03a-IPHC/iphc.c ****              break;
 839:build/openmote-cc2538_armgcc/openstack/03a-IPHC/iphc.c ****           default:
 840:build/openmote-cc2538_armgcc/openstack/03a-IPHC/iphc.c ****              openserial_printError(
 841:build/openmote-cc2538_armgcc/openstack/03a-IPHC/iphc.c ****                 COMPONENT_IPHC,
 842:build/openmote-cc2538_armgcc/openstack/03a-IPHC/iphc.c ****                 ERR_6LOWPAN_UNSUPPORTED,
 843:build/openmote-cc2538_armgcc/openstack/03a-IPHC/iphc.c ****                 (errorparameter_t)5,
 844:build/openmote-cc2538_armgcc/openstack/03a-IPHC/iphc.c ****                 (errorparameter_t)(*dispatch)
 2258              		.loc 1 844 0
 2259 0e82 7B68     		ldr	r3, [r7, #4]
 2260 0e84 1B78     		ldrb	r3, [r3]	@ zero_extendqisi2
 840:build/openmote-cc2538_armgcc/openstack/03a-IPHC/iphc.c ****                 COMPONENT_IPHC,
 2261              		.loc 1 840 0
 2262 0e86 9BB2     		uxth	r3, r3
 2263 0e88 0522     		movs	r2, #5
 2264 0e8a 0C21     		movs	r1, #12
 2265 0e8c 1220     		movs	r0, #18
 2266 0e8e FFF7FEFF 		bl	openserial_printError
 845:build/openmote-cc2538_armgcc/openstack/03a-IPHC/iphc.c ****              );
 846:build/openmote-cc2538_armgcc/openstack/03a-IPHC/iphc.c ****              break;
 2267              		.loc 1 846 0
 2268 0e92 00E0     		b	.L140
 2269              	.L189:
 838:build/openmote-cc2538_armgcc/openstack/03a-IPHC/iphc.c ****           default:
 2270              		.loc 1 838 0
 2271 0e94 00BF     		nop
 2272              	.L140:
 847:build/openmote-cc2538_armgcc/openstack/03a-IPHC/iphc.c ****        }
 848:build/openmote-cc2538_armgcc/openstack/03a-IPHC/iphc.c ****        
 849:build/openmote-cc2538_armgcc/openstack/03a-IPHC/iphc.c ****        // flowlabel
 850:build/openmote-cc2538_armgcc/openstack/03a-IPHC/iphc.c ****        switch (*tf) {
 2273              		.loc 1 850 0
 2274 0e96 3B68     		ldr	r3, [r7]
 2275 0e98 1B78     		ldrb	r3, [r3]	@ zero_extendqisi2
 2276 0e9a 012B     		cmp	r3, #1
 2277 0e9c 02D0     		beq	.L142
 2278 0e9e 032B     		cmp	r3, #3
 2279 0ea0 4ED0     		beq	.L143
 2280 0ea2 51E0     		b	.L186
 2281              	.L142:
 851:build/openmote-cc2538_armgcc/openstack/03a-IPHC/iphc.c ****           case IPHC_TF_3B:
 852:build/openmote-cc2538_armgcc/openstack/03a-IPHC/iphc.c **** 
 853:build/openmote-cc2538_armgcc/openstack/03a-IPHC/iphc.c ****              ipv6_header->flow_label        = 0;
 2282              		.loc 1 853 0
 2283 0ea4 3B6C     		ldr	r3, [r7, #64]
 2284 0ea6 0022     		movs	r2, #0
 2285 0ea8 5A60     		str	r2, [r3, #4]
 854:build/openmote-cc2538_armgcc/openstack/03a-IPHC/iphc.c ****              ipv6_header->flow_label       |= ((uint32_t) *((uint8_t*)(msg->payload)+ipv6_header->h
 2286              		.loc 1 854 0
 2287 0eaa 3B6C     		ldr	r3, [r7, #64]
 2288 0eac 5B68     		ldr	r3, [r3, #4]
 2289 0eae FA6B     		ldr	r2, [r7, #60]
 2290 0eb0 5168     		ldr	r1, [r2, #4]
 2291 0eb2 3A6C     		ldr	r2, [r7, #64]
 2292 0eb4 92F84420 		ldrb	r2, [r2, #68]	@ zero_extendqisi2
 2293 0eb8 1046     		mov	r0, r2
 2294 0eba 97F84420 		ldrb	r2, [r7, #68]	@ zero_extendqisi2
 2295 0ebe 0244     		add	r2, r2, r0
 2296 0ec0 0A44     		add	r2, r2, r1
 2297 0ec2 1278     		ldrb	r2, [r2]	@ zero_extendqisi2
 2298 0ec4 1A43     		orrs	r2, r2, r3
 2299 0ec6 3B6C     		ldr	r3, [r7, #64]
 2300 0ec8 5A60     		str	r2, [r3, #4]
 855:build/openmote-cc2538_armgcc/openstack/03a-IPHC/iphc.c ****              ipv6_header->header_length    += sizeof(uint8_t);
 2301              		.loc 1 855 0
 2302 0eca 3B6C     		ldr	r3, [r7, #64]
 2303 0ecc 93F84430 		ldrb	r3, [r3, #68]	@ zero_extendqisi2
 2304 0ed0 0133     		adds	r3, r3, #1
 2305 0ed2 DAB2     		uxtb	r2, r3
 2306 0ed4 3B6C     		ldr	r3, [r7, #64]
 2307 0ed6 83F84420 		strb	r2, [r3, #68]
 856:build/openmote-cc2538_armgcc/openstack/03a-IPHC/iphc.c ****              ipv6_header->flow_label       |= ((uint32_t) *((uint8_t*)(msg->payload)+ipv6_header->h
 2308              		.loc 1 856 0
 2309 0eda 3B6C     		ldr	r3, [r7, #64]
 2310 0edc 5A68     		ldr	r2, [r3, #4]
 2311 0ede FB6B     		ldr	r3, [r7, #60]
 2312 0ee0 5968     		ldr	r1, [r3, #4]
 2313 0ee2 3B6C     		ldr	r3, [r7, #64]
 2314 0ee4 93F84430 		ldrb	r3, [r3, #68]	@ zero_extendqisi2
 2315 0ee8 1846     		mov	r0, r3
 2316 0eea 97F84430 		ldrb	r3, [r7, #68]	@ zero_extendqisi2
 2317 0eee 0344     		add	r3, r3, r0
 2318 0ef0 0B44     		add	r3, r3, r1
 2319 0ef2 1B78     		ldrb	r3, [r3]	@ zero_extendqisi2
 2320 0ef4 1B02     		lsls	r3, r3, #8
 2321 0ef6 1A43     		orrs	r2, r2, r3
 2322 0ef8 3B6C     		ldr	r3, [r7, #64]
 2323 0efa 5A60     		str	r2, [r3, #4]
 857:build/openmote-cc2538_armgcc/openstack/03a-IPHC/iphc.c ****              ipv6_header->header_length    += sizeof(uint8_t);
 2324              		.loc 1 857 0
 2325 0efc 3B6C     		ldr	r3, [r7, #64]
 2326 0efe 93F84430 		ldrb	r3, [r3, #68]	@ zero_extendqisi2
 2327 0f02 0133     		adds	r3, r3, #1
 2328 0f04 DAB2     		uxtb	r2, r3
 2329 0f06 3B6C     		ldr	r3, [r7, #64]
 2330 0f08 83F84420 		strb	r2, [r3, #68]
 858:build/openmote-cc2538_armgcc/openstack/03a-IPHC/iphc.c ****              ipv6_header->flow_label       |= ((uint32_t) *((uint8_t*)(msg->payload)+ipv6_header->h
 2331              		.loc 1 858 0
 2332 0f0c 3B6C     		ldr	r3, [r7, #64]
 2333 0f0e 5A68     		ldr	r2, [r3, #4]
 2334 0f10 FB6B     		ldr	r3, [r7, #60]
 2335 0f12 5968     		ldr	r1, [r3, #4]
 2336 0f14 3B6C     		ldr	r3, [r7, #64]
 2337 0f16 93F84430 		ldrb	r3, [r3, #68]	@ zero_extendqisi2
 2338 0f1a 1846     		mov	r0, r3
 2339 0f1c 97F84430 		ldrb	r3, [r7, #68]	@ zero_extendqisi2
 2340 0f20 0344     		add	r3, r3, r0
 2341 0f22 0B44     		add	r3, r3, r1
 2342 0f24 1B78     		ldrb	r3, [r3]	@ zero_extendqisi2
 2343 0f26 1B04     		lsls	r3, r3, #16
 2344 0f28 1A43     		orrs	r2, r2, r3
 2345 0f2a 3B6C     		ldr	r3, [r7, #64]
 2346 0f2c 5A60     		str	r2, [r3, #4]
 859:build/openmote-cc2538_armgcc/openstack/03a-IPHC/iphc.c ****              ipv6_header->header_length    += sizeof(uint8_t);
 2347              		.loc 1 859 0
 2348 0f2e 3B6C     		ldr	r3, [r7, #64]
 2349 0f30 93F84430 		ldrb	r3, [r3, #68]	@ zero_extendqisi2
 2350 0f34 0133     		adds	r3, r3, #1
 2351 0f36 DAB2     		uxtb	r2, r3
 2352 0f38 3B6C     		ldr	r3, [r7, #64]
 2353 0f3a 83F84420 		strb	r2, [r3, #68]
 860:build/openmote-cc2538_armgcc/openstack/03a-IPHC/iphc.c ****              break;            
 2354              		.loc 1 860 0
 2355 0f3e 0CE0     		b	.L144
 2356              	.L143:
 861:build/openmote-cc2538_armgcc/openstack/03a-IPHC/iphc.c ****           case IPHC_TF_ELIDED:
 862:build/openmote-cc2538_armgcc/openstack/03a-IPHC/iphc.c ****              ipv6_header->flow_label        = 0;
 2357              		.loc 1 862 0
 2358 0f40 3B6C     		ldr	r3, [r7, #64]
 2359 0f42 0022     		movs	r2, #0
 2360 0f44 5A60     		str	r2, [r3, #4]
 863:build/openmote-cc2538_armgcc/openstack/03a-IPHC/iphc.c ****              break;
 2361              		.loc 1 863 0
 2362 0f46 08E0     		b	.L144
 2363              	.L186:
 864:build/openmote-cc2538_armgcc/openstack/03a-IPHC/iphc.c ****           case IPHC_TF_4B:
 865:build/openmote-cc2538_armgcc/openstack/03a-IPHC/iphc.c ****              //unsupported
 866:build/openmote-cc2538_armgcc/openstack/03a-IPHC/iphc.c ****           case IPHC_TF_1B:
 867:build/openmote-cc2538_armgcc/openstack/03a-IPHC/iphc.c ****              //unsupported
 868:build/openmote-cc2538_armgcc/openstack/03a-IPHC/iphc.c ****           default:
 869:build/openmote-cc2538_armgcc/openstack/03a-IPHC/iphc.c ****              openserial_printError(
 870:build/openmote-cc2538_armgcc/openstack/03a-IPHC/iphc.c ****                 COMPONENT_IPHC,
 871:build/openmote-cc2538_armgcc/openstack/03a-IPHC/iphc.c ****                 ERR_6LOWPAN_UNSUPPORTED,
 872:build/openmote-cc2538_armgcc/openstack/03a-IPHC/iphc.c ****                 (errorparameter_t)6,
 873:build/openmote-cc2538_armgcc/openstack/03a-IPHC/iphc.c ****                 (errorparameter_t)(*tf)
 2364              		.loc 1 873 0
 2365 0f48 3B68     		ldr	r3, [r7]
 2366 0f4a 1B78     		ldrb	r3, [r3]	@ zero_extendqisi2
 869:build/openmote-cc2538_armgcc/openstack/03a-IPHC/iphc.c ****                 COMPONENT_IPHC,
 2367              		.loc 1 869 0
 2368 0f4c 9BB2     		uxth	r3, r3
 2369 0f4e 0622     		movs	r2, #6
 2370 0f50 0C21     		movs	r1, #12
 2371 0f52 1220     		movs	r0, #18
 2372 0f54 FFF7FEFF 		bl	openserial_printError
 874:build/openmote-cc2538_armgcc/openstack/03a-IPHC/iphc.c ****              );
 875:build/openmote-cc2538_armgcc/openstack/03a-IPHC/iphc.c ****              break;
 2373              		.loc 1 875 0
 2374 0f58 00BF     		nop
 2375              	.L144:
 876:build/openmote-cc2538_armgcc/openstack/03a-IPHC/iphc.c ****        }
 877:build/openmote-cc2538_armgcc/openstack/03a-IPHC/iphc.c ****        
 878:build/openmote-cc2538_armgcc/openstack/03a-IPHC/iphc.c ****        // next header
 879:build/openmote-cc2538_armgcc/openstack/03a-IPHC/iphc.c ****        switch (*nh) {
 2376              		.loc 1 879 0
 2377 0f5a BB6A     		ldr	r3, [r7, #40]
 2378 0f5c 1B78     		ldrb	r3, [r3]	@ zero_extendqisi2
 2379 0f5e 002B     		cmp	r3, #0
 2380 0f60 02D0     		beq	.L146
 2381 0f62 012B     		cmp	r3, #1
 2382 0f64 19D0     		beq	.L147
 2383 0f66 1CE0     		b	.L187
 2384              	.L146:
 880:build/openmote-cc2538_armgcc/openstack/03a-IPHC/iphc.c ****           case IPHC_NH_INLINE:
 881:build/openmote-cc2538_armgcc/openstack/03a-IPHC/iphc.c ****              // Full 8 bits for Next Header are carried in-line
 882:build/openmote-cc2538_armgcc/openstack/03a-IPHC/iphc.c ****              ipv6_header->next_header_compressed = FALSE;
 2385              		.loc 1 882 0
 2386 0f68 3B6C     		ldr	r3, [r7, #64]
 2387 0f6a 0022     		movs	r2, #0
 2388 0f6c 1A72     		strb	r2, [r3, #8]
 883:build/openmote-cc2538_armgcc/openstack/03a-IPHC/iphc.c ****              ipv6_header->next_header            = *((uint8_t*)(msg->payload)+ipv6_header->header_l
 2389              		.loc 1 883 0
 2390 0f6e FB6B     		ldr	r3, [r7, #60]
 2391 0f70 5A68     		ldr	r2, [r3, #4]
 2392 0f72 3B6C     		ldr	r3, [r7, #64]
 2393 0f74 93F84430 		ldrb	r3, [r3, #68]	@ zero_extendqisi2
 2394 0f78 1946     		mov	r1, r3
 2395 0f7a 97F84430 		ldrb	r3, [r7, #68]	@ zero_extendqisi2
 2396 0f7e 0B44     		add	r3, r3, r1
 2397 0f80 1344     		add	r3, r3, r2
 2398 0f82 1A78     		ldrb	r2, [r3]	@ zero_extendqisi2
 2399 0f84 3B6C     		ldr	r3, [r7, #64]
 2400 0f86 5A72     		strb	r2, [r3, #9]
 884:build/openmote-cc2538_armgcc/openstack/03a-IPHC/iphc.c ****              ipv6_header->header_length         += sizeof(uint8_t);
 2401              		.loc 1 884 0
 2402 0f88 3B6C     		ldr	r3, [r7, #64]
 2403 0f8a 93F84430 		ldrb	r3, [r3, #68]	@ zero_extendqisi2
 2404 0f8e 0133     		adds	r3, r3, #1
 2405 0f90 DAB2     		uxtb	r2, r3
 2406 0f92 3B6C     		ldr	r3, [r7, #64]
 2407 0f94 83F84420 		strb	r2, [r3, #68]
 885:build/openmote-cc2538_armgcc/openstack/03a-IPHC/iphc.c ****           
 886:build/openmote-cc2538_armgcc/openstack/03a-IPHC/iphc.c ****              break;
 2408              		.loc 1 886 0
 2409 0f98 0CE0     		b	.L148
 2410              	.L147:
 887:build/openmote-cc2538_armgcc/openstack/03a-IPHC/iphc.c ****           case IPHC_NH_COMPRESSED:
 888:build/openmote-cc2538_armgcc/openstack/03a-IPHC/iphc.c ****              // the Next header field is compressed and the next header is encoded
 889:build/openmote-cc2538_armgcc/openstack/03a-IPHC/iphc.c ****              // using LOWPAN_NHC, which is discussed in Section 4.1 of RFC6282
 890:build/openmote-cc2538_armgcc/openstack/03a-IPHC/iphc.c ****              // we don't parse anything here, but will look at the (compressed)
 891:build/openmote-cc2538_armgcc/openstack/03a-IPHC/iphc.c ****              // next header after having parsed all address fields.
 892:build/openmote-cc2538_armgcc/openstack/03a-IPHC/iphc.c ****              ipv6_header->next_header_compressed = TRUE;
 2411              		.loc 1 892 0
 2412 0f9a 3B6C     		ldr	r3, [r7, #64]
 2413 0f9c 0122     		movs	r2, #1
 2414 0f9e 1A72     		strb	r2, [r3, #8]
 893:build/openmote-cc2538_armgcc/openstack/03a-IPHC/iphc.c ****              break;
 2415              		.loc 1 893 0
 2416 0fa0 08E0     		b	.L148
 2417              	.L187:
 894:build/openmote-cc2538_armgcc/openstack/03a-IPHC/iphc.c ****           default:
 895:build/openmote-cc2538_armgcc/openstack/03a-IPHC/iphc.c ****              openserial_printError(
 896:build/openmote-cc2538_armgcc/openstack/03a-IPHC/iphc.c ****                 COMPONENT_IPHC,
 897:build/openmote-cc2538_armgcc/openstack/03a-IPHC/iphc.c ****                 ERR_6LOWPAN_UNSUPPORTED,
 898:build/openmote-cc2538_armgcc/openstack/03a-IPHC/iphc.c ****                 (errorparameter_t)7,
 899:build/openmote-cc2538_armgcc/openstack/03a-IPHC/iphc.c ****                 (errorparameter_t)(*nh)
 2418              		.loc 1 899 0
 2419 0fa2 BB6A     		ldr	r3, [r7, #40]
 2420 0fa4 1B78     		ldrb	r3, [r3]	@ zero_extendqisi2
 895:build/openmote-cc2538_armgcc/openstack/03a-IPHC/iphc.c ****                 COMPONENT_IPHC,
 2421              		.loc 1 895 0
 2422 0fa6 9BB2     		uxth	r3, r3
 2423 0fa8 0722     		movs	r2, #7
 2424 0faa 0C21     		movs	r1, #12
 2425 0fac 1220     		movs	r0, #18
 2426 0fae FFF7FEFF 		bl	openserial_printError
 900:build/openmote-cc2538_armgcc/openstack/03a-IPHC/iphc.c ****              );
 901:build/openmote-cc2538_armgcc/openstack/03a-IPHC/iphc.c ****              break;
 2427              		.loc 1 901 0
 2428 0fb2 00BF     		nop
 2429              	.L148:
 902:build/openmote-cc2538_armgcc/openstack/03a-IPHC/iphc.c ****        }
 903:build/openmote-cc2538_armgcc/openstack/03a-IPHC/iphc.c ****        
 904:build/openmote-cc2538_armgcc/openstack/03a-IPHC/iphc.c ****        // hop limit
 905:build/openmote-cc2538_armgcc/openstack/03a-IPHC/iphc.c ****        switch (*hlim) {
 2430              		.loc 1 905 0
 2431 0fb4 FB6A     		ldr	r3, [r7, #44]
 2432 0fb6 1B78     		ldrb	r3, [r3]	@ zero_extendqisi2
 2433 0fb8 032B     		cmp	r3, #3
 2434 0fba 31D8     		bhi	.L149
 2435 0fbc 01A2     		adr	r2, .L151
 2436 0fbe 52F823F0 		ldr	pc, [r2, r3, lsl #2]
 2437 0fc2 00BF     		.p2align 2
 2438              	.L151:
 2439 0fc4 D50F0000 		.word	.L150+1
 2440 0fc8 03100000 		.word	.L152+1
 2441 0fcc 0D100000 		.word	.L153+1
 2442 0fd0 17100000 		.word	.L154+1
 2443              		.p2align 1
 2444              	.L150:
 906:build/openmote-cc2538_armgcc/openstack/03a-IPHC/iphc.c ****           case IPHC_HLIM_INLINE:
 907:build/openmote-cc2538_armgcc/openstack/03a-IPHC/iphc.c ****              ipv6_header->hop_limit         = *((uint8_t*)(msg->payload+ipv6_header->header_length+
 2445              		.loc 1 907 0
 2446 0fd4 FB6B     		ldr	r3, [r7, #60]
 2447 0fd6 5A68     		ldr	r2, [r3, #4]
 2448 0fd8 3B6C     		ldr	r3, [r7, #64]
 2449 0fda 93F84430 		ldrb	r3, [r3, #68]	@ zero_extendqisi2
 2450 0fde 1946     		mov	r1, r3
 2451 0fe0 97F84430 		ldrb	r3, [r7, #68]	@ zero_extendqisi2
 2452 0fe4 0B44     		add	r3, r3, r1
 2453 0fe6 1344     		add	r3, r3, r2
 2454 0fe8 1A78     		ldrb	r2, [r3]	@ zero_extendqisi2
 2455 0fea 3B6C     		ldr	r3, [r7, #64]
 2456 0fec 83F82020 		strb	r2, [r3, #32]
 908:build/openmote-cc2538_armgcc/openstack/03a-IPHC/iphc.c ****              ipv6_header->header_length    += sizeof(uint8_t);
 2457              		.loc 1 908 0
 2458 0ff0 3B6C     		ldr	r3, [r7, #64]
 2459 0ff2 93F84430 		ldrb	r3, [r3, #68]	@ zero_extendqisi2
 2460 0ff6 0133     		adds	r3, r3, #1
 2461 0ff8 DAB2     		uxtb	r2, r3
 2462 0ffa 3B6C     		ldr	r3, [r7, #64]
 2463 0ffc 83F84420 		strb	r2, [r3, #68]
 909:build/openmote-cc2538_armgcc/openstack/03a-IPHC/iphc.c ****              break;
 2464              		.loc 1 909 0
 2465 1000 17E0     		b	.L155
 2466              	.L152:
 910:build/openmote-cc2538_armgcc/openstack/03a-IPHC/iphc.c ****           case IPHC_HLIM_1:
 911:build/openmote-cc2538_armgcc/openstack/03a-IPHC/iphc.c ****              ipv6_header->hop_limit         = 1;
 2467              		.loc 1 911 0
 2468 1002 3B6C     		ldr	r3, [r7, #64]
 2469 1004 0122     		movs	r2, #1
 2470 1006 83F82020 		strb	r2, [r3, #32]
 912:build/openmote-cc2538_armgcc/openstack/03a-IPHC/iphc.c ****              break;
 2471              		.loc 1 912 0
 2472 100a 12E0     		b	.L155
 2473              	.L153:
 913:build/openmote-cc2538_armgcc/openstack/03a-IPHC/iphc.c ****           case IPHC_HLIM_64:
 914:build/openmote-cc2538_armgcc/openstack/03a-IPHC/iphc.c ****              ipv6_header->hop_limit         = 64;
 2474              		.loc 1 914 0
 2475 100c 3B6C     		ldr	r3, [r7, #64]
 2476 100e 4022     		movs	r2, #64
 2477 1010 83F82020 		strb	r2, [r3, #32]
 915:build/openmote-cc2538_armgcc/openstack/03a-IPHC/iphc.c ****              break;
 2478              		.loc 1 915 0
 2479 1014 0DE0     		b	.L155
 2480              	.L154:
 916:build/openmote-cc2538_armgcc/openstack/03a-IPHC/iphc.c ****           case IPHC_HLIM_255:
 917:build/openmote-cc2538_armgcc/openstack/03a-IPHC/iphc.c ****              ipv6_header->hop_limit         = 255;
 2481              		.loc 1 917 0
 2482 1016 3B6C     		ldr	r3, [r7, #64]
 2483 1018 FF22     		movs	r2, #255
 2484 101a 83F82020 		strb	r2, [r3, #32]
 918:build/openmote-cc2538_armgcc/openstack/03a-IPHC/iphc.c ****              break;
 2485              		.loc 1 918 0
 2486 101e 08E0     		b	.L155
 2487              	.L149:
 919:build/openmote-cc2538_armgcc/openstack/03a-IPHC/iphc.c ****           default:
 920:build/openmote-cc2538_armgcc/openstack/03a-IPHC/iphc.c ****              openserial_printError(
 921:build/openmote-cc2538_armgcc/openstack/03a-IPHC/iphc.c ****                 COMPONENT_IPHC,
 922:build/openmote-cc2538_armgcc/openstack/03a-IPHC/iphc.c ****                 ERR_6LOWPAN_UNSUPPORTED,
 923:build/openmote-cc2538_armgcc/openstack/03a-IPHC/iphc.c ****                 (errorparameter_t)8,
 924:build/openmote-cc2538_armgcc/openstack/03a-IPHC/iphc.c ****                 (errorparameter_t)(*hlim)
 2488              		.loc 1 924 0
 2489 1020 FB6A     		ldr	r3, [r7, #44]
 2490 1022 1B78     		ldrb	r3, [r3]	@ zero_extendqisi2
 920:build/openmote-cc2538_armgcc/openstack/03a-IPHC/iphc.c ****                 COMPONENT_IPHC,
 2491              		.loc 1 920 0
 2492 1024 9BB2     		uxth	r3, r3
 2493 1026 0822     		movs	r2, #8
 2494 1028 0C21     		movs	r1, #12
 2495 102a 1220     		movs	r0, #18
 2496 102c FFF7FEFF 		bl	openserial_printError
 925:build/openmote-cc2538_armgcc/openstack/03a-IPHC/iphc.c ****              );
 926:build/openmote-cc2538_armgcc/openstack/03a-IPHC/iphc.c ****              break;
 2497              		.loc 1 926 0
 2498 1030 00BF     		nop
 2499              	.L155:
 927:build/openmote-cc2538_armgcc/openstack/03a-IPHC/iphc.c ****        }
 928:build/openmote-cc2538_armgcc/openstack/03a-IPHC/iphc.c ****        
 929:build/openmote-cc2538_armgcc/openstack/03a-IPHC/iphc.c ****        // source address
 930:build/openmote-cc2538_armgcc/openstack/03a-IPHC/iphc.c ****        switch (*sam) {
 2500              		.loc 1 930 0
 2501 1032 3B6B     		ldr	r3, [r7, #48]
 2502 1034 1B78     		ldrb	r3, [r3]	@ zero_extendqisi2
 2503 1036 032B     		cmp	r3, #3
 2504 1038 76D8     		bhi	.L156
 2505 103a 01A2     		adr	r2, .L158
 2506 103c 52F823F0 		ldr	pc, [r2, r3, lsl #2]
 2507              		.p2align 2
 2508              	.L158:
 2509 1040 F5100000 		.word	.L157+1
 2510 1044 B3100000 		.word	.L159+1
 2511 1048 69100000 		.word	.L160+1
 2512 104c 51100000 		.word	.L161+1
 2513              		.p2align 1
 2514              	.L161:
 931:build/openmote-cc2538_armgcc/openstack/03a-IPHC/iphc.c ****           case IPHC_SAM_ELIDED:
 932:build/openmote-cc2538_armgcc/openstack/03a-IPHC/iphc.c ****              packetfunctions_mac64bToIp128b(idmanager_getMyID(ADDR_PREFIX),&(msg->l2_nextORprevious
 2515              		.loc 1 932 0
 2516 1050 0520     		movs	r0, #5
 2517 1052 FFF7FEFF 		bl	idmanager_getMyID
 2518 1056 FB6B     		ldr	r3, [r7, #60]
 2519 1058 03F13C01 		add	r1, r3, #60
 2520 105c 3B6C     		ldr	r3, [r7, #64]
 2521 105e 2233     		adds	r3, r3, #34
 2522 1060 1A46     		mov	r2, r3
 2523 1062 FFF7FEFF 		bl	packetfunctions_mac64bToIp128b
 933:build/openmote-cc2538_armgcc/openstack/03a-IPHC/iphc.c ****              break;
 2524              		.loc 1 933 0
 2525 1066 68E0     		b	.L162
 2526              	.L160:
 934:build/openmote-cc2538_armgcc/openstack/03a-IPHC/iphc.c ****           case IPHC_SAM_16B:
 935:build/openmote-cc2538_armgcc/openstack/03a-IPHC/iphc.c ****              packetfunctions_readAddress(((uint8_t*)(msg->payload+ipv6_header->header_length+previo
 2527              		.loc 1 935 0
 2528 1068 FB6B     		ldr	r3, [r7, #60]
 2529 106a 5A68     		ldr	r2, [r3, #4]
 2530 106c 3B6C     		ldr	r3, [r7, #64]
 2531 106e 93F84430 		ldrb	r3, [r3, #68]	@ zero_extendqisi2
 2532 1072 1946     		mov	r1, r3
 2533 1074 97F84430 		ldrb	r3, [r7, #68]	@ zero_extendqisi2
 2534 1078 0B44     		add	r3, r3, r1
 2535 107a D018     		adds	r0, r2, r3
 2536 107c 0023     		movs	r3, #0
 2537 107e FA68     		ldr	r2, [r7, #12]
 2538 1080 0121     		movs	r1, #1
 2539 1082 FFF7FEFF 		bl	packetfunctions_readAddress
 936:build/openmote-cc2538_armgcc/openstack/03a-IPHC/iphc.c ****              ipv6_header->header_length += 2*sizeof(uint8_t);
 2540              		.loc 1 936 0
 2541 1086 3B6C     		ldr	r3, [r7, #64]
 2542 1088 93F84430 		ldrb	r3, [r3, #68]	@ zero_extendqisi2
 2543 108c 0233     		adds	r3, r3, #2
 2544 108e DAB2     		uxtb	r2, r3
 2545 1090 3B6C     		ldr	r3, [r7, #64]
 2546 1092 83F84420 		strb	r2, [r3, #68]
 937:build/openmote-cc2538_armgcc/openstack/03a-IPHC/iphc.c ****              packetfunctions_mac16bToMac64b(temp_addr_16b,temp_addr_64b);
 2547              		.loc 1 937 0
 2548 1096 B968     		ldr	r1, [r7, #8]
 2549 1098 F868     		ldr	r0, [r7, #12]
 2550 109a FFF7FEFF 		bl	packetfunctions_mac16bToMac64b
 938:build/openmote-cc2538_armgcc/openstack/03a-IPHC/iphc.c ****              packetfunctions_mac64bToIp128b(idmanager_getMyID(ADDR_PREFIX),temp_addr_64b,&ipv6_head
 2551              		.loc 1 938 0
 2552 109e 0520     		movs	r0, #5
 2553 10a0 FFF7FEFF 		bl	idmanager_getMyID
 2554 10a4 3B6C     		ldr	r3, [r7, #64]
 2555 10a6 2233     		adds	r3, r3, #34
 2556 10a8 1A46     		mov	r2, r3
 2557 10aa B968     		ldr	r1, [r7, #8]
 2558 10ac FFF7FEFF 		bl	packetfunctions_mac64bToIp128b
 939:build/openmote-cc2538_armgcc/openstack/03a-IPHC/iphc.c ****              break;
 2559              		.loc 1 939 0
 2560 10b0 43E0     		b	.L162
 2561              	.L159:
 940:build/openmote-cc2538_armgcc/openstack/03a-IPHC/iphc.c ****           case IPHC_SAM_64B:
 941:build/openmote-cc2538_armgcc/openstack/03a-IPHC/iphc.c ****              packetfunctions_readAddress(((uint8_t*)(msg->payload+ipv6_header->header_length+previo
 2562              		.loc 1 941 0
 2563 10b2 FB6B     		ldr	r3, [r7, #60]
 2564 10b4 5A68     		ldr	r2, [r3, #4]
 2565 10b6 3B6C     		ldr	r3, [r7, #64]
 2566 10b8 93F84430 		ldrb	r3, [r3, #68]	@ zero_extendqisi2
 2567 10bc 1946     		mov	r1, r3
 2568 10be 97F84430 		ldrb	r3, [r7, #68]	@ zero_extendqisi2
 2569 10c2 0B44     		add	r3, r3, r1
 2570 10c4 D018     		adds	r0, r2, r3
 2571 10c6 0023     		movs	r3, #0
 2572 10c8 BA68     		ldr	r2, [r7, #8]
 2573 10ca 0221     		movs	r1, #2
 2574 10cc FFF7FEFF 		bl	packetfunctions_readAddress
 942:build/openmote-cc2538_armgcc/openstack/03a-IPHC/iphc.c ****              ipv6_header->header_length += 8*sizeof(uint8_t);
 2575              		.loc 1 942 0
 2576 10d0 3B6C     		ldr	r3, [r7, #64]
 2577 10d2 93F84430 		ldrb	r3, [r3, #68]	@ zero_extendqisi2
 2578 10d6 0833     		adds	r3, r3, #8
 2579 10d8 DAB2     		uxtb	r2, r3
 2580 10da 3B6C     		ldr	r3, [r7, #64]
 2581 10dc 83F84420 		strb	r2, [r3, #68]
 943:build/openmote-cc2538_armgcc/openstack/03a-IPHC/iphc.c ****              packetfunctions_mac64bToIp128b(idmanager_getMyID(ADDR_PREFIX),temp_addr_64b,&ipv6_head
 2582              		.loc 1 943 0
 2583 10e0 0520     		movs	r0, #5
 2584 10e2 FFF7FEFF 		bl	idmanager_getMyID
 2585 10e6 3B6C     		ldr	r3, [r7, #64]
 2586 10e8 2233     		adds	r3, r3, #34
 2587 10ea 1A46     		mov	r2, r3
 2588 10ec B968     		ldr	r1, [r7, #8]
 2589 10ee FFF7FEFF 		bl	packetfunctions_mac64bToIp128b
 944:build/openmote-cc2538_armgcc/openstack/03a-IPHC/iphc.c ****              break;
 2590              		.loc 1 944 0
 2591 10f2 22E0     		b	.L162
 2592              	.L157:
 945:build/openmote-cc2538_armgcc/openstack/03a-IPHC/iphc.c ****           case IPHC_SAM_128B:
 946:build/openmote-cc2538_armgcc/openstack/03a-IPHC/iphc.c ****              packetfunctions_readAddress(((uint8_t*)(msg->payload+ipv6_header->header_length+previo
 2593              		.loc 1 946 0
 2594 10f4 FB6B     		ldr	r3, [r7, #60]
 2595 10f6 5A68     		ldr	r2, [r3, #4]
 2596 10f8 3B6C     		ldr	r3, [r7, #64]
 2597 10fa 93F84430 		ldrb	r3, [r3, #68]	@ zero_extendqisi2
 2598 10fe 1946     		mov	r1, r3
 2599 1100 97F84430 		ldrb	r3, [r7, #68]	@ zero_extendqisi2
 2600 1104 0B44     		add	r3, r3, r1
 2601 1106 D018     		adds	r0, r2, r3
 2602 1108 3B6C     		ldr	r3, [r7, #64]
 2603 110a 03F12202 		add	r2, r3, #34
 2604 110e 0023     		movs	r3, #0
 2605 1110 0321     		movs	r1, #3
 2606 1112 FFF7FEFF 		bl	packetfunctions_readAddress
 947:build/openmote-cc2538_armgcc/openstack/03a-IPHC/iphc.c ****              ipv6_header->header_length += 16*sizeof(uint8_t);
 2607              		.loc 1 947 0
 2608 1116 3B6C     		ldr	r3, [r7, #64]
 2609 1118 93F84430 		ldrb	r3, [r3, #68]	@ zero_extendqisi2
 2610 111c 1033     		adds	r3, r3, #16
 2611 111e DAB2     		uxtb	r2, r3
 2612 1120 3B6C     		ldr	r3, [r7, #64]
 2613 1122 83F84420 		strb	r2, [r3, #68]
 948:build/openmote-cc2538_armgcc/openstack/03a-IPHC/iphc.c ****              break;
 2614              		.loc 1 948 0
 2615 1126 08E0     		b	.L162
 2616              	.L156:
 949:build/openmote-cc2538_armgcc/openstack/03a-IPHC/iphc.c ****           default:
 950:build/openmote-cc2538_armgcc/openstack/03a-IPHC/iphc.c ****              openserial_printError(
 951:build/openmote-cc2538_armgcc/openstack/03a-IPHC/iphc.c ****                 COMPONENT_IPHC,
 952:build/openmote-cc2538_armgcc/openstack/03a-IPHC/iphc.c ****                 ERR_6LOWPAN_UNSUPPORTED,
 953:build/openmote-cc2538_armgcc/openstack/03a-IPHC/iphc.c ****                 (errorparameter_t)9,
 954:build/openmote-cc2538_armgcc/openstack/03a-IPHC/iphc.c ****                 (errorparameter_t)(*sam)
 2617              		.loc 1 954 0
 2618 1128 3B6B     		ldr	r3, [r7, #48]
 2619 112a 1B78     		ldrb	r3, [r3]	@ zero_extendqisi2
 950:build/openmote-cc2538_armgcc/openstack/03a-IPHC/iphc.c ****                 COMPONENT_IPHC,
 2620              		.loc 1 950 0
 2621 112c 9BB2     		uxth	r3, r3
 2622 112e 0922     		movs	r2, #9
 2623 1130 0C21     		movs	r1, #12
 2624 1132 1220     		movs	r0, #18
 2625 1134 FFF7FEFF 		bl	openserial_printError
 955:build/openmote-cc2538_armgcc/openstack/03a-IPHC/iphc.c ****              );
 956:build/openmote-cc2538_armgcc/openstack/03a-IPHC/iphc.c ****              break;
 2626              		.loc 1 956 0
 2627 1138 00BF     		nop
 2628              	.L162:
 957:build/openmote-cc2538_armgcc/openstack/03a-IPHC/iphc.c ****        }
 958:build/openmote-cc2538_armgcc/openstack/03a-IPHC/iphc.c ****        
 959:build/openmote-cc2538_armgcc/openstack/03a-IPHC/iphc.c ****        // destination address
 960:build/openmote-cc2538_armgcc/openstack/03a-IPHC/iphc.c ****        if(*m == IPHC_M_YES) {
 2629              		.loc 1 960 0
 2630 113a 7B6B     		ldr	r3, [r7, #52]
 2631 113c 1B78     		ldrb	r3, [r3]	@ zero_extendqisi2
 2632 113e 012B     		cmp	r3, #1
 2633 1140 3DD1     		bne	.L163
 961:build/openmote-cc2538_armgcc/openstack/03a-IPHC/iphc.c ****            switch (*dam) {
 2634              		.loc 1 961 0
 2635 1142 BB6B     		ldr	r3, [r7, #56]
 2636 1144 1B78     		ldrb	r3, [r3]	@ zero_extendqisi2
 2637 1146 032B     		cmp	r3, #3
 2638 1148 2FD8     		bhi	.L164
 2639 114a 01A2     		adr	r2, .L166
 2640 114c 52F823F0 		ldr	pc, [r2, r3, lsl #2]
 2641              		.p2align 2
 2642              	.L166:
 2643 1150 CD120000 		.word	.L190+1
 2644 1154 CD120000 		.word	.L190+1
 2645 1158 CD120000 		.word	.L190+1
 2646 115c 61110000 		.word	.L169+1
 2647              		.p2align 1
 2648              	.L169:
 962:build/openmote-cc2538_armgcc/openstack/03a-IPHC/iphc.c ****               case IPHC_DAM_ELIDED:
 963:build/openmote-cc2538_armgcc/openstack/03a-IPHC/iphc.c ****                  ipv6_header->dest.type = ADDR_128B;
 2649              		.loc 1 963 0
 2650 1160 3B6C     		ldr	r3, [r7, #64]
 2651 1162 0322     		movs	r2, #3
 2652 1164 83F83320 		strb	r2, [r3, #51]
 964:build/openmote-cc2538_armgcc/openstack/03a-IPHC/iphc.c ****                  memcpy(&(ipv6_header->dest.addr_128b[0]),all_routers_multicast,sizeof(all_routers_
 2653              		.loc 1 964 0
 2654 1168 3B6C     		ldr	r3, [r7, #64]
 2655 116a 3433     		adds	r3, r3, #52
 2656 116c BD4A     		ldr	r2, .L192
 2657 116e 1C46     		mov	r4, r3
 2658 1170 1546     		mov	r5, r2
 2659 1172 0FCD     		ldmia	r5!, {r0, r1, r2, r3}
 2660 1174 2060     		str	r0, [r4]	@ unaligned
 2661 1176 6160     		str	r1, [r4, #4]	@ unaligned
 2662 1178 A260     		str	r2, [r4, #8]	@ unaligned
 2663 117a E360     		str	r3, [r4, #12]	@ unaligned
 965:build/openmote-cc2538_armgcc/openstack/03a-IPHC/iphc.c ****                  ipv6_header->dest.addr_128b[15] = *(msg->payload+ipv6_header->header_length+previo
 2664              		.loc 1 965 0
 2665 117c FB6B     		ldr	r3, [r7, #60]
 2666 117e 5A68     		ldr	r2, [r3, #4]
 2667 1180 3B6C     		ldr	r3, [r7, #64]
 2668 1182 93F84430 		ldrb	r3, [r3, #68]	@ zero_extendqisi2
 2669 1186 1946     		mov	r1, r3
 2670 1188 97F84430 		ldrb	r3, [r7, #68]	@ zero_extendqisi2
 2671 118c 0B44     		add	r3, r3, r1
 2672 118e 1344     		add	r3, r3, r2
 2673 1190 1A78     		ldrb	r2, [r3]	@ zero_extendqisi2
 2674 1192 3B6C     		ldr	r3, [r7, #64]
 2675 1194 83F84320 		strb	r2, [r3, #67]
 966:build/openmote-cc2538_armgcc/openstack/03a-IPHC/iphc.c ****                  ipv6_header->header_length += sizeof(uint8_t);
 2676              		.loc 1 966 0
 2677 1198 3B6C     		ldr	r3, [r7, #64]
 2678 119a 93F84430 		ldrb	r3, [r3, #68]	@ zero_extendqisi2
 2679 119e 0133     		adds	r3, r3, #1
 2680 11a0 DAB2     		uxtb	r2, r3
 2681 11a2 3B6C     		ldr	r3, [r7, #64]
 2682 11a4 83F84420 		strb	r2, [r3, #68]
 967:build/openmote-cc2538_armgcc/openstack/03a-IPHC/iphc.c ****                  break;
 2683              		.loc 1 967 0
 2684 11a8 91E0     		b	.L171
 2685              	.L164:
 968:build/openmote-cc2538_armgcc/openstack/03a-IPHC/iphc.c ****               case IPHC_DAM_16B:
 969:build/openmote-cc2538_armgcc/openstack/03a-IPHC/iphc.c ****                  // tengfei: todo
 970:build/openmote-cc2538_armgcc/openstack/03a-IPHC/iphc.c ****                  break;
 971:build/openmote-cc2538_armgcc/openstack/03a-IPHC/iphc.c ****               case IPHC_DAM_64B:
 972:build/openmote-cc2538_armgcc/openstack/03a-IPHC/iphc.c ****                  // tengfei: todo
 973:build/openmote-cc2538_armgcc/openstack/03a-IPHC/iphc.c ****                  break;
 974:build/openmote-cc2538_armgcc/openstack/03a-IPHC/iphc.c ****               case IPHC_DAM_128B:
 975:build/openmote-cc2538_armgcc/openstack/03a-IPHC/iphc.c ****                  // tengfei: todo
 976:build/openmote-cc2538_armgcc/openstack/03a-IPHC/iphc.c ****                  break;
 977:build/openmote-cc2538_armgcc/openstack/03a-IPHC/iphc.c ****               default:
 978:build/openmote-cc2538_armgcc/openstack/03a-IPHC/iphc.c ****                  openserial_printError(
 979:build/openmote-cc2538_armgcc/openstack/03a-IPHC/iphc.c ****                     COMPONENT_IPHC,
 980:build/openmote-cc2538_armgcc/openstack/03a-IPHC/iphc.c ****                     ERR_6LOWPAN_UNSUPPORTED,
 981:build/openmote-cc2538_armgcc/openstack/03a-IPHC/iphc.c ****                     (errorparameter_t)10,
 982:build/openmote-cc2538_armgcc/openstack/03a-IPHC/iphc.c ****                     (errorparameter_t)(*dam)
 2686              		.loc 1 982 0
 2687 11aa BB6B     		ldr	r3, [r7, #56]
 2688 11ac 1B78     		ldrb	r3, [r3]	@ zero_extendqisi2
 978:build/openmote-cc2538_armgcc/openstack/03a-IPHC/iphc.c ****                     COMPONENT_IPHC,
 2689              		.loc 1 978 0
 2690 11ae 9BB2     		uxth	r3, r3
 2691 11b0 0A22     		movs	r2, #10
 2692 11b2 0C21     		movs	r1, #12
 2693 11b4 1220     		movs	r0, #18
 2694 11b6 FFF7FEFF 		bl	openserial_printError
 983:build/openmote-cc2538_armgcc/openstack/03a-IPHC/iphc.c ****                  );
 984:build/openmote-cc2538_armgcc/openstack/03a-IPHC/iphc.c ****                  break;
 2695              		.loc 1 984 0
 2696 11ba 00BF     		nop
 2697 11bc 87E0     		b	.L171
 2698              	.L163:
 985:build/openmote-cc2538_armgcc/openstack/03a-IPHC/iphc.c ****            }
 986:build/openmote-cc2538_armgcc/openstack/03a-IPHC/iphc.c ****        } else {
 987:build/openmote-cc2538_armgcc/openstack/03a-IPHC/iphc.c ****            switch (*dam) {
 2699              		.loc 1 987 0
 2700 11be BB6B     		ldr	r3, [r7, #56]
 2701 11c0 1B78     		ldrb	r3, [r3]	@ zero_extendqisi2
 2702 11c2 032B     		cmp	r3, #3
 2703 11c4 79D8     		bhi	.L172
 2704 11c6 01A2     		adr	r2, .L174
 2705 11c8 52F823F0 		ldr	pc, [r2, r3, lsl #2]
 2706              		.p2align 2
 2707              	.L174:
 2708 11cc 87120000 		.word	.L173+1
 2709 11d0 45120000 		.word	.L175+1
 2710 11d4 FB110000 		.word	.L176+1
 2711 11d8 DD110000 		.word	.L177+1
 2712              		.p2align 1
 2713              	.L177:
 988:build/openmote-cc2538_armgcc/openstack/03a-IPHC/iphc.c ****               case IPHC_DAM_ELIDED:
 989:build/openmote-cc2538_armgcc/openstack/03a-IPHC/iphc.c ****                  packetfunctions_mac64bToIp128b(idmanager_getMyID(ADDR_PREFIX),idmanager_getMyID(AD
 2714              		.loc 1 989 0
 2715 11dc 0520     		movs	r0, #5
 2716 11de FFF7FEFF 		bl	idmanager_getMyID
 2717 11e2 0446     		mov	r4, r0
 2718 11e4 0220     		movs	r0, #2
 2719 11e6 FFF7FEFF 		bl	idmanager_getMyID
 2720 11ea 0146     		mov	r1, r0
 2721 11ec 3B6C     		ldr	r3, [r7, #64]
 2722 11ee 3333     		adds	r3, r3, #51
 2723 11f0 1A46     		mov	r2, r3
 2724 11f2 2046     		mov	r0, r4
 2725 11f4 FFF7FEFF 		bl	packetfunctions_mac64bToIp128b
 990:build/openmote-cc2538_armgcc/openstack/03a-IPHC/iphc.c ****                  break;
 2726              		.loc 1 990 0
 2727 11f8 69E0     		b	.L171
 2728              	.L176:
 991:build/openmote-cc2538_armgcc/openstack/03a-IPHC/iphc.c ****               case IPHC_DAM_16B:
 992:build/openmote-cc2538_armgcc/openstack/03a-IPHC/iphc.c ****                  packetfunctions_readAddress(((uint8_t*)(msg->payload+ipv6_header->header_length+pr
 2729              		.loc 1 992 0
 2730 11fa FB6B     		ldr	r3, [r7, #60]
 2731 11fc 5A68     		ldr	r2, [r3, #4]
 2732 11fe 3B6C     		ldr	r3, [r7, #64]
 2733 1200 93F84430 		ldrb	r3, [r3, #68]	@ zero_extendqisi2
 2734 1204 1946     		mov	r1, r3
 2735 1206 97F84430 		ldrb	r3, [r7, #68]	@ zero_extendqisi2
 2736 120a 0B44     		add	r3, r3, r1
 2737 120c D018     		adds	r0, r2, r3
 2738 120e 0023     		movs	r3, #0
 2739 1210 FA68     		ldr	r2, [r7, #12]
 2740 1212 0121     		movs	r1, #1
 2741 1214 FFF7FEFF 		bl	packetfunctions_readAddress
 993:build/openmote-cc2538_armgcc/openstack/03a-IPHC/iphc.c ****                  ipv6_header->header_length += 2*sizeof(uint8_t);
 2742              		.loc 1 993 0
 2743 1218 3B6C     		ldr	r3, [r7, #64]
 2744 121a 93F84430 		ldrb	r3, [r3, #68]	@ zero_extendqisi2
 2745 121e 0233     		adds	r3, r3, #2
 2746 1220 DAB2     		uxtb	r2, r3
 2747 1222 3B6C     		ldr	r3, [r7, #64]
 2748 1224 83F84420 		strb	r2, [r3, #68]
 994:build/openmote-cc2538_armgcc/openstack/03a-IPHC/iphc.c ****                  packetfunctions_mac16bToMac64b(temp_addr_16b,temp_addr_64b);
 2749              		.loc 1 994 0
 2750 1228 B968     		ldr	r1, [r7, #8]
 2751 122a F868     		ldr	r0, [r7, #12]
 2752 122c FFF7FEFF 		bl	packetfunctions_mac16bToMac64b
 995:build/openmote-cc2538_armgcc/openstack/03a-IPHC/iphc.c ****                  packetfunctions_mac64bToIp128b(idmanager_getMyID(ADDR_PREFIX),temp_addr_64b,&ipv6_
 2753              		.loc 1 995 0
 2754 1230 0520     		movs	r0, #5
 2755 1232 FFF7FEFF 		bl	idmanager_getMyID
 2756 1236 3B6C     		ldr	r3, [r7, #64]
 2757 1238 3333     		adds	r3, r3, #51
 2758 123a 1A46     		mov	r2, r3
 2759 123c B968     		ldr	r1, [r7, #8]
 2760 123e FFF7FEFF 		bl	packetfunctions_mac64bToIp128b
 996:build/openmote-cc2538_armgcc/openstack/03a-IPHC/iphc.c ****                  break;
 2761              		.loc 1 996 0
 2762 1242 44E0     		b	.L171
 2763              	.L175:
 997:build/openmote-cc2538_armgcc/openstack/03a-IPHC/iphc.c ****               case IPHC_DAM_64B:
 998:build/openmote-cc2538_armgcc/openstack/03a-IPHC/iphc.c ****                  packetfunctions_readAddress(((uint8_t*)(msg->payload+ipv6_header->header_length+pr
 2764              		.loc 1 998 0
 2765 1244 FB6B     		ldr	r3, [r7, #60]
 2766 1246 5A68     		ldr	r2, [r3, #4]
 2767 1248 3B6C     		ldr	r3, [r7, #64]
 2768 124a 93F84430 		ldrb	r3, [r3, #68]	@ zero_extendqisi2
 2769 124e 1946     		mov	r1, r3
 2770 1250 97F84430 		ldrb	r3, [r7, #68]	@ zero_extendqisi2
 2771 1254 0B44     		add	r3, r3, r1
 2772 1256 D018     		adds	r0, r2, r3
 2773 1258 0023     		movs	r3, #0
 2774 125a BA68     		ldr	r2, [r7, #8]
 2775 125c 0221     		movs	r1, #2
 2776 125e FFF7FEFF 		bl	packetfunctions_readAddress
 999:build/openmote-cc2538_armgcc/openstack/03a-IPHC/iphc.c ****                  ipv6_header->header_length += 8*sizeof(uint8_t);
 2777              		.loc 1 999 0
 2778 1262 3B6C     		ldr	r3, [r7, #64]
 2779 1264 93F84430 		ldrb	r3, [r3, #68]	@ zero_extendqisi2
 2780 1268 0833     		adds	r3, r3, #8
 2781 126a DAB2     		uxtb	r2, r3
 2782 126c 3B6C     		ldr	r3, [r7, #64]
 2783 126e 83F84420 		strb	r2, [r3, #68]
1000:build/openmote-cc2538_armgcc/openstack/03a-IPHC/iphc.c ****                  packetfunctions_mac64bToIp128b(idmanager_getMyID(ADDR_PREFIX),temp_addr_64b,&ipv6_
 2784              		.loc 1 1000 0
 2785 1272 0520     		movs	r0, #5
 2786 1274 FFF7FEFF 		bl	idmanager_getMyID
 2787 1278 3B6C     		ldr	r3, [r7, #64]
 2788 127a 3333     		adds	r3, r3, #51
 2789 127c 1A46     		mov	r2, r3
 2790 127e B968     		ldr	r1, [r7, #8]
 2791 1280 FFF7FEFF 		bl	packetfunctions_mac64bToIp128b
1001:build/openmote-cc2538_armgcc/openstack/03a-IPHC/iphc.c ****                  break;
 2792              		.loc 1 1001 0
 2793 1284 23E0     		b	.L171
 2794              	.L173:
1002:build/openmote-cc2538_armgcc/openstack/03a-IPHC/iphc.c ****               case IPHC_DAM_128B:
1003:build/openmote-cc2538_armgcc/openstack/03a-IPHC/iphc.c ****                  packetfunctions_readAddress(((uint8_t*)(msg->payload+ipv6_header->header_length+pr
 2795              		.loc 1 1003 0
 2796 1286 FB6B     		ldr	r3, [r7, #60]
 2797 1288 5A68     		ldr	r2, [r3, #4]
 2798 128a 3B6C     		ldr	r3, [r7, #64]
 2799 128c 93F84430 		ldrb	r3, [r3, #68]	@ zero_extendqisi2
 2800 1290 1946     		mov	r1, r3
 2801 1292 97F84430 		ldrb	r3, [r7, #68]	@ zero_extendqisi2
 2802 1296 0B44     		add	r3, r3, r1
 2803 1298 D018     		adds	r0, r2, r3
 2804 129a 3B6C     		ldr	r3, [r7, #64]
 2805 129c 03F13302 		add	r2, r3, #51
 2806 12a0 0023     		movs	r3, #0
 2807 12a2 0321     		movs	r1, #3
 2808 12a4 FFF7FEFF 		bl	packetfunctions_readAddress
1004:build/openmote-cc2538_armgcc/openstack/03a-IPHC/iphc.c ****                  ipv6_header->header_length += 16*sizeof(uint8_t);
 2809              		.loc 1 1004 0
 2810 12a8 3B6C     		ldr	r3, [r7, #64]
 2811 12aa 93F84430 		ldrb	r3, [r3, #68]	@ zero_extendqisi2
 2812 12ae 1033     		adds	r3, r3, #16
 2813 12b0 DAB2     		uxtb	r2, r3
 2814 12b2 3B6C     		ldr	r3, [r7, #64]
 2815 12b4 83F84420 		strb	r2, [r3, #68]
1005:build/openmote-cc2538_armgcc/openstack/03a-IPHC/iphc.c ****                  break;
 2816              		.loc 1 1005 0
 2817 12b8 09E0     		b	.L171
 2818              	.L172:
1006:build/openmote-cc2538_armgcc/openstack/03a-IPHC/iphc.c ****               default:
1007:build/openmote-cc2538_armgcc/openstack/03a-IPHC/iphc.c ****                  openserial_printError(
1008:build/openmote-cc2538_armgcc/openstack/03a-IPHC/iphc.c ****                     COMPONENT_IPHC,
1009:build/openmote-cc2538_armgcc/openstack/03a-IPHC/iphc.c ****                     ERR_6LOWPAN_UNSUPPORTED,
1010:build/openmote-cc2538_armgcc/openstack/03a-IPHC/iphc.c ****                     (errorparameter_t)10,
1011:build/openmote-cc2538_armgcc/openstack/03a-IPHC/iphc.c ****                     (errorparameter_t)(*dam)
 2819              		.loc 1 1011 0
 2820 12ba BB6B     		ldr	r3, [r7, #56]
 2821 12bc 1B78     		ldrb	r3, [r3]	@ zero_extendqisi2
1007:build/openmote-cc2538_armgcc/openstack/03a-IPHC/iphc.c ****                     COMPONENT_IPHC,
 2822              		.loc 1 1007 0
 2823 12be 9BB2     		uxth	r3, r3
 2824 12c0 0A22     		movs	r2, #10
 2825 12c2 0C21     		movs	r1, #12
 2826 12c4 1220     		movs	r0, #18
 2827 12c6 FFF7FEFF 		bl	openserial_printError
1012:build/openmote-cc2538_armgcc/openstack/03a-IPHC/iphc.c ****                  );
1013:build/openmote-cc2538_armgcc/openstack/03a-IPHC/iphc.c ****                  break;
 2828              		.loc 1 1013 0
 2829 12ca 00E0     		b	.L171
 2830              	.L190:
 976:build/openmote-cc2538_armgcc/openstack/03a-IPHC/iphc.c ****               default:
 2831              		.loc 1 976 0
 2832 12cc 00BF     		nop
 2833              	.L171:
1014:build/openmote-cc2538_armgcc/openstack/03a-IPHC/iphc.c ****            }
1015:build/openmote-cc2538_armgcc/openstack/03a-IPHC/iphc.c ****        }
1016:build/openmote-cc2538_armgcc/openstack/03a-IPHC/iphc.c ****       //TODO, check NH if compressed no?
1017:build/openmote-cc2538_armgcc/openstack/03a-IPHC/iphc.c ****       if (ipv6_header->next_header_compressed){
 2834              		.loc 1 1017 0
 2835 12ce 3B6C     		ldr	r3, [r7, #64]
 2836 12d0 1B7A     		ldrb	r3, [r3, #8]	@ zero_extendqisi2
 2837 12d2 002B     		cmp	r3, #0
 2838 12d4 00F0D480 		beq	.L191
1018:build/openmote-cc2538_armgcc/openstack/03a-IPHC/iphc.c ****           lowpan_nhc = *(msg->payload+ipv6_header->header_length+previousLen);//get the next elemen
 2839              		.loc 1 1018 0
 2840 12d8 FB6B     		ldr	r3, [r7, #60]
 2841 12da 5A68     		ldr	r2, [r3, #4]
 2842 12dc 3B6C     		ldr	r3, [r7, #64]
 2843 12de 93F84430 		ldrb	r3, [r3, #68]	@ zero_extendqisi2
 2844 12e2 1946     		mov	r1, r3
 2845 12e4 97F84430 		ldrb	r3, [r7, #68]	@ zero_extendqisi2
 2846 12e8 0B44     		add	r3, r3, r1
 2847 12ea 1344     		add	r3, r3, r2
 2848 12ec 1B78     		ldrb	r3, [r3]
 2849 12ee 3B75     		strb	r3, [r7, #20]
1019:build/openmote-cc2538_armgcc/openstack/03a-IPHC/iphc.c ****           if ((lowpan_nhc & NHC_UDP_MASK) == NHC_UDP_ID){ //check if it is UDP LOWPAN_NHC
 2850              		.loc 1 1019 0
 2851 12f0 3B7D     		ldrb	r3, [r7, #20]	@ zero_extendqisi2
 2852 12f2 03F0F803 		and	r3, r3, #248
 2853 12f6 F02B     		cmp	r3, #240
 2854 12f8 40F0C280 		bne	.L191
1020:build/openmote-cc2538_armgcc/openstack/03a-IPHC/iphc.c ****              ipv6_header->next_header = IANA_UDP;
 2855              		.loc 1 1020 0
 2856 12fc 3B6C     		ldr	r3, [r7, #64]
 2857 12fe 1122     		movs	r2, #17
 2858 1300 5A72     		strb	r2, [r3, #9]
1017:build/openmote-cc2538_armgcc/openstack/03a-IPHC/iphc.c ****           lowpan_nhc = *(msg->payload+ipv6_header->header_length+previousLen);//get the next elemen
 2859              		.loc 1 1017 0
 2860 1302 BDE0     		b	.L191
 2861              	.L137:
1021:build/openmote-cc2538_armgcc/openstack/03a-IPHC/iphc.c ****           }
1022:build/openmote-cc2538_armgcc/openstack/03a-IPHC/iphc.c ****           else{
1023:build/openmote-cc2538_armgcc/openstack/03a-IPHC/iphc.c ****               //error?
1024:build/openmote-cc2538_armgcc/openstack/03a-IPHC/iphc.c ****           }
1025:build/openmote-cc2538_armgcc/openstack/03a-IPHC/iphc.c ****       }
1026:build/openmote-cc2538_armgcc/openstack/03a-IPHC/iphc.c ****     } else {
1027:build/openmote-cc2538_armgcc/openstack/03a-IPHC/iphc.c ****         // we are in 6LoRH now
1028:build/openmote-cc2538_armgcc/openstack/03a-IPHC/iphc.c ****         if (page == 1){
 2862              		.loc 1 1028 0
 2863 1304 FB7D     		ldrb	r3, [r7, #23]	@ zero_extendqisi2
 2864 1306 012B     		cmp	r3, #1
 2865 1308 40F0BB80 		bne	.L179
1029:build/openmote-cc2538_armgcc/openstack/03a-IPHC/iphc.c ****             temp_8b = *(uint8_t*)(msg->payload+ipv6_header->header_length+previousLen);
 2866              		.loc 1 1029 0
 2867 130c FB6B     		ldr	r3, [r7, #60]
 2868 130e 5A68     		ldr	r2, [r3, #4]
 2869 1310 3B6C     		ldr	r3, [r7, #64]
 2870 1312 93F84430 		ldrb	r3, [r3, #68]	@ zero_extendqisi2
 2871 1316 1946     		mov	r1, r3
 2872 1318 97F84430 		ldrb	r3, [r7, #68]	@ zero_extendqisi2
 2873 131c 0B44     		add	r3, r3, r1
 2874 131e 1344     		add	r3, r3, r2
 2875 1320 1B78     		ldrb	r3, [r3]
 2876 1322 BB75     		strb	r3, [r7, #22]
1030:build/openmote-cc2538_armgcc/openstack/03a-IPHC/iphc.c ****             if ((temp_8b & FORMAT_6LORH_MASK) == ELECTIVE_6LoRH){
 2877              		.loc 1 1030 0
 2878 1324 BB7D     		ldrb	r3, [r7, #22]	@ zero_extendqisi2
 2879 1326 03F0E003 		and	r3, r3, #224
 2880 132a A02B     		cmp	r3, #160
 2881 132c 40F0A980 		bne	.L179
1031:build/openmote-cc2538_armgcc/openstack/03a-IPHC/iphc.c ****                 // this is an elective 6LoRH
1032:build/openmote-cc2538_armgcc/openstack/03a-IPHC/iphc.c ****                 ipinip_length = temp_8b & IPINIP_LEN_6LORH_MASK;
 2882              		.loc 1 1032 0
 2883 1330 BB7D     		ldrb	r3, [r7, #22]
 2884 1332 03F01F03 		and	r3, r3, #31
 2885 1336 7B75     		strb	r3, [r7, #21]
1033:build/openmote-cc2538_armgcc/openstack/03a-IPHC/iphc.c ****                 ipv6_header->header_length += 1;
 2886              		.loc 1 1033 0
 2887 1338 3B6C     		ldr	r3, [r7, #64]
 2888 133a 93F84430 		ldrb	r3, [r3, #68]	@ zero_extendqisi2
 2889 133e 0133     		adds	r3, r3, #1
 2890 1340 DAB2     		uxtb	r2, r3
 2891 1342 3B6C     		ldr	r3, [r7, #64]
 2892 1344 83F84420 		strb	r2, [r3, #68]
1034:build/openmote-cc2538_armgcc/openstack/03a-IPHC/iphc.c ****                 temp_8b = *(uint8_t*)(msg->payload+ipv6_header->header_length+previousLen);
 2893              		.loc 1 1034 0
 2894 1348 FB6B     		ldr	r3, [r7, #60]
 2895 134a 5A68     		ldr	r2, [r3, #4]
 2896 134c 3B6C     		ldr	r3, [r7, #64]
 2897 134e 93F84430 		ldrb	r3, [r3, #68]	@ zero_extendqisi2
 2898 1352 1946     		mov	r1, r3
 2899 1354 97F84430 		ldrb	r3, [r7, #68]	@ zero_extendqisi2
 2900 1358 0B44     		add	r3, r3, r1
 2901 135a 1344     		add	r3, r3, r2
 2902 135c 1B78     		ldrb	r3, [r3]
 2903 135e BB75     		strb	r3, [r7, #22]
1035:build/openmote-cc2538_armgcc/openstack/03a-IPHC/iphc.c ****                 if (temp_8b == IPINIP_TYPE_6LORH){
 2904              		.loc 1 1035 0
 2905 1360 BB7D     		ldrb	r3, [r7, #22]	@ zero_extendqisi2
 2906 1362 062B     		cmp	r3, #6
 2907 1364 40F08D80 		bne	.L179
1036:build/openmote-cc2538_armgcc/openstack/03a-IPHC/iphc.c ****                     // this is IpinIP 6LoRH
1037:build/openmote-cc2538_armgcc/openstack/03a-IPHC/iphc.c ****                     ipv6_header->header_length += 1;
 2908              		.loc 1 1037 0
 2909 1368 3B6C     		ldr	r3, [r7, #64]
 2910 136a 93F84430 		ldrb	r3, [r3, #68]	@ zero_extendqisi2
 2911 136e 0133     		adds	r3, r3, #1
 2912 1370 DAB2     		uxtb	r2, r3
 2913 1372 3B6C     		ldr	r3, [r7, #64]
 2914 1374 83F84420 		strb	r2, [r3, #68]
1038:build/openmote-cc2538_armgcc/openstack/03a-IPHC/iphc.c ****                     ipv6_header->hop_limit = *(uint8_t*)(msg->payload+ipv6_header->header_length+pr
 2915              		.loc 1 1038 0
 2916 1378 FB6B     		ldr	r3, [r7, #60]
 2917 137a 5A68     		ldr	r2, [r3, #4]
 2918 137c 3B6C     		ldr	r3, [r7, #64]
 2919 137e 93F84430 		ldrb	r3, [r3, #68]	@ zero_extendqisi2
 2920 1382 1946     		mov	r1, r3
 2921 1384 97F84430 		ldrb	r3, [r7, #68]	@ zero_extendqisi2
 2922 1388 0B44     		add	r3, r3, r1
 2923 138a 1344     		add	r3, r3, r2
 2924 138c 1A78     		ldrb	r2, [r3]	@ zero_extendqisi2
 2925 138e 3B6C     		ldr	r3, [r7, #64]
 2926 1390 83F82020 		strb	r2, [r3, #32]
1039:build/openmote-cc2538_armgcc/openstack/03a-IPHC/iphc.c ****                     ipv6_header->header_length += 1;
 2927              		.loc 1 1039 0
 2928 1394 3B6C     		ldr	r3, [r7, #64]
 2929 1396 93F84430 		ldrb	r3, [r3, #68]	@ zero_extendqisi2
 2930 139a 0133     		adds	r3, r3, #1
 2931 139c DAB2     		uxtb	r2, r3
 2932 139e 3B6C     		ldr	r3, [r7, #64]
 2933 13a0 83F84420 		strb	r2, [r3, #68]
1040:build/openmote-cc2538_armgcc/openstack/03a-IPHC/iphc.c ****                     // destination address maybe is the first address in RH3 6LoRH OR dest adress i
1041:build/openmote-cc2538_armgcc/openstack/03a-IPHC/iphc.c ****                     // update destination address if necessary after the processing
1042:build/openmote-cc2538_armgcc/openstack/03a-IPHC/iphc.c ****                     ipv6_header->dest.type = ADDR_NONE;
 2934              		.loc 1 1042 0
 2935 13a4 3B6C     		ldr	r3, [r7, #64]
 2936 13a6 0022     		movs	r2, #0
 2937 13a8 83F83320 		strb	r2, [r3, #51]
1043:build/openmote-cc2538_armgcc/openstack/03a-IPHC/iphc.c ****                     memset(&(ipv6_header->dest.addr_128b[0]),0,16);
 2938              		.loc 1 1043 0
 2939 13ac 3B6C     		ldr	r3, [r7, #64]
 2940 13ae 3433     		adds	r3, r3, #52
 2941 13b0 1022     		movs	r2, #16
 2942 13b2 0021     		movs	r1, #0
 2943 13b4 1846     		mov	r0, r3
 2944 13b6 FFF7FEFF 		bl	memset
1044:build/openmote-cc2538_armgcc/openstack/03a-IPHC/iphc.c ****                     if (ipinip_length == 1){
 2945              		.loc 1 1044 0
 2946 13ba 7B7D     		ldrb	r3, [r7, #21]	@ zero_extendqisi2
 2947 13bc 012B     		cmp	r3, #1
 2948 13be 10D1     		bne	.L181
1045:build/openmote-cc2538_armgcc/openstack/03a-IPHC/iphc.c ****                         // source address is root
1046:build/openmote-cc2538_armgcc/openstack/03a-IPHC/iphc.c ****                         memset(&(ipv6_header->src),0,sizeof(open_addr_t));
 2949              		.loc 1 1046 0
 2950 13c0 3B6C     		ldr	r3, [r7, #64]
 2951 13c2 2233     		adds	r3, r3, #34
 2952 13c4 1122     		movs	r2, #17
 2953 13c6 0021     		movs	r1, #0
 2954 13c8 1846     		mov	r0, r3
 2955 13ca FFF7FEFF 		bl	memset
1047:build/openmote-cc2538_armgcc/openstack/03a-IPHC/iphc.c ****                         packetfunctions_mac64bToIp128b(idmanager_getMyID(ADDR_PREFIX),(open_addr_t*
 2956              		.loc 1 1047 0
 2957 13ce 0520     		movs	r0, #5
 2958 13d0 FFF7FEFF 		bl	idmanager_getMyID
 2959 13d4 3B6C     		ldr	r3, [r7, #64]
 2960 13d6 2233     		adds	r3, r3, #34
 2961 13d8 1A46     		mov	r2, r3
 2962 13da 2349     		ldr	r1, .L192+4
 2963 13dc FFF7FEFF 		bl	packetfunctions_mac64bToIp128b
 2964 13e0 4FE0     		b	.L179
 2965              	.L181:
1048:build/openmote-cc2538_armgcc/openstack/03a-IPHC/iphc.c ****                         // destination address is the first address in RH3 6LoRH OR dest adress in 
1049:build/openmote-cc2538_armgcc/openstack/03a-IPHC/iphc.c ****                     } else{
1050:build/openmote-cc2538_armgcc/openstack/03a-IPHC/iphc.c ****                         switch(ipinip_length-1){
 2966              		.loc 1 1050 0
 2967 13e2 7B7D     		ldrb	r3, [r7, #21]	@ zero_extendqisi2
 2968 13e4 013B     		subs	r3, r3, #1
 2969 13e6 082B     		cmp	r3, #8
 2970 13e8 1BD0     		beq	.L183
 2971 13ea 102B     		cmp	r3, #16
 2972 13ec 3ED1     		bne	.L188
1051:build/openmote-cc2538_armgcc/openstack/03a-IPHC/iphc.c ****                         case 16:
1052:build/openmote-cc2538_armgcc/openstack/03a-IPHC/iphc.c ****                              // this is source address 
1053:build/openmote-cc2538_armgcc/openstack/03a-IPHC/iphc.c ****                              packetfunctions_readAddress(((uint8_t*)(msg->payload+ipv6_header->head
 2973              		.loc 1 1053 0
 2974 13ee FB6B     		ldr	r3, [r7, #60]
 2975 13f0 5A68     		ldr	r2, [r3, #4]
 2976 13f2 3B6C     		ldr	r3, [r7, #64]
 2977 13f4 93F84430 		ldrb	r3, [r3, #68]	@ zero_extendqisi2
 2978 13f8 1946     		mov	r1, r3
 2979 13fa 97F84430 		ldrb	r3, [r7, #68]	@ zero_extendqisi2
 2980 13fe 0B44     		add	r3, r3, r1
 2981 1400 D018     		adds	r0, r2, r3
 2982 1402 3B6C     		ldr	r3, [r7, #64]
 2983 1404 03F12202 		add	r2, r3, #34
 2984 1408 0023     		movs	r3, #0
 2985 140a 0321     		movs	r1, #3
 2986 140c FFF7FEFF 		bl	packetfunctions_readAddress
1054:build/openmote-cc2538_armgcc/openstack/03a-IPHC/iphc.c ****                              ipv6_header->header_length += 16*sizeof(uint8_t);
 2987              		.loc 1 1054 0
 2988 1410 3B6C     		ldr	r3, [r7, #64]
 2989 1412 93F84430 		ldrb	r3, [r3, #68]	@ zero_extendqisi2
 2990 1416 1033     		adds	r3, r3, #16
 2991 1418 DAB2     		uxtb	r2, r3
 2992 141a 3B6C     		ldr	r3, [r7, #64]
 2993 141c 83F84420 		strb	r2, [r3, #68]
1055:build/openmote-cc2538_armgcc/openstack/03a-IPHC/iphc.c ****                              break;
 2994              		.loc 1 1055 0
 2995 1420 2FE0     		b	.L179
 2996              	.L183:
1056:build/openmote-cc2538_armgcc/openstack/03a-IPHC/iphc.c ****                         case 8:
1057:build/openmote-cc2538_armgcc/openstack/03a-IPHC/iphc.c ****                              // this is source address 
1058:build/openmote-cc2538_armgcc/openstack/03a-IPHC/iphc.c ****                              packetfunctions_readAddress(((uint8_t*)(msg->payload+ipv6_header->head
 2997              		.loc 1 1058 0
 2998 1422 FB6B     		ldr	r3, [r7, #60]
 2999 1424 5A68     		ldr	r2, [r3, #4]
 3000 1426 3B6C     		ldr	r3, [r7, #64]
 3001 1428 93F84430 		ldrb	r3, [r3, #68]	@ zero_extendqisi2
 3002 142c 1946     		mov	r1, r3
 3003 142e 97F84430 		ldrb	r3, [r7, #68]	@ zero_extendqisi2
 3004 1432 0B44     		add	r3, r3, r1
 3005 1434 D018     		adds	r0, r2, r3
 3006 1436 0023     		movs	r3, #0
 3007 1438 BA68     		ldr	r2, [r7, #8]
 3008 143a 0221     		movs	r1, #2
 3009 143c FFF7FEFF 		bl	packetfunctions_readAddress
1059:build/openmote-cc2538_armgcc/openstack/03a-IPHC/iphc.c ****                              ipv6_header->header_length += 8*sizeof(uint8_t);
 3010              		.loc 1 1059 0
 3011 1440 3B6C     		ldr	r3, [r7, #64]
 3012 1442 93F84430 		ldrb	r3, [r3, #68]	@ zero_extendqisi2
 3013 1446 0833     		adds	r3, r3, #8
 3014 1448 DAB2     		uxtb	r2, r3
 3015 144a 3B6C     		ldr	r3, [r7, #64]
 3016 144c 83F84420 		strb	r2, [r3, #68]
1060:build/openmote-cc2538_armgcc/openstack/03a-IPHC/iphc.c ****                              packetfunctions_mac64bToIp128b(idmanager_getMyID(ADDR_PREFIX),temp_add
 3017              		.loc 1 1060 0
 3018 1450 0520     		movs	r0, #5
 3019 1452 FFF7FEFF 		bl	idmanager_getMyID
 3020 1456 3B6C     		ldr	r3, [r7, #64]
 3021 1458 2233     		adds	r3, r3, #34
 3022 145a 1A46     		mov	r2, r3
 3023 145c B968     		ldr	r1, [r7, #8]
 3024 145e FFF7FEFF 		bl	packetfunctions_mac64bToIp128b
1061:build/openmote-cc2538_armgcc/openstack/03a-IPHC/iphc.c ****                              break;
 3025              		.loc 1 1061 0
 3026 1462 0EE0     		b	.L179
 3027              	.L193:
 3028              		.align	2
 3029              	.L192:
 3030 1464 64000000 		.word	all_routers_multicast
 3031 1468 74000000 		.word	dagroot_mac64b
 3032              	.L188:
1062:build/openmote-cc2538_armgcc/openstack/03a-IPHC/iphc.c ****                         default:
1063:build/openmote-cc2538_armgcc/openstack/03a-IPHC/iphc.c ****                              // do not support other length yet and destination address will be in 
1064:build/openmote-cc2538_armgcc/openstack/03a-IPHC/iphc.c ****                              openserial_printError(
 3033              		.loc 1 1064 0
 3034 146c 7B7D     		ldrb	r3, [r7, #21]	@ zero_extendqisi2
 3035 146e 9BB2     		uxth	r3, r3
 3036 1470 013B     		subs	r3, r3, #1
 3037 1472 9BB2     		uxth	r3, r3
 3038 1474 0C22     		movs	r2, #12
 3039 1476 0C21     		movs	r1, #12
 3040 1478 1220     		movs	r0, #18
 3041 147a FFF7FEFF 		bl	openserial_printError
 3042 147e 00E0     		b	.L179
 3043              	.L191:
1017:build/openmote-cc2538_armgcc/openstack/03a-IPHC/iphc.c ****           lowpan_nhc = *(msg->payload+ipv6_header->header_length+previousLen);//get the next elemen
 3044              		.loc 1 1017 0
 3045 1480 00BF     		nop
 3046              	.L179:
1065:build/openmote-cc2538_armgcc/openstack/03a-IPHC/iphc.c ****                                 COMPONENT_IPHC,
1066:build/openmote-cc2538_armgcc/openstack/03a-IPHC/iphc.c ****                                 ERR_6LOWPAN_UNSUPPORTED,
1067:build/openmote-cc2538_armgcc/openstack/03a-IPHC/iphc.c ****                                 (errorparameter_t)12,
1068:build/openmote-cc2538_armgcc/openstack/03a-IPHC/iphc.c ****                                 (errorparameter_t)(ipinip_length-1)
1069:build/openmote-cc2538_armgcc/openstack/03a-IPHC/iphc.c ****                              );
1070:build/openmote-cc2538_armgcc/openstack/03a-IPHC/iphc.c ****                         }
1071:build/openmote-cc2538_armgcc/openstack/03a-IPHC/iphc.c ****                     }
1072:build/openmote-cc2538_armgcc/openstack/03a-IPHC/iphc.c ****                 }
1073:build/openmote-cc2538_armgcc/openstack/03a-IPHC/iphc.c **** 
1074:build/openmote-cc2538_armgcc/openstack/03a-IPHC/iphc.c ****             } else {
1075:build/openmote-cc2538_armgcc/openstack/03a-IPHC/iphc.c ****                 // ip in ip is elided: the followig is a critical 6lorh
1076:build/openmote-cc2538_armgcc/openstack/03a-IPHC/iphc.c ****                 // finish the ip header compression
1077:build/openmote-cc2538_armgcc/openstack/03a-IPHC/iphc.c ****             }
1078:build/openmote-cc2538_armgcc/openstack/03a-IPHC/iphc.c ****         }
1079:build/openmote-cc2538_armgcc/openstack/03a-IPHC/iphc.c ****     }
1080:build/openmote-cc2538_armgcc/openstack/03a-IPHC/iphc.c ****     return page;
 3047              		.loc 1 1080 0
 3048 1482 FB7D     		ldrb	r3, [r7, #23]	@ zero_extendqisi2
1081:build/openmote-cc2538_armgcc/openstack/03a-IPHC/iphc.c **** }
 3049              		.loc 1 1081 0
 3050 1484 1846     		mov	r0, r3
 3051 1486 1837     		adds	r7, r7, #24
 3052              		.cfi_def_cfa_offset 16
 3053 1488 BD46     		mov	sp, r7
 3054              		.cfi_def_cfa_register 13
 3055              		@ sp needed
 3056 148a B0BD     		pop	{r4, r5, r7, pc}
 3057              		.cfi_endproc
 3058              	.LFE7:
 3060              		.align	2
 3061              		.global	iphc_prependIPv6HopByHopHeader
 3062              		.thumb
 3063              		.thumb_func
 3065              	iphc_prependIPv6HopByHopHeader:
 3066              	.LFB8:
1082:build/openmote-cc2538_armgcc/openstack/03a-IPHC/iphc.c **** 
1083:build/openmote-cc2538_armgcc/openstack/03a-IPHC/iphc.c **** //===== IPv6 hop-by-hop header
1084:build/openmote-cc2538_armgcc/openstack/03a-IPHC/iphc.c **** 
1085:build/openmote-cc2538_armgcc/openstack/03a-IPHC/iphc.c **** /**
1086:build/openmote-cc2538_armgcc/openstack/03a-IPHC/iphc.c **** \brief Prepend an IPv6 hop-by-hop header to a message.
1087:build/openmote-cc2538_armgcc/openstack/03a-IPHC/iphc.c **** 
1088:build/openmote-cc2538_armgcc/openstack/03a-IPHC/iphc.c **** \note The field are written in reverse order.
1089:build/openmote-cc2538_armgcc/openstack/03a-IPHC/iphc.c **** 
1090:build/openmote-cc2538_armgcc/openstack/03a-IPHC/iphc.c **** \param[in,out] msg             The message to prepend the header to.
1091:build/openmote-cc2538_armgcc/openstack/03a-IPHC/iphc.c **** \param[in]     nextheader      The next header value to use.
1092:build/openmote-cc2538_armgcc/openstack/03a-IPHC/iphc.c **** \param[in]     rpl_option      The RPL option to include.
1093:build/openmote-cc2538_armgcc/openstack/03a-IPHC/iphc.c **** */
1094:build/openmote-cc2538_armgcc/openstack/03a-IPHC/iphc.c **** void iphc_prependIPv6HopByHopHeader(
1095:build/openmote-cc2538_armgcc/openstack/03a-IPHC/iphc.c ****       OpenQueueEntry_t* msg,
1096:build/openmote-cc2538_armgcc/openstack/03a-IPHC/iphc.c ****       uint8_t           nextheader,
1097:build/openmote-cc2538_armgcc/openstack/03a-IPHC/iphc.c ****       rpl_option_ht*    rpl_option
1098:build/openmote-cc2538_armgcc/openstack/03a-IPHC/iphc.c ****    ){
 3067              		.loc 1 1098 0
 3068              		.cfi_startproc
 3069              		@ args = 0, pretend = 0, frame = 24
 3070              		@ frame_needed = 1, uses_anonymous_args = 0
 3071 148c 80B5     		push	{r7, lr}
 3072              		.cfi_def_cfa_offset 8
 3073              		.cfi_offset 7, -8
 3074              		.cfi_offset 14, -4
 3075 148e 86B0     		sub	sp, sp, #24
 3076              		.cfi_def_cfa_offset 32
 3077 1490 00AF     		add	r7, sp, #0
 3078              		.cfi_def_cfa_register 7
 3079 1492 F860     		str	r0, [r7, #12]
 3080 1494 0B46     		mov	r3, r1
 3081 1496 7A60     		str	r2, [r7, #4]
 3082 1498 FB72     		strb	r3, [r7, #11]
1099:build/openmote-cc2538_armgcc/openstack/03a-IPHC/iphc.c ****    uint8_t temp_8b;
1100:build/openmote-cc2538_armgcc/openstack/03a-IPHC/iphc.c ****    
1101:build/openmote-cc2538_armgcc/openstack/03a-IPHC/iphc.c ****    if ((rpl_option->flags & K_FLAG) == 0){
 3083              		.loc 1 1101 0
 3084 149a 7B68     		ldr	r3, [r7, #4]
 3085 149c 5B78     		ldrb	r3, [r3, #1]	@ zero_extendqisi2
 3086 149e 03F00103 		and	r3, r3, #1
 3087 14a2 002B     		cmp	r3, #0
 3088 14a4 17D1     		bne	.L195
1102:build/openmote-cc2538_armgcc/openstack/03a-IPHC/iphc.c ****       packetfunctions_reserveHeaderSize(msg,sizeof(uint16_t));
 3089              		.loc 1 1102 0
 3090 14a6 0221     		movs	r1, #2
 3091 14a8 F868     		ldr	r0, [r7, #12]
 3092 14aa FFF7FEFF 		bl	packetfunctions_reserveHeaderSize
1103:build/openmote-cc2538_armgcc/openstack/03a-IPHC/iphc.c ****       msg->payload[0] = (uint8_t)((rpl_option->senderRank&0xFF00)>>8);
 3093              		.loc 1 1103 0
 3094 14ae FB68     		ldr	r3, [r7, #12]
 3095 14b0 5B68     		ldr	r3, [r3, #4]
 3096 14b2 7A68     		ldr	r2, [r7, #4]
 3097 14b4 B2F80320 		ldrh	r2, [r2, #3]	@ unaligned
 3098 14b8 92B2     		uxth	r2, r2
 3099 14ba 120A     		lsrs	r2, r2, #8
 3100 14bc 92B2     		uxth	r2, r2
 3101 14be D2B2     		uxtb	r2, r2
 3102 14c0 1A70     		strb	r2, [r3]
1104:build/openmote-cc2538_armgcc/openstack/03a-IPHC/iphc.c ****       msg->payload[1] = (uint8_t)(rpl_option->senderRank&0x00FF);
 3103              		.loc 1 1104 0
 3104 14c2 FB68     		ldr	r3, [r7, #12]
 3105 14c4 5B68     		ldr	r3, [r3, #4]
 3106 14c6 0133     		adds	r3, r3, #1
 3107 14c8 7A68     		ldr	r2, [r7, #4]
 3108 14ca B2F80320 		ldrh	r2, [r2, #3]	@ unaligned
 3109 14ce 92B2     		uxth	r2, r2
 3110 14d0 D2B2     		uxtb	r2, r2
 3111 14d2 1A70     		strb	r2, [r3]
 3112 14d4 0DE0     		b	.L196
 3113              	.L195:
1105:build/openmote-cc2538_armgcc/openstack/03a-IPHC/iphc.c ****    } else {
1106:build/openmote-cc2538_armgcc/openstack/03a-IPHC/iphc.c ****       packetfunctions_reserveHeaderSize(msg,sizeof(uint8_t));
 3114              		.loc 1 1106 0
 3115 14d6 0121     		movs	r1, #1
 3116 14d8 F868     		ldr	r0, [r7, #12]
 3117 14da FFF7FEFF 		bl	packetfunctions_reserveHeaderSize
1107:build/openmote-cc2538_armgcc/openstack/03a-IPHC/iphc.c ****       *((uint8_t*)(msg->payload)) = (uint8_t)((rpl_option->senderRank&0xFF00)>>8);
 3118              		.loc 1 1107 0
 3119 14de FB68     		ldr	r3, [r7, #12]
 3120 14e0 5B68     		ldr	r3, [r3, #4]
 3121 14e2 7A68     		ldr	r2, [r7, #4]
 3122 14e4 B2F80320 		ldrh	r2, [r2, #3]	@ unaligned
 3123 14e8 92B2     		uxth	r2, r2
 3124 14ea 120A     		lsrs	r2, r2, #8
 3125 14ec 92B2     		uxth	r2, r2
 3126 14ee D2B2     		uxtb	r2, r2
 3127 14f0 1A70     		strb	r2, [r3]
 3128              	.L196:
1108:build/openmote-cc2538_armgcc/openstack/03a-IPHC/iphc.c ****    }
1109:build/openmote-cc2538_armgcc/openstack/03a-IPHC/iphc.c ****    
1110:build/openmote-cc2538_armgcc/openstack/03a-IPHC/iphc.c ****    if ((rpl_option->flags & I_FLAG) == 0){
 3129              		.loc 1 1110 0
 3130 14f2 7B68     		ldr	r3, [r7, #4]
 3131 14f4 5B78     		ldrb	r3, [r3, #1]	@ zero_extendqisi2
 3132 14f6 03F00203 		and	r3, r3, #2
 3133 14fa 002B     		cmp	r3, #0
 3134 14fc 08D1     		bne	.L197
1111:build/openmote-cc2538_armgcc/openstack/03a-IPHC/iphc.c ****       packetfunctions_reserveHeaderSize(msg,sizeof(uint8_t));
 3135              		.loc 1 1111 0
 3136 14fe 0121     		movs	r1, #1
 3137 1500 F868     		ldr	r0, [r7, #12]
 3138 1502 FFF7FEFF 		bl	packetfunctions_reserveHeaderSize
1112:build/openmote-cc2538_armgcc/openstack/03a-IPHC/iphc.c ****       *((uint8_t*)(msg->payload)) = rpl_option->rplInstanceID;  
 3139              		.loc 1 1112 0
 3140 1506 FB68     		ldr	r3, [r7, #12]
 3141 1508 5B68     		ldr	r3, [r3, #4]
 3142 150a 7A68     		ldr	r2, [r7, #4]
 3143 150c 9278     		ldrb	r2, [r2, #2]	@ zero_extendqisi2
 3144 150e 1A70     		strb	r2, [r3]
 3145              	.L197:
1113:build/openmote-cc2538_armgcc/openstack/03a-IPHC/iphc.c ****    }
1114:build/openmote-cc2538_armgcc/openstack/03a-IPHC/iphc.c ****    
1115:build/openmote-cc2538_armgcc/openstack/03a-IPHC/iphc.c ****    packetfunctions_reserveHeaderSize(msg,sizeof(uint8_t));
 3146              		.loc 1 1115 0
 3147 1510 0121     		movs	r1, #1
 3148 1512 F868     		ldr	r0, [r7, #12]
 3149 1514 FFF7FEFF 		bl	packetfunctions_reserveHeaderSize
1116:build/openmote-cc2538_armgcc/openstack/03a-IPHC/iphc.c ****    *((uint8_t*)(msg->payload)) = RPI_6LOTH_TYPE;
 3150              		.loc 1 1116 0
 3151 1518 FB68     		ldr	r3, [r7, #12]
 3152 151a 5B68     		ldr	r3, [r3, #4]
 3153 151c 0522     		movs	r2, #5
 3154 151e 1A70     		strb	r2, [r3]
1117:build/openmote-cc2538_armgcc/openstack/03a-IPHC/iphc.c ****        
1118:build/openmote-cc2538_armgcc/openstack/03a-IPHC/iphc.c ****    temp_8b = CRITICAL_6LORH | rpl_option->flags; 
 3155              		.loc 1 1118 0
 3156 1520 7B68     		ldr	r3, [r7, #4]
 3157 1522 5B78     		ldrb	r3, [r3, #1]	@ zero_extendqisi2
 3158 1524 63F07F03 		orn	r3, r3, #127
 3159 1528 FB75     		strb	r3, [r7, #23]
1119:build/openmote-cc2538_armgcc/openstack/03a-IPHC/iphc.c ****    packetfunctions_reserveHeaderSize(msg,sizeof(uint8_t));
 3160              		.loc 1 1119 0
 3161 152a 0121     		movs	r1, #1
 3162 152c F868     		ldr	r0, [r7, #12]
 3163 152e FFF7FEFF 		bl	packetfunctions_reserveHeaderSize
1120:build/openmote-cc2538_armgcc/openstack/03a-IPHC/iphc.c ****    *((uint8_t*)(msg->payload)) = temp_8b;
 3164              		.loc 1 1120 0
 3165 1532 FB68     		ldr	r3, [r7, #12]
 3166 1534 5B68     		ldr	r3, [r3, #4]
 3167 1536 FA7D     		ldrb	r2, [r7, #23]
 3168 1538 1A70     		strb	r2, [r3]
1121:build/openmote-cc2538_armgcc/openstack/03a-IPHC/iphc.c **** }
 3169              		.loc 1 1121 0
 3170 153a 00BF     		nop
 3171 153c 1837     		adds	r7, r7, #24
 3172              		.cfi_def_cfa_offset 8
 3173 153e BD46     		mov	sp, r7
 3174              		.cfi_def_cfa_register 13
 3175              		@ sp needed
 3176 1540 80BD     		pop	{r7, pc}
 3177              		.cfi_endproc
 3178              	.LFE8:
 3180 1542 00BF     		.align	2
 3181              		.global	iphc_prependIPv6DeadlineHeader
 3182              		.thumb
 3183              		.thumb_func
 3185              	iphc_prependIPv6DeadlineHeader:
 3186              	.LFB9:
1122:build/openmote-cc2538_armgcc/openstack/03a-IPHC/iphc.c **** 
1123:build/openmote-cc2538_armgcc/openstack/03a-IPHC/iphc.c **** #ifdef DEADLINE_OPTION_ENABLED
1124:build/openmote-cc2538_armgcc/openstack/03a-IPHC/iphc.c **** //===== IPv6 Deadline hop-by-hop header
1125:build/openmote-cc2538_armgcc/openstack/03a-IPHC/iphc.c **** /**
1126:build/openmote-cc2538_armgcc/openstack/03a-IPHC/iphc.c **** \brief Prepend an IPv6 Deadline hop-by-hop header to a message.
1127:build/openmote-cc2538_armgcc/openstack/03a-IPHC/iphc.c **** 
1128:build/openmote-cc2538_armgcc/openstack/03a-IPHC/iphc.c **** \note The field are written in reverse order.
1129:build/openmote-cc2538_armgcc/openstack/03a-IPHC/iphc.c **** 
1130:build/openmote-cc2538_armgcc/openstack/03a-IPHC/iphc.c **** \param[in,out] msg   The message to prepend the header to.
1131:build/openmote-cc2538_armgcc/openstack/03a-IPHC/iphc.c **** */
1132:build/openmote-cc2538_armgcc/openstack/03a-IPHC/iphc.c **** void iphc_prependIPv6DeadlineHeader(
1133:build/openmote-cc2538_armgcc/openstack/03a-IPHC/iphc.c ****       OpenQueueEntry_t* msg
1134:build/openmote-cc2538_armgcc/openstack/03a-IPHC/iphc.c ****    ){
 3187              		.loc 1 1134 0
 3188              		.cfi_startproc
 3189              		@ args = 0, pretend = 0, frame = 40
 3190              		@ frame_needed = 1, uses_anonymous_args = 0
 3191 1544 80B5     		push	{r7, lr}
 3192              		.cfi_def_cfa_offset 8
 3193              		.cfi_offset 7, -8
 3194              		.cfi_offset 14, -4
 3195 1546 8AB0     		sub	sp, sp, #40
 3196              		.cfi_def_cfa_offset 48
 3197 1548 00AF     		add	r7, sp, #0
 3198              		.cfi_def_cfa_register 7
 3199 154a 7860     		str	r0, [r7, #4]
1135:build/openmote-cc2538_armgcc/openstack/03a-IPHC/iphc.c ****    uint8_t temp_8b = 0, temp_len = 0, asn_len = 0;
 3200              		.loc 1 1135 0
 3201 154c 0023     		movs	r3, #0
 3202 154e 87F82630 		strb	r3, [r7, #38]
 3203 1552 0023     		movs	r3, #0
 3204 1554 87F82730 		strb	r3, [r7, #39]
 3205 1558 0023     		movs	r3, #0
 3206 155a 87F82530 		strb	r3, [r7, #37]
1136:build/openmote-cc2538_armgcc/openstack/03a-IPHC/iphc.c ****    deadline_option_ht curr_deadline_option;
1137:build/openmote-cc2538_armgcc/openstack/03a-IPHC/iphc.c ****    uint8_t asn_array[5];
1138:build/openmote-cc2538_armgcc/openstack/03a-IPHC/iphc.c **** 
1139:build/openmote-cc2538_armgcc/openstack/03a-IPHC/iphc.c ****    // Origination Time (OT)
1140:build/openmote-cc2538_armgcc/openstack/03a-IPHC/iphc.c ****    if (msg->orgination_time_flag == 1){	
 3207              		.loc 1 1140 0
 3208 155e 7B68     		ldr	r3, [r7, #4]
 3209 1560 1B7B     		ldrb	r3, [r3, #12]	@ zero_extendqisi2
 3210 1562 002B     		cmp	r3, #0
 3211 1564 2ED0     		beq	.L199
1141:build/openmote-cc2538_armgcc/openstack/03a-IPHC/iphc.c ****       ieee154e_getAsn(asn_array);
 3212              		.loc 1 1141 0
 3213 1566 07F10803 		add	r3, r7, #8
 3214 156a 1846     		mov	r0, r3
 3215 156c FFF7FEFF 		bl	ieee154e_getAsn
1142:build/openmote-cc2538_armgcc/openstack/03a-IPHC/iphc.c ****       
1143:build/openmote-cc2538_armgcc/openstack/03a-IPHC/iphc.c ****       asn_len = iphc_getAsnLen(asn_array);
 3216              		.loc 1 1143 0
 3217 1570 07F10803 		add	r3, r7, #8
 3218 1574 1846     		mov	r0, r3
 3219 1576 FFF7FEFF 		bl	iphc_getAsnLen
 3220 157a 0346     		mov	r3, r0
 3221 157c 87F82530 		strb	r3, [r7, #37]
1144:build/openmote-cc2538_armgcc/openstack/03a-IPHC/iphc.c ****       
1145:build/openmote-cc2538_armgcc/openstack/03a-IPHC/iphc.c ****       packetfunctions_reserveHeaderSize(msg,asn_len);
 3222              		.loc 1 1145 0
 3223 1580 97F82530 		ldrb	r3, [r7, #37]	@ zero_extendqisi2
 3224 1584 1946     		mov	r1, r3
 3225 1586 7868     		ldr	r0, [r7, #4]
 3226 1588 FFF7FEFF 		bl	packetfunctions_reserveHeaderSize
1146:build/openmote-cc2538_armgcc/openstack/03a-IPHC/iphc.c ****       memcpy(&msg->payload[0],&asn_array,asn_len*sizeof(uint8_t));
 3227              		.loc 1 1146 0
 3228 158c 7B68     		ldr	r3, [r7, #4]
 3229 158e 5B68     		ldr	r3, [r3, #4]
 3230 1590 97F82520 		ldrb	r2, [r7, #37]	@ zero_extendqisi2
 3231 1594 07F10801 		add	r1, r7, #8
 3232 1598 1846     		mov	r0, r3
 3233 159a FFF7FEFF 		bl	memcpy
1147:build/openmote-cc2538_armgcc/openstack/03a-IPHC/iphc.c ****       temp_len += asn_len;
 3234              		.loc 1 1147 0
 3235 159e 97F82720 		ldrb	r2, [r7, #39]
 3236 15a2 97F82530 		ldrb	r3, [r7, #37]
 3237 15a6 1344     		add	r3, r3, r2
 3238 15a8 87F82730 		strb	r3, [r7, #39]
1148:build/openmote-cc2538_armgcc/openstack/03a-IPHC/iphc.c ****       
1149:build/openmote-cc2538_armgcc/openstack/03a-IPHC/iphc.c ****       //set OTL flag value
1150:build/openmote-cc2538_armgcc/openstack/03a-IPHC/iphc.c ****       curr_deadline_option.org_otl = asn_len-1;   		
 3239              		.loc 1 1150 0
 3240 15ac 97F82530 		ldrb	r3, [r7, #37]
 3241 15b0 013B     		subs	r3, r3, #1
 3242 15b2 DBB2     		uxtb	r3, r3
 3243 15b4 03F00703 		and	r3, r3, #7
 3244 15b8 DAB2     		uxtb	r2, r3
 3245 15ba 7B7C     		ldrb	r3, [r7, #17]
 3246 15bc 62F34713 		bfi	r3, r2, #5, #3
 3247 15c0 7B74     		strb	r3, [r7, #17]
 3248 15c2 03E0     		b	.L200
 3249              	.L199:
1151:build/openmote-cc2538_armgcc/openstack/03a-IPHC/iphc.c ****    } else {
1152:build/openmote-cc2538_armgcc/openstack/03a-IPHC/iphc.c ****       //set OTL flag value
1153:build/openmote-cc2538_armgcc/openstack/03a-IPHC/iphc.c ****       curr_deadline_option.org_otl = 0;
 3250              		.loc 1 1153 0
 3251 15c4 7B7C     		ldrb	r3, [r7, #17]
 3252 15c6 6FF34713 		bfc	r3, #5, #3
 3253 15ca 7B74     		strb	r3, [r7, #17]
 3254              	.L200:
1154:build/openmote-cc2538_armgcc/openstack/03a-IPHC/iphc.c ****    } 
1155:build/openmote-cc2538_armgcc/openstack/03a-IPHC/iphc.c ****    
1156:build/openmote-cc2538_armgcc/openstack/03a-IPHC/iphc.c ****    // Expiration Time (ET)
1157:build/openmote-cc2538_armgcc/openstack/03a-IPHC/iphc.c ****    ieee154e_calculateExpTime(msg->max_delay,asn_array);    
 3255              		.loc 1 1157 0
 3256 15cc 7B68     		ldr	r3, [r7, #4]
 3257 15ce 5B89     		ldrh	r3, [r3, #10]
 3258 15d0 07F10802 		add	r2, r7, #8
 3259 15d4 1146     		mov	r1, r2
 3260 15d6 1846     		mov	r0, r3
 3261 15d8 FFF7FEFF 		bl	ieee154e_calculateExpTime
1158:build/openmote-cc2538_armgcc/openstack/03a-IPHC/iphc.c ****    asn_len = iphc_getAsnLen(asn_array);
 3262              		.loc 1 1158 0
 3263 15dc 07F10803 		add	r3, r7, #8
 3264 15e0 1846     		mov	r0, r3
 3265 15e2 FFF7FEFF 		bl	iphc_getAsnLen
 3266 15e6 0346     		mov	r3, r0
 3267 15e8 87F82530 		strb	r3, [r7, #37]
1159:build/openmote-cc2538_armgcc/openstack/03a-IPHC/iphc.c ****    packetfunctions_reserveHeaderSize(msg,asn_len);
 3268              		.loc 1 1159 0
 3269 15ec 97F82530 		ldrb	r3, [r7, #37]	@ zero_extendqisi2
 3270 15f0 1946     		mov	r1, r3
 3271 15f2 7868     		ldr	r0, [r7, #4]
 3272 15f4 FFF7FEFF 		bl	packetfunctions_reserveHeaderSize
1160:build/openmote-cc2538_armgcc/openstack/03a-IPHC/iphc.c ****    memcpy(&msg->payload[0],&asn_array,asn_len*sizeof(uint8_t));
 3273              		.loc 1 1160 0
 3274 15f8 7B68     		ldr	r3, [r7, #4]
 3275 15fa 5B68     		ldr	r3, [r3, #4]
 3276 15fc 97F82520 		ldrb	r2, [r7, #37]	@ zero_extendqisi2
 3277 1600 07F10801 		add	r1, r7, #8
 3278 1604 1846     		mov	r0, r3
 3279 1606 FFF7FEFF 		bl	memcpy
1161:build/openmote-cc2538_armgcc/openstack/03a-IPHC/iphc.c ****    temp_len += asn_len;
 3280              		.loc 1 1161 0
 3281 160a 97F82720 		ldrb	r2, [r7, #39]
 3282 160e 97F82530 		ldrb	r3, [r7, #37]
 3283 1612 1344     		add	r3, r3, r2
 3284 1614 87F82730 		strb	r3, [r7, #39]
1162:build/openmote-cc2538_armgcc/openstack/03a-IPHC/iphc.c ****    
1163:build/openmote-cc2538_armgcc/openstack/03a-IPHC/iphc.c ****    // 4th byte
1164:build/openmote-cc2538_armgcc/openstack/03a-IPHC/iphc.c ****    // TU(2bytes) | EXP(3bytes) | RSV(3bytes)
1165:build/openmote-cc2538_armgcc/openstack/03a-IPHC/iphc.c ****    curr_deadline_option.time_unit = 2 ; // in ASN
 3285              		.loc 1 1165 0
 3286 1618 BB7C     		ldrb	r3, [r7, #18]
 3287 161a 0222     		movs	r2, #2
 3288 161c 62F30103 		bfi	r3, r2, #0, #2
 3289 1620 BB74     		strb	r3, [r7, #18]
1166:build/openmote-cc2538_armgcc/openstack/03a-IPHC/iphc.c ****    curr_deadline_option.exponent = 0; // Time in ASN
 3290              		.loc 1 1166 0
 3291 1622 BB7C     		ldrb	r3, [r7, #18]
 3292 1624 6FF38403 		bfc	r3, #2, #3
 3293 1628 BB74     		strb	r3, [r7, #18]
1167:build/openmote-cc2538_armgcc/openstack/03a-IPHC/iphc.c ****    curr_deadline_option.rsv = 0; // Reserved
 3294              		.loc 1 1167 0
 3295 162a BB7C     		ldrb	r3, [r7, #18]
 3296 162c 6FF34713 		bfc	r3, #5, #3
 3297 1630 BB74     		strb	r3, [r7, #18]
1168:build/openmote-cc2538_armgcc/openstack/03a-IPHC/iphc.c ****    temp_8b = (curr_deadline_option.time_unit << 6) | (curr_deadline_option.exponent << 3) | curr_de
 3298              		.loc 1 1168 0
 3299 1632 BB7C     		ldrb	r3, [r7, #18]
 3300 1634 C3F30103 		ubfx	r3, r3, #0, #2
 3301 1638 DBB2     		uxtb	r3, r3
 3302 163a 9B01     		lsls	r3, r3, #6
 3303 163c 5AB2     		sxtb	r2, r3
 3304 163e BB7C     		ldrb	r3, [r7, #18]
 3305 1640 C3F38203 		ubfx	r3, r3, #2, #3
 3306 1644 DBB2     		uxtb	r3, r3
 3307 1646 DB00     		lsls	r3, r3, #3
 3308 1648 5BB2     		sxtb	r3, r3
 3309 164a 1343     		orrs	r3, r3, r2
 3310 164c 5AB2     		sxtb	r2, r3
 3311 164e BB7C     		ldrb	r3, [r7, #18]
 3312 1650 C3F34213 		ubfx	r3, r3, #5, #3
 3313 1654 DBB2     		uxtb	r3, r3
 3314 1656 5BB2     		sxtb	r3, r3
 3315 1658 1343     		orrs	r3, r3, r2
 3316 165a 5BB2     		sxtb	r3, r3
 3317 165c 87F82630 		strb	r3, [r7, #38]
1169:build/openmote-cc2538_armgcc/openstack/03a-IPHC/iphc.c ****    packetfunctions_reserveHeaderSize(msg,sizeof(uint8_t));
 3318              		.loc 1 1169 0
 3319 1660 0121     		movs	r1, #1
 3320 1662 7868     		ldr	r0, [r7, #4]
 3321 1664 FFF7FEFF 		bl	packetfunctions_reserveHeaderSize
1170:build/openmote-cc2538_armgcc/openstack/03a-IPHC/iphc.c ****    *((uint8_t*)(msg->payload)) = temp_8b;
 3322              		.loc 1 1170 0
 3323 1668 7B68     		ldr	r3, [r7, #4]
 3324 166a 5B68     		ldr	r3, [r3, #4]
 3325 166c 97F82620 		ldrb	r2, [r7, #38]
 3326 1670 1A70     		strb	r2, [r3]
1171:build/openmote-cc2538_armgcc/openstack/03a-IPHC/iphc.c ****    temp_len ++;
 3327              		.loc 1 1171 0
 3328 1672 97F82730 		ldrb	r3, [r7, #39]	@ zero_extendqisi2
 3329 1676 0133     		adds	r3, r3, #1
 3330 1678 87F82730 		strb	r3, [r7, #39]
1172:build/openmote-cc2538_armgcc/openstack/03a-IPHC/iphc.c ****    
1173:build/openmote-cc2538_armgcc/openstack/03a-IPHC/iphc.c ****    // 3rd byte
1174:build/openmote-cc2538_armgcc/openstack/03a-IPHC/iphc.c ****    // O_FLAG(1byte) | D_FLAG(1byte) | ETL(3bytes) | OTL(3bytes)   
1175:build/openmote-cc2538_armgcc/openstack/03a-IPHC/iphc.c ****    curr_deadline_option.exp_etl = asn_len-1;
 3331              		.loc 1 1175 0
 3332 167c 97F82530 		ldrb	r3, [r7, #37]
 3333 1680 013B     		subs	r3, r3, #1
 3334 1682 DBB2     		uxtb	r3, r3
 3335 1684 03F00703 		and	r3, r3, #7
 3336 1688 DAB2     		uxtb	r2, r3
 3337 168a 7B7C     		ldrb	r3, [r7, #17]
 3338 168c 62F38403 		bfi	r3, r2, #2, #3
 3339 1690 7B74     		strb	r3, [r7, #17]
1176:build/openmote-cc2538_armgcc/openstack/03a-IPHC/iphc.c ****    
1177:build/openmote-cc2538_armgcc/openstack/03a-IPHC/iphc.c ****    curr_deadline_option.o_flag = msg->orgination_time_flag;
 3340              		.loc 1 1177 0
 3341 1692 7B68     		ldr	r3, [r7, #4]
 3342 1694 1A7B     		ldrb	r2, [r3, #12]	@ zero_extendqisi2
 3343 1696 7B7C     		ldrb	r3, [r7, #17]
 3344 1698 62F30003 		bfi	r3, r2, #0, #1
 3345 169c 7B74     		strb	r3, [r7, #17]
1178:build/openmote-cc2538_armgcc/openstack/03a-IPHC/iphc.c ****    curr_deadline_option.d_flag = msg->drop_flag;   
 3346              		.loc 1 1178 0
 3347 169e 7B68     		ldr	r3, [r7, #4]
 3348 16a0 5A7B     		ldrb	r2, [r3, #13]	@ zero_extendqisi2
 3349 16a2 7B7C     		ldrb	r3, [r7, #17]
