   1              		.syntax unified
   2              		.cpu cortex-m3
   3              		.fpu softvfp
   4              		.eabi_attribute 20, 1
   5              		.eabi_attribute 21, 1
   6              		.eabi_attribute 23, 3
   7              		.eabi_attribute 24, 1
   8              		.eabi_attribute 25, 1
   9              		.eabi_attribute 26, 1
  10              		.eabi_attribute 30, 6
  11              		.eabi_attribute 34, 1
  12              		.eabi_attribute 18, 4
  13              		.thumb
  14              		.syntax unified
  15              		.file	"debugpins.c"
  16              		.text
  17              	.Ltext0:
  18              		.cfi_sections	.debug_frame
  19              		.section	.rodata
  20              		.align	2
  23              	rreg_uriquery:
  24 0000 683D7563 		.ascii	"h=ucb\000"
  24      6200
  25 0006 0000     		.align	2
  28              	infoBoardname:
  29 0008 43433235 		.ascii	"CC2538\000"
  29      333800
  30 000f 00       		.align	2
  33              	infouCName:
  34 0010 43433235 		.ascii	"CC2538\000"
  34      333800
  35 0017 00       		.align	2
  38              	infoRadioName:
  39 0018 43433235 		.ascii	"CC2538 SoC\000"
  39      33382053 
  39      6F4300
  40              		.text
  41              		.align	2
  42              		.global	debugpins_init
  43              		.thumb
  44              		.thumb_func
  46              	debugpins_init:
  47              	.LFB0:
  48              		.file 1 "build/openmote-cc2538_armgcc/bsp/boards/openmote-cc2538/debugpins.c"
   1:build/openmote-cc2538_armgcc/bsp/boards/openmote-cc2538/debugpins.c **** /**
   2:build/openmote-cc2538_armgcc/bsp/boards/openmote-cc2538/debugpins.c ****  * Author: Xavier Vilajosana (xvilajosana@eecs.berkeley.edu)
   3:build/openmote-cc2538_armgcc/bsp/boards/openmote-cc2538/debugpins.c ****  *         Pere Tuset (peretuset@openmote.com)
   4:build/openmote-cc2538_armgcc/bsp/boards/openmote-cc2538/debugpins.c ****  * Date:   July 2013
   5:build/openmote-cc2538_armgcc/bsp/boards/openmote-cc2538/debugpins.c ****  * Description: CC2538-specific definition of the "debugpins" bsp module.
   6:build/openmote-cc2538_armgcc/bsp/boards/openmote-cc2538/debugpins.c ****  */
   7:build/openmote-cc2538_armgcc/bsp/boards/openmote-cc2538/debugpins.c **** 
   8:build/openmote-cc2538_armgcc/bsp/boards/openmote-cc2538/debugpins.c **** #include <headers/hw_memmap.h>
   9:build/openmote-cc2538_armgcc/bsp/boards/openmote-cc2538/debugpins.c **** #include <headers/hw_types.h>
  10:build/openmote-cc2538_armgcc/bsp/boards/openmote-cc2538/debugpins.c **** 
  11:build/openmote-cc2538_armgcc/bsp/boards/openmote-cc2538/debugpins.c **** #include <source/gpio.h>
  12:build/openmote-cc2538_armgcc/bsp/boards/openmote-cc2538/debugpins.c **** 
  13:build/openmote-cc2538_armgcc/bsp/boards/openmote-cc2538/debugpins.c **** #include "board.h"
  14:build/openmote-cc2538_armgcc/bsp/boards/openmote-cc2538/debugpins.c **** #include "debugpins.h"
  15:build/openmote-cc2538_armgcc/bsp/boards/openmote-cc2538/debugpins.c **** 
  16:build/openmote-cc2538_armgcc/bsp/boards/openmote-cc2538/debugpins.c **** //=========================== defines =========================================
  17:build/openmote-cc2538_armgcc/bsp/boards/openmote-cc2538/debugpins.c **** // Board dbPINS defines
  18:build/openmote-cc2538_armgcc/bsp/boards/openmote-cc2538/debugpins.c **** #define BSP_PINA_BASE           GPIO_A_BASE
  19:build/openmote-cc2538_armgcc/bsp/boards/openmote-cc2538/debugpins.c **** #define BSP_PIND_BASE           GPIO_D_BASE
  20:build/openmote-cc2538_armgcc/bsp/boards/openmote-cc2538/debugpins.c **** 
  21:build/openmote-cc2538_armgcc/bsp/boards/openmote-cc2538/debugpins.c **** #define BSP_PINA_4              GPIO_PIN_4      //!< PA4 -- frame -RF1.5
  22:build/openmote-cc2538_armgcc/bsp/boards/openmote-cc2538/debugpins.c **** #define BSP_PINA_5              GPIO_PIN_5      //!< PA5 -- isr   -RF1.11
  23:build/openmote-cc2538_armgcc/bsp/boards/openmote-cc2538/debugpins.c **** 
  24:build/openmote-cc2538_armgcc/bsp/boards/openmote-cc2538/debugpins.c **** #define BSP_PIND_3              GPIO_PIN_3      //!< PD3 -- slot  -RF1.6
  25:build/openmote-cc2538_armgcc/bsp/boards/openmote-cc2538/debugpins.c **** #define BSP_PIND_2              GPIO_PIN_2      //!< PD2 -- fsm   -RF1.8
  26:build/openmote-cc2538_armgcc/bsp/boards/openmote-cc2538/debugpins.c **** #define BSP_PIND_1              GPIO_PIN_1      //!< PD1 -- task  -RF1.10
  27:build/openmote-cc2538_armgcc/bsp/boards/openmote-cc2538/debugpins.c **** #define BSP_PIND_0              GPIO_PIN_0      //!< PD0 -- radio -RF1-12
  28:build/openmote-cc2538_armgcc/bsp/boards/openmote-cc2538/debugpins.c **** 
  29:build/openmote-cc2538_armgcc/bsp/boards/openmote-cc2538/debugpins.c **** //=========================== variables =======================================
  30:build/openmote-cc2538_armgcc/bsp/boards/openmote-cc2538/debugpins.c **** 
  31:build/openmote-cc2538_armgcc/bsp/boards/openmote-cc2538/debugpins.c **** //=========================== prototypes ======================================
  32:build/openmote-cc2538_armgcc/bsp/boards/openmote-cc2538/debugpins.c **** 
  33:build/openmote-cc2538_armgcc/bsp/boards/openmote-cc2538/debugpins.c **** void bspDBpinToggle(uint32_t base,uint8_t ui8Pin);
  34:build/openmote-cc2538_armgcc/bsp/boards/openmote-cc2538/debugpins.c **** 
  35:build/openmote-cc2538_armgcc/bsp/boards/openmote-cc2538/debugpins.c **** //=========================== public ==========================================
  36:build/openmote-cc2538_armgcc/bsp/boards/openmote-cc2538/debugpins.c **** 
  37:build/openmote-cc2538_armgcc/bsp/boards/openmote-cc2538/debugpins.c **** void debugpins_init() {
  49              		.loc 1 37 0
  50              		.cfi_startproc
  51              		@ args = 0, pretend = 0, frame = 0
  52              		@ frame_needed = 1, uses_anonymous_args = 0
  53 0000 80B5     		push	{r7, lr}
  54              		.cfi_def_cfa_offset 8
  55              		.cfi_offset 7, -8
  56              		.cfi_offset 14, -4
  57 0002 00AF     		add	r7, sp, #0
  58              		.cfi_def_cfa_register 7
  38:build/openmote-cc2538_armgcc/bsp/boards/openmote-cc2538/debugpins.c ****    GPIOPinTypeGPIOOutput(BSP_PINA_BASE, BSP_PINA_4 | BSP_PINA_5);
  59              		.loc 1 38 0
  60 0004 3021     		movs	r1, #48
  61 0006 0948     		ldr	r0, .L2
  62 0008 FFF7FEFF 		bl	GPIOPinTypeGPIOOutput
  39:build/openmote-cc2538_armgcc/bsp/boards/openmote-cc2538/debugpins.c ****    GPIOPinTypeGPIOOutput(BSP_PIND_BASE, BSP_PIND_3 | BSP_PIND_2 | BSP_PIND_1 | BSP_PIND_0);
  63              		.loc 1 39 0
  64 000c 0F21     		movs	r1, #15
  65 000e 0848     		ldr	r0, .L2+4
  66 0010 FFF7FEFF 		bl	GPIOPinTypeGPIOOutput
  40:build/openmote-cc2538_armgcc/bsp/boards/openmote-cc2538/debugpins.c **** 
  41:build/openmote-cc2538_armgcc/bsp/boards/openmote-cc2538/debugpins.c ****    GPIOPinWrite(BSP_PINA_BASE, (BSP_PINA_4 | BSP_PINA_5), 0x00);
  67              		.loc 1 41 0
  68 0014 0022     		movs	r2, #0
  69 0016 3021     		movs	r1, #48
  70 0018 0448     		ldr	r0, .L2
  71 001a FFF7FEFF 		bl	GPIOPinWrite
  42:build/openmote-cc2538_armgcc/bsp/boards/openmote-cc2538/debugpins.c ****    GPIOPinWrite(BSP_PIND_BASE, (BSP_PIND_3 | BSP_PIND_2 | BSP_PIND_1 | BSP_PIND_0), 0);
  72              		.loc 1 42 0
  73 001e 0022     		movs	r2, #0
  74 0020 0F21     		movs	r1, #15
  75 0022 0348     		ldr	r0, .L2+4
  76 0024 FFF7FEFF 		bl	GPIOPinWrite
  43:build/openmote-cc2538_armgcc/bsp/boards/openmote-cc2538/debugpins.c **** }
  77              		.loc 1 43 0
  78 0028 00BF     		nop
  79 002a 80BD     		pop	{r7, pc}
  80              	.L3:
  81              		.align	2
  82              	.L2:
  83 002c 00900D40 		.word	1074630656
  84 0030 00C00D40 		.word	1074642944
  85              		.cfi_endproc
  86              	.LFE0:
  88              		.align	2
  89              		.global	debugpins_frame_toggle
  90              		.thumb
  91              		.thumb_func
  93              	debugpins_frame_toggle:
  94              	.LFB1:
  44:build/openmote-cc2538_armgcc/bsp/boards/openmote-cc2538/debugpins.c **** 
  45:build/openmote-cc2538_armgcc/bsp/boards/openmote-cc2538/debugpins.c **** // PA4
  46:build/openmote-cc2538_armgcc/bsp/boards/openmote-cc2538/debugpins.c **** void debugpins_frame_toggle() {
  95              		.loc 1 46 0
  96              		.cfi_startproc
  97              		@ args = 0, pretend = 0, frame = 0
  98              		@ frame_needed = 1, uses_anonymous_args = 0
  99 0034 80B5     		push	{r7, lr}
 100              		.cfi_def_cfa_offset 8
 101              		.cfi_offset 7, -8
 102              		.cfi_offset 14, -4
 103 0036 00AF     		add	r7, sp, #0
 104              		.cfi_def_cfa_register 7
  47:build/openmote-cc2538_armgcc/bsp/boards/openmote-cc2538/debugpins.c ****    bspDBpinToggle(BSP_PINA_BASE, BSP_PINA_4);
 105              		.loc 1 47 0
 106 0038 1021     		movs	r1, #16
 107 003a 0248     		ldr	r0, .L5
 108 003c FFF7FEFF 		bl	bspDBpinToggle
  48:build/openmote-cc2538_armgcc/bsp/boards/openmote-cc2538/debugpins.c **** }
 109              		.loc 1 48 0
 110 0040 00BF     		nop
 111 0042 80BD     		pop	{r7, pc}
 112              	.L6:
 113              		.align	2
 114              	.L5:
 115 0044 00900D40 		.word	1074630656
 116              		.cfi_endproc
 117              	.LFE1:
 119              		.align	2
 120              		.global	debugpins_frame_clr
 121              		.thumb
 122              		.thumb_func
 124              	debugpins_frame_clr:
 125              	.LFB2:
  49:build/openmote-cc2538_armgcc/bsp/boards/openmote-cc2538/debugpins.c **** void debugpins_frame_clr() {
 126              		.loc 1 49 0
 127              		.cfi_startproc
 128              		@ args = 0, pretend = 0, frame = 0
 129              		@ frame_needed = 1, uses_anonymous_args = 0
 130 0048 80B5     		push	{r7, lr}
 131              		.cfi_def_cfa_offset 8
 132              		.cfi_offset 7, -8
 133              		.cfi_offset 14, -4
 134 004a 00AF     		add	r7, sp, #0
 135              		.cfi_def_cfa_register 7
  50:build/openmote-cc2538_armgcc/bsp/boards/openmote-cc2538/debugpins.c ****     GPIOPinWrite(BSP_PINA_BASE, BSP_PINA_4, 0);
 136              		.loc 1 50 0
 137 004c 0022     		movs	r2, #0
 138 004e 1021     		movs	r1, #16
 139 0050 0248     		ldr	r0, .L8
 140 0052 FFF7FEFF 		bl	GPIOPinWrite
  51:build/openmote-cc2538_armgcc/bsp/boards/openmote-cc2538/debugpins.c **** }
 141              		.loc 1 51 0
 142 0056 00BF     		nop
 143 0058 80BD     		pop	{r7, pc}
 144              	.L9:
 145 005a 00BF     		.align	2
 146              	.L8:
 147 005c 00900D40 		.word	1074630656
 148              		.cfi_endproc
 149              	.LFE2:
 151              		.align	2
 152              		.global	debugpins_frame_set
 153              		.thumb
 154              		.thumb_func
 156              	debugpins_frame_set:
 157              	.LFB3:
  52:build/openmote-cc2538_armgcc/bsp/boards/openmote-cc2538/debugpins.c **** void debugpins_frame_set() {
 158              		.loc 1 52 0
 159              		.cfi_startproc
 160              		@ args = 0, pretend = 0, frame = 0
 161              		@ frame_needed = 1, uses_anonymous_args = 0
 162 0060 80B5     		push	{r7, lr}
 163              		.cfi_def_cfa_offset 8
 164              		.cfi_offset 7, -8
 165              		.cfi_offset 14, -4
 166 0062 00AF     		add	r7, sp, #0
 167              		.cfi_def_cfa_register 7
  53:build/openmote-cc2538_armgcc/bsp/boards/openmote-cc2538/debugpins.c ****    GPIOPinWrite(BSP_PINA_BASE, BSP_PINA_4, BSP_PINA_4);
 168              		.loc 1 53 0
 169 0064 1022     		movs	r2, #16
 170 0066 1021     		movs	r1, #16
 171 0068 0248     		ldr	r0, .L11
 172 006a FFF7FEFF 		bl	GPIOPinWrite
  54:build/openmote-cc2538_armgcc/bsp/boards/openmote-cc2538/debugpins.c **** }
 173              		.loc 1 54 0
 174 006e 00BF     		nop
 175 0070 80BD     		pop	{r7, pc}
 176              	.L12:
 177 0072 00BF     		.align	2
 178              	.L11:
 179 0074 00900D40 		.word	1074630656
 180              		.cfi_endproc
 181              	.LFE3:
 183              		.align	2
 184              		.global	debugpins_slot_toggle
 185              		.thumb
 186              		.thumb_func
 188              	debugpins_slot_toggle:
 189              	.LFB4:
  55:build/openmote-cc2538_armgcc/bsp/boards/openmote-cc2538/debugpins.c **** 
  56:build/openmote-cc2538_armgcc/bsp/boards/openmote-cc2538/debugpins.c **** // PD3
  57:build/openmote-cc2538_armgcc/bsp/boards/openmote-cc2538/debugpins.c **** void debugpins_slot_toggle() {
 190              		.loc 1 57 0
 191              		.cfi_startproc
 192              		@ args = 0, pretend = 0, frame = 0
 193              		@ frame_needed = 1, uses_anonymous_args = 0
 194 0078 80B5     		push	{r7, lr}
 195              		.cfi_def_cfa_offset 8
 196              		.cfi_offset 7, -8
 197              		.cfi_offset 14, -4
 198 007a 00AF     		add	r7, sp, #0
 199              		.cfi_def_cfa_register 7
  58:build/openmote-cc2538_armgcc/bsp/boards/openmote-cc2538/debugpins.c **** 	bspDBpinToggle(BSP_PIND_BASE, BSP_PIND_3);
 200              		.loc 1 58 0
 201 007c 0821     		movs	r1, #8
 202 007e 0248     		ldr	r0, .L14
 203 0080 FFF7FEFF 		bl	bspDBpinToggle
  59:build/openmote-cc2538_armgcc/bsp/boards/openmote-cc2538/debugpins.c **** }
 204              		.loc 1 59 0
 205 0084 00BF     		nop
 206 0086 80BD     		pop	{r7, pc}
 207              	.L15:
 208              		.align	2
 209              	.L14:
 210 0088 00C00D40 		.word	1074642944
 211              		.cfi_endproc
 212              	.LFE4:
 214              		.align	2
 215              		.global	debugpins_slot_clr
 216              		.thumb
 217              		.thumb_func
 219              	debugpins_slot_clr:
 220              	.LFB5:
  60:build/openmote-cc2538_armgcc/bsp/boards/openmote-cc2538/debugpins.c **** void debugpins_slot_clr() {
 221              		.loc 1 60 0
 222              		.cfi_startproc
 223              		@ args = 0, pretend = 0, frame = 0
 224              		@ frame_needed = 1, uses_anonymous_args = 0
 225 008c 80B5     		push	{r7, lr}
 226              		.cfi_def_cfa_offset 8
 227              		.cfi_offset 7, -8
 228              		.cfi_offset 14, -4
 229 008e 00AF     		add	r7, sp, #0
 230              		.cfi_def_cfa_register 7
  61:build/openmote-cc2538_armgcc/bsp/boards/openmote-cc2538/debugpins.c **** 	GPIOPinWrite(BSP_PIND_BASE, BSP_PIND_3, 0);
 231              		.loc 1 61 0
 232 0090 0022     		movs	r2, #0
 233 0092 0821     		movs	r1, #8
 234 0094 0248     		ldr	r0, .L17
 235 0096 FFF7FEFF 		bl	GPIOPinWrite
  62:build/openmote-cc2538_armgcc/bsp/boards/openmote-cc2538/debugpins.c **** }
 236              		.loc 1 62 0
 237 009a 00BF     		nop
 238 009c 80BD     		pop	{r7, pc}
 239              	.L18:
 240 009e 00BF     		.align	2
 241              	.L17:
 242 00a0 00C00D40 		.word	1074642944
 243              		.cfi_endproc
 244              	.LFE5:
 246              		.align	2
 247              		.global	debugpins_slot_set
 248              		.thumb
 249              		.thumb_func
 251              	debugpins_slot_set:
 252              	.LFB6:
  63:build/openmote-cc2538_armgcc/bsp/boards/openmote-cc2538/debugpins.c **** void debugpins_slot_set() {
 253              		.loc 1 63 0
 254              		.cfi_startproc
 255              		@ args = 0, pretend = 0, frame = 0
 256              		@ frame_needed = 1, uses_anonymous_args = 0
 257 00a4 80B5     		push	{r7, lr}
 258              		.cfi_def_cfa_offset 8
 259              		.cfi_offset 7, -8
 260              		.cfi_offset 14, -4
 261 00a6 00AF     		add	r7, sp, #0
 262              		.cfi_def_cfa_register 7
  64:build/openmote-cc2538_armgcc/bsp/boards/openmote-cc2538/debugpins.c **** 	GPIOPinWrite(BSP_PIND_BASE, BSP_PIND_3, BSP_PIND_3);
 263              		.loc 1 64 0
 264 00a8 0822     		movs	r2, #8
 265 00aa 0821     		movs	r1, #8
 266 00ac 0248     		ldr	r0, .L20
 267 00ae FFF7FEFF 		bl	GPIOPinWrite
  65:build/openmote-cc2538_armgcc/bsp/boards/openmote-cc2538/debugpins.c **** }
 268              		.loc 1 65 0
 269 00b2 00BF     		nop
 270 00b4 80BD     		pop	{r7, pc}
 271              	.L21:
 272 00b6 00BF     		.align	2
 273              	.L20:
 274 00b8 00C00D40 		.word	1074642944
 275              		.cfi_endproc
 276              	.LFE6:
 278              		.align	2
 279              		.global	debugpins_fsm_toggle
 280              		.thumb
 281              		.thumb_func
 283              	debugpins_fsm_toggle:
 284              	.LFB7:
  66:build/openmote-cc2538_armgcc/bsp/boards/openmote-cc2538/debugpins.c **** 
  67:build/openmote-cc2538_armgcc/bsp/boards/openmote-cc2538/debugpins.c **** // PD2
  68:build/openmote-cc2538_armgcc/bsp/boards/openmote-cc2538/debugpins.c **** void debugpins_fsm_toggle() {
 285              		.loc 1 68 0
 286              		.cfi_startproc
 287              		@ args = 0, pretend = 0, frame = 0
 288              		@ frame_needed = 1, uses_anonymous_args = 0
 289 00bc 80B5     		push	{r7, lr}
 290              		.cfi_def_cfa_offset 8
 291              		.cfi_offset 7, -8
 292              		.cfi_offset 14, -4
 293 00be 00AF     		add	r7, sp, #0
 294              		.cfi_def_cfa_register 7
  69:build/openmote-cc2538_armgcc/bsp/boards/openmote-cc2538/debugpins.c **** 	bspDBpinToggle(BSP_PIND_BASE, BSP_PIND_2);
 295              		.loc 1 69 0
 296 00c0 0421     		movs	r1, #4
 297 00c2 0248     		ldr	r0, .L23
 298 00c4 FFF7FEFF 		bl	bspDBpinToggle
  70:build/openmote-cc2538_armgcc/bsp/boards/openmote-cc2538/debugpins.c **** }
 299              		.loc 1 70 0
 300 00c8 00BF     		nop
 301 00ca 80BD     		pop	{r7, pc}
 302              	.L24:
 303              		.align	2
 304              	.L23:
 305 00cc 00C00D40 		.word	1074642944
 306              		.cfi_endproc
 307              	.LFE7:
 309              		.align	2
 310              		.global	debugpins_fsm_clr
 311              		.thumb
 312              		.thumb_func
 314              	debugpins_fsm_clr:
 315              	.LFB8:
  71:build/openmote-cc2538_armgcc/bsp/boards/openmote-cc2538/debugpins.c **** void debugpins_fsm_clr() {
 316              		.loc 1 71 0
 317              		.cfi_startproc
 318              		@ args = 0, pretend = 0, frame = 0
 319              		@ frame_needed = 1, uses_anonymous_args = 0
 320 00d0 80B5     		push	{r7, lr}
 321              		.cfi_def_cfa_offset 8
 322              		.cfi_offset 7, -8
 323              		.cfi_offset 14, -4
 324 00d2 00AF     		add	r7, sp, #0
 325              		.cfi_def_cfa_register 7
  72:build/openmote-cc2538_armgcc/bsp/boards/openmote-cc2538/debugpins.c **** 	GPIOPinWrite(BSP_PIND_BASE, BSP_PIND_2, 0);
 326              		.loc 1 72 0
 327 00d4 0022     		movs	r2, #0
 328 00d6 0421     		movs	r1, #4
 329 00d8 0248     		ldr	r0, .L26
 330 00da FFF7FEFF 		bl	GPIOPinWrite
  73:build/openmote-cc2538_armgcc/bsp/boards/openmote-cc2538/debugpins.c **** }
 331              		.loc 1 73 0
 332 00de 00BF     		nop
 333 00e0 80BD     		pop	{r7, pc}
 334              	.L27:
 335 00e2 00BF     		.align	2
 336              	.L26:
 337 00e4 00C00D40 		.word	1074642944
 338              		.cfi_endproc
 339              	.LFE8:
 341              		.align	2
 342              		.global	debugpins_fsm_set
 343              		.thumb
 344              		.thumb_func
 346              	debugpins_fsm_set:
 347              	.LFB9:
  74:build/openmote-cc2538_armgcc/bsp/boards/openmote-cc2538/debugpins.c **** void debugpins_fsm_set() {
 348              		.loc 1 74 0
 349              		.cfi_startproc
 350              		@ args = 0, pretend = 0, frame = 0
 351              		@ frame_needed = 1, uses_anonymous_args = 0
 352 00e8 80B5     		push	{r7, lr}
 353              		.cfi_def_cfa_offset 8
 354              		.cfi_offset 7, -8
 355              		.cfi_offset 14, -4
 356 00ea 00AF     		add	r7, sp, #0
 357              		.cfi_def_cfa_register 7
  75:build/openmote-cc2538_armgcc/bsp/boards/openmote-cc2538/debugpins.c **** 	GPIOPinWrite(BSP_PIND_BASE, BSP_PIND_2, BSP_PIND_2);
 358              		.loc 1 75 0
 359 00ec 0422     		movs	r2, #4
 360 00ee 0421     		movs	r1, #4
 361 00f0 0248     		ldr	r0, .L29
 362 00f2 FFF7FEFF 		bl	GPIOPinWrite
  76:build/openmote-cc2538_armgcc/bsp/boards/openmote-cc2538/debugpins.c **** }
 363              		.loc 1 76 0
 364 00f6 00BF     		nop
 365 00f8 80BD     		pop	{r7, pc}
 366              	.L30:
 367 00fa 00BF     		.align	2
 368              	.L29:
 369 00fc 00C00D40 		.word	1074642944
 370              		.cfi_endproc
 371              	.LFE9:
 373              		.align	2
 374              		.global	debugpins_task_toggle
 375              		.thumb
 376              		.thumb_func
 378              	debugpins_task_toggle:
 379              	.LFB10:
  77:build/openmote-cc2538_armgcc/bsp/boards/openmote-cc2538/debugpins.c **** 
  78:build/openmote-cc2538_armgcc/bsp/boards/openmote-cc2538/debugpins.c **** // PD1
  79:build/openmote-cc2538_armgcc/bsp/boards/openmote-cc2538/debugpins.c **** void debugpins_task_toggle() {
 380              		.loc 1 79 0
 381              		.cfi_startproc
 382              		@ args = 0, pretend = 0, frame = 0
 383              		@ frame_needed = 1, uses_anonymous_args = 0
 384 0100 80B5     		push	{r7, lr}
 385              		.cfi_def_cfa_offset 8
 386              		.cfi_offset 7, -8
 387              		.cfi_offset 14, -4
 388 0102 00AF     		add	r7, sp, #0
 389              		.cfi_def_cfa_register 7
  80:build/openmote-cc2538_armgcc/bsp/boards/openmote-cc2538/debugpins.c **** 	bspDBpinToggle(BSP_PIND_BASE,BSP_PIND_1);
 390              		.loc 1 80 0
 391 0104 0221     		movs	r1, #2
 392 0106 0248     		ldr	r0, .L32
 393 0108 FFF7FEFF 		bl	bspDBpinToggle
  81:build/openmote-cc2538_armgcc/bsp/boards/openmote-cc2538/debugpins.c **** }
 394              		.loc 1 81 0
 395 010c 00BF     		nop
 396 010e 80BD     		pop	{r7, pc}
 397              	.L33:
 398              		.align	2
 399              	.L32:
 400 0110 00C00D40 		.word	1074642944
 401              		.cfi_endproc
 402              	.LFE10:
 404              		.align	2
 405              		.global	debugpins_task_clr
 406              		.thumb
 407              		.thumb_func
 409              	debugpins_task_clr:
 410              	.LFB11:
  82:build/openmote-cc2538_armgcc/bsp/boards/openmote-cc2538/debugpins.c **** void debugpins_task_clr() {
 411              		.loc 1 82 0
 412              		.cfi_startproc
 413              		@ args = 0, pretend = 0, frame = 0
 414              		@ frame_needed = 1, uses_anonymous_args = 0
 415 0114 80B5     		push	{r7, lr}
 416              		.cfi_def_cfa_offset 8
 417              		.cfi_offset 7, -8
 418              		.cfi_offset 14, -4
 419 0116 00AF     		add	r7, sp, #0
 420              		.cfi_def_cfa_register 7
  83:build/openmote-cc2538_armgcc/bsp/boards/openmote-cc2538/debugpins.c **** 	GPIOPinWrite(BSP_PIND_BASE, BSP_PIND_1, 0);
 421              		.loc 1 83 0
 422 0118 0022     		movs	r2, #0
 423 011a 0221     		movs	r1, #2
 424 011c 0248     		ldr	r0, .L35
 425 011e FFF7FEFF 		bl	GPIOPinWrite
  84:build/openmote-cc2538_armgcc/bsp/boards/openmote-cc2538/debugpins.c **** }
 426              		.loc 1 84 0
 427 0122 00BF     		nop
 428 0124 80BD     		pop	{r7, pc}
 429              	.L36:
 430 0126 00BF     		.align	2
 431              	.L35:
 432 0128 00C00D40 		.word	1074642944
 433              		.cfi_endproc
 434              	.LFE11:
 436              		.align	2
 437              		.global	debugpins_task_set
 438              		.thumb
 439              		.thumb_func
 441              	debugpins_task_set:
 442              	.LFB12:
  85:build/openmote-cc2538_armgcc/bsp/boards/openmote-cc2538/debugpins.c **** void debugpins_task_set() {
 443              		.loc 1 85 0
 444              		.cfi_startproc
 445              		@ args = 0, pretend = 0, frame = 0
 446              		@ frame_needed = 1, uses_anonymous_args = 0
 447 012c 80B5     		push	{r7, lr}
 448              		.cfi_def_cfa_offset 8
 449              		.cfi_offset 7, -8
 450              		.cfi_offset 14, -4
 451 012e 00AF     		add	r7, sp, #0
 452              		.cfi_def_cfa_register 7
  86:build/openmote-cc2538_armgcc/bsp/boards/openmote-cc2538/debugpins.c **** 	GPIOPinWrite(BSP_PIND_BASE, BSP_PIND_1, BSP_PIND_1);
 453              		.loc 1 86 0
 454 0130 0222     		movs	r2, #2
 455 0132 0221     		movs	r1, #2
 456 0134 0248     		ldr	r0, .L38
 457 0136 FFF7FEFF 		bl	GPIOPinWrite
  87:build/openmote-cc2538_armgcc/bsp/boards/openmote-cc2538/debugpins.c **** }
 458              		.loc 1 87 0
 459 013a 00BF     		nop
 460 013c 80BD     		pop	{r7, pc}
 461              	.L39:
 462 013e 00BF     		.align	2
 463              	.L38:
 464 0140 00C00D40 		.word	1074642944
 465              		.cfi_endproc
 466              	.LFE12:
 468              		.align	2
 469              		.global	debugpins_isr_toggle
 470              		.thumb
 471              		.thumb_func
 473              	debugpins_isr_toggle:
 474              	.LFB13:
  88:build/openmote-cc2538_armgcc/bsp/boards/openmote-cc2538/debugpins.c **** 
  89:build/openmote-cc2538_armgcc/bsp/boards/openmote-cc2538/debugpins.c **** // PA5
  90:build/openmote-cc2538_armgcc/bsp/boards/openmote-cc2538/debugpins.c **** void debugpins_isr_toggle() {
 475              		.loc 1 90 0
 476              		.cfi_startproc
 477              		@ args = 0, pretend = 0, frame = 0
 478              		@ frame_needed = 1, uses_anonymous_args = 0
 479 0144 80B5     		push	{r7, lr}
 480              		.cfi_def_cfa_offset 8
 481              		.cfi_offset 7, -8
 482              		.cfi_offset 14, -4
 483 0146 00AF     		add	r7, sp, #0
 484              		.cfi_def_cfa_register 7
  91:build/openmote-cc2538_armgcc/bsp/boards/openmote-cc2538/debugpins.c **** 	bspDBpinToggle(BSP_PINA_BASE, BSP_PINA_5);
 485              		.loc 1 91 0
 486 0148 2021     		movs	r1, #32
 487 014a 0248     		ldr	r0, .L41
 488 014c FFF7FEFF 		bl	bspDBpinToggle
  92:build/openmote-cc2538_armgcc/bsp/boards/openmote-cc2538/debugpins.c **** }
 489              		.loc 1 92 0
 490 0150 00BF     		nop
 491 0152 80BD     		pop	{r7, pc}
 492              	.L42:
 493              		.align	2
 494              	.L41:
 495 0154 00900D40 		.word	1074630656
 496              		.cfi_endproc
 497              	.LFE13:
 499              		.align	2
 500              		.global	debugpins_isr_clr
 501              		.thumb
 502              		.thumb_func
 504              	debugpins_isr_clr:
 505              	.LFB14:
  93:build/openmote-cc2538_armgcc/bsp/boards/openmote-cc2538/debugpins.c **** void debugpins_isr_clr() {
 506              		.loc 1 93 0
 507              		.cfi_startproc
 508              		@ args = 0, pretend = 0, frame = 0
 509              		@ frame_needed = 1, uses_anonymous_args = 0
 510 0158 80B5     		push	{r7, lr}
 511              		.cfi_def_cfa_offset 8
 512              		.cfi_offset 7, -8
 513              		.cfi_offset 14, -4
 514 015a 00AF     		add	r7, sp, #0
 515              		.cfi_def_cfa_register 7
  94:build/openmote-cc2538_armgcc/bsp/boards/openmote-cc2538/debugpins.c **** 	GPIOPinWrite(BSP_PINA_BASE, BSP_PINA_5, 0);
 516              		.loc 1 94 0
 517 015c 0022     		movs	r2, #0
 518 015e 2021     		movs	r1, #32
 519 0160 0248     		ldr	r0, .L44
 520 0162 FFF7FEFF 		bl	GPIOPinWrite
  95:build/openmote-cc2538_armgcc/bsp/boards/openmote-cc2538/debugpins.c **** }
 521              		.loc 1 95 0
 522 0166 00BF     		nop
 523 0168 80BD     		pop	{r7, pc}
 524              	.L45:
 525 016a 00BF     		.align	2
 526              	.L44:
 527 016c 00900D40 		.word	1074630656
 528              		.cfi_endproc
 529              	.LFE14:
 531              		.align	2
 532              		.global	debugpins_isr_set
 533              		.thumb
 534              		.thumb_func
 536              	debugpins_isr_set:
 537              	.LFB15:
  96:build/openmote-cc2538_armgcc/bsp/boards/openmote-cc2538/debugpins.c **** void debugpins_isr_set() {
 538              		.loc 1 96 0
 539              		.cfi_startproc
 540              		@ args = 0, pretend = 0, frame = 0
 541              		@ frame_needed = 1, uses_anonymous_args = 0
 542 0170 80B5     		push	{r7, lr}
 543              		.cfi_def_cfa_offset 8
 544              		.cfi_offset 7, -8
 545              		.cfi_offset 14, -4
 546 0172 00AF     		add	r7, sp, #0
 547              		.cfi_def_cfa_register 7
  97:build/openmote-cc2538_armgcc/bsp/boards/openmote-cc2538/debugpins.c **** 	GPIOPinWrite(BSP_PINA_BASE, BSP_PINA_5, BSP_PINA_5);
 548              		.loc 1 97 0
 549 0174 2022     		movs	r2, #32
 550 0176 2021     		movs	r1, #32
 551 0178 0248     		ldr	r0, .L47
 552 017a FFF7FEFF 		bl	GPIOPinWrite
  98:build/openmote-cc2538_armgcc/bsp/boards/openmote-cc2538/debugpins.c **** }
 553              		.loc 1 98 0
 554 017e 00BF     		nop
 555 0180 80BD     		pop	{r7, pc}
 556              	.L48:
 557 0182 00BF     		.align	2
 558              	.L47:
 559 0184 00900D40 		.word	1074630656
 560              		.cfi_endproc
 561              	.LFE15:
 563              		.align	2
 564              		.global	debugpins_radio_toggle
 565              		.thumb
 566              		.thumb_func
 568              	debugpins_radio_toggle:
 569              	.LFB16:
  99:build/openmote-cc2538_armgcc/bsp/boards/openmote-cc2538/debugpins.c **** 
 100:build/openmote-cc2538_armgcc/bsp/boards/openmote-cc2538/debugpins.c **** // PD0
 101:build/openmote-cc2538_armgcc/bsp/boards/openmote-cc2538/debugpins.c **** void debugpins_radio_toggle() {
 570              		.loc 1 101 0
 571              		.cfi_startproc
 572              		@ args = 0, pretend = 0, frame = 0
 573              		@ frame_needed = 1, uses_anonymous_args = 0
 574 0188 80B5     		push	{r7, lr}
 575              		.cfi_def_cfa_offset 8
 576              		.cfi_offset 7, -8
 577              		.cfi_offset 14, -4
 578 018a 00AF     		add	r7, sp, #0
 579              		.cfi_def_cfa_register 7
 102:build/openmote-cc2538_armgcc/bsp/boards/openmote-cc2538/debugpins.c **** 	bspDBpinToggle(BSP_PIND_BASE, BSP_PIND_0);
 580              		.loc 1 102 0
 581 018c 0121     		movs	r1, #1
 582 018e 0248     		ldr	r0, .L50
 583 0190 FFF7FEFF 		bl	bspDBpinToggle
 103:build/openmote-cc2538_armgcc/bsp/boards/openmote-cc2538/debugpins.c **** }
 584              		.loc 1 103 0
 585 0194 00BF     		nop
 586 0196 80BD     		pop	{r7, pc}
 587              	.L51:
 588              		.align	2
 589              	.L50:
 590 0198 00C00D40 		.word	1074642944
 591              		.cfi_endproc
 592              	.LFE16:
 594              		.align	2
 595              		.global	debugpins_radio_clr
 596              		.thumb
 597              		.thumb_func
 599              	debugpins_radio_clr:
 600              	.LFB17:
 104:build/openmote-cc2538_armgcc/bsp/boards/openmote-cc2538/debugpins.c **** void debugpins_radio_clr() {
 601              		.loc 1 104 0
 602              		.cfi_startproc
 603              		@ args = 0, pretend = 0, frame = 0
 604              		@ frame_needed = 1, uses_anonymous_args = 0
 605 019c 80B5     		push	{r7, lr}
 606              		.cfi_def_cfa_offset 8
 607              		.cfi_offset 7, -8
 608              		.cfi_offset 14, -4
 609 019e 00AF     		add	r7, sp, #0
 610              		.cfi_def_cfa_register 7
 105:build/openmote-cc2538_armgcc/bsp/boards/openmote-cc2538/debugpins.c **** 	GPIOPinWrite(BSP_PIND_BASE, BSP_PIND_0, 0);
 611              		.loc 1 105 0
 612 01a0 0022     		movs	r2, #0
 613 01a2 0121     		movs	r1, #1
 614 01a4 0248     		ldr	r0, .L53
 615 01a6 FFF7FEFF 		bl	GPIOPinWrite
 106:build/openmote-cc2538_armgcc/bsp/boards/openmote-cc2538/debugpins.c **** }
 616              		.loc 1 106 0
 617 01aa 00BF     		nop
 618 01ac 80BD     		pop	{r7, pc}
 619              	.L54:
 620 01ae 00BF     		.align	2
 621              	.L53:
 622 01b0 00C00D40 		.word	1074642944
 623              		.cfi_endproc
 624              	.LFE17:
 626              		.align	2
 627              		.global	debugpins_radio_set
 628              		.thumb
 629              		.thumb_func
 631              	debugpins_radio_set:
 632              	.LFB18:
 107:build/openmote-cc2538_armgcc/bsp/boards/openmote-cc2538/debugpins.c **** void debugpins_radio_set() {
 633              		.loc 1 107 0
 634              		.cfi_startproc
 635              		@ args = 0, pretend = 0, frame = 0
 636              		@ frame_needed = 1, uses_anonymous_args = 0
 637 01b4 80B5     		push	{r7, lr}
 638              		.cfi_def_cfa_offset 8
 639              		.cfi_offset 7, -8
 640              		.cfi_offset 14, -4
 641 01b6 00AF     		add	r7, sp, #0
 642              		.cfi_def_cfa_register 7
 108:build/openmote-cc2538_armgcc/bsp/boards/openmote-cc2538/debugpins.c **** 	GPIOPinWrite(BSP_PIND_BASE, BSP_PIND_0, BSP_PIND_0);
 643              		.loc 1 108 0
 644 01b8 0122     		movs	r2, #1
 645 01ba 0121     		movs	r1, #1
 646 01bc 0248     		ldr	r0, .L56
 647 01be FFF7FEFF 		bl	GPIOPinWrite
 109:build/openmote-cc2538_armgcc/bsp/boards/openmote-cc2538/debugpins.c **** }
 648              		.loc 1 109 0
 649 01c2 00BF     		nop
 650 01c4 80BD     		pop	{r7, pc}
 651              	.L57:
 652 01c6 00BF     		.align	2
 653              	.L56:
 654 01c8 00C00D40 		.word	1074642944
 655              		.cfi_endproc
 656              	.LFE18:
 658              		.align	2
 659              		.global	bspDBpinToggle
 660              		.thumb
 661              		.thumb_func
 663              	bspDBpinToggle:
 664              	.LFB19:
 110:build/openmote-cc2538_armgcc/bsp/boards/openmote-cc2538/debugpins.c **** 
 111:build/openmote-cc2538_armgcc/bsp/boards/openmote-cc2538/debugpins.c **** //------------ private ------------//
 112:build/openmote-cc2538_armgcc/bsp/boards/openmote-cc2538/debugpins.c **** 
 113:build/openmote-cc2538_armgcc/bsp/boards/openmote-cc2538/debugpins.c **** void bspDBpinToggle(uint32_t base, uint8_t ui8Pin)
 114:build/openmote-cc2538_armgcc/bsp/boards/openmote-cc2538/debugpins.c **** {
 665              		.loc 1 114 0
 666              		.cfi_startproc
 667              		@ args = 0, pretend = 0, frame = 16
 668              		@ frame_needed = 1, uses_anonymous_args = 0
 669 01cc 80B5     		push	{r7, lr}
 670              		.cfi_def_cfa_offset 8
 671              		.cfi_offset 7, -8
 672              		.cfi_offset 14, -4
 673 01ce 84B0     		sub	sp, sp, #16
 674              		.cfi_def_cfa_offset 24
 675 01d0 00AF     		add	r7, sp, #0
 676              		.cfi_def_cfa_register 7
 677 01d2 7860     		str	r0, [r7, #4]
 678 01d4 0B46     		mov	r3, r1
 679 01d6 FB70     		strb	r3, [r7, #3]
 115:build/openmote-cc2538_armgcc/bsp/boards/openmote-cc2538/debugpins.c ****     //
 116:build/openmote-cc2538_armgcc/bsp/boards/openmote-cc2538/debugpins.c ****     // Get current pin values of selected bits
 117:build/openmote-cc2538_armgcc/bsp/boards/openmote-cc2538/debugpins.c ****     //
 118:build/openmote-cc2538_armgcc/bsp/boards/openmote-cc2538/debugpins.c ****     uint32_t ui32Toggle = GPIOPinRead(base, ui8Pin);
 680              		.loc 1 118 0
 681 01d8 FB78     		ldrb	r3, [r7, #3]	@ zero_extendqisi2
 682 01da 1946     		mov	r1, r3
 683 01dc 7868     		ldr	r0, [r7, #4]
 684 01de FFF7FEFF 		bl	GPIOPinRead
 685 01e2 F860     		str	r0, [r7, #12]
 119:build/openmote-cc2538_armgcc/bsp/boards/openmote-cc2538/debugpins.c **** 
 120:build/openmote-cc2538_armgcc/bsp/boards/openmote-cc2538/debugpins.c ****     //
 121:build/openmote-cc2538_armgcc/bsp/boards/openmote-cc2538/debugpins.c ****     // Invert selected bits
 122:build/openmote-cc2538_armgcc/bsp/boards/openmote-cc2538/debugpins.c ****     //
 123:build/openmote-cc2538_armgcc/bsp/boards/openmote-cc2538/debugpins.c ****     ui32Toggle = (~ui32Toggle) & ui8Pin;
 686              		.loc 1 123 0
 687 01e4 FB68     		ldr	r3, [r7, #12]
 688 01e6 DA43     		mvns	r2, r3
 689 01e8 FB78     		ldrb	r3, [r7, #3]	@ zero_extendqisi2
 690 01ea 1340     		ands	r3, r3, r2
 691 01ec FB60     		str	r3, [r7, #12]
 124:build/openmote-cc2538_armgcc/bsp/boards/openmote-cc2538/debugpins.c **** 
 125:build/openmote-cc2538_armgcc/bsp/boards/openmote-cc2538/debugpins.c ****     //
 126:build/openmote-cc2538_armgcc/bsp/boards/openmote-cc2538/debugpins.c ****     // Set GPIO
 127:build/openmote-cc2538_armgcc/bsp/boards/openmote-cc2538/debugpins.c ****     //
 128:build/openmote-cc2538_armgcc/bsp/boards/openmote-cc2538/debugpins.c ****     GPIOPinWrite(base, ui8Pin, ui32Toggle);
 692              		.loc 1 128 0
 693 01ee FB68     		ldr	r3, [r7, #12]
 694 01f0 DAB2     		uxtb	r2, r3
 695 01f2 FB78     		ldrb	r3, [r7, #3]	@ zero_extendqisi2
 696 01f4 1946     		mov	r1, r3
 697 01f6 7868     		ldr	r0, [r7, #4]
 698 01f8 FFF7FEFF 		bl	GPIOPinWrite
 129:build/openmote-cc2538_armgcc/bsp/boards/openmote-cc2538/debugpins.c **** }
 699              		.loc 1 129 0
 700 01fc 00BF     		nop
 701 01fe 1037     		adds	r7, r7, #16
 702              		.cfi_def_cfa_offset 8
 703 0200 BD46     		mov	sp, r7
 704              		.cfi_def_cfa_register 13
 705              		@ sp needed
 706 0202 80BD     		pop	{r7, pc}
 707              		.cfi_endproc
 708              	.LFE19:
 710              	.Letext0:
 711              		.file 2 "/usr/include/newlib/machine/_default_types.h"
 712              		.file 3 "/usr/include/newlib/sys/_stdint.h"
 713              		.file 4 "bsp/boards/openmote-cc2538/board_info.h"