   1              		.syntax unified
   2              		.cpu cortex-m3
   3              		.fpu softvfp
   4              		.eabi_attribute 20, 1
   5              		.eabi_attribute 21, 1
   6              		.eabi_attribute 23, 3
   7              		.eabi_attribute 24, 1
   8              		.eabi_attribute 25, 1
   9              		.eabi_attribute 26, 1
  10              		.eabi_attribute 30, 6
  11              		.eabi_attribute 34, 1
  12              		.eabi_attribute 18, 4
  13              		.thumb
  14              		.syntax unified
  15              		.file	"sctimer.c"
  16              		.text
  17              	.Ltext0:
  18              		.cfi_sections	.debug_frame
  19              		.section	.rodata
  20              		.align	2
  23              	rreg_uriquery:
  24 0000 683D7563 		.ascii	"h=ucb\000"
  24      6200
  25 0006 0000     		.align	2
  28              	infoBoardname:
  29 0008 43433235 		.ascii	"CC2538\000"
  29      333800
  30 000f 00       		.align	2
  33              	infouCName:
  34 0010 43433235 		.ascii	"CC2538\000"
  34      333800
  35 0017 00       		.align	2
  38              	infoRadioName:
  39 0018 43433235 		.ascii	"CC2538 SoC\000"
  39      33382053 
  39      6F4300
  40              		.comm	sctimer_vars,4,4
  41              		.text
  42              		.align	2
  43              		.global	sctimer_init
  44              		.thumb
  45              		.thumb_func
  47              	sctimer_init:
  48              	.LFB0:
  49              		.file 1 "build/openmote-cc2538_armgcc/bsp/boards/openmote-cc2538/sctimer.c"
   1:build/openmote-cc2538_armgcc/bsp/boards/openmote-cc2538/sctimer.c **** /**
   2:build/openmote-cc2538_armgcc/bsp/boards/openmote-cc2538/sctimer.c **** \brief A timer module with only a single compare value. 
   3:build/openmote-cc2538_armgcc/bsp/boards/openmote-cc2538/sctimer.c **** 
   4:build/openmote-cc2538_armgcc/bsp/boards/openmote-cc2538/sctimer.c **** \author Tengfei Chang     <tengfei.chang@inria.fr> April 2017
   5:build/openmote-cc2538_armgcc/bsp/boards/openmote-cc2538/sctimer.c **** */
   6:build/openmote-cc2538_armgcc/bsp/boards/openmote-cc2538/sctimer.c **** 
   7:build/openmote-cc2538_armgcc/bsp/boards/openmote-cc2538/sctimer.c **** #include "board_info.h"
   8:build/openmote-cc2538_armgcc/bsp/boards/openmote-cc2538/sctimer.c **** #include "sctimer.h"
   9:build/openmote-cc2538_armgcc/bsp/boards/openmote-cc2538/sctimer.c **** #include "sleepmode.h"
  10:build/openmote-cc2538_armgcc/bsp/boards/openmote-cc2538/sctimer.c **** #include "debugpins.h"
  11:build/openmote-cc2538_armgcc/bsp/boards/openmote-cc2538/sctimer.c **** #include <headers/hw_ints.h>
  12:build/openmote-cc2538_armgcc/bsp/boards/openmote-cc2538/sctimer.c **** 
  13:build/openmote-cc2538_armgcc/bsp/boards/openmote-cc2538/sctimer.c **** // ========================== define ==========================================
  14:build/openmote-cc2538_armgcc/bsp/boards/openmote-cc2538/sctimer.c **** 
  15:build/openmote-cc2538_armgcc/bsp/boards/openmote-cc2538/sctimer.c **** #define TIMERLOOP_THRESHOLD          0xffffff     // 511 seconds @ 32768Hz clock
  16:build/openmote-cc2538_armgcc/bsp/boards/openmote-cc2538/sctimer.c **** #define MINIMUM_COMPAREVALE_ADVANCE  10
  17:build/openmote-cc2538_armgcc/bsp/boards/openmote-cc2538/sctimer.c **** 
  18:build/openmote-cc2538_armgcc/bsp/boards/openmote-cc2538/sctimer.c **** // ========================== variable ========================================
  19:build/openmote-cc2538_armgcc/bsp/boards/openmote-cc2538/sctimer.c **** 
  20:build/openmote-cc2538_armgcc/bsp/boards/openmote-cc2538/sctimer.c **** typedef struct {
  21:build/openmote-cc2538_armgcc/bsp/boards/openmote-cc2538/sctimer.c ****     sctimer_cbt sctimer_cb;
  22:build/openmote-cc2538_armgcc/bsp/boards/openmote-cc2538/sctimer.c **** } sctimer_vars_t;
  23:build/openmote-cc2538_armgcc/bsp/boards/openmote-cc2538/sctimer.c **** 
  24:build/openmote-cc2538_armgcc/bsp/boards/openmote-cc2538/sctimer.c **** sctimer_vars_t sctimer_vars;
  25:build/openmote-cc2538_armgcc/bsp/boards/openmote-cc2538/sctimer.c **** 
  26:build/openmote-cc2538_armgcc/bsp/boards/openmote-cc2538/sctimer.c **** 
  27:build/openmote-cc2538_armgcc/bsp/boards/openmote-cc2538/sctimer.c **** // ========================== private =========================================
  28:build/openmote-cc2538_armgcc/bsp/boards/openmote-cc2538/sctimer.c **** 
  29:build/openmote-cc2538_armgcc/bsp/boards/openmote-cc2538/sctimer.c **** void sctimer_isr_internal(void);
  30:build/openmote-cc2538_armgcc/bsp/boards/openmote-cc2538/sctimer.c **** 
  31:build/openmote-cc2538_armgcc/bsp/boards/openmote-cc2538/sctimer.c **** // ========================== protocol =========================================
  32:build/openmote-cc2538_armgcc/bsp/boards/openmote-cc2538/sctimer.c **** 
  33:build/openmote-cc2538_armgcc/bsp/boards/openmote-cc2538/sctimer.c **** /**
  34:build/openmote-cc2538_armgcc/bsp/boards/openmote-cc2538/sctimer.c **** \brief Initialization sctimer.
  35:build/openmote-cc2538_armgcc/bsp/boards/openmote-cc2538/sctimer.c **** */
  36:build/openmote-cc2538_armgcc/bsp/boards/openmote-cc2538/sctimer.c **** void sctimer_init(void){
  50              		.loc 1 36 0
  51              		.cfi_startproc
  52              		@ args = 0, pretend = 0, frame = 0
  53              		@ frame_needed = 1, uses_anonymous_args = 0
  54 0000 80B5     		push	{r7, lr}
  55              		.cfi_def_cfa_offset 8
  56              		.cfi_offset 7, -8
  57              		.cfi_offset 14, -4
  58 0002 00AF     		add	r7, sp, #0
  59              		.cfi_def_cfa_register 7
  37:build/openmote-cc2538_armgcc/bsp/boards/openmote-cc2538/sctimer.c ****     memset(&sctimer_vars, 0, sizeof(sctimer_vars_t));
  60              		.loc 1 37 0
  61 0004 0422     		movs	r2, #4
  62 0006 0021     		movs	r1, #0
  63 0008 0548     		ldr	r0, .L2
  64 000a FFF7FEFF 		bl	memset
  38:build/openmote-cc2538_armgcc/bsp/boards/openmote-cc2538/sctimer.c ****     IntRegister(INT_SMTIM, sctimer_isr_internal);
  65              		.loc 1 38 0
  66 000e 0549     		ldr	r1, .L2+4
  67 0010 A120     		movs	r0, #161
  68 0012 FFF7FEFF 		bl	IntRegister
  39:build/openmote-cc2538_armgcc/bsp/boards/openmote-cc2538/sctimer.c ****     IntDisable(INT_SMTIM);
  69              		.loc 1 39 0
  70 0016 A120     		movs	r0, #161
  71 0018 FFF7FEFF 		bl	IntDisable
  40:build/openmote-cc2538_armgcc/bsp/boards/openmote-cc2538/sctimer.c **** }
  72              		.loc 1 40 0
  73 001c 00BF     		nop
  74 001e 80BD     		pop	{r7, pc}
  75              	.L3:
  76              		.align	2
  77              	.L2:
  78 0020 00000000 		.word	sctimer_vars
  79 0024 00000000 		.word	sctimer_isr_internal
  80              		.cfi_endproc
  81              	.LFE0:
  83              		.align	2
  84              		.global	sctimer_set_callback
  85              		.thumb
  86              		.thumb_func
  88              	sctimer_set_callback:
  89              	.LFB1:
  41:build/openmote-cc2538_armgcc/bsp/boards/openmote-cc2538/sctimer.c **** 
  42:build/openmote-cc2538_armgcc/bsp/boards/openmote-cc2538/sctimer.c **** void sctimer_set_callback(sctimer_cbt cb){
  90              		.loc 1 42 0
  91              		.cfi_startproc
  92              		@ args = 0, pretend = 0, frame = 8
  93              		@ frame_needed = 1, uses_anonymous_args = 0
  94              		@ link register save eliminated.
  95 0028 80B4     		push	{r7}
  96              		.cfi_def_cfa_offset 4
  97              		.cfi_offset 7, -4
  98 002a 83B0     		sub	sp, sp, #12
  99              		.cfi_def_cfa_offset 16
 100 002c 00AF     		add	r7, sp, #0
 101              		.cfi_def_cfa_register 7
 102 002e 7860     		str	r0, [r7, #4]
  43:build/openmote-cc2538_armgcc/bsp/boards/openmote-cc2538/sctimer.c ****     sctimer_vars.sctimer_cb = cb;
 103              		.loc 1 43 0
 104 0030 034A     		ldr	r2, .L5
 105 0032 7B68     		ldr	r3, [r7, #4]
 106 0034 1360     		str	r3, [r2]
  44:build/openmote-cc2538_armgcc/bsp/boards/openmote-cc2538/sctimer.c **** }
 107              		.loc 1 44 0
 108 0036 00BF     		nop
 109 0038 0C37     		adds	r7, r7, #12
 110              		.cfi_def_cfa_offset 4
 111 003a BD46     		mov	sp, r7
 112              		.cfi_def_cfa_register 13
 113              		@ sp needed
 114 003c 80BC     		pop	{r7}
 115              		.cfi_restore 7
 116              		.cfi_def_cfa_offset 0
 117 003e 7047     		bx	lr
 118              	.L6:
 119              		.align	2
 120              	.L5:
 121 0040 00000000 		.word	sctimer_vars
 122              		.cfi_endproc
 123              	.LFE1:
 125              		.align	2
 126              		.global	sctimer_setCompare
 127              		.thumb
 128              		.thumb_func
 130              	sctimer_setCompare:
 131              	.LFB2:
  45:build/openmote-cc2538_armgcc/bsp/boards/openmote-cc2538/sctimer.c **** 
  46:build/openmote-cc2538_armgcc/bsp/boards/openmote-cc2538/sctimer.c **** /**
  47:build/openmote-cc2538_armgcc/bsp/boards/openmote-cc2538/sctimer.c **** \brief set compare interrupt
  48:build/openmote-cc2538_armgcc/bsp/boards/openmote-cc2538/sctimer.c **** */
  49:build/openmote-cc2538_armgcc/bsp/boards/openmote-cc2538/sctimer.c **** void sctimer_setCompare(uint32_t val){
 132              		.loc 1 49 0
 133              		.cfi_startproc
 134              		@ args = 0, pretend = 0, frame = 8
 135              		@ frame_needed = 1, uses_anonymous_args = 0
 136 0044 80B5     		push	{r7, lr}
 137              		.cfi_def_cfa_offset 8
 138              		.cfi_offset 7, -8
 139              		.cfi_offset 14, -4
 140 0046 82B0     		sub	sp, sp, #8
 141              		.cfi_def_cfa_offset 16
 142 0048 00AF     		add	r7, sp, #0
 143              		.cfi_def_cfa_register 7
 144 004a 7860     		str	r0, [r7, #4]
  50:build/openmote-cc2538_armgcc/bsp/boards/openmote-cc2538/sctimer.c ****     IntEnable(INT_SMTIM);
 145              		.loc 1 50 0
 146 004c A120     		movs	r0, #161
 147 004e FFF7FEFF 		bl	IntEnable
  51:build/openmote-cc2538_armgcc/bsp/boards/openmote-cc2538/sctimer.c ****     if (SleepModeTimerCountGet() - val < TIMERLOOP_THRESHOLD){
 148              		.loc 1 51 0
 149 0052 FFF7FEFF 		bl	SleepModeTimerCountGet
 150 0056 0246     		mov	r2, r0
 151 0058 7B68     		ldr	r3, [r7, #4]
 152 005a D31A     		subs	r3, r2, r3
 153 005c 0C4A     		ldr	r2, .L12
 154 005e 9342     		cmp	r3, r2
 155 0060 03D8     		bhi	.L8
  52:build/openmote-cc2538_armgcc/bsp/boards/openmote-cc2538/sctimer.c ****         // the timer is already late, schedule the ISR right now manually 
  53:build/openmote-cc2538_armgcc/bsp/boards/openmote-cc2538/sctimer.c ****         IntPendSet(INT_SMTIM);
 156              		.loc 1 53 0
 157 0062 A120     		movs	r0, #161
 158 0064 FFF7FEFF 		bl	IntPendSet
  54:build/openmote-cc2538_armgcc/bsp/boards/openmote-cc2538/sctimer.c ****     } else {
  55:build/openmote-cc2538_armgcc/bsp/boards/openmote-cc2538/sctimer.c ****         if (val-SleepModeTimerCountGet()<MINIMUM_COMPAREVALE_ADVANCE){
  56:build/openmote-cc2538_armgcc/bsp/boards/openmote-cc2538/sctimer.c ****             // there is hardware limitation to schedule the timer within TIMERTHRESHOLD ticks
  57:build/openmote-cc2538_armgcc/bsp/boards/openmote-cc2538/sctimer.c ****             // schedule ISR right now manually
  58:build/openmote-cc2538_armgcc/bsp/boards/openmote-cc2538/sctimer.c ****             IntPendSet(INT_SMTIM);
  59:build/openmote-cc2538_armgcc/bsp/boards/openmote-cc2538/sctimer.c ****         } else {
  60:build/openmote-cc2538_armgcc/bsp/boards/openmote-cc2538/sctimer.c ****             // schedule the timer at val
  61:build/openmote-cc2538_armgcc/bsp/boards/openmote-cc2538/sctimer.c ****             SleepModeTimerCompareSet(val);
  62:build/openmote-cc2538_armgcc/bsp/boards/openmote-cc2538/sctimer.c ****         }
  63:build/openmote-cc2538_armgcc/bsp/boards/openmote-cc2538/sctimer.c ****     }
  64:build/openmote-cc2538_armgcc/bsp/boards/openmote-cc2538/sctimer.c **** }
 159              		.loc 1 64 0
 160 0068 0DE0     		b	.L11
 161              	.L8:
  55:build/openmote-cc2538_armgcc/bsp/boards/openmote-cc2538/sctimer.c ****             // there is hardware limitation to schedule the timer within TIMERTHRESHOLD ticks
 162              		.loc 1 55 0
 163 006a FFF7FEFF 		bl	SleepModeTimerCountGet
 164 006e 0246     		mov	r2, r0
 165 0070 7B68     		ldr	r3, [r7, #4]
 166 0072 9B1A     		subs	r3, r3, r2
 167 0074 092B     		cmp	r3, #9
 168 0076 03D8     		bhi	.L10
  58:build/openmote-cc2538_armgcc/bsp/boards/openmote-cc2538/sctimer.c ****         } else {
 169              		.loc 1 58 0
 170 0078 A120     		movs	r0, #161
 171 007a FFF7FEFF 		bl	IntPendSet
 172              		.loc 1 64 0
 173 007e 02E0     		b	.L11
 174              	.L10:
  61:build/openmote-cc2538_armgcc/bsp/boards/openmote-cc2538/sctimer.c ****         }
 175              		.loc 1 61 0
 176 0080 7868     		ldr	r0, [r7, #4]
 177 0082 FFF7FEFF 		bl	SleepModeTimerCompareSet
 178              	.L11:
 179              		.loc 1 64 0
 180 0086 00BF     		nop
 181 0088 0837     		adds	r7, r7, #8
 182              		.cfi_def_cfa_offset 8
 183 008a BD46     		mov	sp, r7
 184              		.cfi_def_cfa_register 13
 185              		@ sp needed
 186 008c 80BD     		pop	{r7, pc}
 187              	.L13:
 188 008e 00BF     		.align	2
 189              	.L12:
 190 0090 FEFFFF00 		.word	16777214
 191              		.cfi_endproc
 192              	.LFE2:
 194              		.align	2
 195              		.global	sctimer_readCounter
 196              		.thumb
 197              		.thumb_func
 199              	sctimer_readCounter:
 200              	.LFB3:
  65:build/openmote-cc2538_armgcc/bsp/boards/openmote-cc2538/sctimer.c **** 
  66:build/openmote-cc2538_armgcc/bsp/boards/openmote-cc2538/sctimer.c **** /**
  67:build/openmote-cc2538_armgcc/bsp/boards/openmote-cc2538/sctimer.c **** \brief Return the current value of the timer's counter.
  68:build/openmote-cc2538_armgcc/bsp/boards/openmote-cc2538/sctimer.c **** 
  69:build/openmote-cc2538_armgcc/bsp/boards/openmote-cc2538/sctimer.c ****  \returns The current value of the timer's counter.
  70:build/openmote-cc2538_armgcc/bsp/boards/openmote-cc2538/sctimer.c **** */
  71:build/openmote-cc2538_armgcc/bsp/boards/openmote-cc2538/sctimer.c **** uint32_t sctimer_readCounter(void){
 201              		.loc 1 71 0
 202              		.cfi_startproc
 203              		@ args = 0, pretend = 0, frame = 0
 204              		@ frame_needed = 1, uses_anonymous_args = 0
 205 0094 80B5     		push	{r7, lr}
 206              		.cfi_def_cfa_offset 8
 207              		.cfi_offset 7, -8
 208              		.cfi_offset 14, -4
 209 0096 00AF     		add	r7, sp, #0
 210              		.cfi_def_cfa_register 7
  72:build/openmote-cc2538_armgcc/bsp/boards/openmote-cc2538/sctimer.c ****   return SleepModeTimerCountGet();
 211              		.loc 1 72 0
 212 0098 FFF7FEFF 		bl	SleepModeTimerCountGet
 213 009c 0346     		mov	r3, r0
  73:build/openmote-cc2538_armgcc/bsp/boards/openmote-cc2538/sctimer.c **** }
 214              		.loc 1 73 0
 215 009e 1846     		mov	r0, r3
 216 00a0 80BD     		pop	{r7, pc}
 217              		.cfi_endproc
 218              	.LFE3:
 220 00a2 00BF     		.align	2
 221              		.global	sctimer_enable
 222              		.thumb
 223              		.thumb_func
 225              	sctimer_enable:
 226              	.LFB4:
  74:build/openmote-cc2538_armgcc/bsp/boards/openmote-cc2538/sctimer.c **** 
  75:build/openmote-cc2538_armgcc/bsp/boards/openmote-cc2538/sctimer.c **** void sctimer_enable(void){
 227              		.loc 1 75 0
 228              		.cfi_startproc
 229              		@ args = 0, pretend = 0, frame = 0
 230              		@ frame_needed = 1, uses_anonymous_args = 0
 231 00a4 80B5     		push	{r7, lr}
 232              		.cfi_def_cfa_offset 8
 233              		.cfi_offset 7, -8
 234              		.cfi_offset 14, -4
 235 00a6 00AF     		add	r7, sp, #0
 236              		.cfi_def_cfa_register 7
  76:build/openmote-cc2538_armgcc/bsp/boards/openmote-cc2538/sctimer.c ****     IntEnable(INT_SMTIM);
 237              		.loc 1 76 0
 238 00a8 A120     		movs	r0, #161
 239 00aa FFF7FEFF 		bl	IntEnable
  77:build/openmote-cc2538_armgcc/bsp/boards/openmote-cc2538/sctimer.c **** }
 240              		.loc 1 77 0
 241 00ae 00BF     		nop
 242 00b0 80BD     		pop	{r7, pc}
 243              		.cfi_endproc
 244              	.LFE4:
 246 00b2 00BF     		.align	2
 247              		.global	sctimer_disable
 248              		.thumb
 249              		.thumb_func
 251              	sctimer_disable:
 252              	.LFB5:
  78:build/openmote-cc2538_armgcc/bsp/boards/openmote-cc2538/sctimer.c **** 
  79:build/openmote-cc2538_armgcc/bsp/boards/openmote-cc2538/sctimer.c **** void sctimer_disable(void){
 253              		.loc 1 79 0
 254              		.cfi_startproc
 255              		@ args = 0, pretend = 0, frame = 0
 256              		@ frame_needed = 1, uses_anonymous_args = 0
 257 00b4 80B5     		push	{r7, lr}
 258              		.cfi_def_cfa_offset 8
 259              		.cfi_offset 7, -8
 260              		.cfi_offset 14, -4
 261 00b6 00AF     		add	r7, sp, #0
 262              		.cfi_def_cfa_register 7
  80:build/openmote-cc2538_armgcc/bsp/boards/openmote-cc2538/sctimer.c ****     IntDisable(INT_SMTIM);
 263              		.loc 1 80 0
 264 00b8 A120     		movs	r0, #161
 265 00ba FFF7FEFF 		bl	IntDisable
  81:build/openmote-cc2538_armgcc/bsp/boards/openmote-cc2538/sctimer.c **** }
 266              		.loc 1 81 0
 267 00be 00BF     		nop
 268 00c0 80BD     		pop	{r7, pc}
 269              		.cfi_endproc
 270              	.LFE5:
 272 00c2 00BF     		.align	2
 273              		.global	sctimer_isr_internal
 274              		.thumb
 275              		.thumb_func
 277              	sctimer_isr_internal:
 278              	.LFB6:
  82:build/openmote-cc2538_armgcc/bsp/boards/openmote-cc2538/sctimer.c **** 
  83:build/openmote-cc2538_armgcc/bsp/boards/openmote-cc2538/sctimer.c **** // ========================== private =========================================
  84:build/openmote-cc2538_armgcc/bsp/boards/openmote-cc2538/sctimer.c **** 
  85:build/openmote-cc2538_armgcc/bsp/boards/openmote-cc2538/sctimer.c **** void sctimer_isr_internal(void){
 279              		.loc 1 85 0
 280              		.cfi_startproc
 281              		@ args = 0, pretend = 0, frame = 0
 282              		@ frame_needed = 1, uses_anonymous_args = 0
 283 00c4 80B5     		push	{r7, lr}
 284              		.cfi_def_cfa_offset 8
 285              		.cfi_offset 7, -8
 286              		.cfi_offset 14, -4
 287 00c6 00AF     		add	r7, sp, #0
 288              		.cfi_def_cfa_register 7
  86:build/openmote-cc2538_armgcc/bsp/boards/openmote-cc2538/sctimer.c ****     debugpins_isr_set();
 289              		.loc 1 86 0
 290 00c8 FFF7FEFF 		bl	debugpins_isr_set
  87:build/openmote-cc2538_armgcc/bsp/boards/openmote-cc2538/sctimer.c ****     if (sctimer_vars.sctimer_cb!=NULL) {
 291              		.loc 1 87 0
 292 00cc 074B     		ldr	r3, .L20
 293 00ce 1B68     		ldr	r3, [r3]
 294 00d0 002B     		cmp	r3, #0
 295 00d2 07D0     		beq	.L19
  88:build/openmote-cc2538_armgcc/bsp/boards/openmote-cc2538/sctimer.c ****         IntPendClear(INT_SMTIM);
 296              		.loc 1 88 0
 297 00d4 A120     		movs	r0, #161
 298 00d6 FFF7FEFF 		bl	IntPendClear
  89:build/openmote-cc2538_armgcc/bsp/boards/openmote-cc2538/sctimer.c ****         sctimer_vars.sctimer_cb();
 299              		.loc 1 89 0
 300 00da 044B     		ldr	r3, .L20
 301 00dc 1B68     		ldr	r3, [r3]
 302 00de 9847     		blx	r3
  90:build/openmote-cc2538_armgcc/bsp/boards/openmote-cc2538/sctimer.c ****         debugpins_isr_clr();
 303              		.loc 1 90 0
 304 00e0 FFF7FEFF 		bl	debugpins_isr_clr
 305              	.L19:
  91:build/openmote-cc2538_armgcc/bsp/boards/openmote-cc2538/sctimer.c ****     }
  92:build/openmote-cc2538_armgcc/bsp/boards/openmote-cc2538/sctimer.c ****     debugpins_isr_clr();
 306              		.loc 1 92 0
 307 00e4 FFF7FEFF 		bl	debugpins_isr_clr
  93:build/openmote-cc2538_armgcc/bsp/boards/openmote-cc2538/sctimer.c **** }...
 308              		.loc 1 93 0
 309 00e8 00BF     		nop
 310 00ea 80BD     		pop	{r7, pc}
 311              	.L21:
 312              		.align	2
 313              	.L20:
 314 00ec 00000000 		.word	sctimer_vars
 315              		.cfi_endproc
 316              	.LFE6:
 318              	.Letext0:
 319              		.file 2 "/usr/include/newlib/machine/_default_types.h"
 320              		.file 3 "/usr/include/newlib/sys/_stdint.h"
 321              		.file 4 "bsp/boards/sctimer.h"
 322              		.file 5 "build/openmote-cc2538_armgcc/bsp/boards/openmote-cc2538/board_info.h"