   1              		.syntax unified
   2              		.cpu cortex-m3
   3              		.fpu softvfp
   4              		.eabi_attribute 20, 1
   5              		.eabi_attribute 21, 1
   6              		.eabi_attribute 23, 3
   7              		.eabi_attribute 24, 1
   8              		.eabi_attribute 25, 1
   9              		.eabi_attribute 26, 1
  10              		.eabi_attribute 30, 6
  11              		.eabi_attribute 34, 1
  12              		.eabi_attribute 18, 4
  13              		.thumb
  14              		.syntax unified
  15              		.file	"openserial.c"
  16              		.text
  17              	.Ltext0:
  18              		.cfi_sections	.debug_frame
  19              		.section	.rodata
  20              		.align	2
  23              	rreg_uriquery:
  24 0000 683D7563 		.ascii	"h=ucb\000"
  24      6200
  25 0006 0000     		.align	2
  28              	infoBoardname:
  29 0008 43433235 		.ascii	"CC2538\000"
  29      333800
  30 000f 00       		.align	2
  33              	infouCName:
  34 0010 43433235 		.ascii	"CC2538\000"
  34      333800
  35 0017 00       		.align	2
  38              	infoRadioName:
  39 0018 43433235 		.ascii	"CC2538 SoC\000"
  39      33382053 
  39      6F4300
  40 0023 00       		.align	2
  43              	infoStackName:
  44 0024 4F70656E 		.ascii	"OpenWSN \000"
  44      57534E20 
  44      00
  45 002d 000000   		.align	2
  48              	chTemplate_default:
  49 0030 05       		.byte	5
  50 0031 06       		.byte	6
  51 0032 0C       		.byte	12
  52 0033 07       		.byte	7
  53 0034 0F       		.byte	15
  54 0035 04       		.byte	4
  55 0036 0E       		.byte	14
  56 0037 0B       		.byte	11
  57 0038 08       		.byte	8
  58 0039 00       		.byte	0
  59 003a 01       		.byte	1
  60 003b 02       		.byte	2
  61 003c 0D       		.byte	13
  62 003d 03       		.byte	3
  63 003e 09       		.byte	9
  64 003f 0A       		.byte	10
  65              		.align	2
  68              	ebIEsBytestream:
  69 0040 1A       		.byte	26
  70 0041 88       		.byte	-120
  71 0042 06       		.byte	6
  72 0043 1A       		.byte	26
  73 0044 00       		.byte	0
  74 0045 00       		.byte	0
  75 0046 00       		.byte	0
  76 0047 00       		.byte	0
  77 0048 00       		.byte	0
  78 0049 00       		.byte	0
  79 004a 01       		.byte	1
  80 004b 1C       		.byte	28
  81 004c 00       		.byte	0
  82 004d 01       		.byte	1
  83 004e C8       		.byte	-56
  84 004f 00       		.byte	0
  85 0050 0A       		.byte	10
  86 0051 1B       		.byte	27
  87 0052 01       		.byte	1
  88 0053 00       		.byte	0
  89 0054 17       		.byte	23
  90 0055 00       		.byte	0
  91 0056 01       		.byte	1
  92 0057 00       		.byte	0
  93 0058 00       		.byte	0
  94 0059 00       		.byte	0
  95 005a 00       		.byte	0
  96 005b 0F       		.byte	15
  97              		.align	2
 100              	all_routers_multicast:
 101 005c FF       		.byte	-1
 102 005d 02       		.byte	2
 103 005e 00       		.byte	0
 104 005f 00       		.byte	0
 105 0060 00       		.byte	0
 106 0061 00       		.byte	0
 107 0062 00       		.byte	0
 108 0063 00       		.byte	0
 109 0064 00       		.byte	0
 110 0065 00       		.byte	0
 111 0066 00       		.byte	0
 112 0067 00       		.byte	0
 113 0068 00       		.byte	0
 114 0069 00       		.byte	0
 115 006a 00       		.byte	0
 116 006b 1A       		.byte	26
 117              		.align	2
 120              	linklocalprefix:
 121 006c FE       		.byte	-2
 122 006d 80       		.byte	-128
 123 006e 00       		.byte	0
 124 006f 00       		.byte	0
 125 0070 00       		.byte	0
 126 0071 00       		.byte	0
 127 0072 00       		.byte	0
 128 0073 00       		.byte	0
 129              		.align	2
 132              	fcstab:
 133 0074 0000     		.short	0
 134 0076 8911     		.short	4489
 135 0078 1223     		.short	8978
 136 007a 9B32     		.short	12955
 137 007c 2446     		.short	17956
 138 007e AD57     		.short	22445
 139 0080 3665     		.short	25910
 140 0082 BF74     		.short	29887
 141 0084 488C     		.short	-29624
 142 0086 C19D     		.short	-25151
 143 0088 5AAF     		.short	-20646
 144 008a D3BE     		.short	-16685
 145 008c 6CCA     		.short	-13716
 146 008e E5DB     		.short	-9243
 147 0090 7EE9     		.short	-5762
 148 0092 F7F8     		.short	-1801
 149 0094 8110     		.short	4225
 150 0096 0801     		.short	264
 151 0098 9333     		.short	13203
 152 009a 1A22     		.short	8730
 153 009c A556     		.short	22181
 154 009e 2C47     		.short	18220
 155 00a0 B775     		.short	30135
 156 00a2 3E64     		.short	25662
 157 00a4 C99C     		.short	-25399
 158 00a6 408D     		.short	-29376
 159 00a8 DBBF     		.short	-16421
 160 00aa 52AE     		.short	-20910
 161 00ac EDDA     		.short	-9491
 162 00ae 64CB     		.short	-13468
 163 00b0 FFF9     		.short	-1537
 164 00b2 76E8     		.short	-6026
 165 00b4 0221     		.short	8450
 166 00b6 8B30     		.short	12427
 167 00b8 1002     		.short	528
 168 00ba 9913     		.short	5017
 169 00bc 2667     		.short	26406
 170 00be AF76     		.short	30383
 171 00c0 3444     		.short	17460
 172 00c2 BD55     		.short	21949
 173 00c4 4AAD     		.short	-21174
 174 00c6 C3BC     		.short	-17213
 175 00c8 588E     		.short	-29096
 176 00ca D19F     		.short	-24623
 177 00cc 6EEB     		.short	-5266
 178 00ce E7FA     		.short	-1305
 179 00d0 7CC8     		.short	-14212
 180 00d2 F5D9     		.short	-9739
 181 00d4 8331     		.short	12675
 182 00d6 0A20     		.short	8202
 183 00d8 9112     		.short	4753
 184 00da 1803     		.short	792
 185 00dc A777     		.short	30631
 186 00de 2E66     		.short	26158
 187 00e0 B554     		.short	21685
 188 00e2 3C45     		.short	17724
 189 00e4 CBBD     		.short	-16949
 190 00e6 42AC     		.short	-21438
 191 00e8 D99E     		.short	-24871
 192 00ea 508F     		.short	-28848
 193 00ec EFFB     		.short	-1041
 194 00ee 66EA     		.short	-5530
 195 00f0 FDD8     		.short	-9987
 196 00f2 74C9     		.short	-13964
 197 00f4 0442     		.short	16900
 198 00f6 8D53     		.short	21389
 199 00f8 1661     		.short	24854
 200 00fa 9F70     		.short	28831
 201 00fc 2004     		.short	1056
 202 00fe A915     		.short	5545
 203 0100 3227     		.short	10034
 204 0102 BB36     		.short	14011
 205 0104 4CCE     		.short	-12724
 206 0106 C5DF     		.short	-8251
 207 0108 5EED     		.short	-4770
 208 010a D7FC     		.short	-809
 209 010c 6888     		.short	-30616
 210 010e E199     		.short	-26143
 211 0110 7AAB     		.short	-21638
 212 0112 F3BA     		.short	-17677
 213 0114 8552     		.short	21125
 214 0116 0C43     		.short	17164
 215 0118 9771     		.short	29079
 216 011a 1E60     		.short	24606
 217 011c A114     		.short	5281
 218 011e 2805     		.short	1320
 219 0120 B337     		.short	14259
 220 0122 3A26     		.short	9786
 221 0124 CDDE     		.short	-8499
 222 0126 44CF     		.short	-12476
 223 0128 DFFD     		.short	-545
 224 012a 56EC     		.short	-5034
 225 012c E998     		.short	-26391
 226 012e 6089     		.short	-30368
 227 0130 FBBB     		.short	-17413
 228 0132 72AA     		.short	-21902
 229 0134 0663     		.short	25350
 230 0136 8F72     		.short	29327
 231 0138 1440     		.short	16404
 232 013a 9D51     		.short	20893
 233 013c 2225     		.short	9506
 234 013e AB34     		.short	13483
 235 0140 3006     		.short	1584
 236 0142 B917     		.short	6073
 237 0144 4EEF     		.short	-4274
 238 0146 C7FE     		.short	-313
 239 0148 5CCC     		.short	-13220
 240 014a D5DD     		.short	-8747
 241 014c 6AA9     		.short	-22166
 242 014e E3B8     		.short	-18205
 243 0150 788A     		.short	-30088
 244 0152 F19B     		.short	-25615
 245 0154 8773     		.short	29575
 246 0156 0E62     		.short	25102
 247 0158 9550     		.short	20629
 248 015a 1C41     		.short	16668
 249 015c A335     		.short	13731
 250 015e 2A24     		.short	9258
 251 0160 B116     		.short	5809
 252 0162 3807     		.short	1848
 253 0164 CFFF     		.short	-49
 254 0166 46EE     		.short	-4538
 255 0168 DDDC     		.short	-8995
 256 016a 54CD     		.short	-12972
 257 016c EBB9     		.short	-17941
 258 016e 62A8     		.short	-22430
 259 0170 F99A     		.short	-25863
 260 0172 708B     		.short	-29840
 261 0174 0884     		.short	-31736
 262 0176 8195     		.short	-27263
 263 0178 1AA7     		.short	-22758
 264 017a 93B6     		.short	-18797
 265 017c 2CC2     		.short	-15828
 266 017e A5D3     		.short	-11355
 267 0180 3EE1     		.short	-7874
 268 0182 B7F0     		.short	-3913
 269 0184 4008     		.short	2112
 270 0186 C919     		.short	6601
 271 0188 522B     		.short	11090
 272 018a DB3A     		.short	15067
 273 018c 644E     		.short	20068
 274 018e ED5F     		.short	24557
 275 0190 766D     		.short	28022
 276 0192 FF7C     		.short	31999
 277 0194 8994     		.short	-27511
 278 0196 0085     		.short	-31488
 279 0198 9BB7     		.short	-18533
 280 019a 12A6     		.short	-23022
 281 019c ADD2     		.short	-11603
 282 019e 24C3     		.short	-15580
 283 01a0 BFF1     		.short	-3649
 284 01a2 36E0     		.short	-8138
 285 01a4 C118     		.short	6337
 286 01a6 4809     		.short	2376
 287 01a8 D33B     		.short	15315
 288 01aa 5A2A     		.short	10842
 289 01ac E55E     		.short	24293
 290 01ae 6C4F     		.short	20332
 291 01b0 F77D     		.short	32247
 292 01b2 7E6C     		.short	27774
 293 01b4 0AA5     		.short	-23286
 294 01b6 83B4     		.short	-19325
 295 01b8 1886     		.short	-31208
 296 01ba 9197     		.short	-26735
 297 01bc 2EE3     		.short	-7378
 298 01be A7F2     		.short	-3417
 299 01c0 3CC0     		.short	-16324
 300 01c2 B5D1     		.short	-11851
 301 01c4 4229     		.short	10562
 302 01c6 CB38     		.short	14539
 303 01c8 500A     		.short	2640
 304 01ca D91B     		.short	7129
 305 01cc 666F     		.short	28518
 306 01ce EF7E     		.short	32495
 307 01d0 744C     		.short	19572
 308 01d2 FD5D     		.short	24061
 309 01d4 8BB5     		.short	-19061
 310 01d6 02A4     		.short	-23550
 311 01d8 9996     		.short	-26983
 312 01da 1087     		.short	-30960
 313 01dc AFF3     		.short	-3153
 314 01de 26E2     		.short	-7642
 315 01e0 BDD0     		.short	-12099
 316 01e2 34C1     		.short	-16076
 317 01e4 C339     		.short	14787
 318 01e6 4A28     		.short	10314
 319 01e8 D11A     		.short	6865
 320 01ea 580B     		.short	2904
 321 01ec E77F     		.short	32743
 322 01ee 6E6E     		.short	28270
 323 01f0 F55C     		.short	23797
 324 01f2 7C4D     		.short	19836
 325 01f4 0CC6     		.short	-14836
 326 01f6 85D7     		.short	-10363
 327 01f8 1EE5     		.short	-6882
 328 01fa 97F4     		.short	-2921
 329 01fc 2880     		.short	-32728
 330 01fe A191     		.short	-28255
 331 0200 3AA3     		.short	-23750
 332 0202 B3B2     		.short	-19789
 333 0204 444A     		.short	19012
 334 0206 CD5B     		.short	23501
 335 0208 5669     		.short	26966
 336 020a DF78     		.short	30943
 337 020c 600C     		.short	3168
 338 020e E91D     		.short	7657
 339 0210 722F     		.short	12146
 340 0212 FB3E     		.short	16123
 341 0214 8DD6     		.short	-10611
 342 0216 04C7     		.short	-14588
 343 0218 9FF5     		.short	-2657
 344 021a 16E4     		.short	-7146
 345 021c A990     		.short	-28503
 346 021e 2081     		.short	-32480
 347 0220 BBB3     		.short	-19525
 348 0222 32A2     		.short	-24014
 349 0224 C55A     		.short	23237
 350 0226 4C4B     		.short	19276
 351 0228 D779     		.short	31191
 352 022a 5E68     		.short	26718
 353 022c E11C     		.short	7393
 354 022e 680D     		.short	3432
 355 0230 F33F     		.short	16371
 356 0232 7A2E     		.short	11898
 357 0234 0EE7     		.short	-6386
 358 0236 87F6     		.short	-2425
 359 0238 1CC4     		.short	-15332
 360 023a 95D5     		.short	-10859
 361 023c 2AA1     		.short	-24278
 362 023e A3B0     		.short	-20317
 363 0240 3882     		.short	-32200
 364 0242 B193     		.short	-27727
 365 0244 466B     		.short	27462
 366 0246 CF7A     		.short	31439
 367 0248 5448     		.short	18516
 368 024a DD59     		.short	23005
 369 024c 622D     		.short	11618
 370 024e EB3C     		.short	15595
 371 0250 700E     		.short	3696
 372 0252 F91F     		.short	8185
 373 0254 8FF7     		.short	-2161
 374 0256 06E6     		.short	-6650
 375 0258 9DD4     		.short	-11107
 376 025a 14C5     		.short	-15084
 377 025c ABB1     		.short	-20053
 378 025e 22A0     		.short	-24542
 379 0260 B992     		.short	-27975
 380 0262 3083     		.short	-31952
 381 0264 C77B     		.short	31687
 382 0266 4E6A     		.short	27214
 383 0268 D558     		.short	22741
 384 026a 5C49     		.short	18780
 385 026c E33D     		.short	15843
 386 026e 6A2C     		.short	11370
 387 0270 F11E     		.short	7921
 388 0272 780F     		.short	3960
 389              		.comm	openserial_vars,1252,4
 390              		.text
 391              		.align	2
 392              		.global	openserial_init
 393              		.thumb
 394              		.thumb_func
 396              	openserial_init:
 397              	.LFB0:
 398              		.file 1 "build/openmote-cc2538_armgcc/drivers/common/openserial.c"
   1:build/openmote-cc2538_armgcc/drivers/common/openserial.c **** /**
   2:build/openmote-cc2538_armgcc/drivers/common/openserial.c **** \brief Definition of the "openserial" driver.
   3:build/openmote-cc2538_armgcc/drivers/common/openserial.c **** 
   4:build/openmote-cc2538_armgcc/drivers/common/openserial.c **** \author Fabien Chraim <chraim@eecs.berkeley.edu>, March 2012.
   5:build/openmote-cc2538_armgcc/drivers/common/openserial.c **** \author Thomas Watteyne <thomas.watteyne@inria.fr>, August 2016.
   6:build/openmote-cc2538_armgcc/drivers/common/openserial.c **** */
   7:build/openmote-cc2538_armgcc/drivers/common/openserial.c **** 
   8:build/openmote-cc2538_armgcc/drivers/common/openserial.c **** #include "opendefs.h"
   9:build/openmote-cc2538_armgcc/drivers/common/openserial.c **** #include "openserial.h"
  10:build/openmote-cc2538_armgcc/drivers/common/openserial.c **** #include "IEEE802154E.h"
  11:build/openmote-cc2538_armgcc/drivers/common/openserial.c **** #include "neighbors.h"
  12:build/openmote-cc2538_armgcc/drivers/common/openserial.c **** #include "sixtop.h"
  13:build/openmote-cc2538_armgcc/drivers/common/openserial.c **** #include "icmpv6echo.h"
  14:build/openmote-cc2538_armgcc/drivers/common/openserial.c **** #include "idmanager.h"
  15:build/openmote-cc2538_armgcc/drivers/common/openserial.c **** #include "openqueue.h"
  16:build/openmote-cc2538_armgcc/drivers/common/openserial.c **** #include "openbridge.h"
  17:build/openmote-cc2538_armgcc/drivers/common/openserial.c **** #include "leds.h"
  18:build/openmote-cc2538_armgcc/drivers/common/openserial.c **** #include "schedule.h"
  19:build/openmote-cc2538_armgcc/drivers/common/openserial.c **** #include "uart.h"
  20:build/openmote-cc2538_armgcc/drivers/common/openserial.c **** #include "opentimers.h"
  21:build/openmote-cc2538_armgcc/drivers/common/openserial.c **** #include "openhdlc.h"
  22:build/openmote-cc2538_armgcc/drivers/common/openserial.c **** #include "schedule.h"
  23:build/openmote-cc2538_armgcc/drivers/common/openserial.c **** #include "icmpv6rpl.h"
  24:build/openmote-cc2538_armgcc/drivers/common/openserial.c **** #include "icmpv6echo.h"
  25:build/openmote-cc2538_armgcc/drivers/common/openserial.c **** #include "msf.h"
  26:build/openmote-cc2538_armgcc/drivers/common/openserial.c **** 
  27:build/openmote-cc2538_armgcc/drivers/common/openserial.c **** //=========================== variables =======================================
  28:build/openmote-cc2538_armgcc/drivers/common/openserial.c **** 
  29:build/openmote-cc2538_armgcc/drivers/common/openserial.c **** openserial_vars_t openserial_vars;
  30:build/openmote-cc2538_armgcc/drivers/common/openserial.c **** 
  31:build/openmote-cc2538_armgcc/drivers/common/openserial.c **** //=========================== prototypes ======================================
  32:build/openmote-cc2538_armgcc/drivers/common/openserial.c **** 
  33:build/openmote-cc2538_armgcc/drivers/common/openserial.c **** // printing
  34:build/openmote-cc2538_armgcc/drivers/common/openserial.c **** owerror_t openserial_printInfoErrorCritical(
  35:build/openmote-cc2538_armgcc/drivers/common/openserial.c ****     char             severity,
  36:build/openmote-cc2538_armgcc/drivers/common/openserial.c ****     uint8_t          calling_component,
  37:build/openmote-cc2538_armgcc/drivers/common/openserial.c ****     uint8_t          error_code,
  38:build/openmote-cc2538_armgcc/drivers/common/openserial.c ****     errorparameter_t arg1,
  39:build/openmote-cc2538_armgcc/drivers/common/openserial.c ****     errorparameter_t arg2
  40:build/openmote-cc2538_armgcc/drivers/common/openserial.c **** );
  41:build/openmote-cc2538_armgcc/drivers/common/openserial.c **** 
  42:build/openmote-cc2538_armgcc/drivers/common/openserial.c **** // command handlers
  43:build/openmote-cc2538_armgcc/drivers/common/openserial.c **** void openserial_handleEcho(uint8_t* but, uint8_t bufLen);
  44:build/openmote-cc2538_armgcc/drivers/common/openserial.c **** void openserial_get6pInfo(uint8_t commandId, uint8_t* code,uint8_t* cellOptions,uint8_t* numCells,c
  45:build/openmote-cc2538_armgcc/drivers/common/openserial.c **** void openserial_handleCommands(void);
  46:build/openmote-cc2538_armgcc/drivers/common/openserial.c **** 
  47:build/openmote-cc2538_armgcc/drivers/common/openserial.c **** // misc
  48:build/openmote-cc2538_armgcc/drivers/common/openserial.c **** void openserial_board_reset_cb(opentimers_id_t id);
  49:build/openmote-cc2538_armgcc/drivers/common/openserial.c **** 
  50:build/openmote-cc2538_armgcc/drivers/common/openserial.c **** // HDLC output
  51:build/openmote-cc2538_armgcc/drivers/common/openserial.c **** void outputHdlcOpen(void);
  52:build/openmote-cc2538_armgcc/drivers/common/openserial.c **** void outputHdlcWrite(uint8_t b);
  53:build/openmote-cc2538_armgcc/drivers/common/openserial.c **** void outputHdlcClose(void);
  54:build/openmote-cc2538_armgcc/drivers/common/openserial.c **** 
  55:build/openmote-cc2538_armgcc/drivers/common/openserial.c **** // HDLC input
  56:build/openmote-cc2538_armgcc/drivers/common/openserial.c **** void inputHdlcOpen(void);
  57:build/openmote-cc2538_armgcc/drivers/common/openserial.c **** void inputHdlcWrite(uint8_t b);
  58:build/openmote-cc2538_armgcc/drivers/common/openserial.c **** void inputHdlcClose(void);
  59:build/openmote-cc2538_armgcc/drivers/common/openserial.c **** 
  60:build/openmote-cc2538_armgcc/drivers/common/openserial.c **** // sniffer
  61:build/openmote-cc2538_armgcc/drivers/common/openserial.c **** void sniffer_setListeningChannel(uint8_t channel);
  62:build/openmote-cc2538_armgcc/drivers/common/openserial.c **** 
  63:build/openmote-cc2538_armgcc/drivers/common/openserial.c **** //=========================== public ==========================================
  64:build/openmote-cc2538_armgcc/drivers/common/openserial.c **** 
  65:build/openmote-cc2538_armgcc/drivers/common/openserial.c **** //===== admin
  66:build/openmote-cc2538_armgcc/drivers/common/openserial.c **** 
  67:build/openmote-cc2538_armgcc/drivers/common/openserial.c **** void openserial_init() {
 399              		.loc 1 67 0
 400              		.cfi_startproc
 401              		@ args = 0, pretend = 0, frame = 8
 402              		@ frame_needed = 1, uses_anonymous_args = 0
 403 0000 80B5     		push	{r7, lr}
 404              		.cfi_def_cfa_offset 8
 405              		.cfi_offset 7, -8
 406              		.cfi_offset 14, -4
 407 0002 82B0     		sub	sp, sp, #8
 408              		.cfi_def_cfa_offset 16
 409 0004 00AF     		add	r7, sp, #0
 410              		.cfi_def_cfa_register 7
  68:build/openmote-cc2538_armgcc/drivers/common/openserial.c ****     uint16_t crc;
  69:build/openmote-cc2538_armgcc/drivers/common/openserial.c ****     
  70:build/openmote-cc2538_armgcc/drivers/common/openserial.c ****     // reset variable
  71:build/openmote-cc2538_armgcc/drivers/common/openserial.c ****     memset(&openserial_vars,0,sizeof(openserial_vars_t));
 411              		.loc 1 71 0
 412 0006 40F2E442 		movw	r2, #1252
 413 000a 0021     		movs	r1, #0
 414 000c 2648     		ldr	r0, .L2
 415 000e FFF7FEFF 		bl	memset
  72:build/openmote-cc2538_armgcc/drivers/common/openserial.c ****     
  73:build/openmote-cc2538_armgcc/drivers/common/openserial.c ****     // admin
  74:build/openmote-cc2538_armgcc/drivers/common/openserial.c ****     openserial_vars.mode               = MODE_OFF;
 416              		.loc 1 74 0
 417 0012 254B     		ldr	r3, .L2
 418 0014 0022     		movs	r2, #0
 419 0016 1A70     		strb	r2, [r3]
  75:build/openmote-cc2538_armgcc/drivers/common/openserial.c ****     openserial_vars.debugPrintCounter  = 0;
 420              		.loc 1 75 0
 421 0018 234B     		ldr	r3, .L2
 422 001a 0022     		movs	r2, #0
 423 001c 5A70     		strb	r2, [r3, #1]
  76:build/openmote-cc2538_armgcc/drivers/common/openserial.c ****     
  77:build/openmote-cc2538_armgcc/drivers/common/openserial.c ****     // input
  78:build/openmote-cc2538_armgcc/drivers/common/openserial.c ****     openserial_vars.reqFrame[0]        = HDLC_FLAG;
 424              		.loc 1 78 0
 425 001e 224B     		ldr	r3, .L2
 426 0020 7E22     		movs	r2, #126
 427 0022 1A72     		strb	r2, [r3, #8]
  79:build/openmote-cc2538_armgcc/drivers/common/openserial.c ****     openserial_vars.reqFrame[1]        = SERFRAME_MOTE2PC_REQUEST;
 428              		.loc 1 79 0
 429 0024 204B     		ldr	r3, .L2
 430 0026 5222     		movs	r2, #82
 431 0028 5A72     		strb	r2, [r3, #9]
  80:build/openmote-cc2538_armgcc/drivers/common/openserial.c ****     crc = HDLC_CRCINIT;
 432              		.loc 1 80 0
 433 002a 4FF6FF73 		movw	r3, #65535
 434 002e FB80     		strh	r3, [r7, #6]	@ movhi
  81:build/openmote-cc2538_armgcc/drivers/common/openserial.c ****     crc = crcIteration(crc,openserial_vars.reqFrame[1]);
 435              		.loc 1 81 0
 436 0030 1D4B     		ldr	r3, .L2
 437 0032 5A7A     		ldrb	r2, [r3, #9]	@ zero_extendqisi2
 438 0034 FB88     		ldrh	r3, [r7, #6]
 439 0036 1146     		mov	r1, r2
 440 0038 1846     		mov	r0, r3
 441 003a FFF7FEFF 		bl	crcIteration
 442 003e 0346     		mov	r3, r0
 443 0040 FB80     		strh	r3, [r7, #6]	@ movhi
  82:build/openmote-cc2538_armgcc/drivers/common/openserial.c ****     crc = ~crc;
 444              		.loc 1 82 0
 445 0042 FB88     		ldrh	r3, [r7, #6]	@ movhi
 446 0044 DB43     		mvns	r3, r3
 447 0046 FB80     		strh	r3, [r7, #6]	@ movhi
  83:build/openmote-cc2538_armgcc/drivers/common/openserial.c ****     openserial_vars.reqFrame[2]        = (crc>>0)&0xff;
 448              		.loc 1 83 0
 449 0048 FB88     		ldrh	r3, [r7, #6]	@ movhi
 450 004a DAB2     		uxtb	r2, r3
 451 004c 164B     		ldr	r3, .L2
 452 004e 9A72     		strb	r2, [r3, #10]
  84:build/openmote-cc2538_armgcc/drivers/common/openserial.c ****     openserial_vars.reqFrame[3]        = (crc>>8)&0xff;
 453              		.loc 1 84 0
 454 0050 FB88     		ldrh	r3, [r7, #6]
 455 0052 1B0A     		lsrs	r3, r3, #8
 456 0054 9BB2     		uxth	r3, r3
 457 0056 DAB2     		uxtb	r2, r3
 458 0058 134B     		ldr	r3, .L2
 459 005a DA72     		strb	r2, [r3, #11]
  85:build/openmote-cc2538_armgcc/drivers/common/openserial.c ****     openserial_vars.reqFrame[4]        = HDLC_FLAG;
 460              		.loc 1 85 0
 461 005c 124B     		ldr	r3, .L2
 462 005e 7E22     		movs	r2, #126
 463 0060 1A73     		strb	r2, [r3, #12]
  86:build/openmote-cc2538_armgcc/drivers/common/openserial.c ****     openserial_vars.reqFrameIdx        = 0;
 464              		.loc 1 86 0
 465 0062 114B     		ldr	r3, .L2
 466 0064 0022     		movs	r2, #0
 467 0066 5A73     		strb	r2, [r3, #13]
  87:build/openmote-cc2538_armgcc/drivers/common/openserial.c ****     openserial_vars.lastRxByte         = HDLC_FLAG;
 468              		.loc 1 87 0
 469 0068 0F4B     		ldr	r3, .L2
 470 006a 7E22     		movs	r2, #126
 471 006c 9A73     		strb	r2, [r3, #14]
  88:build/openmote-cc2538_armgcc/drivers/common/openserial.c ****     openserial_vars.busyReceiving      = FALSE;
 472              		.loc 1 88 0
 473 006e 0E4B     		ldr	r3, .L2
 474 0070 0022     		movs	r2, #0
 475 0072 DA73     		strb	r2, [r3, #15]
  89:build/openmote-cc2538_armgcc/drivers/common/openserial.c ****     openserial_vars.inputEscaping      = FALSE;
 476              		.loc 1 89 0
 477 0074 0C4B     		ldr	r3, .L2
 478 0076 0022     		movs	r2, #0
 479 0078 1A74     		strb	r2, [r3, #16]
  90:build/openmote-cc2538_armgcc/drivers/common/openserial.c ****     openserial_vars.inputBufFill       = 0;
 480              		.loc 1 90 0
 481 007a 0B4B     		ldr	r3, .L2
 482 007c 0022     		movs	r2, #0
 483 007e 1A75     		strb	r2, [r3, #20]
  91:build/openmote-cc2538_armgcc/drivers/common/openserial.c ****     
  92:build/openmote-cc2538_armgcc/drivers/common/openserial.c ****     // ouput
  93:build/openmote-cc2538_armgcc/drivers/common/openserial.c ****     openserial_vars.outputBufFilled    = FALSE;
 484              		.loc 1 93 0
 485 0080 094B     		ldr	r3, .L2
 486 0082 0022     		movs	r2, #0
 487 0084 83F8DD20 		strb	r2, [r3, #221]
  94:build/openmote-cc2538_armgcc/drivers/common/openserial.c ****     openserial_vars.outputBufIdxR      = 0;
 488              		.loc 1 94 0
 489 0088 074B     		ldr	r3, .L2
 490 008a 0022     		movs	r2, #0
 491 008c A3F8E220 		strh	r2, [r3, #226]	@ movhi
  95:build/openmote-cc2538_armgcc/drivers/common/openserial.c ****     openserial_vars.outputBufIdxW      = 0;
 492              		.loc 1 95 0
 493 0090 054B     		ldr	r3, .L2
 494 0092 0022     		movs	r2, #0
 495 0094 A3F8E020 		strh	r2, [r3, #224]	@ movhi
  96:build/openmote-cc2538_armgcc/drivers/common/openserial.c ****     
  97:build/openmote-cc2538_armgcc/drivers/common/openserial.c ****     // set callbacks
  98:build/openmote-cc2538_armgcc/drivers/common/openserial.c ****     uart_setCallbacks(
 496              		.loc 1 98 0
 497 0098 0449     		ldr	r1, .L2+4
 498 009a 0548     		ldr	r0, .L2+8
 499 009c FFF7FEFF 		bl	uart_setCallbacks
  99:build/openmote-cc2538_armgcc/drivers/common/openserial.c ****         isr_openserial_tx,
 100:build/openmote-cc2538_armgcc/drivers/common/openserial.c ****         isr_openserial_rx
 101:build/openmote-cc2538_armgcc/drivers/common/openserial.c ****     );
 102:build/openmote-cc2538_armgcc/drivers/common/openserial.c **** }
 500              		.loc 1 102 0
 501 00a0 00BF     		nop
 502 00a2 0837     		adds	r7, r7, #8
 503              		.cfi_def_cfa_offset 8
 504 00a4 BD46     		mov	sp, r7
 505              		.cfi_def_cfa_register 13
 506              		@ sp needed
 507 00a6 80BD     		pop	{r7, pc}
 508              	.L3:
 509              		.align	2
 510              	.L2:
 511 00a8 00000000 		.word	openserial_vars
 512 00ac 00000000 		.word	isr_openserial_rx
 513 00b0 00000000 		.word	isr_openserial_tx
 514              		.cfi_endproc
 515              	.LFE0:
 517              		.align	2
 518              		.global	openserial_register
 519              		.thumb
 520              		.thumb_func
 522              	openserial_register:
 523              	.LFB1:
 103:build/openmote-cc2538_armgcc/drivers/common/openserial.c **** 
 104:build/openmote-cc2538_armgcc/drivers/common/openserial.c **** void openserial_register(openserial_rsvpt* rsvp) {
 524              		.loc 1 104 0
 525              		.cfi_startproc
 526              		@ args = 0, pretend = 0, frame = 8
 527              		@ frame_needed = 1, uses_anonymous_args = 0
 528              		@ link register save eliminated.
 529 00b4 80B4     		push	{r7}
 530              		.cfi_def_cfa_offset 4
 531              		.cfi_offset 7, -4
 532 00b6 83B0     		sub	sp, sp, #12
 533              		.cfi_def_cfa_offset 16
 534 00b8 00AF     		add	r7, sp, #0
 535              		.cfi_def_cfa_register 7
 536 00ba 7860     		str	r0, [r7, #4]
 105:build/openmote-cc2538_armgcc/drivers/common/openserial.c ****     // FIXME: register multiple commands (linked list)
 106:build/openmote-cc2538_armgcc/drivers/common/openserial.c ****     openserial_vars.registeredCmd = rsvp;
 537              		.loc 1 106 0
 538 00bc 034A     		ldr	r2, .L5
 539 00be 7B68     		ldr	r3, [r7, #4]
 540 00c0 5360     		str	r3, [r2, #4]
 107:build/openmote-cc2538_armgcc/drivers/common/openserial.c **** }
 541              		.loc 1 107 0
 542 00c2 00BF     		nop
 543 00c4 0C37     		adds	r7, r7, #12
 544              		.cfi_def_cfa_offset 4
 545 00c6 BD46     		mov	sp, r7
 546              		.cfi_def_cfa_register 13
 547              		@ sp needed
 548 00c8 80BC     		pop	{r7}
 549              		.cfi_restore 7
 550              		.cfi_def_cfa_offset 0
 551 00ca 7047     		bx	lr
 552              	.L6:
 553              		.align	2
 554              	.L5:
 555 00cc 00000000 		.word	openserial_vars
 556              		.cfi_endproc
 557              	.LFE1:
 559              		.align	2
 560              		.global	openserial_printStatus
 561              		.thumb
 562              		.thumb_func
 564              	openserial_printStatus:
 565              	.LFB2:
 108:build/openmote-cc2538_armgcc/drivers/common/openserial.c **** 
 109:build/openmote-cc2538_armgcc/drivers/common/openserial.c **** //===== printing
 110:build/openmote-cc2538_armgcc/drivers/common/openserial.c **** 
 111:build/openmote-cc2538_armgcc/drivers/common/openserial.c **** owerror_t openserial_printStatus(
 112:build/openmote-cc2538_armgcc/drivers/common/openserial.c ****     uint8_t             statusElement,
 113:build/openmote-cc2538_armgcc/drivers/common/openserial.c ****     uint8_t*            buffer,
 114:build/openmote-cc2538_armgcc/drivers/common/openserial.c ****     uint8_t             length
 115:build/openmote-cc2538_armgcc/drivers/common/openserial.c **** ) {
 566              		.loc 1 115 0
 567              		.cfi_startproc
 568              		@ args = 0, pretend = 0, frame = 16
 569              		@ frame_needed = 1, uses_anonymous_args = 0
 570 00d0 80B5     		push	{r7, lr}
 571              		.cfi_def_cfa_offset 8
 572              		.cfi_offset 7, -8
 573              		.cfi_offset 14, -4
 574 00d2 84B0     		sub	sp, sp, #16
 575              		.cfi_def_cfa_offset 24
 576 00d4 00AF     		add	r7, sp, #0
 577              		.cfi_def_cfa_register 7
 578 00d6 0346     		mov	r3, r0
 579 00d8 3960     		str	r1, [r7]
 580 00da FB71     		strb	r3, [r7, #7]
 581 00dc 1346     		mov	r3, r2
 582 00de BB71     		strb	r3, [r7, #6]
 116:build/openmote-cc2538_armgcc/drivers/common/openserial.c ****     uint8_t i;
 117:build/openmote-cc2538_armgcc/drivers/common/openserial.c ****     INTERRUPT_DECLARATION();
 118:build/openmote-cc2538_armgcc/drivers/common/openserial.c ****     
 119:build/openmote-cc2538_armgcc/drivers/common/openserial.c ****     DISABLE_INTERRUPTS();
 583              		.loc 1 119 0
 584 00e0 FFF7FEFF 		bl	IntMasterDisable
 120:build/openmote-cc2538_armgcc/drivers/common/openserial.c ****     openserial_vars.outputBufFilled  = TRUE;
 585              		.loc 1 120 0
 586 00e4 1B4B     		ldr	r3, .L11
 587 00e6 0122     		movs	r2, #1
 588 00e8 83F8DD20 		strb	r2, [r3, #221]
 121:build/openmote-cc2538_armgcc/drivers/common/openserial.c ****     outputHdlcOpen();
 589              		.loc 1 121 0
 590 00ec FFF7FEFF 		bl	outputHdlcOpen
 122:build/openmote-cc2538_armgcc/drivers/common/openserial.c ****     outputHdlcWrite(SERFRAME_MOTE2PC_STATUS);
 591              		.loc 1 122 0
 592 00f0 5320     		movs	r0, #83
 593 00f2 FFF7FEFF 		bl	outputHdlcWrite
 123:build/openmote-cc2538_armgcc/drivers/common/openserial.c ****     outputHdlcWrite(idmanager_getMyID(ADDR_16B)->addr_16b[0]);
 594              		.loc 1 123 0
 595 00f6 0120     		movs	r0, #1
 596 00f8 FFF7FEFF 		bl	idmanager_getMyID
 597 00fc 0346     		mov	r3, r0
 598 00fe 5B78     		ldrb	r3, [r3, #1]	@ zero_extendqisi2
 599 0100 1846     		mov	r0, r3
 600 0102 FFF7FEFF 		bl	outputHdlcWrite
 124:build/openmote-cc2538_armgcc/drivers/common/openserial.c ****     outputHdlcWrite(idmanager_getMyID(ADDR_16B)->addr_16b[1]);
 601              		.loc 1 124 0
 602 0106 0120     		movs	r0, #1
 603 0108 FFF7FEFF 		bl	idmanager_getMyID
 604 010c 0346     		mov	r3, r0
 605 010e 9B78     		ldrb	r3, [r3, #2]	@ zero_extendqisi2
 606 0110 1846     		mov	r0, r3
 607 0112 FFF7FEFF 		bl	outputHdlcWrite
 125:build/openmote-cc2538_armgcc/drivers/common/openserial.c ****     outputHdlcWrite(statusElement);
 608              		.loc 1 125 0
 609 0116 FB79     		ldrb	r3, [r7, #7]	@ zero_extendqisi2
 610 0118 1846     		mov	r0, r3
 611 011a FFF7FEFF 		bl	outputHdlcWrite
 126:build/openmote-cc2538_armgcc/drivers/common/openserial.c ****     for (i=0;i<length;i++){
 612              		.loc 1 126 0
 613 011e 0023     		movs	r3, #0
 614 0120 FB73     		strb	r3, [r7, #15]
 615 0122 09E0     		b	.L8
 616              	.L9:
 127:build/openmote-cc2538_armgcc/drivers/common/openserial.c ****         outputHdlcWrite(buffer[i]);
 617              		.loc 1 127 0 discriminator 3
 618 0124 FB7B     		ldrb	r3, [r7, #15]	@ zero_extendqisi2
 619 0126 3A68     		ldr	r2, [r7]
 620 0128 1344     		add	r3, r3, r2
 621 012a 1B78     		ldrb	r3, [r3]	@ zero_extendqisi2
 622 012c 1846     		mov	r0, r3
 623 012e FFF7FEFF 		bl	outputHdlcWrite
 126:build/openmote-cc2538_armgcc/drivers/common/openserial.c ****     for (i=0;i<length;i++){
 624              		.loc 1 126 0 discriminator 3
 625 0132 FB7B     		ldrb	r3, [r7, #15]	@ zero_extendqisi2
 626 0134 0133     		adds	r3, r3, #1
 627 0136 FB73     		strb	r3, [r7, #15]
 628              	.L8:
 126:build/openmote-cc2538_armgcc/drivers/common/openserial.c ****     for (i=0;i<length;i++){
 629              		.loc 1 126 0 is_stmt 0 discriminator 1
 630 0138 FA7B     		ldrb	r2, [r7, #15]	@ zero_extendqisi2
 631 013a BB79     		ldrb	r3, [r7, #6]	@ zero_extendqisi2
 632 013c 9A42     		cmp	r2, r3
 633 013e F1D3     		bcc	.L9
 128:build/openmote-cc2538_armgcc/drivers/common/openserial.c ****     }
 129:build/openmote-cc2538_armgcc/drivers/common/openserial.c ****     outputHdlcClose();
 634              		.loc 1 129 0 is_stmt 1
 635 0140 FFF7FEFF 		bl	outputHdlcClose
 130:build/openmote-cc2538_armgcc/drivers/common/openserial.c ****     ENABLE_INTERRUPTS();
 636              		.loc 1 130 0
 637 0144 FFF7FEFF 		bl	IntMasterEnable
 131:build/openmote-cc2538_armgcc/drivers/common/openserial.c ****     
 132:build/openmote-cc2538_armgcc/drivers/common/openserial.c ****     return E_SUCCESS;
 638              		.loc 1 132 0
 639 0148 0023     		movs	r3, #0
 133:build/openmote-cc2538_armgcc/drivers/common/openserial.c **** }
 640              		.loc 1 133 0
 641 014a 1846     		mov	r0, r3
 642 014c 1037     		adds	r7, r7, #16
 643              		.cfi_def_cfa_offset 8
 644 014e BD46     		mov	sp, r7
 645              		.cfi_def_cfa_register 13
 646              		@ sp needed
 647 0150 80BD     		pop	{r7, pc}
 648              	.L12:
 649 0152 00BF     		.align	2
 650              	.L11:
 651 0154 00000000 		.word	openserial_vars
 652              		.cfi_endproc
 653              	.LFE2:
 655              		.align	2
 656              		.global	openserial_printInfo
 657              		.thumb
 658              		.thumb_func
 660              	openserial_printInfo:
 661              	.LFB3:
 134:build/openmote-cc2538_armgcc/drivers/common/openserial.c **** 
 135:build/openmote-cc2538_armgcc/drivers/common/openserial.c **** owerror_t openserial_printInfo(
 136:build/openmote-cc2538_armgcc/drivers/common/openserial.c ****     uint8_t             calling_component,
 137:build/openmote-cc2538_armgcc/drivers/common/openserial.c ****     uint8_t             error_code,
 138:build/openmote-cc2538_armgcc/drivers/common/openserial.c ****     errorparameter_t    arg1,
 139:build/openmote-cc2538_armgcc/drivers/common/openserial.c ****     errorparameter_t    arg2
 140:build/openmote-cc2538_armgcc/drivers/common/openserial.c **** ) {
 662              		.loc 1 140 0
 663              		.cfi_startproc
 664              		@ args = 0, pretend = 0, frame = 8
 665              		@ frame_needed = 1, uses_anonymous_args = 0
 666 0158 90B5     		push	{r4, r7, lr}
 667              		.cfi_def_cfa_offset 12
 668              		.cfi_offset 4, -12
 669              		.cfi_offset 7, -8
 670              		.cfi_offset 14, -4
 671 015a 85B0     		sub	sp, sp, #20
 672              		.cfi_def_cfa_offset 32
 673 015c 02AF     		add	r7, sp, #8
 674              		.cfi_def_cfa 7, 24
 675 015e 0446     		mov	r4, r0
 676 0160 0846     		mov	r0, r1
 677 0162 1146     		mov	r1, r2
 678 0164 1A46     		mov	r2, r3
 679 0166 2346     		mov	r3, r4
 680 0168 FB71     		strb	r3, [r7, #7]
 681 016a 0346     		mov	r3, r0
 682 016c BB71     		strb	r3, [r7, #6]
 683 016e 0B46     		mov	r3, r1	@ movhi
 684 0170 BB80     		strh	r3, [r7, #4]	@ movhi
 685 0172 1346     		mov	r3, r2	@ movhi
 686 0174 7B80     		strh	r3, [r7, #2]	@ movhi
 141:build/openmote-cc2538_armgcc/drivers/common/openserial.c ****     return openserial_printInfoErrorCritical(
 687              		.loc 1 141 0
 688 0176 B888     		ldrh	r0, [r7, #4]
 689 0178 BA79     		ldrb	r2, [r7, #6]	@ zero_extendqisi2
 690 017a F979     		ldrb	r1, [r7, #7]	@ zero_extendqisi2
 691 017c 7B88     		ldrh	r3, [r7, #2]
 692 017e 0093     		str	r3, [sp]
 693 0180 0346     		mov	r3, r0
 694 0182 4920     		movs	r0, #73
 695 0184 FFF7FEFF 		bl	openserial_printInfoErrorCritical
 696 0188 0346     		mov	r3, r0
 142:build/openmote-cc2538_armgcc/drivers/common/openserial.c ****         SERFRAME_MOTE2PC_INFO,
 143:build/openmote-cc2538_armgcc/drivers/common/openserial.c ****         calling_component,
 144:build/openmote-cc2538_armgcc/drivers/common/openserial.c ****         error_code,
 145:build/openmote-cc2538_armgcc/drivers/common/openserial.c ****         arg1,
 146:build/openmote-cc2538_armgcc/drivers/common/openserial.c ****         arg2
 147:build/openmote-cc2538_armgcc/drivers/common/openserial.c ****     );
 148:build/openmote-cc2538_armgcc/drivers/common/openserial.c **** }
 697              		.loc 1 148 0
 698 018a 1846     		mov	r0, r3
 699 018c 0C37     		adds	r7, r7, #12
 700              		.cfi_def_cfa_offset 12
 701 018e BD46     		mov	sp, r7
 702              		.cfi_def_cfa_register 13
 703              		@ sp needed
 704 0190 90BD     		pop	{r4, r7, pc}
 705              		.cfi_endproc
 706              	.LFE3:
 708 0192 00BF     		.align	2
 709              		.global	openserial_printError
 710              		.thumb
 711              		.thumb_func
 713              	openserial_printError:
 714              	.LFB4:
 149:build/openmote-cc2538_armgcc/drivers/common/openserial.c **** 
 150:build/openmote-cc2538_armgcc/drivers/common/openserial.c **** owerror_t openserial_printError(
 151:build/openmote-cc2538_armgcc/drivers/common/openserial.c ****     uint8_t             calling_component,
 152:build/openmote-cc2538_armgcc/drivers/common/openserial.c ****     uint8_t             error_code,
 153:build/openmote-cc2538_armgcc/drivers/common/openserial.c ****     errorparameter_t    arg1,
 154:build/openmote-cc2538_armgcc/drivers/common/openserial.c ****     errorparameter_t    arg2
 155:build/openmote-cc2538_armgcc/drivers/common/openserial.c **** ) {
 715              		.loc 1 155 0
 716              		.cfi_startproc
 717              		@ args = 0, pretend = 0, frame = 8
 718              		@ frame_needed = 1, uses_anonymous_args = 0
 719 0194 90B5     		push	{r4, r7, lr}
 720              		.cfi_def_cfa_offset 12
 721              		.cfi_offset 4, -12
 722              		.cfi_offset 7, -8
 723              		.cfi_offset 14, -4
 724 0196 85B0     		sub	sp, sp, #20
 725              		.cfi_def_cfa_offset 32
 726 0198 02AF     		add	r7, sp, #8
 727              		.cfi_def_cfa 7, 24
 728 019a 0446     		mov	r4, r0
 729 019c 0846     		mov	r0, r1
 730 019e 1146     		mov	r1, r2
 731 01a0 1A46     		mov	r2, r3
 732 01a2 2346     		mov	r3, r4
 733 01a4 FB71     		strb	r3, [r7, #7]
 734 01a6 0346     		mov	r3, r0
 735 01a8 BB71     		strb	r3, [r7, #6]
 736 01aa 0B46     		mov	r3, r1	@ movhi
 737 01ac BB80     		strh	r3, [r7, #4]	@ movhi
 738 01ae 1346     		mov	r3, r2	@ movhi
 739 01b0 7B80     		strh	r3, [r7, #2]	@ movhi
 156:build/openmote-cc2538_armgcc/drivers/common/openserial.c ****     // toggle error LED
 157:build/openmote-cc2538_armgcc/drivers/common/openserial.c ****     leds_error_toggle();
 740              		.loc 1 157 0
 741 01b2 FFF7FEFF 		bl	leds_error_toggle
 158:build/openmote-cc2538_armgcc/drivers/common/openserial.c ****     
 159:build/openmote-cc2538_armgcc/drivers/common/openserial.c ****     return openserial_printInfoErrorCritical(
 742              		.loc 1 159 0
 743 01b6 B888     		ldrh	r0, [r7, #4]
 744 01b8 BA79     		ldrb	r2, [r7, #6]	@ zero_extendqisi2
 745 01ba F979     		ldrb	r1, [r7, #7]	@ zero_extendqisi2
 746 01bc 7B88     		ldrh	r3, [r7, #2]
 747 01be 0093     		str	r3, [sp]
 748 01c0 0346     		mov	r3, r0
 749 01c2 4520     		movs	r0, #69
 750 01c4 FFF7FEFF 		bl	openserial_printInfoErrorCritical
 751 01c8 0346     		mov	r3, r0
 160:build/openmote-cc2538_armgcc/drivers/common/openserial.c ****         SERFRAME_MOTE2PC_ERROR,
 161:build/openmote-cc2538_armgcc/drivers/common/openserial.c ****         calling_component,
 162:build/openmote-cc2538_armgcc/drivers/common/openserial.c ****         error_code,
 163:build/openmote-cc2538_armgcc/drivers/common/openserial.c ****         arg1,
 164:build/openmote-cc2538_armgcc/drivers/common/openserial.c ****         arg2
 165:build/openmote-cc2538_armgcc/drivers/common/openserial.c ****     );
 166:build/openmote-cc2538_armgcc/drivers/common/openserial.c **** }
 752              		.loc 1 166 0
 753 01ca 1846     		mov	r0, r3
 754 01cc 0C37     		adds	r7, r7, #12
 755              		.cfi_def_cfa_offset 12
 756 01ce BD46     		mov	sp, r7
 757              		.cfi_def_cfa_register 13
 758              		@ sp needed
 759 01d0 90BD     		pop	{r4, r7, pc}
 760              		.cfi_endproc
 761              	.LFE4:
 763 01d2 00BF     		.align	2
 764              		.global	openserial_printCritical
 765              		.thumb
 766              		.thumb_func
 768              	openserial_printCritical:
 769              	.LFB5:
 167:build/openmote-cc2538_armgcc/drivers/common/openserial.c **** 
 168:build/openmote-cc2538_armgcc/drivers/common/openserial.c **** owerror_t openserial_printCritical(
 169:build/openmote-cc2538_armgcc/drivers/common/openserial.c ****     uint8_t             calling_component,
 170:build/openmote-cc2538_armgcc/drivers/common/openserial.c ****     uint8_t             error_code,
 171:build/openmote-cc2538_armgcc/drivers/common/openserial.c ****     errorparameter_t    arg1,
 172:build/openmote-cc2538_armgcc/drivers/common/openserial.c ****     errorparameter_t    arg2
 173:build/openmote-cc2538_armgcc/drivers/common/openserial.c **** ) {
 770              		.loc 1 173 0
 771              		.cfi_startproc
 772              		@ args = 0, pretend = 0, frame = 16
 773              		@ frame_needed = 1, uses_anonymous_args = 0
 774 01d4 90B5     		push	{r4, r7, lr}
 775              		.cfi_def_cfa_offset 12
 776              		.cfi_offset 4, -12
 777              		.cfi_offset 7, -8
 778              		.cfi_offset 14, -4
 779 01d6 87B0     		sub	sp, sp, #28
 780              		.cfi_def_cfa_offset 40
 781 01d8 02AF     		add	r7, sp, #8
 782              		.cfi_def_cfa 7, 32
 783 01da 0446     		mov	r4, r0
 784 01dc 0846     		mov	r0, r1
 785 01de 1146     		mov	r1, r2
 786 01e0 1A46     		mov	r2, r3
 787 01e2 2346     		mov	r3, r4
 788 01e4 FB71     		strb	r3, [r7, #7]
 789 01e6 0346     		mov	r3, r0
 790 01e8 BB71     		strb	r3, [r7, #6]
 791 01ea 0B46     		mov	r3, r1	@ movhi
 792 01ec BB80     		strh	r3, [r7, #4]	@ movhi
 793 01ee 1346     		mov	r3, r2	@ movhi
 794 01f0 7B80     		strh	r3, [r7, #2]	@ movhi
 174:build/openmote-cc2538_armgcc/drivers/common/openserial.c ****     opentimers_id_t id; 
 175:build/openmote-cc2538_armgcc/drivers/common/openserial.c ****     uint32_t         reference;
 176:build/openmote-cc2538_armgcc/drivers/common/openserial.c ****         
 177:build/openmote-cc2538_armgcc/drivers/common/openserial.c ****     // blink error LED, this is serious
 178:build/openmote-cc2538_armgcc/drivers/common/openserial.c ****     leds_error_blink();
 795              		.loc 1 178 0
 796 01f2 FFF7FEFF 		bl	leds_error_blink
 179:build/openmote-cc2538_armgcc/drivers/common/openserial.c ****     
 180:build/openmote-cc2538_armgcc/drivers/common/openserial.c ****     // schedule for the mote to reboot in 10s
 181:build/openmote-cc2538_armgcc/drivers/common/openserial.c ****     id        = opentimers_create();
 797              		.loc 1 181 0
 798 01f6 FFF7FEFF 		bl	opentimers_create
 799 01fa 0346     		mov	r3, r0
 800 01fc FB73     		strb	r3, [r7, #15]
 182:build/openmote-cc2538_armgcc/drivers/common/openserial.c ****     reference = opentimers_getValue();
 801              		.loc 1 182 0
 802 01fe FFF7FEFF 		bl	opentimers_getValue
 803 0202 B860     		str	r0, [r7, #8]
 183:build/openmote-cc2538_armgcc/drivers/common/openserial.c ****     opentimers_scheduleAbsolute(
 804              		.loc 1 183 0
 805 0204 F87B     		ldrb	r0, [r7, #15]	@ zero_extendqisi2
 806 0206 0B4B     		ldr	r3, .L19
 807 0208 0093     		str	r3, [sp]
 808 020a 0023     		movs	r3, #0
 809 020c BA68     		ldr	r2, [r7, #8]
 810 020e 42F21071 		movw	r1, #10000
 811 0212 FFF7FEFF 		bl	opentimers_scheduleAbsolute
 184:build/openmote-cc2538_armgcc/drivers/common/openserial.c ****         id,                             // timerId
 185:build/openmote-cc2538_armgcc/drivers/common/openserial.c ****         10000,                          // duration
 186:build/openmote-cc2538_armgcc/drivers/common/openserial.c ****         reference,                      // reference
 187:build/openmote-cc2538_armgcc/drivers/common/openserial.c ****         TIME_MS,                        // timetype
 188:build/openmote-cc2538_armgcc/drivers/common/openserial.c ****         openserial_board_reset_cb       // callback
 189:build/openmote-cc2538_armgcc/drivers/common/openserial.c ****     );
 190:build/openmote-cc2538_armgcc/drivers/common/openserial.c ****     
 191:build/openmote-cc2538_armgcc/drivers/common/openserial.c ****     return openserial_printInfoErrorCritical(
 812              		.loc 1 191 0
 813 0216 B888     		ldrh	r0, [r7, #4]
 814 0218 BA79     		ldrb	r2, [r7, #6]	@ zero_extendqisi2
 815 021a F979     		ldrb	r1, [r7, #7]	@ zero_extendqisi2
 816 021c 7B88     		ldrh	r3, [r7, #2]
 817 021e 0093     		str	r3, [sp]
 818 0220 0346     		mov	r3, r0
 819 0222 4320     		movs	r0, #67
 820 0224 FFF7FEFF 		bl	openserial_printInfoErrorCritical
 821 0228 0346     		mov	r3, r0
 192:build/openmote-cc2538_armgcc/drivers/common/openserial.c ****         SERFRAME_MOTE2PC_CRITICAL,
 193:build/openmote-cc2538_armgcc/drivers/common/openserial.c ****         calling_component,
 194:build/openmote-cc2538_armgcc/drivers/common/openserial.c ****         error_code,
 195:build/openmote-cc2538_armgcc/drivers/common/openserial.c ****         arg1,
 196:build/openmote-cc2538_armgcc/drivers/common/openserial.c ****         arg2
 197:build/openmote-cc2538_armgcc/drivers/common/openserial.c ****     );
 198:build/openmote-cc2538_armgcc/drivers/common/openserial.c **** }
 822              		.loc 1 198 0
 823 022a 1846     		mov	r0, r3
 824 022c 1437     		adds	r7, r7, #20
 825              		.cfi_def_cfa_offset 12
 826 022e BD46     		mov	sp, r7
 827              		.cfi_def_cfa_register 13
 828              		@ sp needed
 829 0230 90BD     		pop	{r4, r7, pc}
 830              	.L20:
 831 0232 00BF     		.align	2
 832              	.L19:
 833 0234 00000000 		.word	openserial_board_reset_cb
 834              		.cfi_endproc
 835              	.LFE5:
 837              		.align	2
 838              		.global	openserial_printData
 839              		.thumb
 840              		.thumb_func
 842              	openserial_printData:
 843              	.LFB6:
 199:build/openmote-cc2538_armgcc/drivers/common/openserial.c **** 
 200:build/openmote-cc2538_armgcc/drivers/common/openserial.c **** owerror_t openserial_printData(uint8_t* buffer, uint8_t length) {
 844              		.loc 1 200 0
 845              		.cfi_startproc
 846              		@ args = 0, pretend = 0, frame = 16
 847              		@ frame_needed = 1, uses_anonymous_args = 0
 848 0238 80B5     		push	{r7, lr}
 849              		.cfi_def_cfa_offset 8
 850              		.cfi_offset 7, -8
 851              		.cfi_offset 14, -4
 852 023a 84B0     		sub	sp, sp, #16
 853              		.cfi_def_cfa_offset 24
 854 023c 00AF     		add	r7, sp, #0
 855              		.cfi_def_cfa_register 7
 856 023e 7860     		str	r0, [r7, #4]
 857 0240 0B46     		mov	r3, r1
 858 0242 FB70     		strb	r3, [r7, #3]
 201:build/openmote-cc2538_armgcc/drivers/common/openserial.c ****     uint8_t  i;
 202:build/openmote-cc2538_armgcc/drivers/common/openserial.c ****     uint8_t  asn[5];
 203:build/openmote-cc2538_armgcc/drivers/common/openserial.c ****     INTERRUPT_DECLARATION();
 204:build/openmote-cc2538_armgcc/drivers/common/openserial.c ****     
 205:build/openmote-cc2538_armgcc/drivers/common/openserial.c ****     // retrieve ASN
 206:build/openmote-cc2538_armgcc/drivers/common/openserial.c ****     ieee154e_getAsn(asn);
 859              		.loc 1 206 0
 860 0244 07F10803 		add	r3, r7, #8
 861 0248 1846     		mov	r0, r3
 862 024a FFF7FEFF 		bl	ieee154e_getAsn
 207:build/openmote-cc2538_armgcc/drivers/common/openserial.c ****     
 208:build/openmote-cc2538_armgcc/drivers/common/openserial.c ****     DISABLE_INTERRUPTS();
 863              		.loc 1 208 0
 864 024e FFF7FEFF 		bl	IntMasterDisable
 209:build/openmote-cc2538_armgcc/drivers/common/openserial.c ****     openserial_vars.outputBufFilled  = TRUE;
 865              		.loc 1 209 0
 866 0252 234B     		ldr	r3, .L25
 867 0254 0122     		movs	r2, #1
 868 0256 83F8DD20 		strb	r2, [r3, #221]
 210:build/openmote-cc2538_armgcc/drivers/common/openserial.c ****     outputHdlcOpen();
 869              		.loc 1 210 0
 870 025a FFF7FEFF 		bl	outputHdlcOpen
 211:build/openmote-cc2538_armgcc/drivers/common/openserial.c ****     outputHdlcWrite(SERFRAME_MOTE2PC_DATA);
 871              		.loc 1 211 0
 872 025e 4420     		movs	r0, #68
 873 0260 FFF7FEFF 		bl	outputHdlcWrite
 212:build/openmote-cc2538_armgcc/drivers/common/openserial.c ****     outputHdlcWrite(idmanager_getMyID(ADDR_16B)->addr_16b[1]);
 874              		.loc 1 212 0
 875 0264 0120     		movs	r0, #1
 876 0266 FFF7FEFF 		bl	idmanager_getMyID
 877 026a 0346     		mov	r3, r0
 878 026c 9B78     		ldrb	r3, [r3, #2]	@ zero_extendqisi2
 879 026e 1846     		mov	r0, r3
 880 0270 FFF7FEFF 		bl	outputHdlcWrite
 213:build/openmote-cc2538_armgcc/drivers/common/openserial.c ****     outputHdlcWrite(idmanager_getMyID(ADDR_16B)->addr_16b[0]);
 881              		.loc 1 213 0
 882 0274 0120     		movs	r0, #1
 883 0276 FFF7FEFF 		bl	idmanager_getMyID
 884 027a 0346     		mov	r3, r0
 885 027c 5B78     		ldrb	r3, [r3, #1]	@ zero_extendqisi2
 886 027e 1846     		mov	r0, r3
 887 0280 FFF7FEFF 		bl	outputHdlcWrite
 214:build/openmote-cc2538_armgcc/drivers/common/openserial.c ****     outputHdlcWrite(asn[0]);
 888              		.loc 1 214 0
 889 0284 3B7A     		ldrb	r3, [r7, #8]	@ zero_extendqisi2
 890 0286 1846     		mov	r0, r3
 891 0288 FFF7FEFF 		bl	outputHdlcWrite
 215:build/openmote-cc2538_armgcc/drivers/common/openserial.c ****     outputHdlcWrite(asn[1]);
 892              		.loc 1 215 0
 893 028c 7B7A     		ldrb	r3, [r7, #9]	@ zero_extendqisi2
 894 028e 1846     		mov	r0, r3
 895 0290 FFF7FEFF 		bl	outputHdlcWrite
 216:build/openmote-cc2538_armgcc/drivers/common/openserial.c ****     outputHdlcWrite(asn[2]);
 896              		.loc 1 216 0
 897 0294 BB7A     		ldrb	r3, [r7, #10]	@ zero_extendqisi2
 898 0296 1846     		mov	r0, r3
 899 0298 FFF7FEFF 		bl	outputHdlcWrite
 217:build/openmote-cc2538_armgcc/drivers/common/openserial.c ****     outputHdlcWrite(asn[3]);
 900              		.loc 1 217 0
 901 029c FB7A     		ldrb	r3, [r7, #11]	@ zero_extendqisi2
 902 029e 1846     		mov	r0, r3
 903 02a0 FFF7FEFF 		bl	outputHdlcWrite
 218:build/openmote-cc2538_armgcc/drivers/common/openserial.c ****     outputHdlcWrite(asn[4]);
 904              		.loc 1 218 0
 905 02a4 3B7B     		ldrb	r3, [r7, #12]	@ zero_extendqisi2
 906 02a6 1846     		mov	r0, r3
 907 02a8 FFF7FEFF 		bl	outputHdlcWrite
 219:build/openmote-cc2538_armgcc/drivers/common/openserial.c ****     for (i=0;i<length;i++){
 908              		.loc 1 219 0
 909 02ac 0023     		movs	r3, #0
 910 02ae FB73     		strb	r3, [r7, #15]
 911 02b0 09E0     		b	.L22
 912              	.L23:
 220:build/openmote-cc2538_armgcc/drivers/common/openserial.c ****         outputHdlcWrite(buffer[i]);
 913              		.loc 1 220 0 discriminator 3
 914 02b2 FB7B     		ldrb	r3, [r7, #15]	@ zero_extendqisi2
 915 02b4 7A68     		ldr	r2, [r7, #4]
 916 02b6 1344     		add	r3, r3, r2
 917 02b8 1B78     		ldrb	r3, [r3]	@ zero_extendqisi2
 918 02ba 1846     		mov	r0, r3
 919 02bc FFF7FEFF 		bl	outputHdlcWrite
 219:build/openmote-cc2538_armgcc/drivers/common/openserial.c ****     for (i=0;i<length;i++){
 920              		.loc 1 219 0 discriminator 3
 921 02c0 FB7B     		ldrb	r3, [r7, #15]	@ zero_extendqisi2
 922 02c2 0133     		adds	r3, r3, #1
 923 02c4 FB73     		strb	r3, [r7, #15]
 924              	.L22:
 219:build/openmote-cc2538_armgcc/drivers/common/openserial.c ****     for (i=0;i<length;i++){
 925              		.loc 1 219 0 is_stmt 0 discriminator 1
 926 02c6 FA7B     		ldrb	r2, [r7, #15]	@ zero_extendqisi2
 927 02c8 FB78     		ldrb	r3, [r7, #3]	@ zero_extendqisi2
 928 02ca 9A42     		cmp	r2, r3
 929 02cc F1D3     		bcc	.L23
 221:build/openmote-cc2538_armgcc/drivers/common/openserial.c ****     }
 222:build/openmote-cc2538_armgcc/drivers/common/openserial.c ****     //printf("I am ROOT node %d, MOTE2PCDATA packet\n",idmanager_getMyID(ADDR_64B)->addr_64b[7]);
 223:build/openmote-cc2538_armgcc/drivers/common/openserial.c **** 
 224:build/openmote-cc2538_armgcc/drivers/common/openserial.c ****     outputHdlcClose();
 930              		.loc 1 224 0 is_stmt 1
 931 02ce FFF7FEFF 		bl	outputHdlcClose
 225:build/openmote-cc2538_armgcc/drivers/common/openserial.c ****     ENABLE_INTERRUPTS();
 932              		.loc 1 225 0
 933 02d2 FFF7FEFF 		bl	IntMasterEnable
 226:build/openmote-cc2538_armgcc/drivers/common/openserial.c ****     
 227:build/openmote-cc2538_armgcc/drivers/common/openserial.c ****     return E_SUCCESS;
 934              		.loc 1 227 0
 935 02d6 0023     		movs	r3, #0
 228:build/openmote-cc2538_armgcc/drivers/common/openserial.c **** }
 936              		.loc 1 228 0
 937 02d8 1846     		mov	r0, r3
 938 02da 1037     		adds	r7, r7, #16
 939              		.cfi_def_cfa_offset 8
 940 02dc BD46     		mov	sp, r7
 941              		.cfi_def_cfa_register 13
 942              		@ sp needed
 943 02de 80BD     		pop	{r7, pc}
 944              	.L26:
 945              		.align	2
 946              	.L25:
 947 02e0 00000000 		.word	openserial_vars
 948              		.cfi_endproc
 949              	.LFE6:
 951              		.align	2
 952              		.global	openserial_printSniffedPacket
 953              		.thumb
 954              		.thumb_func
 956              	openserial_printSniffedPacket:
 957              	.LFB7:
 229:build/openmote-cc2538_armgcc/drivers/common/openserial.c **** 
 230:build/openmote-cc2538_armgcc/drivers/common/openserial.c **** owerror_t openserial_printSniffedPacket(uint8_t* buffer, uint8_t length, uint8_t channel) {
 958              		.loc 1 230 0
 959              		.cfi_startproc
 960              		@ args = 0, pretend = 0, frame = 16
 961              		@ frame_needed = 1, uses_anonymous_args = 0
 962 02e4 80B5     		push	{r7, lr}
 963              		.cfi_def_cfa_offset 8
 964              		.cfi_offset 7, -8
 965              		.cfi_offset 14, -4
 966 02e6 84B0     		sub	sp, sp, #16
 967              		.cfi_def_cfa_offset 24
 968 02e8 00AF     		add	r7, sp, #0
 969              		.cfi_def_cfa_register 7
 970 02ea 7860     		str	r0, [r7, #4]
 971 02ec 0B46     		mov	r3, r1
 972 02ee FB70     		strb	r3, [r7, #3]
 973 02f0 1346     		mov	r3, r2
 974 02f2 BB70     		strb	r3, [r7, #2]
 231:build/openmote-cc2538_armgcc/drivers/common/openserial.c ****     uint8_t  i;
 232:build/openmote-cc2538_armgcc/drivers/common/openserial.c ****     INTERRUPT_DECLARATION();
 233:build/openmote-cc2538_armgcc/drivers/common/openserial.c ****     
 234:build/openmote-cc2538_armgcc/drivers/common/openserial.c ****     DISABLE_INTERRUPTS();
 975              		.loc 1 234 0
 976 02f4 FFF7FEFF 		bl	IntMasterDisable
 235:build/openmote-cc2538_armgcc/drivers/common/openserial.c ****     openserial_vars.outputBufFilled  = TRUE;
 977              		.loc 1 235 0
 978 02f8 1B4B     		ldr	r3, .L31
 979 02fa 0122     		movs	r2, #1
 980 02fc 83F8DD20 		strb	r2, [r3, #221]
 236:build/openmote-cc2538_armgcc/drivers/common/openserial.c ****     outputHdlcOpen();
 981              		.loc 1 236 0
 982 0300 FFF7FEFF 		bl	outputHdlcOpen
 237:build/openmote-cc2538_armgcc/drivers/common/openserial.c ****     outputHdlcWrite(SERFRAME_MOTE2PC_SNIFFED_PACKET);
 983              		.loc 1 237 0
 984 0304 5020     		movs	r0, #80
 985 0306 FFF7FEFF 		bl	outputHdlcWrite
 238:build/openmote-cc2538_armgcc/drivers/common/openserial.c ****     outputHdlcWrite(idmanager_getMyID(ADDR_16B)->addr_16b[1]);
 986              		.loc 1 238 0
 987 030a 0120     		movs	r0, #1
 988 030c FFF7FEFF 		bl	idmanager_getMyID
 989 0310 0346     		mov	r3, r0
 990 0312 9B78     		ldrb	r3, [r3, #2]	@ zero_extendqisi2
 991 0314 1846     		mov	r0, r3
 992 0316 FFF7FEFF 		bl	outputHdlcWrite
 239:build/openmote-cc2538_armgcc/drivers/common/openserial.c ****     outputHdlcWrite(idmanager_getMyID(ADDR_16B)->addr_16b[0]);
 993              		.loc 1 239 0
 994 031a 0120     		movs	r0, #1
 995 031c FFF7FEFF 		bl	idmanager_getMyID
 996 0320 0346     		mov	r3, r0
 997 0322 5B78     		ldrb	r3, [r3, #1]	@ zero_extendqisi2
 998 0324 1846     		mov	r0, r3
 999 0326 FFF7FEFF 		bl	outputHdlcWrite
 240:build/openmote-cc2538_armgcc/drivers/common/openserial.c ****     for (i=0;i<length;i++){
 1000              		.loc 1 240 0
 1001 032a 0023     		movs	r3, #0
 1002 032c FB73     		strb	r3, [r7, #15]
 1003 032e 09E0     		b	.L28
 1004              	.L29:
 241:build/openmote-cc2538_armgcc/drivers/common/openserial.c ****        outputHdlcWrite(buffer[i]);
 1005              		.loc 1 241 0 discriminator 3
 1006 0330 FB7B     		ldrb	r3, [r7, #15]	@ zero_extendqisi2
 1007 0332 7A68     		ldr	r2, [r7, #4]
 1008 0334 1344     		add	r3, r3, r2
 1009 0336 1B78     		ldrb	r3, [r3]	@ zero_extendqisi2
 1010 0338 1846     		mov	r0, r3
 1011 033a FFF7FEFF 		bl	outputHdlcWrite
 240:build/openmote-cc2538_armgcc/drivers/common/openserial.c ****     for (i=0;i<length;i++){
 1012              		.loc 1 240 0 discriminator 3
 1013 033e FB7B     		ldrb	r3, [r7, #15]	@ zero_extendqisi2
 1014 0340 0133     		adds	r3, r3, #1
 1015 0342 FB73     		strb	r3, [r7, #15]
 1016              	.L28:
 240:build/openmote-cc2538_armgcc/drivers/common/openserial.c ****     for (i=0;i<length;i++){
 1017              		.loc 1 240 0 is_stmt 0 discriminator 1
 1018 0344 FA7B     		ldrb	r2, [r7, #15]	@ zero_extendqisi2
 1019 0346 FB78     		ldrb	r3, [r7, #3]	@ zero_extendqisi2
 1020 0348 9A42     		cmp	r2, r3
 1021 034a F1D3     		bcc	.L29
 242:build/openmote-cc2538_armgcc/drivers/common/openserial.c ****     }
 243:build/openmote-cc2538_armgcc/drivers/common/openserial.c ****     outputHdlcWrite(channel);
 1022              		.loc 1 243 0 is_stmt 1
 1023 034c BB78     		ldrb	r3, [r7, #2]	@ zero_extendqisi2
 1024 034e 1846     		mov	r0, r3
 1025 0350 FFF7FEFF 		bl	outputHdlcWrite
 244:build/openmote-cc2538_armgcc/drivers/common/openserial.c ****     outputHdlcClose();
 1026              		.loc 1 244 0
 1027 0354 FFF7FEFF 		bl	outputHdlcClose
 245:build/openmote-cc2538_armgcc/drivers/common/openserial.c ****     
 246:build/openmote-cc2538_armgcc/drivers/common/openserial.c ****     ENABLE_INTERRUPTS();
 1028              		.loc 1 246 0
 1029 0358 FFF7FEFF 		bl	IntMasterEnable
 247:build/openmote-cc2538_armgcc/drivers/common/openserial.c ****     
 248:build/openmote-cc2538_armgcc/drivers/common/openserial.c ****     return E_SUCCESS;
 1030              		.loc 1 248 0
 1031 035c 0023     		movs	r3, #0
 249:build/openmote-cc2538_armgcc/drivers/common/openserial.c **** }
 1032              		.loc 1 249 0
 1033 035e 1846     		mov	r0, r3
 1034 0360 1037     		adds	r7, r7, #16
 1035              		.cfi_def_cfa_offset 8
 1036 0362 BD46     		mov	sp, r7
 1037              		.cfi_def_cfa_register 13
 1038              		@ sp needed
 1039 0364 80BD     		pop	{r7, pc}
 1040              	.L32:
 1041 0366 00BF     		.align	2
 1042              	.L31:
 1043 0368 00000000 		.word	openserial_vars
 1044              		.cfi_endproc
 1045              	.LFE7:
 1047              		.align	2
 1048              		.global	openserial_getInputBufferFilllevel
 1049              		.thumb
 1050              		.thumb_func
 1052              	openserial_getInputBufferFilllevel:
 1053              	.LFB8:
 250:build/openmote-cc2538_armgcc/drivers/common/openserial.c **** 
 251:build/openmote-cc2538_armgcc/drivers/common/openserial.c **** //===== retrieving inputBuffer
 252:build/openmote-cc2538_armgcc/drivers/common/openserial.c **** 
 253:build/openmote-cc2538_armgcc/drivers/common/openserial.c **** uint8_t openserial_getInputBufferFilllevel() {
 1054              		.loc 1 253 0
 1055              		.cfi_startproc
 1056              		@ args = 0, pretend = 0, frame = 8
 1057              		@ frame_needed = 1, uses_anonymous_args = 0
 1058 036c 80B5     		push	{r7, lr}
 1059              		.cfi_def_cfa_offset 8
 1060              		.cfi_offset 7, -8
 1061              		.cfi_offset 14, -4
 1062 036e 82B0     		sub	sp, sp, #8
 1063              		.cfi_def_cfa_offset 16
 1064 0370 00AF     		add	r7, sp, #0
 1065              		.cfi_def_cfa_register 7
 254:build/openmote-cc2538_armgcc/drivers/common/openserial.c ****     uint8_t inputBufFill;
 255:build/openmote-cc2538_armgcc/drivers/common/openserial.c ****     INTERRUPT_DECLARATION();
 256:build/openmote-cc2538_armgcc/drivers/common/openserial.c ****     
 257:build/openmote-cc2538_armgcc/drivers/common/openserial.c ****     DISABLE_INTERRUPTS();
 1066              		.loc 1 257 0
 1067 0372 FFF7FEFF 		bl	IntMasterDisable
 258:build/openmote-cc2538_armgcc/drivers/common/openserial.c ****     inputBufFill = openserial_vars.inputBufFill;
 1068              		.loc 1 258 0
 1069 0376 064B     		ldr	r3, .L35
 1070 0378 1B7D     		ldrb	r3, [r3, #20]
 1071 037a FB71     		strb	r3, [r7, #7]
 259:build/openmote-cc2538_armgcc/drivers/common/openserial.c ****     ENABLE_INTERRUPTS();
 1072              		.loc 1 259 0
 1073 037c FFF7FEFF 		bl	IntMasterEnable
 260:build/openmote-cc2538_armgcc/drivers/common/openserial.c ****     
 261:build/openmote-cc2538_armgcc/drivers/common/openserial.c ****     return inputBufFill-1; // removing the command byte
 1074              		.loc 1 261 0
 1075 0380 FB79     		ldrb	r3, [r7, #7]
 1076 0382 013B     		subs	r3, r3, #1
 1077 0384 DBB2     		uxtb	r3, r3
 262:build/openmote-cc2538_armgcc/drivers/common/openserial.c **** }
 1078              		.loc 1 262 0
 1079 0386 1846     		mov	r0, r3
 1080 0388 0837     		adds	r7, r7, #8
 1081              		.cfi_def_cfa_offset 8
 1082 038a BD46     		mov	sp, r7
 1083              		.cfi_def_cfa_register 13
 1084              		@ sp needed
 1085 038c 80BD     		pop	{r7, pc}
 1086              	.L36:
 1087 038e 00BF     		.align	2
 1088              	.L35:
 1089 0390 00000000 		.word	openserial_vars
 1090              		.cfi_endproc
 1091              	.LFE8:
 1093              		.align	2
 1094              		.global	openserial_getInputBuffer
 1095              		.thumb
 1096              		.thumb_func
 1098              	openserial_getInputBuffer:
 1099              	.LFB9:
 263:build/openmote-cc2538_armgcc/drivers/common/openserial.c **** 
 264:build/openmote-cc2538_armgcc/drivers/common/openserial.c **** uint8_t openserial_getInputBuffer(uint8_t* bufferToWrite, uint8_t maxNumBytes) {
 1100              		.loc 1 264 0
 1101              		.cfi_startproc
 1102              		@ args = 0, pretend = 0, frame = 16
 1103              		@ frame_needed = 1, uses_anonymous_args = 0
 1104 0394 80B5     		push	{r7, lr}
 1105              		.cfi_def_cfa_offset 8
 1106              		.cfi_offset 7, -8
 1107              		.cfi_offset 14, -4
 1108 0396 84B0     		sub	sp, sp, #16
 1109              		.cfi_def_cfa_offset 24
 1110 0398 00AF     		add	r7, sp, #0
 1111              		.cfi_def_cfa_register 7
 1112 039a 7860     		str	r0, [r7, #4]
 1113 039c 0B46     		mov	r3, r1
 1114 039e FB70     		strb	r3, [r7, #3]
 265:build/openmote-cc2538_armgcc/drivers/common/openserial.c ****     uint8_t numBytesWritten;
 266:build/openmote-cc2538_armgcc/drivers/common/openserial.c ****     uint8_t inputBufFill;
 267:build/openmote-cc2538_armgcc/drivers/common/openserial.c ****     INTERRUPT_DECLARATION();
 268:build/openmote-cc2538_armgcc/drivers/common/openserial.c ****     
 269:build/openmote-cc2538_armgcc/drivers/common/openserial.c ****     DISABLE_INTERRUPTS();
 1115              		.loc 1 269 0
 1116 03a0 FFF7FEFF 		bl	IntMasterDisable
 270:build/openmote-cc2538_armgcc/drivers/common/openserial.c ****     inputBufFill = openserial_vars.inputBufFill;
 1117              		.loc 1 270 0
 1118 03a4 124B     		ldr	r3, .L41
 1119 03a6 1B7D     		ldrb	r3, [r3, #20]
 1120 03a8 BB73     		strb	r3, [r7, #14]
 271:build/openmote-cc2538_armgcc/drivers/common/openserial.c ****     ENABLE_INTERRUPTS();
 1121              		.loc 1 271 0
 1122 03aa FFF7FEFF 		bl	IntMasterEnable
 272:build/openmote-cc2538_armgcc/drivers/common/openserial.c ****      
 273:build/openmote-cc2538_armgcc/drivers/common/openserial.c ****     if (maxNumBytes<inputBufFill-1) {
 1123              		.loc 1 273 0
 1124 03ae FA78     		ldrb	r2, [r7, #3]	@ zero_extendqisi2
 1125 03b0 BB7B     		ldrb	r3, [r7, #14]	@ zero_extendqisi2
 1126 03b2 013B     		subs	r3, r3, #1
 1127 03b4 9A42     		cmp	r2, r3
 1128 03b6 0CDA     		bge	.L38
 274:build/openmote-cc2538_armgcc/drivers/common/openserial.c ****         openserial_printError(
 1129              		.loc 1 274 0
 1130 03b8 FB78     		ldrb	r3, [r7, #3]	@ zero_extendqisi2
 1131 03ba 9AB2     		uxth	r2, r3
 1132 03bc BB7B     		ldrb	r3, [r7, #14]	@ zero_extendqisi2
 1133 03be 9BB2     		uxth	r3, r3
 1134 03c0 013B     		subs	r3, r3, #1
 1135 03c2 9BB2     		uxth	r3, r3
 1136 03c4 0321     		movs	r1, #3
 1137 03c6 0420     		movs	r0, #4
 1138 03c8 FFF7FEFF 		bl	openserial_printError
 275:build/openmote-cc2538_armgcc/drivers/common/openserial.c ****             COMPONENT_OPENSERIAL,
 276:build/openmote-cc2538_armgcc/drivers/common/openserial.c ****             ERR_GETDATA_ASKS_TOO_FEW_BYTES,
 277:build/openmote-cc2538_armgcc/drivers/common/openserial.c ****             (errorparameter_t)maxNumBytes,
 278:build/openmote-cc2538_armgcc/drivers/common/openserial.c ****             (errorparameter_t)inputBufFill-1
 279:build/openmote-cc2538_armgcc/drivers/common/openserial.c ****         );
 280:build/openmote-cc2538_armgcc/drivers/common/openserial.c ****         numBytesWritten = 0;
 1139              		.loc 1 280 0
 1140 03cc 0023     		movs	r3, #0
 1141 03ce FB73     		strb	r3, [r7, #15]
 1142 03d0 08E0     		b	.L39
 1143              	.L38:
 281:build/openmote-cc2538_armgcc/drivers/common/openserial.c ****     } else {
 282:build/openmote-cc2538_armgcc/drivers/common/openserial.c ****         numBytesWritten = inputBufFill-1;
 1144              		.loc 1 282 0
 1145 03d2 BB7B     		ldrb	r3, [r7, #14]
 1146 03d4 013B     		subs	r3, r3, #1
 1147 03d6 FB73     		strb	r3, [r7, #15]
 283:build/openmote-cc2538_armgcc/drivers/common/openserial.c ****         memcpy(bufferToWrite,&(openserial_vars.inputBuf[1]),numBytesWritten);
 1148              		.loc 1 283 0
 1149 03d8 FB7B     		ldrb	r3, [r7, #15]	@ zero_extendqisi2
 1150 03da 1A46     		mov	r2, r3
 1151 03dc 0549     		ldr	r1, .L41+4
 1152 03de 7868     		ldr	r0, [r7, #4]
 1153 03e0 FFF7FEFF 		bl	memcpy
 1154              	.L39:
 284:build/openmote-cc2538_armgcc/drivers/common/openserial.c ****     }
 285:build/openmote-cc2538_armgcc/drivers/common/openserial.c ****     
 286:build/openmote-cc2538_armgcc/drivers/common/openserial.c ****     return numBytesWritten;
 1155              		.loc 1 286 0
 1156 03e4 FB7B     		ldrb	r3, [r7, #15]	@ zero_extendqisi2
 287:build/openmote-cc2538_armgcc/drivers/common/openserial.c **** }
 1157              		.loc 1 287 0
 1158 03e6 1846     		mov	r0, r3
 1159 03e8 1037     		adds	r7, r7, #16
 1160              		.cfi_def_cfa_offset 8
 1161 03ea BD46     		mov	sp, r7
 1162              		.cfi_def_cfa_register 13
 1163              		@ sp needed
 1164 03ec 80BD     		pop	{r7, pc}
 1165              	.L42:
 1166 03ee 00BF     		.align	2
 1167              	.L41:
 1168 03f0 00000000 		.word	openserial_vars
 1169 03f4 16000000 		.word	openserial_vars+22
 1170              		.cfi_endproc
 1171              	.LFE9:
 1173              		.align	2
 1174              		.global	openserial_startInput
 1175              		.thumb
 1176              		.thumb_func
 1178              	openserial_startInput:
 1179              	.LFB10:
 288:build/openmote-cc2538_armgcc/drivers/common/openserial.c **** 
 289:build/openmote-cc2538_armgcc/drivers/common/openserial.c **** //===== scheduling
 290:build/openmote-cc2538_armgcc/drivers/common/openserial.c **** 
 291:build/openmote-cc2538_armgcc/drivers/common/openserial.c **** void openserial_startInput() {
 1180              		.loc 1 291 0
 1181              		.cfi_startproc
 1182              		@ args = 0, pretend = 0, frame = 0
 1183              		@ frame_needed = 1, uses_anonymous_args = 0
 1184 03f8 80B5     		push	{r7, lr}
 1185              		.cfi_def_cfa_offset 8
 1186              		.cfi_offset 7, -8
 1187              		.cfi_offset 14, -4
 1188 03fa 00AF     		add	r7, sp, #0
 1189              		.cfi_def_cfa_register 7
 292:build/openmote-cc2538_armgcc/drivers/common/openserial.c ****     INTERRUPT_DECLARATION();
 293:build/openmote-cc2538_armgcc/drivers/common/openserial.c ****     
 294:build/openmote-cc2538_armgcc/drivers/common/openserial.c ****     if (openserial_vars.inputBufFill>0) {
 1190              		.loc 1 294 0
 1191 03fc 184B     		ldr	r3, .L45
 1192 03fe 1B7D     		ldrb	r3, [r3, #20]	@ zero_extendqisi2
 1193 0400 002B     		cmp	r3, #0
 1194 0402 0ED0     		beq	.L44
 295:build/openmote-cc2538_armgcc/drivers/common/openserial.c ****         openserial_printError(
 296:build/openmote-cc2538_armgcc/drivers/common/openserial.c ****             COMPONENT_OPENSERIAL,
 297:build/openmote-cc2538_armgcc/drivers/common/openserial.c ****             ERR_INPUTBUFFER_LENGTH,
 298:build/openmote-cc2538_armgcc/drivers/common/openserial.c ****             (errorparameter_t)openserial_vars.inputBufFill,
 1195              		.loc 1 298 0
 1196 0404 164B     		ldr	r3, .L45
 1197 0406 1B7D     		ldrb	r3, [r3, #20]	@ zero_extendqisi2
 295:build/openmote-cc2538_armgcc/drivers/common/openserial.c ****         openserial_printError(
 1198              		.loc 1 295 0
 1199 0408 9AB2     		uxth	r2, r3
 1200 040a 0023     		movs	r3, #0
 1201 040c 3421     		movs	r1, #52
 1202 040e 0420     		movs	r0, #4
 1203 0410 FFF7FEFF 		bl	openserial_printError
 299:build/openmote-cc2538_armgcc/drivers/common/openserial.c ****             (errorparameter_t)0
 300:build/openmote-cc2538_armgcc/drivers/common/openserial.c ****         );
 301:build/openmote-cc2538_armgcc/drivers/common/openserial.c ****         DISABLE_INTERRUPTS();
 1204              		.loc 1 301 0
 1205 0414 FFF7FEFF 		bl	IntMasterDisable
 302:build/openmote-cc2538_armgcc/drivers/common/openserial.c ****         openserial_vars.inputBufFill=0;
 1206              		.loc 1 302 0
 1207 0418 114B     		ldr	r3, .L45
 1208 041a 0022     		movs	r2, #0
 1209 041c 1A75     		strb	r2, [r3, #20]
 303:build/openmote-cc2538_armgcc/drivers/common/openserial.c ****         ENABLE_INTERRUPTS();
 1210              		.loc 1 303 0
 1211 041e FFF7FEFF 		bl	IntMasterEnable
 1212              	.L44:
 304:build/openmote-cc2538_armgcc/drivers/common/openserial.c ****     }
 305:build/openmote-cc2538_armgcc/drivers/common/openserial.c ****     
 306:build/openmote-cc2538_armgcc/drivers/common/openserial.c ****     uart_clearTxInterrupts();
 1213              		.loc 1 306 0
 1214 0422 FFF7FEFF 		bl	uart_clearTxInterrupts
 307:build/openmote-cc2538_armgcc/drivers/common/openserial.c ****     uart_clearRxInterrupts();      // clear possible pending interrupts
 1215              		.loc 1 307 0
 1216 0426 FFF7FEFF 		bl	uart_clearRxInterrupts
 308:build/openmote-cc2538_armgcc/drivers/common/openserial.c ****     uart_enableInterrupts();       // Enable USCI_A1 TX & RX interrupt
 1217              		.loc 1 308 0
 1218 042a FFF7FEFF 		bl	uart_enableInterrupts
 309:build/openmote-cc2538_armgcc/drivers/common/openserial.c ****     
 310:build/openmote-cc2538_armgcc/drivers/common/openserial.c ****     DISABLE_INTERRUPTS();
 1219              		.loc 1 310 0
 1220 042e FFF7FEFF 		bl	IntMasterDisable
 311:build/openmote-cc2538_armgcc/drivers/common/openserial.c ****     openserial_vars.busyReceiving  = FALSE;
 1221              		.loc 1 311 0
 1222 0432 0B4B     		ldr	r3, .L45
 1223 0434 0022     		movs	r2, #0
 1224 0436 DA73     		strb	r2, [r3, #15]
 312:build/openmote-cc2538_armgcc/drivers/common/openserial.c ****     openserial_vars.mode           = MODE_INPUT;
 1225              		.loc 1 312 0
 1226 0438 094B     		ldr	r3, .L45
 1227 043a 0122     		movs	r2, #1
 1228 043c 1A70     		strb	r2, [r3]
 313:build/openmote-cc2538_armgcc/drivers/common/openserial.c ****     openserial_vars.reqFrameIdx    = 0;
 1229              		.loc 1 313 0
 1230 043e 084B     		ldr	r3, .L45
 1231 0440 0022     		movs	r2, #0
 1232 0442 5A73     		strb	r2, [r3, #13]
 314:build/openmote-cc2538_armgcc/drivers/common/openserial.c **** #ifdef FASTSIM
 315:build/openmote-cc2538_armgcc/drivers/common/openserial.c ****     uart_writeBufferByLen_FASTSIM(
 316:build/openmote-cc2538_armgcc/drivers/common/openserial.c ****         openserial_vars.reqFrame,
 317:build/openmote-cc2538_armgcc/drivers/common/openserial.c ****         sizeof(openserial_vars.reqFrame)
 318:build/openmote-cc2538_armgcc/drivers/common/openserial.c ****     );
 319:build/openmote-cc2538_armgcc/drivers/common/openserial.c ****     openserial_vars.reqFrameIdx = sizeof(openserial_vars.reqFrame);
 320:build/openmote-cc2538_armgcc/drivers/common/openserial.c **** #else
 321:build/openmote-cc2538_armgcc/drivers/common/openserial.c ****     uart_writeByte(openserial_vars.reqFrame[openserial_vars.reqFrameIdx]);
 1233              		.loc 1 321 0
 1234 0444 064B     		ldr	r3, .L45
 1235 0446 5B7B     		ldrb	r3, [r3, #13]	@ zero_extendqisi2
 1236 0448 1A46     		mov	r2, r3
 1237 044a 054B     		ldr	r3, .L45
 1238 044c 1344     		add	r3, r3, r2
 1239 044e 1B7A     		ldrb	r3, [r3, #8]	@ zero_extendqisi2
 1240 0450 1846     		mov	r0, r3
 1241 0452 FFF7FEFF 		bl	uart_writeByte
 322:build/openmote-cc2538_armgcc/drivers/common/openserial.c **** #endif
 323:build/openmote-cc2538_armgcc/drivers/common/openserial.c ****     ENABLE_INTERRUPTS();
 1242              		.loc 1 323 0
 1243 0456 FFF7FEFF 		bl	IntMasterEnable
 324:build/openmote-cc2538_armgcc/drivers/common/openserial.c **** }
 1244              		.loc 1 324 0
 1245 045a 00BF     		nop
 1246 045c 80BD     		pop	{r7, pc}
 1247              	.L46:
 1248 045e 00BF     		.align	2
 1249              	.L45:
 1250 0460 00000000 		.word	openserial_vars
 1251              		.cfi_endproc
 1252              	.LFE10:
 1254              		.align	2
 1255              		.global	openserial_startOutput
 1256              		.thumb
 1257              		.thumb_func
 1259              	openserial_startOutput:
 1260              	.LFB11:
 325:build/openmote-cc2538_armgcc/drivers/common/openserial.c **** 
 326:build/openmote-cc2538_armgcc/drivers/common/openserial.c **** void openserial_startOutput() {
 1261              		.loc 1 326 0
 1262              		.cfi_startproc
 1263              		@ args = 0, pretend = 0, frame = 8
 1264              		@ frame_needed = 1, uses_anonymous_args = 0
 1265 0464 80B5     		push	{r7, lr}
 1266              		.cfi_def_cfa_offset 8
 1267              		.cfi_offset 7, -8
 1268              		.cfi_offset 14, -4
 1269 0466 82B0     		sub	sp, sp, #8
 1270              		.cfi_def_cfa_offset 16
 1271 0468 00AF     		add	r7, sp, #0
 1272              		.cfi_def_cfa_register 7
 327:build/openmote-cc2538_armgcc/drivers/common/openserial.c ****     uint8_t debugPrintCounter;
 328:build/openmote-cc2538_armgcc/drivers/common/openserial.c ****     INTERRUPT_DECLARATION();
 329:build/openmote-cc2538_armgcc/drivers/common/openserial.c ****     
 330:build/openmote-cc2538_armgcc/drivers/common/openserial.c ****     //=== made modules print debug information
 331:build/openmote-cc2538_armgcc/drivers/common/openserial.c ****     
 332:build/openmote-cc2538_armgcc/drivers/common/openserial.c ****     DISABLE_INTERRUPTS();
 1273              		.loc 1 332 0
 1274 046a FFF7FEFF 		bl	IntMasterDisable
 333:build/openmote-cc2538_armgcc/drivers/common/openserial.c ****     openserial_vars.debugPrintCounter = (openserial_vars.debugPrintCounter+1)%STATUS_MAX;
 1275              		.loc 1 333 0
 1276 046e 5D4B     		ldr	r3, .L77
 1277 0470 5B78     		ldrb	r3, [r3, #1]	@ zero_extendqisi2
 1278 0472 5A1C     		adds	r2, r3, #1
 1279 0474 5C4B     		ldr	r3, .L77+4
 1280 0476 83FB0213 		smull	r1, r3, r3, r2
 1281 047a 5910     		asrs	r1, r3, #1
 1282 047c D317     		asrs	r3, r2, #31
 1283 047e C91A     		subs	r1, r1, r3
 1284 0480 0B46     		mov	r3, r1
 1285 0482 5B00     		lsls	r3, r3, #1
 1286 0484 0B44     		add	r3, r3, r1
 1287 0486 9B00     		lsls	r3, r3, #2
 1288 0488 D11A     		subs	r1, r2, r3
 1289 048a CAB2     		uxtb	r2, r1
 1290 048c 554B     		ldr	r3, .L77
 1291 048e 5A70     		strb	r2, [r3, #1]
 334:build/openmote-cc2538_armgcc/drivers/common/openserial.c ****     debugPrintCounter = openserial_vars.debugPrintCounter;
 1292              		.loc 1 334 0
 1293 0490 544B     		ldr	r3, .L77
 1294 0492 5B78     		ldrb	r3, [r3, #1]
 1295 0494 FB71     		strb	r3, [r7, #7]
 335:build/openmote-cc2538_armgcc/drivers/common/openserial.c ****     ENABLE_INTERRUPTS();
 1296              		.loc 1 335 0
 1297 0496 FFF7FEFF 		bl	IntMasterEnable
 336:build/openmote-cc2538_armgcc/drivers/common/openserial.c ****     
 337:build/openmote-cc2538_armgcc/drivers/common/openserial.c ****     switch (debugPrintCounter) {
 1298              		.loc 1 337 0
 1299 049a FB79     		ldrb	r3, [r7, #7]	@ zero_extendqisi2
 1300 049c 0B2B     		cmp	r3, #11
 1301 049e 57D8     		bhi	.L48
 1302 04a0 01A2     		adr	r2, .L50
 1303 04a2 52F823F0 		ldr	pc, [r2, r3, lsl #2]
 1304 04a6 00BF     		.p2align 2
 1305              	.L50:
 1306 04a8 D9040000 		.word	.L49+1
 1307 04ac E3040000 		.word	.L51+1
 1308 04b0 ED040000 		.word	.L52+1
 1309 04b4 F7040000 		.word	.L53+1
 1310 04b8 01050000 		.word	.L54+1
 1311 04bc 0B050000 		.word	.L55+1
 1312 04c0 15050000 		.word	.L56+1
 1313 04c4 1F050000 		.word	.L57+1
 1314 04c8 29050000 		.word	.L58+1
 1315 04cc 33050000 		.word	.L59+1
 1316 04d0 3D050000 		.word	.L60+1
 1317 04d4 47050000 		.word	.L61+1
 1318              		.p2align 1
 1319              	.L49:
 338:build/openmote-cc2538_armgcc/drivers/common/openserial.c ****         case STATUS_ISSYNC:
 339:build/openmote-cc2538_armgcc/drivers/common/openserial.c ****             if (debugPrint_isSync()==TRUE) {
 1320              		.loc 1 339 0
 1321 04d8 FFF7FEFF 		bl	debugPrint_isSync
 1322 04dc 0346     		mov	r3, r0
 1323 04de 002B     		cmp	r3, #0
 1324 04e0 3ED1     		bne	.L65
 1325              	.L51:
 340:build/openmote-cc2538_armgcc/drivers/common/openserial.c ****                 break;
 341:build/openmote-cc2538_armgcc/drivers/common/openserial.c ****             }
 342:build/openmote-cc2538_armgcc/drivers/common/openserial.c ****         case STATUS_ID:
 343:build/openmote-cc2538_armgcc/drivers/common/openserial.c ****             if (debugPrint_id()==TRUE) {
 1326              		.loc 1 343 0
 1327 04e2 FFF7FEFF 		bl	debugPrint_id
 1328 04e6 0346     		mov	r3, r0
 1329 04e8 002B     		cmp	r3, #0
 1330 04ea 3BD1     		bne	.L66
 1331              	.L52:
 344:build/openmote-cc2538_armgcc/drivers/common/openserial.c ****                break;
 345:build/openmote-cc2538_armgcc/drivers/common/openserial.c ****             }
 346:build/openmote-cc2538_armgcc/drivers/common/openserial.c ****         case STATUS_DAGRANK:
 347:build/openmote-cc2538_armgcc/drivers/common/openserial.c ****             if (debugPrint_myDAGrank()==TRUE) {
 1332              		.loc 1 347 0
 1333 04ec FFF7FEFF 		bl	debugPrint_myDAGrank
 1334 04f0 0346     		mov	r3, r0
 1335 04f2 002B     		cmp	r3, #0
 1336 04f4 38D1     		bne	.L67
 1337              	.L53:
 348:build/openmote-cc2538_armgcc/drivers/common/openserial.c ****                 break;
 349:build/openmote-cc2538_armgcc/drivers/common/openserial.c ****             }
 350:build/openmote-cc2538_armgcc/drivers/common/openserial.c ****         case STATUS_OUTBUFFERINDEXES:
 351:build/openmote-cc2538_armgcc/drivers/common/openserial.c ****             if (debugPrint_outBufferIndexes()==TRUE) {
 1338              		.loc 1 351 0
 1339 04f6 FFF7FEFF 		bl	debugPrint_outBufferIndexes
 1340 04fa 0346     		mov	r3, r0
 1341 04fc 002B     		cmp	r3, #0
 1342 04fe 35D1     		bne	.L68
 1343              	.L54:
 352:build/openmote-cc2538_armgcc/drivers/common/openserial.c ****                 break;
 353:build/openmote-cc2538_armgcc/drivers/common/openserial.c ****             }
 354:build/openmote-cc2538_armgcc/drivers/common/openserial.c ****         case STATUS_ASN:
 355:build/openmote-cc2538_armgcc/drivers/common/openserial.c ****             if (debugPrint_asn()==TRUE) {
 1344              		.loc 1 355 0
 1345 0500 FFF7FEFF 		bl	debugPrint_asn
 1346 0504 0346     		mov	r3, r0
 1347 0506 002B     		cmp	r3, #0
 1348 0508 32D1     		bne	.L69
 1349              	.L55:
 356:build/openmote-cc2538_armgcc/drivers/common/openserial.c ****                 break;
 357:build/openmote-cc2538_armgcc/drivers/common/openserial.c ****             }
 358:build/openmote-cc2538_armgcc/drivers/common/openserial.c ****         case STATUS_MACSTATS:
 359:build/openmote-cc2538_armgcc/drivers/common/openserial.c ****             if (debugPrint_macStats()==TRUE) {
 1350              		.loc 1 359 0
 1351 050a FFF7FEFF 		bl	debugPrint_macStats
 1352 050e 0346     		mov	r3, r0
 1353 0510 002B     		cmp	r3, #0
 1354 0512 2FD1     		bne	.L70
 1355              	.L56:
 360:build/openmote-cc2538_armgcc/drivers/common/openserial.c ****                 break;
 361:build/openmote-cc2538_armgcc/drivers/common/openserial.c ****             }
 362:build/openmote-cc2538_armgcc/drivers/common/openserial.c ****         case STATUS_SCHEDULE:
 363:build/openmote-cc2538_armgcc/drivers/common/openserial.c ****             if(debugPrint_schedule()==TRUE) {
 1356              		.loc 1 363 0
 1357 0514 FFF7FEFF 		bl	debugPrint_schedule
 1358 0518 0346     		mov	r3, r0
 1359 051a 002B     		cmp	r3, #0
 1360 051c 2CD1     		bne	.L71
 1361              	.L57:
 364:build/openmote-cc2538_armgcc/drivers/common/openserial.c ****                 break;
 365:build/openmote-cc2538_armgcc/drivers/common/openserial.c ****             }
 366:build/openmote-cc2538_armgcc/drivers/common/openserial.c ****         case STATUS_BACKOFF:
 367:build/openmote-cc2538_armgcc/drivers/common/openserial.c ****             if(debugPrint_backoff()==TRUE) {
 1362              		.loc 1 367 0
 1363 051e FFF7FEFF 		bl	debugPrint_backoff
 1364 0522 0346     		mov	r3, r0
 1365 0524 002B     		cmp	r3, #0
 1366 0526 29D1     		bne	.L72
 1367              	.L58:
 368:build/openmote-cc2538_armgcc/drivers/common/openserial.c ****                 break;
 369:build/openmote-cc2538_armgcc/drivers/common/openserial.c ****             }
 370:build/openmote-cc2538_armgcc/drivers/common/openserial.c ****         case STATUS_QUEUE:
 371:build/openmote-cc2538_armgcc/drivers/common/openserial.c ****             if(debugPrint_queue()==TRUE) {
 1368              		.loc 1 371 0
 1369 0528 FFF7FEFF 		bl	debugPrint_queue
 1370 052c 0346     		mov	r3, r0
 1371 052e 002B     		cmp	r3, #0
 1372 0530 26D1     		bne	.L73
 1373              	.L59:
 372:build/openmote-cc2538_armgcc/drivers/common/openserial.c ****                 break;
 373:build/openmote-cc2538_armgcc/drivers/common/openserial.c ****             }
 374:build/openmote-cc2538_armgcc/drivers/common/openserial.c ****         case STATUS_NEIGHBORS:
 375:build/openmote-cc2538_armgcc/drivers/common/openserial.c ****             if (debugPrint_neighbors()==TRUE) {
 1374              		.loc 1 375 0
 1375 0532 FFF7FEFF 		bl	debugPrint_neighbors
 1376 0536 0346     		mov	r3, r0
 1377 0538 002B     		cmp	r3, #0
 1378 053a 23D1     		bne	.L74
 1379              	.L60:
 376:build/openmote-cc2538_armgcc/drivers/common/openserial.c ****                 break;
 377:build/openmote-cc2538_armgcc/drivers/common/openserial.c ****             }
 378:build/openmote-cc2538_armgcc/drivers/common/openserial.c ****         case STATUS_KAPERIOD:
 379:build/openmote-cc2538_armgcc/drivers/common/openserial.c ****             if (debugPrint_kaPeriod()==TRUE) {
 1380              		.loc 1 379 0
 1381 053c FFF7FEFF 		bl	debugPrint_kaPeriod
 1382 0540 0346     		mov	r3, r0
 1383 0542 002B     		cmp	r3, #0
 1384 0544 20D1     		bne	.L75
 1385              	.L61:
 380:build/openmote-cc2538_armgcc/drivers/common/openserial.c ****                 break;
 381:build/openmote-cc2538_armgcc/drivers/common/openserial.c ****             }
 382:build/openmote-cc2538_armgcc/drivers/common/openserial.c ****         case STATUS_JOINED:
 383:build/openmote-cc2538_armgcc/drivers/common/openserial.c ****             if (debugPrint_joined()==TRUE) {
 1386              		.loc 1 383 0
 1387 0546 FFF7FEFF 		bl	debugPrint_joined
 1388 054a 0346     		mov	r3, r0
 1389 054c 002B     		cmp	r3, #0
 1390 054e 1DD1     		bne	.L76
 1391              	.L48:
 384:build/openmote-cc2538_armgcc/drivers/common/openserial.c ****                 break;
 385:build/openmote-cc2538_armgcc/drivers/common/openserial.c ****             }
 386:build/openmote-cc2538_armgcc/drivers/common/openserial.c ****         default:
 387:build/openmote-cc2538_armgcc/drivers/common/openserial.c ****             DISABLE_INTERRUPTS();
 1392              		.loc 1 387 0
 1393 0550 FFF7FEFF 		bl	IntMasterDisable
 388:build/openmote-cc2538_armgcc/drivers/common/openserial.c ****             openserial_vars.debugPrintCounter=0;
 1394              		.loc 1 388 0
 1395 0554 234B     		ldr	r3, .L77
 1396 0556 0022     		movs	r2, #0
 1397 0558 5A70     		strb	r2, [r3, #1]
 389:build/openmote-cc2538_armgcc/drivers/common/openserial.c ****             ENABLE_INTERRUPTS();
 1398              		.loc 1 389 0
 1399 055a FFF7FEFF 		bl	IntMasterEnable
 1400 055e 16E0     		b	.L62
 1401              	.L65:
 340:build/openmote-cc2538_armgcc/drivers/common/openserial.c ****             }
 1402              		.loc 1 340 0
 1403 0560 00BF     		nop
 1404 0562 14E0     		b	.L62
 1405              	.L66:
 344:build/openmote-cc2538_armgcc/drivers/common/openserial.c ****             }
 1406              		.loc 1 344 0
 1407 0564 00BF     		nop
 1408 0566 12E0     		b	.L62
 1409              	.L67:
 348:build/openmote-cc2538_armgcc/drivers/common/openserial.c ****             }
 1410              		.loc 1 348 0
 1411 0568 00BF     		nop
 1412 056a 10E0     		b	.L62
 1413              	.L68:
 352:build/openmote-cc2538_armgcc/drivers/common/openserial.c ****             }
 1414              		.loc 1 352 0
 1415 056c 00BF     		nop
 1416 056e 0EE0     		b	.L62
 1417              	.L69:
 356:build/openmote-cc2538_armgcc/drivers/common/openserial.c ****             }
 1418              		.loc 1 356 0
 1419 0570 00BF     		nop
 1420 0572 0CE0     		b	.L62
 1421              	.L70:
 360:build/openmote-cc2538_armgcc/drivers/common/openserial.c ****             }
 1422              		.loc 1 360 0
 1423 0574 00BF     		nop
 1424 0576 0AE0     		b	.L62
 1425              	.L71:
 364:build/openmote-cc2538_armgcc/drivers/common/openserial.c ****             }
 1426              		.loc 1 364 0
 1427 0578 00BF     		nop
 1428 057a 08E0     		b	.L62
 1429              	.L72:
 368:build/openmote-cc2538_armgcc/drivers/common/openserial.c ****             }
 1430              		.loc 1 368 0
 1431 057c 00BF     		nop
 1432 057e 06E0     		b	.L62
 1433              	.L73:
 372:build/openmote-cc2538_armgcc/drivers/common/openserial.c ****             }
 1434              		.loc 1 372 0
 1435 0580 00BF     		nop
 1436 0582 04E0     		b	.L62
 1437              	.L74:
 376:build/openmote-cc2538_armgcc/drivers/common/openserial.c ****             }
 1438              		.loc 1 376 0
 1439 0584 00BF     		nop
 1440 0586 02E0     		b	.L62
 1441              	.L75:
 380:build/openmote-cc2538_armgcc/drivers/common/openserial.c ****             }
 1442              		.loc 1 380 0
 1443 0588 00BF     		nop
 1444 058a 00E0     		b	.L62
 1445              	.L76:
 384:build/openmote-cc2538_armgcc/drivers/common/openserial.c ****             }
 1446              		.loc 1 384 0
 1447 058c 00BF     		nop
 1448              	.L62:
 390:build/openmote-cc2538_armgcc/drivers/common/openserial.c ****     }
 391:build/openmote-cc2538_armgcc/drivers/common/openserial.c ****     
 392:build/openmote-cc2538_armgcc/drivers/common/openserial.c ****     //=== flush TX buffer
 393:build/openmote-cc2538_armgcc/drivers/common/openserial.c ****     
 394:build/openmote-cc2538_armgcc/drivers/common/openserial.c ****     uart_clearTxInterrupts();
 1449              		.loc 1 394 0
 1450 058e FFF7FEFF 		bl	uart_clearTxInterrupts
 395:build/openmote-cc2538_armgcc/drivers/common/openserial.c ****     uart_clearRxInterrupts();          // clear possible pending interrupts
 1451              		.loc 1 395 0
 1452 0592 FFF7FEFF 		bl	uart_clearRxInterrupts
 396:build/openmote-cc2538_armgcc/drivers/common/openserial.c ****     uart_enableInterrupts();           // Enable USCI_A1 TX & RX interrupt
 1453              		.loc 1 396 0
 1454 0596 FFF7FEFF 		bl	uart_enableInterrupts
 397:build/openmote-cc2538_armgcc/drivers/common/openserial.c ****     
 398:build/openmote-cc2538_armgcc/drivers/common/openserial.c ****     DISABLE_INTERRUPTS();
 1455              		.loc 1 398 0
 1456 059a FFF7FEFF 		bl	IntMasterDisable
 399:build/openmote-cc2538_armgcc/drivers/common/openserial.c ****     openserial_vars.mode=MODE_OUTPUT;
 1457              		.loc 1 399 0
 1458 059e 114B     		ldr	r3, .L77
 1459 05a0 0222     		movs	r2, #2
 1460 05a2 1A70     		strb	r2, [r3]
 400:build/openmote-cc2538_armgcc/drivers/common/openserial.c ****     if (openserial_vars.outputBufFilled) {
 1461              		.loc 1 400 0
 1462 05a4 0F4B     		ldr	r3, .L77
 1463 05a6 93F8DD30 		ldrb	r3, [r3, #221]	@ zero_extendqisi2
 1464 05aa 002B     		cmp	r3, #0
 1465 05ac 11D0     		beq	.L63
 401:build/openmote-cc2538_armgcc/drivers/common/openserial.c **** #ifdef FASTSIM
 402:build/openmote-cc2538_armgcc/drivers/common/openserial.c ****         uart_writeCircularBuffer_FASTSIM(
 403:build/openmote-cc2538_armgcc/drivers/common/openserial.c ****             openserial_vars.outputBuf,
 404:build/openmote-cc2538_armgcc/drivers/common/openserial.c ****             &openserial_vars.outputBufIdxR,
 405:build/openmote-cc2538_armgcc/drivers/common/openserial.c ****             &openserial_vars.outputBufIdxW
 406:build/openmote-cc2538_armgcc/drivers/common/openserial.c ****         );
 407:build/openmote-cc2538_armgcc/drivers/common/openserial.c **** #else
 408:build/openmote-cc2538_armgcc/drivers/common/openserial.c ****         uart_writeByte(openserial_vars.outputBuf[OUTPUT_BUFFER_MASK & (openserial_vars.outputBufIdx
 1466              		.loc 1 408 0
 1467 05ae 0D4B     		ldr	r3, .L77
 1468 05b0 B3F8E230 		ldrh	r3, [r3, #226]
 1469 05b4 5A1C     		adds	r2, r3, #1
 1470 05b6 91B2     		uxth	r1, r2
 1471 05b8 0A4A     		ldr	r2, .L77
 1472 05ba A2F8E210 		strh	r1, [r2, #226]	@ movhi
 1473 05be C3F30903 		ubfx	r3, r3, #0, #10
 1474 05c2 084A     		ldr	r2, .L77
 1475 05c4 1344     		add	r3, r3, r2
 1476 05c6 93F8E430 		ldrb	r3, [r3, #228]	@ zero_extendqisi2
 1477 05ca 1846     		mov	r0, r3
 1478 05cc FFF7FEFF 		bl	uart_writeByte
 1479 05d0 01E0     		b	.L64
 1480              	.L63:
 409:build/openmote-cc2538_armgcc/drivers/common/openserial.c **** #endif
 410:build/openmote-cc2538_armgcc/drivers/common/openserial.c ****     } else {
 411:build/openmote-cc2538_armgcc/drivers/common/openserial.c ****         openserial_stop();
 1481              		.loc 1 411 0
 1482 05d2 FFF7FEFF 		bl	openserial_stop
 1483              	.L64:
 412:build/openmote-cc2538_armgcc/drivers/common/openserial.c ****     }
 413:build/openmote-cc2538_armgcc/drivers/common/openserial.c ****     ENABLE_INTERRUPTS();
 1484              		.loc 1 413 0
 1485 05d6 FFF7FEFF 		bl	IntMasterEnable
 414:build/openmote-cc2538_armgcc/drivers/common/openserial.c **** }
 1486              		.loc 1 414 0
 1487 05da 00BF     		nop
 1488 05dc 0837     		adds	r7, r7, #8
 1489              		.cfi_def_cfa_offset 8
 1490 05de BD46     		mov	sp, r7
 1491              		.cfi_def_cfa_register 13
 1492              		@ sp needed
 1493 05e0 80BD     		pop	{r7, pc}
 1494              	.L78:
 1495 05e2 00BF     		.align	2
 1496              	.L77:
 1497 05e4 00000000 		.word	openserial_vars
 1498 05e8 ABAAAA2A 		.word	715827883
 1499              		.cfi_endproc
 1500              	.LFE11:
 1502              		.align	2
 1503              		.global	openserial_stop
 1504              		.thumb
 1505              		.thumb_func
 1507              	openserial_stop:
 1508              	.LFB12:
 415:build/openmote-cc2538_armgcc/drivers/common/openserial.c **** 
 416:build/openmote-cc2538_armgcc/drivers/common/openserial.c **** void openserial_stop() {
 1509              		.loc 1 416 0
 1510              		.cfi_startproc
 1511              		@ args = 0, pretend = 0, frame = 8
 1512              		@ frame_needed = 1, uses_anonymous_args = 0
 1513 05ec 80B5     		push	{r7, lr}
 1514              		.cfi_def_cfa_offset 8
 1515              		.cfi_offset 7, -8
 1516              		.cfi_offset 14, -4
 1517 05ee 82B0     		sub	sp, sp, #8
 1518              		.cfi_def_cfa_offset 16
 1519 05f0 00AF     		add	r7, sp, #0
 1520              		.cfi_def_cfa_register 7
 417:build/openmote-cc2538_armgcc/drivers/common/openserial.c ****     uint8_t inputBufFill;
 418:build/openmote-cc2538_armgcc/drivers/common/openserial.c ****     uint8_t cmdByte;
 419:build/openmote-cc2538_armgcc/drivers/common/openserial.c ****     bool    busyReceiving;
 420:build/openmote-cc2538_armgcc/drivers/common/openserial.c ****     INTERRUPT_DECLARATION();
 421:build/openmote-cc2538_armgcc/drivers/common/openserial.c **** 
 422:build/openmote-cc2538_armgcc/drivers/common/openserial.c ****     DISABLE_INTERRUPTS();
 1521              		.loc 1 422 0
 1522 05f2 FFF7FEFF 		bl	IntMasterDisable
 423:build/openmote-cc2538_armgcc/drivers/common/openserial.c ****     busyReceiving = openserial_vars.busyReceiving;
 1523              		.loc 1 423 0
 1524 05f6 424B     		ldr	r3, .L89
 1525 05f8 DB7B     		ldrb	r3, [r3, #15]
 1526 05fa FB71     		strb	r3, [r7, #7]
 424:build/openmote-cc2538_armgcc/drivers/common/openserial.c ****     inputBufFill  = openserial_vars.inputBufFill;
 1527              		.loc 1 424 0
 1528 05fc 404B     		ldr	r3, .L89
 1529 05fe 1B7D     		ldrb	r3, [r3, #20]
 1530 0600 BB71     		strb	r3, [r7, #6]
 425:build/openmote-cc2538_armgcc/drivers/common/openserial.c ****     ENABLE_INTERRUPTS();
 1531              		.loc 1 425 0
 1532 0602 FFF7FEFF 		bl	IntMasterEnable
 426:build/openmote-cc2538_armgcc/drivers/common/openserial.c **** 
 427:build/openmote-cc2538_armgcc/drivers/common/openserial.c ****     // disable UART interrupts
 428:build/openmote-cc2538_armgcc/drivers/common/openserial.c ****     uart_disableInterrupts();
 1533              		.loc 1 428 0
 1534 0606 FFF7FEFF 		bl	uart_disableInterrupts
 429:build/openmote-cc2538_armgcc/drivers/common/openserial.c **** 
 430:build/openmote-cc2538_armgcc/drivers/common/openserial.c ****     DISABLE_INTERRUPTS();
 1535              		.loc 1 430 0
 1536 060a FFF7FEFF 		bl	IntMasterDisable
 431:build/openmote-cc2538_armgcc/drivers/common/openserial.c ****     openserial_vars.mode=MODE_OFF;
 1537              		.loc 1 431 0
 1538 060e 3C4B     		ldr	r3, .L89
 1539 0610 0022     		movs	r2, #0
 1540 0612 1A70     		strb	r2, [r3]
 432:build/openmote-cc2538_armgcc/drivers/common/openserial.c ****     ENABLE_INTERRUPTS();
 1541              		.loc 1 432 0
 1542 0614 FFF7FEFF 		bl	IntMasterEnable
 433:build/openmote-cc2538_armgcc/drivers/common/openserial.c ****     
 434:build/openmote-cc2538_armgcc/drivers/common/openserial.c ****     // the inputBuffer has to be reset if it is not reset where the data is read.
 435:build/openmote-cc2538_armgcc/drivers/common/openserial.c ****     // or the function openserial_getInputBuffer is called (which resets the buffer)
 436:build/openmote-cc2538_armgcc/drivers/common/openserial.c ****     if (busyReceiving==TRUE) {
 1543              		.loc 1 436 0
 1544 0618 FB79     		ldrb	r3, [r7, #7]	@ zero_extendqisi2
 1545 061a 002B     		cmp	r3, #0
 1546 061c 06D0     		beq	.L80
 437:build/openmote-cc2538_armgcc/drivers/common/openserial.c ****         openserial_printError(
 1547              		.loc 1 437 0
 1548 061e BB79     		ldrb	r3, [r7, #6]	@ zero_extendqisi2
 1549 0620 9BB2     		uxth	r3, r3
 1550 0622 0022     		movs	r2, #0
 1551 0624 3821     		movs	r1, #56
 1552 0626 0420     		movs	r0, #4
 1553 0628 FFF7FEFF 		bl	openserial_printError
 1554              	.L80:
 438:build/openmote-cc2538_armgcc/drivers/common/openserial.c ****             COMPONENT_OPENSERIAL,
 439:build/openmote-cc2538_armgcc/drivers/common/openserial.c ****             ERR_BUSY_RECEIVING,
 440:build/openmote-cc2538_armgcc/drivers/common/openserial.c ****             (errorparameter_t)0,
 441:build/openmote-cc2538_armgcc/drivers/common/openserial.c ****             (errorparameter_t)inputBufFill
 442:build/openmote-cc2538_armgcc/drivers/common/openserial.c ****         );
 443:build/openmote-cc2538_armgcc/drivers/common/openserial.c ****     }
 444:build/openmote-cc2538_armgcc/drivers/common/openserial.c ****     
 445:build/openmote-cc2538_armgcc/drivers/common/openserial.c ****     if (busyReceiving==FALSE && inputBufFill>0) {
 1555              		.loc 1 445 0
 1556 062c FB79     		ldrb	r3, [r7, #7]
 1557 062e 83F00103 		eor	r3, r3, #1
 1558 0632 DBB2     		uxtb	r3, r3
 1559 0634 002B     		cmp	r3, #0
 1560 0636 55D0     		beq	.L81
 1561              		.loc 1 445 0 is_stmt 0 discriminator 1
 1562 0638 BB79     		ldrb	r3, [r7, #6]	@ zero_extendqisi2
 1563 063a 002B     		cmp	r3, #0
 1564 063c 52D0     		beq	.L81
 446:build/openmote-cc2538_armgcc/drivers/common/openserial.c ****         DISABLE_INTERRUPTS();
 1565              		.loc 1 446 0 is_stmt 1
 1566 063e FFF7FEFF 		bl	IntMasterDisable
 447:build/openmote-cc2538_armgcc/drivers/common/openserial.c ****         cmdByte = openserial_vars.inputBuf[0];
 1567              		.loc 1 447 0
 1568 0642 2F4B     		ldr	r3, .L89
 1569 0644 5B7D     		ldrb	r3, [r3, #21]
 1570 0646 7B71     		strb	r3, [r7, #5]
 448:build/openmote-cc2538_armgcc/drivers/common/openserial.c ****         ENABLE_INTERRUPTS();
 1571              		.loc 1 448 0
 1572 0648 FFF7FEFF 		bl	IntMasterEnable
 449:build/openmote-cc2538_armgcc/drivers/common/openserial.c ****         // call hard-coded commands
 450:build/openmote-cc2538_armgcc/drivers/common/openserial.c ****         // FIXME: needs to be replaced by registered commands only
 451:build/openmote-cc2538_armgcc/drivers/common/openserial.c ****         switch (cmdByte) {
 1573              		.loc 1 451 0
 1574 064c 7B79     		ldrb	r3, [r7, #5]	@ zero_extendqisi2
 1575 064e 433B     		subs	r3, r3, #67
 1576 0650 102B     		cmp	r3, #16
 1577 0652 39D8     		bhi	.L82
 1578 0654 01A2     		adr	r2, .L84
 1579 0656 52F823F0 		ldr	pc, [r2, r3, lsl #2]
 1580 065a 00BF     		.p2align 2
 1581              	.L84:
 1582 065c C3060000 		.word	.L83+1
 1583 0660 AD060000 		.word	.L85+1
 1584 0664 C9060000 		.word	.L82+1
 1585 0668 C9060000 		.word	.L82+1
 1586 066c C9060000 		.word	.L82+1
 1587 0670 C9060000 		.word	.L82+1
 1588 0674 C9060000 		.word	.L82+1
 1589 0678 C9060000 		.word	.L82+1
 1590 067c C9060000 		.word	.L82+1
 1591 0680 C9060000 		.word	.L82+1
 1592 0684 C9060000 		.word	.L82+1
 1593 0688 C9060000 		.word	.L82+1
 1594 068c C9060000 		.word	.L82+1
 1595 0690 C9060000 		.word	.L82+1
 1596 0694 A7060000 		.word	.L86+1
 1597 0698 A1060000 		.word	.L87+1
 1598 069c B3060000 		.word	.L88+1
 1599              		.p2align 1
 1600              	.L87:
 452:build/openmote-cc2538_armgcc/drivers/common/openserial.c ****             case SERFRAME_PC2MOTE_SETROOT:
 453:build/openmote-cc2538_armgcc/drivers/common/openserial.c ****                 idmanager_triggerAboutRoot();
 1601              		.loc 1 453 0
 1602 06a0 FFF7FEFF 		bl	idmanager_triggerAboutRoot
 454:build/openmote-cc2538_armgcc/drivers/common/openserial.c ****                 break;
 1603              		.loc 1 454 0
 1604 06a4 10E0     		b	.L82
 1605              	.L86:
 455:build/openmote-cc2538_armgcc/drivers/common/openserial.c ****             case SERFRAME_PC2MOTE_RESET:
 456:build/openmote-cc2538_armgcc/drivers/common/openserial.c ****                 board_reset();
 1606              		.loc 1 456 0
 1607 06a6 FFF7FEFF 		bl	board_reset
 457:build/openmote-cc2538_armgcc/drivers/common/openserial.c ****                 break;
 1608              		.loc 1 457 0
 1609 06aa 0DE0     		b	.L82
 1610              	.L85:
 458:build/openmote-cc2538_armgcc/drivers/common/openserial.c ****             case SERFRAME_PC2MOTE_DATA:
 459:build/openmote-cc2538_armgcc/drivers/common/openserial.c ****                 openbridge_triggerData();
 1611              		.loc 1 459 0
 1612 06ac FFF7FEFF 		bl	openbridge_triggerData
 460:build/openmote-cc2538_armgcc/drivers/common/openserial.c ****                 break;
 1613              		.loc 1 460 0
 1614 06b0 0AE0     		b	.L82
 1615              	.L88:
 461:build/openmote-cc2538_armgcc/drivers/common/openserial.c ****             case SERFRAME_PC2MOTE_TRIGGERSERIALECHO:
 462:build/openmote-cc2538_armgcc/drivers/common/openserial.c ****                 openserial_handleEcho(&openserial_vars.inputBuf[1],inputBufFill-1);
 1616              		.loc 1 462 0
 1617 06b2 BB79     		ldrb	r3, [r7, #6]
 1618 06b4 013B     		subs	r3, r3, #1
 1619 06b6 DBB2     		uxtb	r3, r3
 1620 06b8 1946     		mov	r1, r3
 1621 06ba 1248     		ldr	r0, .L89+4
 1622 06bc FFF7FEFF 		bl	openserial_handleEcho
 463:build/openmote-cc2538_armgcc/drivers/common/openserial.c ****                 break;
 1623              		.loc 1 463 0
 1624 06c0 02E0     		b	.L82
 1625              	.L83:
 464:build/openmote-cc2538_armgcc/drivers/common/openserial.c ****             case SERFRAME_PC2MOTE_COMMAND:
 465:build/openmote-cc2538_armgcc/drivers/common/openserial.c ****                 openserial_handleCommands();
 1626              		.loc 1 465 0
 1627 06c2 FFF7FEFF 		bl	openserial_handleCommands
 466:build/openmote-cc2538_armgcc/drivers/common/openserial.c ****                 break;
 1628              		.loc 1 466 0
 1629 06c6 00BF     		nop
 1630              	.L82:
 467:build/openmote-cc2538_armgcc/drivers/common/openserial.c ****         }
 468:build/openmote-cc2538_armgcc/drivers/common/openserial.c ****         // call registered commands
 469:build/openmote-cc2538_armgcc/drivers/common/openserial.c ****         if (openserial_vars.registeredCmd!=NULL && openserial_vars.registeredCmd->cmdId==cmdByte) {
 1631              		.loc 1 469 0
 1632 06c8 0D4B     		ldr	r3, .L89
 1633 06ca 5B68     		ldr	r3, [r3, #4]
 1634 06cc 002B     		cmp	r3, #0
 1635 06ce 09D0     		beq	.L81
 1636              		.loc 1 469 0 is_stmt 0 discriminator 1
 1637 06d0 0B4B     		ldr	r3, .L89
 1638 06d2 5B68     		ldr	r3, [r3, #4]
 1639 06d4 1B78     		ldrb	r3, [r3]	@ zero_extendqisi2
 1640 06d6 7A79     		ldrb	r2, [r7, #5]	@ zero_extendqisi2
 1641 06d8 9A42     		cmp	r2, r3
 1642 06da 03D1     		bne	.L81
 470:build/openmote-cc2538_armgcc/drivers/common/openserial.c ****             
 471:build/openmote-cc2538_armgcc/drivers/common/openserial.c ****             openserial_vars.registeredCmd->cb();
 1643              		.loc 1 471 0 is_stmt 1
 1644 06dc 084B     		ldr	r3, .L89
 1645 06de 5B68     		ldr	r3, [r3, #4]
 1646 06e0 5B68     		ldr	r3, [r3, #4]
 1647 06e2 9847     		blx	r3
 1648              	.L81:
 472:build/openmote-cc2538_armgcc/drivers/common/openserial.c ****         }
 473:build/openmote-cc2538_armgcc/drivers/common/openserial.c ****     }
 474:build/openmote-cc2538_armgcc/drivers/common/openserial.c ****     
 475:build/openmote-cc2538_armgcc/drivers/common/openserial.c ****     DISABLE_INTERRUPTS();
 1649              		.loc 1 475 0
 1650 06e4 FFF7FEFF 		bl	IntMasterDisable
 476:build/openmote-cc2538_armgcc/drivers/common/openserial.c ****     openserial_vars.inputBufFill  = 0;
 1651              		.loc 1 476 0
 1652 06e8 054B     		ldr	r3, .L89
 1653 06ea 0022     		movs	r2, #0
 1654 06ec 1A75     		strb	r2, [r3, #20]
 477:build/openmote-cc2538_armgcc/drivers/common/openserial.c ****     openserial_vars.busyReceiving = FALSE;
 1655              		.loc 1 477 0
 1656 06ee 044B     		ldr	r3, .L89
 1657 06f0 0022     		movs	r2, #0
 1658 06f2 DA73     		strb	r2, [r3, #15]
 478:build/openmote-cc2538_armgcc/drivers/common/openserial.c ****     ENABLE_INTERRUPTS();
 1659              		.loc 1 478 0
 1660 06f4 FFF7FEFF 		bl	IntMasterEnable
 479:build/openmote-cc2538_armgcc/drivers/common/openserial.c **** }
 1661              		.loc 1 479 0
 1662 06f8 00BF     		nop
 1663 06fa 0837     		adds	r7, r7, #8
 1664              		.cfi_def_cfa_offset 8
 1665 06fc BD46     		mov	sp, r7
 1666              		.cfi_def_cfa_register 13
 1667              		@ sp needed
 1668 06fe 80BD     		pop	{r7, pc}
 1669              	.L90:
 1670              		.align	2
 1671              	.L89:
 1672 0700 00000000 		.word	openserial_vars
 1673 0704 16000000 		.word	openserial_vars+22
 1674              		.cfi_endproc
 1675              	.LFE12:
 1677              		.align	2
 1678              		.global	debugPrint_outBufferIndexes
 1679              		.thumb
 1680              		.thumb_func
 1682              	debugPrint_outBufferIndexes:
 1683              	.LFB13:
 480:build/openmote-cc2538_armgcc/drivers/common/openserial.c **** 
 481:build/openmote-cc2538_armgcc/drivers/common/openserial.c **** //===== debugprint
 482:build/openmote-cc2538_armgcc/drivers/common/openserial.c **** 
 483:build/openmote-cc2538_armgcc/drivers/common/openserial.c **** /**
 484:build/openmote-cc2538_armgcc/drivers/common/openserial.c **** \brief Trigger this module to print status information, over serial.
 485:build/openmote-cc2538_armgcc/drivers/common/openserial.c **** 
 486:build/openmote-cc2538_armgcc/drivers/common/openserial.c **** debugPrint_* functions are used by the openserial module to continuously print
 487:build/openmote-cc2538_armgcc/drivers/common/openserial.c **** status information about several modules in the OpenWSN stack.
 488:build/openmote-cc2538_armgcc/drivers/common/openserial.c **** 
 489:build/openmote-cc2538_armgcc/drivers/common/openserial.c **** \returns TRUE if this function printed something, FALSE otherwise.
 490:build/openmote-cc2538_armgcc/drivers/common/openserial.c **** */
 491:build/openmote-cc2538_armgcc/drivers/common/openserial.c **** bool debugPrint_outBufferIndexes() {
 1684              		.loc 1 491 0
 1685              		.cfi_startproc
 1686              		@ args = 0, pretend = 0, frame = 8
 1687              		@ frame_needed = 1, uses_anonymous_args = 0
 1688 0708 80B5     		push	{r7, lr}
 1689              		.cfi_def_cfa_offset 8
 1690              		.cfi_offset 7, -8
 1691              		.cfi_offset 14, -4
 1692 070a 82B0     		sub	sp, sp, #8
 1693              		.cfi_def_cfa_offset 16
 1694 070c 00AF     		add	r7, sp, #0
 1695              		.cfi_def_cfa_register 7
 492:build/openmote-cc2538_armgcc/drivers/common/openserial.c ****     uint16_t temp_buffer[2];
 493:build/openmote-cc2538_armgcc/drivers/common/openserial.c ****     INTERRUPT_DECLARATION();
 494:build/openmote-cc2538_armgcc/drivers/common/openserial.c ****     
 495:build/openmote-cc2538_armgcc/drivers/common/openserial.c ****     DISABLE_INTERRUPTS();
 1696              		.loc 1 495 0
 1697 070e FFF7FEFF 		bl	IntMasterDisable
 496:build/openmote-cc2538_armgcc/drivers/common/openserial.c ****     temp_buffer[0] = openserial_vars.outputBufIdxW;
 1698              		.loc 1 496 0
 1699 0712 0A4B     		ldr	r3, .L93
 1700 0714 B3F8E030 		ldrh	r3, [r3, #224]
 1701 0718 BB80     		strh	r3, [r7, #4]	@ movhi
 497:build/openmote-cc2538_armgcc/drivers/common/openserial.c ****     temp_buffer[1] = openserial_vars.outputBufIdxR;
 1702              		.loc 1 497 0
 1703 071a 084B     		ldr	r3, .L93
 1704 071c B3F8E230 		ldrh	r3, [r3, #226]
 1705 0720 FB80     		strh	r3, [r7, #6]	@ movhi
 498:build/openmote-cc2538_armgcc/drivers/common/openserial.c ****     ENABLE_INTERRUPTS();
 1706              		.loc 1 498 0
 1707 0722 FFF7FEFF 		bl	IntMasterEnable
 499:build/openmote-cc2538_armgcc/drivers/common/openserial.c ****     
 500:build/openmote-cc2538_armgcc/drivers/common/openserial.c ****     openserial_printStatus(
 1708              		.loc 1 500 0
 1709 0726 3B1D     		adds	r3, r7, #4
 1710 0728 0422     		movs	r2, #4
 1711 072a 1946     		mov	r1, r3
 1712 072c 0320     		movs	r0, #3
 1713 072e FFF7FEFF 		bl	openserial_printStatus
 501:build/openmote-cc2538_armgcc/drivers/common/openserial.c ****         STATUS_OUTBUFFERINDEXES,
 502:build/openmote-cc2538_armgcc/drivers/common/openserial.c ****         (uint8_t*)temp_buffer,
 503:build/openmote-cc2538_armgcc/drivers/common/openserial.c ****         sizeof(temp_buffer)
 504:build/openmote-cc2538_armgcc/drivers/common/openserial.c ****     );
 505:build/openmote-cc2538_armgcc/drivers/common/openserial.c ****     
 506:build/openmote-cc2538_armgcc/drivers/common/openserial.c ****     return TRUE;
 1714              		.loc 1 506 0
 1715 0732 0123     		movs	r3, #1
 507:build/openmote-cc2538_armgcc/drivers/common/openserial.c **** }
 1716              		.loc 1 507 0
 1717 0734 1846     		mov	r0, r3
 1718 0736 0837     		adds	r7, r7, #8
 1719              		.cfi_def_cfa_offset 8
 1720 0738 BD46     		mov	sp, r7
 1721              		.cfi_def_cfa_register 13
 1722              		@ sp needed
 1723 073a 80BD     		pop	{r7, pc}
 1724              	.L94:
 1725              		.align	2
 1726              	.L93:
 1727 073c 00000000 		.word	openserial_vars
 1728              		.cfi_endproc
 1729              	.LFE13:
 1731              		.align	2
 1732              		.global	openserial_printInfoErrorCritical
 1733              		.thumb
 1734              		.thumb_func
 1736              	openserial_printInfoErrorCritical:
 1737              	.LFB14:
 508:build/openmote-cc2538_armgcc/drivers/common/openserial.c **** 
 509:build/openmote-cc2538_armgcc/drivers/common/openserial.c **** //=========================== private =========================================
 510:build/openmote-cc2538_armgcc/drivers/common/openserial.c **** 
 511:build/openmote-cc2538_armgcc/drivers/common/openserial.c **** //===== printing
 512:build/openmote-cc2538_armgcc/drivers/common/openserial.c **** 
 513:build/openmote-cc2538_armgcc/drivers/common/openserial.c **** owerror_t openserial_printInfoErrorCritical(
 514:build/openmote-cc2538_armgcc/drivers/common/openserial.c ****     char             severity,
 515:build/openmote-cc2538_armgcc/drivers/common/openserial.c ****     uint8_t          calling_component,
 516:build/openmote-cc2538_armgcc/drivers/common/openserial.c ****     uint8_t          error_code,
 517:build/openmote-cc2538_armgcc/drivers/common/openserial.c ****     errorparameter_t arg1,
 518:build/openmote-cc2538_armgcc/drivers/common/openserial.c ****     errorparameter_t arg2
 519:build/openmote-cc2538_armgcc/drivers/common/openserial.c **** ) {
 1738              		.loc 1 519 0
 1739              		.cfi_startproc
 1740              		@ args = 4, pretend = 0, frame = 8
 1741              		@ frame_needed = 1, uses_anonymous_args = 0
 1742 0740 90B5     		push	{r4, r7, lr}
 1743              		.cfi_def_cfa_offset 12
 1744              		.cfi_offset 4, -12
 1745              		.cfi_offset 7, -8
 1746              		.cfi_offset 14, -4
 1747 0742 83B0     		sub	sp, sp, #12
 1748              		.cfi_def_cfa_offset 24
 1749 0744 00AF     		add	r7, sp, #0
 1750              		.cfi_def_cfa_register 7
 1751 0746 0446     		mov	r4, r0
 1752 0748 0846     		mov	r0, r1
 1753 074a 1146     		mov	r1, r2
 1754 074c 1A46     		mov	r2, r3
 1755 074e 2346     		mov	r3, r4
 1756 0750 FB71     		strb	r3, [r7, #7]
 1757 0752 0346     		mov	r3, r0
 1758 0754 BB71     		strb	r3, [r7, #6]
 1759 0756 0B46     		mov	r3, r1
 1760 0758 7B71     		strb	r3, [r7, #5]
 1761 075a 1346     		mov	r3, r2	@ movhi
 1762 075c 7B80     		strh	r3, [r7, #2]	@ movhi
 520:build/openmote-cc2538_armgcc/drivers/common/openserial.c ****     INTERRUPT_DECLARATION();
 521:build/openmote-cc2538_armgcc/drivers/common/openserial.c ****     
 522:build/openmote-cc2538_armgcc/drivers/common/openserial.c ****     DISABLE_INTERRUPTS();
 1763              		.loc 1 522 0
 1764 075e FFF7FEFF 		bl	IntMasterDisable
 523:build/openmote-cc2538_armgcc/drivers/common/openserial.c ****     openserial_vars.outputBufFilled  = TRUE;
 1765              		.loc 1 523 0
 1766 0762 214B     		ldr	r3, .L97
 1767 0764 0122     		movs	r2, #1
 1768 0766 83F8DD20 		strb	r2, [r3, #221]
 524:build/openmote-cc2538_armgcc/drivers/common/openserial.c ****     outputHdlcOpen();
 1769              		.loc 1 524 0
 1770 076a FFF7FEFF 		bl	outputHdlcOpen
 525:build/openmote-cc2538_armgcc/drivers/common/openserial.c ****     outputHdlcWrite(severity);
 1771              		.loc 1 525 0
 1772 076e FB79     		ldrb	r3, [r7, #7]	@ zero_extendqisi2
 1773 0770 1846     		mov	r0, r3
 1774 0772 FFF7FEFF 		bl	outputHdlcWrite
 526:build/openmote-cc2538_armgcc/drivers/common/openserial.c ****     outputHdlcWrite(idmanager_getMyID(ADDR_16B)->addr_16b[0]);
 1775              		.loc 1 526 0
 1776 0776 0120     		movs	r0, #1
 1777 0778 FFF7FEFF 		bl	idmanager_getMyID
 1778 077c 0346     		mov	r3, r0
 1779 077e 5B78     		ldrb	r3, [r3, #1]	@ zero_extendqisi2
 1780 0780 1846     		mov	r0, r3
 1781 0782 FFF7FEFF 		bl	outputHdlcWrite
 527:build/openmote-cc2538_armgcc/drivers/common/openserial.c ****     outputHdlcWrite(idmanager_getMyID(ADDR_16B)->addr_16b[1]);
 1782              		.loc 1 527 0
 1783 0786 0120     		movs	r0, #1
 1784 0788 FFF7FEFF 		bl	idmanager_getMyID
 1785 078c 0346     		mov	r3, r0
 1786 078e 9B78     		ldrb	r3, [r3, #2]	@ zero_extendqisi2
 1787 0790 1846     		mov	r0, r3
 1788 0792 FFF7FEFF 		bl	outputHdlcWrite
 528:build/openmote-cc2538_armgcc/drivers/common/openserial.c ****     outputHdlcWrite(calling_component);
 1789              		.loc 1 528 0
 1790 0796 BB79     		ldrb	r3, [r7, #6]	@ zero_extendqisi2
 1791 0798 1846     		mov	r0, r3
 1792 079a FFF7FEFF 		bl	outputHdlcWrite
 529:build/openmote-cc2538_armgcc/drivers/common/openserial.c ****     outputHdlcWrite(error_code);
 1793              		.loc 1 529 0
 1794 079e 7B79     		ldrb	r3, [r7, #5]	@ zero_extendqisi2
 1795 07a0 1846     		mov	r0, r3
 1796 07a2 FFF7FEFF 		bl	outputHdlcWrite
 530:build/openmote-cc2538_armgcc/drivers/common/openserial.c ****     outputHdlcWrite((uint8_t)((arg1 & 0xff00)>>8));
 1797              		.loc 1 530 0
 1798 07a6 7B88     		ldrh	r3, [r7, #2]
 1799 07a8 1B0A     		lsrs	r3, r3, #8
 1800 07aa 9BB2     		uxth	r3, r3
 1801 07ac DBB2     		uxtb	r3, r3
 1802 07ae 1846     		mov	r0, r3
 1803 07b0 FFF7FEFF 		bl	outputHdlcWrite
 531:build/openmote-cc2538_armgcc/drivers/common/openserial.c ****     outputHdlcWrite((uint8_t) (arg1 & 0x00ff));
 1804              		.loc 1 531 0
 1805 07b4 7B88     		ldrh	r3, [r7, #2]	@ movhi
 1806 07b6 DBB2     		uxtb	r3, r3
 1807 07b8 1846     		mov	r0, r3
 1808 07ba FFF7FEFF 		bl	outputHdlcWrite
 532:build/openmote-cc2538_armgcc/drivers/common/openserial.c ****     outputHdlcWrite((uint8_t)((arg2 & 0xff00)>>8));
 1809              		.loc 1 532 0
 1810 07be 3B8B     		ldrh	r3, [r7, #24]
 1811 07c0 1B0A     		lsrs	r3, r3, #8
 1812 07c2 9BB2     		uxth	r3, r3
 1813 07c4 DBB2     		uxtb	r3, r3
 1814 07c6 1846     		mov	r0, r3
 1815 07c8 FFF7FEFF 		bl	outputHdlcWrite
 533:build/openmote-cc2538_armgcc/drivers/common/openserial.c ****     outputHdlcWrite((uint8_t) (arg2 & 0x00ff));
 1816              		.loc 1 533 0
 1817 07cc 3B8B     		ldrh	r3, [r7, #24]	@ movhi
 1818 07ce DBB2     		uxtb	r3, r3
 1819 07d0 1846     		mov	r0, r3
 1820 07d2 FFF7FEFF 		bl	outputHdlcWrite
 534:build/openmote-cc2538_armgcc/drivers/common/openserial.c ****     outputHdlcClose();
 1821              		.loc 1 534 0
 1822 07d6 FFF7FEFF 		bl	outputHdlcClose
 535:build/openmote-cc2538_armgcc/drivers/common/openserial.c ****     ENABLE_INTERRUPTS();
 1823              		.loc 1 535 0
 1824 07da FFF7FEFF 		bl	IntMasterEnable
 536:build/openmote-cc2538_armgcc/drivers/common/openserial.c ****     
 537:build/openmote-cc2538_armgcc/drivers/common/openserial.c ****     return E_SUCCESS;
 1825              		.loc 1 537 0
 1826 07de 0023     		movs	r3, #0
 538:build/openmote-cc2538_armgcc/drivers/common/openserial.c **** }
 1827              		.loc 1 538 0
 1828 07e0 1846     		mov	r0, r3
 1829 07e2 0C37     		adds	r7, r7, #12
 1830              		.cfi_def_cfa_offset 12
 1831 07e4 BD46     		mov	sp, r7
 1832              		.cfi_def_cfa_register 13
 1833              		@ sp needed
 1834 07e6 90BD     		pop	{r4, r7, pc}
 1835              	.L98:
 1836              		.align	2
 1837              	.L97:
 1838 07e8 00000000 		.word	openserial_vars
 1839              		.cfi_endproc
 1840              	.LFE14:
 1842              		.align	2
 1843              		.global	openserial_handleEcho
 1844              		.thumb
 1845              		.thumb_func
 1847              	openserial_handleEcho:
 1848              	.LFB15:
 539:build/openmote-cc2538_armgcc/drivers/common/openserial.c **** 
 540:build/openmote-cc2538_armgcc/drivers/common/openserial.c **** //===== command handlers
 541:build/openmote-cc2538_armgcc/drivers/common/openserial.c **** 
 542:build/openmote-cc2538_armgcc/drivers/common/openserial.c **** void openserial_handleEcho(uint8_t* buf, uint8_t bufLen){
 1849              		.loc 1 542 0
 1850              		.cfi_startproc
 1851              		@ args = 0, pretend = 0, frame = 8
 1852              		@ frame_needed = 1, uses_anonymous_args = 0
 1853 07ec 80B5     		push	{r7, lr}
 1854              		.cfi_def_cfa_offset 8
 1855              		.cfi_offset 7, -8
 1856              		.cfi_offset 14, -4
 1857 07ee 82B0     		sub	sp, sp, #8
 1858              		.cfi_def_cfa_offset 16
 1859 07f0 00AF     		add	r7, sp, #0
 1860              		.cfi_def_cfa_register 7
 1861 07f2 7860     		str	r0, [r7, #4]
 1862 07f4 0B46     		mov	r3, r1
 1863 07f6 FB70     		strb	r3, [r7, #3]
 543:build/openmote-cc2538_armgcc/drivers/common/openserial.c ****     // echo back what you received
 544:build/openmote-cc2538_armgcc/drivers/common/openserial.c ****     openserial_printData(
 1864              		.loc 1 544 0
 1865 07f8 FB78     		ldrb	r3, [r7, #3]	@ zero_extendqisi2
 1866 07fa 1946     		mov	r1, r3
 1867 07fc 7868     		ldr	r0, [r7, #4]
 1868 07fe FFF7FEFF 		bl	openserial_printData
 545:build/openmote-cc2538_armgcc/drivers/common/openserial.c ****         buf,
 546:build/openmote-cc2538_armgcc/drivers/common/openserial.c ****         bufLen
 547:build/openmote-cc2538_armgcc/drivers/common/openserial.c ****     );
 548:build/openmote-cc2538_armgcc/drivers/common/openserial.c **** }
 1869              		.loc 1 548 0
 1870 0802 00BF     		nop
 1871 0804 0837     		adds	r7, r7, #8
 1872              		.cfi_def_cfa_offset 8
 1873 0806 BD46     		mov	sp, r7
 1874              		.cfi_def_cfa_register 13
 1875              		@ sp needed
 1876 0808 80BD     		pop	{r7, pc}
 1877              		.cfi_endproc
 1878              	.LFE15:
 1880 080a 00BF     		.align	2
 1881              		.global	openserial_get6pInfo
 1882              		.thumb
 1883              		.thumb_func
 1885              	openserial_get6pInfo:
 1886              	.LFB16:
 549:build/openmote-cc2538_armgcc/drivers/common/openserial.c **** 
 550:build/openmote-cc2538_armgcc/drivers/common/openserial.c **** void openserial_get6pInfo(uint8_t commandId, uint8_t* code,uint8_t* cellOptions,uint8_t* numCells,c
 1887              		.loc 1 550 0
 1888              		.cfi_startproc
 1889              		@ args = 24, pretend = 0, frame = 24
 1890              		@ frame_needed = 1, uses_anonymous_args = 0
 1891              		@ link register save eliminated.
 1892 080c 80B4     		push	{r7}
 1893              		.cfi_def_cfa_offset 4
 1894              		.cfi_offset 7, -4
 1895 080e 87B0     		sub	sp, sp, #28
 1896              		.cfi_def_cfa_offset 32
 1897 0810 00AF     		add	r7, sp, #0
 1898              		.cfi_def_cfa_register 7
 1899 0812 B960     		str	r1, [r7, #8]
 1900 0814 7A60     		str	r2, [r7, #4]
 1901 0816 3B60     		str	r3, [r7]
 1902 0818 0346     		mov	r3, r0
 1903 081a FB73     		strb	r3, [r7, #15]
 551:build/openmote-cc2538_armgcc/drivers/common/openserial.c ****     uint8_t i; 
 552:build/openmote-cc2538_armgcc/drivers/common/openserial.c ****     uint8_t celllistLen;
 553:build/openmote-cc2538_armgcc/drivers/common/openserial.c ****     
 554:build/openmote-cc2538_armgcc/drivers/common/openserial.c ****     // clear command
 555:build/openmote-cc2538_armgcc/drivers/common/openserial.c ****     if (commandId == COMMAND_SET_6P_CLEAR){
 1904              		.loc 1 555 0
 1905 081c FB7B     		ldrb	r3, [r7, #15]	@ zero_extendqisi2
 1906 081e 0E2B     		cmp	r3, #14
 1907 0820 03D1     		bne	.L101
 556:build/openmote-cc2538_armgcc/drivers/common/openserial.c ****         *code = IANA_6TOP_CMD_CLEAR;
 1908              		.loc 1 556 0
 1909 0822 BB68     		ldr	r3, [r7, #8]
 1910 0824 0622     		movs	r2, #6
 1911 0826 1A70     		strb	r2, [r3]
 557:build/openmote-cc2538_armgcc/drivers/common/openserial.c ****         return;
 1912              		.loc 1 557 0
 1913 0828 61E1     		b	.L100
 1914              	.L101:
 558:build/openmote-cc2538_armgcc/drivers/common/openserial.c ****     }
 559:build/openmote-cc2538_armgcc/drivers/common/openserial.c ****     
 560:build/openmote-cc2538_armgcc/drivers/common/openserial.c ****     *cellOptions  = openserial_vars.inputBuf[ptr];
 1915              		.loc 1 560 0
 1916 082a 97F83030 		ldrb	r3, [r7, #48]	@ zero_extendqisi2
 1917 082e B24A     		ldr	r2, .L115
 1918 0830 1344     		add	r3, r3, r2
 1919 0832 5A7D     		ldrb	r2, [r3, #21]	@ zero_extendqisi2
 1920 0834 7B68     		ldr	r3, [r7, #4]
 1921 0836 1A70     		strb	r2, [r3]
 561:build/openmote-cc2538_armgcc/drivers/common/openserial.c ****     ptr          += 1;
 1922              		.loc 1 561 0
 1923 0838 97F83030 		ldrb	r3, [r7, #48]
 1924 083c 0133     		adds	r3, r3, #1
 1925 083e 87F83030 		strb	r3, [r7, #48]
 562:build/openmote-cc2538_armgcc/drivers/common/openserial.c ****     commandLen   -= 1;
 1926              		.loc 1 562 0
 1927 0842 97F83430 		ldrb	r3, [r7, #52]
 1928 0846 013B     		subs	r3, r3, #1
 1929 0848 87F83430 		strb	r3, [r7, #52]
 563:build/openmote-cc2538_armgcc/drivers/common/openserial.c ****     
 564:build/openmote-cc2538_armgcc/drivers/common/openserial.c ****     // list command
 565:build/openmote-cc2538_armgcc/drivers/common/openserial.c ****     if (commandId == COMMAND_SET_6P_LIST){
 1930              		.loc 1 565 0
 1931 084c FB7B     		ldrb	r3, [r7, #15]	@ zero_extendqisi2
 1932 084e 0D2B     		cmp	r3, #13
 1933 0850 1BD1     		bne	.L103
 566:build/openmote-cc2538_armgcc/drivers/common/openserial.c ****         *code = IANA_6TOP_CMD_LIST;
 1934              		.loc 1 566 0
 1935 0852 BB68     		ldr	r3, [r7, #8]
 1936 0854 0522     		movs	r2, #5
 1937 0856 1A70     		strb	r2, [r3]
 567:build/openmote-cc2538_armgcc/drivers/common/openserial.c ****         *listOffset   = openserial_vars.inputBuf[ptr];
 1938              		.loc 1 567 0
 1939 0858 97F83030 		ldrb	r3, [r7, #48]	@ zero_extendqisi2
 1940 085c A64A     		ldr	r2, .L115
 1941 085e 1344     		add	r3, r3, r2
 1942 0860 5A7D     		ldrb	r2, [r3, #21]	@ zero_extendqisi2
 1943 0862 BB6A     		ldr	r3, [r7, #40]
 1944 0864 1A70     		strb	r2, [r3]
 568:build/openmote-cc2538_armgcc/drivers/common/openserial.c ****         ptr += 1;
 1945              		.loc 1 568 0
 1946 0866 97F83030 		ldrb	r3, [r7, #48]
 1947 086a 0133     		adds	r3, r3, #1
 1948 086c 87F83030 		strb	r3, [r7, #48]
 569:build/openmote-cc2538_armgcc/drivers/common/openserial.c ****         *maxListLen   = openserial_vars.inputBuf[ptr];
 1949              		.loc 1 569 0
 1950 0870 97F83030 		ldrb	r3, [r7, #48]	@ zero_extendqisi2
 1951 0874 A04A     		ldr	r2, .L115
 1952 0876 1344     		add	r3, r3, r2
 1953 0878 5A7D     		ldrb	r2, [r3, #21]	@ zero_extendqisi2
 1954 087a FB6A     		ldr	r3, [r7, #44]
 1955 087c 1A70     		strb	r2, [r3]
 570:build/openmote-cc2538_armgcc/drivers/common/openserial.c ****         ptr += 1;
 1956              		.loc 1 570 0
 1957 087e 97F83030 		ldrb	r3, [r7, #48]
 1958 0882 0133     		adds	r3, r3, #1
 1959 0884 87F83030 		strb	r3, [r7, #48]
 571:build/openmote-cc2538_armgcc/drivers/common/openserial.c ****         return;
 1960              		.loc 1 571 0
 1961 0888 31E1     		b	.L100
 1962              	.L103:
 572:build/openmote-cc2538_armgcc/drivers/common/openserial.c ****     }
 573:build/openmote-cc2538_armgcc/drivers/common/openserial.c ****     
 574:build/openmote-cc2538_armgcc/drivers/common/openserial.c ****     // count command
 575:build/openmote-cc2538_armgcc/drivers/common/openserial.c ****     if (commandId == COMMAND_SET_6P_COUNT){
 1963              		.loc 1 575 0
 1964 088a FB7B     		ldrb	r3, [r7, #15]	@ zero_extendqisi2
 1965 088c 0C2B     		cmp	r3, #12
 1966 088e 03D1     		bne	.L104
 576:build/openmote-cc2538_armgcc/drivers/common/openserial.c ****         *code = IANA_6TOP_CMD_COUNT;
 1967              		.loc 1 576 0
 1968 0890 BB68     		ldr	r3, [r7, #8]
 1969 0892 0422     		movs	r2, #4
 1970 0894 1A70     		strb	r2, [r3]
 577:build/openmote-cc2538_armgcc/drivers/common/openserial.c ****         return;
 1971              		.loc 1 577 0
 1972 0896 2AE1     		b	.L100
 1973              	.L104:
 578:build/openmote-cc2538_armgcc/drivers/common/openserial.c ****     }
 579:build/openmote-cc2538_armgcc/drivers/common/openserial.c ****     
 580:build/openmote-cc2538_armgcc/drivers/common/openserial.c ****     *numCells   = openserial_vars.inputBuf[ptr];
 1974              		.loc 1 580 0
 1975 0898 97F83030 		ldrb	r3, [r7, #48]	@ zero_extendqisi2
 1976 089c 964A     		ldr	r2, .L115
 1977 089e 1344     		add	r3, r3, r2
 1978 08a0 5A7D     		ldrb	r2, [r3, #21]	@ zero_extendqisi2
 1979 08a2 3B68     		ldr	r3, [r7]
 1980 08a4 1A70     		strb	r2, [r3]
 581:build/openmote-cc2538_armgcc/drivers/common/openserial.c ****     ptr        += 1;
 1981              		.loc 1 581 0
 1982 08a6 97F83030 		ldrb	r3, [r7, #48]
 1983 08aa 0133     		adds	r3, r3, #1
 1984 08ac 87F83030 		strb	r3, [r7, #48]
 582:build/openmote-cc2538_armgcc/drivers/common/openserial.c ****     commandLen -= 1;
 1985              		.loc 1 582 0
 1986 08b0 97F83430 		ldrb	r3, [r7, #52]
 1987 08b4 013B     		subs	r3, r3, #1
 1988 08b6 87F83430 		strb	r3, [r7, #52]
 583:build/openmote-cc2538_armgcc/drivers/common/openserial.c ****     
 584:build/openmote-cc2538_armgcc/drivers/common/openserial.c ****     // add command
 585:build/openmote-cc2538_armgcc/drivers/common/openserial.c ****     if (commandId == COMMAND_SET_6P_ADD){
 1989              		.loc 1 585 0
 1990 08ba FB7B     		ldrb	r3, [r7, #15]	@ zero_extendqisi2
 1991 08bc 092B     		cmp	r3, #9
 1992 08be 42D1     		bne	.L105
 586:build/openmote-cc2538_armgcc/drivers/common/openserial.c ****         *code = IANA_6TOP_CMD_ADD;
 1993              		.loc 1 586 0
 1994 08c0 BB68     		ldr	r3, [r7, #8]
 1995 08c2 0122     		movs	r2, #1
 1996 08c4 1A70     		strb	r2, [r3]
 587:build/openmote-cc2538_armgcc/drivers/common/openserial.c ****         // retrieve cell list
 588:build/openmote-cc2538_armgcc/drivers/common/openserial.c ****         i = 0;
 1997              		.loc 1 588 0
 1998 08c6 0023     		movs	r3, #0
 1999 08c8 FB75     		strb	r3, [r7, #23]
 589:build/openmote-cc2538_armgcc/drivers/common/openserial.c ****         celllistLen = commandLen/2;
 2000              		.loc 1 589 0
 2001 08ca 97F83430 		ldrb	r3, [r7, #52]	@ zero_extendqisi2
 2002 08ce 5B08     		lsrs	r3, r3, #1
 2003 08d0 BB75     		strb	r3, [r7, #22]
 590:build/openmote-cc2538_armgcc/drivers/common/openserial.c ****         while(commandLen>celllistLen){
 2004              		.loc 1 590 0
 2005 08d2 32E0     		b	.L106
 2006              	.L107:
 591:build/openmote-cc2538_armgcc/drivers/common/openserial.c ****             celllist_add[i].slotoffset     = openserial_vars.inputBuf[ptr];
 2007              		.loc 1 591 0
 2008 08d4 FA7D     		ldrb	r2, [r7, #23]	@ zero_extendqisi2
 2009 08d6 1346     		mov	r3, r2
 2010 08d8 9B00     		lsls	r3, r3, #2
 2011 08da 1344     		add	r3, r3, r2
 2012 08dc 3A6A     		ldr	r2, [r7, #32]
 2013 08de 1344     		add	r3, r3, r2
 2014 08e0 97F83020 		ldrb	r2, [r7, #48]	@ zero_extendqisi2
 2015 08e4 8449     		ldr	r1, .L115
 2016 08e6 0A44     		add	r2, r2, r1
 2017 08e8 527D     		ldrb	r2, [r2, #21]	@ zero_extendqisi2
 2018 08ea 92B2     		uxth	r2, r2
 2019 08ec A3F80120 		strh	r2, [r3, #1]	@ unaligned
 592:build/openmote-cc2538_armgcc/drivers/common/openserial.c ****             celllist_add[i].channeloffset  = openserial_vars.inputBuf[ptr+celllistLen];
 2020              		.loc 1 592 0
 2021 08f0 FA7D     		ldrb	r2, [r7, #23]	@ zero_extendqisi2
 2022 08f2 1346     		mov	r3, r2
 2023 08f4 9B00     		lsls	r3, r3, #2
 2024 08f6 1344     		add	r3, r3, r2
 2025 08f8 3A6A     		ldr	r2, [r7, #32]
 2026 08fa 1344     		add	r3, r3, r2
 2027 08fc 97F83010 		ldrb	r1, [r7, #48]	@ zero_extendqisi2
 2028 0900 BA7D     		ldrb	r2, [r7, #22]	@ zero_extendqisi2
 2029 0902 0A44     		add	r2, r2, r1
 2030 0904 7C49     		ldr	r1, .L115
 2031 0906 0A44     		add	r2, r2, r1
 2032 0908 527D     		ldrb	r2, [r2, #21]	@ zero_extendqisi2
 2033 090a 92B2     		uxth	r2, r2
 2034 090c A3F80320 		strh	r2, [r3, #3]	@ unaligned
 593:build/openmote-cc2538_armgcc/drivers/common/openserial.c ****             celllist_add[i].isUsed         = TRUE;
 2035              		.loc 1 593 0
 2036 0910 FA7D     		ldrb	r2, [r7, #23]	@ zero_extendqisi2
 2037 0912 1346     		mov	r3, r2
 2038 0914 9B00     		lsls	r3, r3, #2
 2039 0916 1344     		add	r3, r3, r2
 2040 0918 3A6A     		ldr	r2, [r7, #32]
 2041 091a 1344     		add	r3, r3, r2
 2042 091c 0122     		movs	r2, #1
 2043 091e 1A70     		strb	r2, [r3]
 594:build/openmote-cc2538_armgcc/drivers/common/openserial.c ****             ptr         += 1;
 2044              		.loc 1 594 0
 2045 0920 97F83030 		ldrb	r3, [r7, #48]
 2046 0924 0133     		adds	r3, r3, #1
 2047 0926 87F83030 		strb	r3, [r7, #48]
 595:build/openmote-cc2538_armgcc/drivers/common/openserial.c ****             commandLen  -= 1;
 2048              		.loc 1 595 0
 2049 092a 97F83430 		ldrb	r3, [r7, #52]
 2050 092e 013B     		subs	r3, r3, #1
 2051 0930 87F83430 		strb	r3, [r7, #52]
 596:build/openmote-cc2538_armgcc/drivers/common/openserial.c ****             i++;
 2052              		.loc 1 596 0
 2053 0934 FB7D     		ldrb	r3, [r7, #23]	@ zero_extendqisi2
 2054 0936 0133     		adds	r3, r3, #1
 2055 0938 FB75     		strb	r3, [r7, #23]
 2056              	.L106:
 590:build/openmote-cc2538_armgcc/drivers/common/openserial.c ****             celllist_add[i].slotoffset     = openserial_vars.inputBuf[ptr];
 2057              		.loc 1 590 0
 2058 093a 97F83420 		ldrb	r2, [r7, #52]	@ zero_extendqisi2
 2059 093e BB7D     		ldrb	r3, [r7, #22]	@ zero_extendqisi2
 2060 0940 9A42     		cmp	r2, r3
 2061 0942 C7D8     		bhi	.L107
 597:build/openmote-cc2538_armgcc/drivers/common/openserial.c ****         }
 598:build/openmote-cc2538_armgcc/drivers/common/openserial.c ****         return;
 2062              		.loc 1 598 0
 2063 0944 D3E0     		b	.L100
 2064              	.L105:
 599:build/openmote-cc2538_armgcc/drivers/common/openserial.c ****     }
 600:build/openmote-cc2538_armgcc/drivers/common/openserial.c **** 
 601:build/openmote-cc2538_armgcc/drivers/common/openserial.c ****     // delete command
 602:build/openmote-cc2538_armgcc/drivers/common/openserial.c ****     if (commandId == COMMAND_SET_6P_DELETE){
 2065              		.loc 1 602 0
 2066 0946 FB7B     		ldrb	r3, [r7, #15]	@ zero_extendqisi2
 2067 0948 0A2B     		cmp	r3, #10
 2068 094a 42D1     		bne	.L108
 603:build/openmote-cc2538_armgcc/drivers/common/openserial.c ****         *code = IANA_6TOP_CMD_DELETE;
 2069              		.loc 1 603 0
 2070 094c BB68     		ldr	r3, [r7, #8]
 2071 094e 0222     		movs	r2, #2
 2072 0950 1A70     		strb	r2, [r3]
 604:build/openmote-cc2538_armgcc/drivers/common/openserial.c ****         // retrieve cell list
 605:build/openmote-cc2538_armgcc/drivers/common/openserial.c ****         i = 0;
 2073              		.loc 1 605 0
 2074 0952 0023     		movs	r3, #0
 2075 0954 FB75     		strb	r3, [r7, #23]
 606:build/openmote-cc2538_armgcc/drivers/common/openserial.c ****         celllistLen = commandLen/2;
 2076              		.loc 1 606 0
 2077 0956 97F83430 		ldrb	r3, [r7, #52]	@ zero_extendqisi2
 2078 095a 5B08     		lsrs	r3, r3, #1
 2079 095c BB75     		strb	r3, [r7, #22]
 607:build/openmote-cc2538_armgcc/drivers/common/openserial.c ****         while(commandLen>celllistLen){
 2080              		.loc 1 607 0
 2081 095e 32E0     		b	.L109
 2082              	.L110:
 608:build/openmote-cc2538_armgcc/drivers/common/openserial.c ****             celllist_delete[i].slotoffset     = openserial_vars.inputBuf[ptr];
 2083              		.loc 1 608 0
 2084 0960 FA7D     		ldrb	r2, [r7, #23]	@ zero_extendqisi2
 2085 0962 1346     		mov	r3, r2
 2086 0964 9B00     		lsls	r3, r3, #2
 2087 0966 1344     		add	r3, r3, r2
 2088 0968 7A6A     		ldr	r2, [r7, #36]
 2089 096a 1344     		add	r3, r3, r2
 2090 096c 97F83020 		ldrb	r2, [r7, #48]	@ zero_extendqisi2
 2091 0970 6149     		ldr	r1, .L115
 2092 0972 0A44     		add	r2, r2, r1
 2093 0974 527D     		ldrb	r2, [r2, #21]	@ zero_extendqisi2
 2094 0976 92B2     		uxth	r2, r2
 2095 0978 A3F80120 		strh	r2, [r3, #1]	@ unaligned
 609:build/openmote-cc2538_armgcc/drivers/common/openserial.c ****             celllist_delete[i].channeloffset  = openserial_vars.inputBuf[ptr+celllistLen];
 2096              		.loc 1 609 0
 2097 097c FA7D     		ldrb	r2, [r7, #23]	@ zero_extendqisi2
 2098 097e 1346     		mov	r3, r2
 2099 0980 9B00     		lsls	r3, r3, #2
 2100 0982 1344     		add	r3, r3, r2
 2101 0984 7A6A     		ldr	r2, [r7, #36]
 2102 0986 1344     		add	r3, r3, r2
 2103 0988 97F83010 		ldrb	r1, [r7, #48]	@ zero_extendqisi2
 2104 098c BA7D     		ldrb	r2, [r7, #22]	@ zero_extendqisi2
 2105 098e 0A44     		add	r2, r2, r1
 2106 0990 5949     		ldr	r1, .L115
 2107 0992 0A44     		add	r2, r2, r1
 2108 0994 527D     		ldrb	r2, [r2, #21]	@ zero_extendqisi2
 2109 0996 92B2     		uxth	r2, r2
 2110 0998 A3F80320 		strh	r2, [r3, #3]	@ unaligned
 610:build/openmote-cc2538_armgcc/drivers/common/openserial.c ****             celllist_delete[i].isUsed         = TRUE;
 2111              		.loc 1 610 0
 2112 099c FA7D     		ldrb	r2, [r7, #23]	@ zero_extendqisi2
 2113 099e 1346     		mov	r3, r2
 2114 09a0 9B00     		lsls	r3, r3, #2
 2115 09a2 1344     		add	r3, r3, r2
 2116 09a4 7A6A     		ldr	r2, [r7, #36]
 2117 09a6 1344     		add	r3, r3, r2
 2118 09a8 0122     		movs	r2, #1
 2119 09aa 1A70     		strb	r2, [r3]
 611:build/openmote-cc2538_armgcc/drivers/common/openserial.c ****             ptr         += 1;
 2120              		.loc 1 611 0
 2121 09ac 97F83030 		ldrb	r3, [r7, #48]
 2122 09b0 0133     		adds	r3, r3, #1
 2123 09b2 87F83030 		strb	r3, [r7, #48]
 612:build/openmote-cc2538_armgcc/drivers/common/openserial.c ****             commandLen  -= 1;
 2124              		.loc 1 612 0
 2125 09b6 97F83430 		ldrb	r3, [r7, #52]
 2126 09ba 013B     		subs	r3, r3, #1
 2127 09bc 87F83430 		strb	r3, [r7, #52]
 613:build/openmote-cc2538_armgcc/drivers/common/openserial.c ****             i++;
 2128              		.loc 1 613 0
 2129 09c0 FB7D     		ldrb	r3, [r7, #23]	@ zero_extendqisi2
 2130 09c2 0133     		adds	r3, r3, #1
 2131 09c4 FB75     		strb	r3, [r7, #23]
 2132              	.L109:
 607:build/openmote-cc2538_armgcc/drivers/common/openserial.c ****             celllist_delete[i].slotoffset     = openserial_vars.inputBuf[ptr];
 2133              		.loc 1 607 0
 2134 09c6 97F83420 		ldrb	r2, [r7, #52]	@ zero_extendqisi2
 2135 09ca BB7D     		ldrb	r3, [r7, #22]	@ zero_extendqisi2
 2136 09cc 9A42     		cmp	r2, r3
 2137 09ce C7D8     		bhi	.L110
 614:build/openmote-cc2538_armgcc/drivers/common/openserial.c ****         }
 615:build/openmote-cc2538_armgcc/drivers/common/openserial.c ****         return;
 2138              		.loc 1 615 0
 2139 09d0 8DE0     		b	.L100
 2140              	.L108:
 616:build/openmote-cc2538_armgcc/drivers/common/openserial.c ****     }
 617:build/openmote-cc2538_armgcc/drivers/common/openserial.c ****     
 618:build/openmote-cc2538_armgcc/drivers/common/openserial.c ****     // relocate command
 619:build/openmote-cc2538_armgcc/drivers/common/openserial.c ****     if (commandId == COMMAND_SET_6P_RELOCATE){
 2141              		.loc 1 619 0
 2142 09d2 FB7B     		ldrb	r3, [r7, #15]	@ zero_extendqisi2
 2143 09d4 0B2B     		cmp	r3, #11
 2144 09d6 40F08A80 		bne	.L100
 620:build/openmote-cc2538_armgcc/drivers/common/openserial.c ****         *code = IANA_6TOP_CMD_RELOCATE;
 2145              		.loc 1 620 0
 2146 09da BB68     		ldr	r3, [r7, #8]
 2147 09dc 0322     		movs	r2, #3
 2148 09de 1A70     		strb	r2, [r3]
 621:build/openmote-cc2538_armgcc/drivers/common/openserial.c ****         // retrieve cell list to be relocated
 622:build/openmote-cc2538_armgcc/drivers/common/openserial.c ****         i = 0;
 2149              		.loc 1 622 0
 2150 09e0 0023     		movs	r3, #0
 2151 09e2 FB75     		strb	r3, [r7, #23]
 623:build/openmote-cc2538_armgcc/drivers/common/openserial.c ****         while(i<*numCells){
 2152              		.loc 1 623 0
 2153 09e4 2EE0     		b	.L111
 2154              	.L112:
 624:build/openmote-cc2538_armgcc/drivers/common/openserial.c ****             celllist_delete[i].slotoffset     = openserial_vars.inputBuf[ptr];
 2155              		.loc 1 624 0
 2156 09e6 FA7D     		ldrb	r2, [r7, #23]	@ zero_extendqisi2
 2157 09e8 1346     		mov	r3, r2
 2158 09ea 9B00     		lsls	r3, r3, #2
 2159 09ec 1344     		add	r3, r3, r2
 2160 09ee 7A6A     		ldr	r2, [r7, #36]
 2161 09f0 1344     		add	r3, r3, r2
 2162 09f2 97F83020 		ldrb	r2, [r7, #48]	@ zero_extendqisi2
 2163 09f6 4049     		ldr	r1, .L115
 2164 09f8 0A44     		add	r2, r2, r1
 2165 09fa 527D     		ldrb	r2, [r2, #21]	@ zero_extendqisi2
 2166 09fc 92B2     		uxth	r2, r2
 2167 09fe A3F80120 		strh	r2, [r3, #1]	@ unaligned
 625:build/openmote-cc2538_armgcc/drivers/common/openserial.c ****             celllist_delete[i].channeloffset  = openserial_vars.inputBuf[ptr+*numCells];
 2168              		.loc 1 625 0
 2169 0a02 FA7D     		ldrb	r2, [r7, #23]	@ zero_extendqisi2
 2170 0a04 1346     		mov	r3, r2
 2171 0a06 9B00     		lsls	r3, r3, #2
 2172 0a08 1344     		add	r3, r3, r2
 2173 0a0a 7A6A     		ldr	r2, [r7, #36]
 2174 0a0c 1344     		add	r3, r3, r2
 2175 0a0e 97F83020 		ldrb	r2, [r7, #48]	@ zero_extendqisi2
 2176 0a12 3968     		ldr	r1, [r7]
 2177 0a14 0978     		ldrb	r1, [r1]	@ zero_extendqisi2
 2178 0a16 0A44     		add	r2, r2, r1
 2179 0a18 3749     		ldr	r1, .L115
 2180 0a1a 0A44     		add	r2, r2, r1
 2181 0a1c 527D     		ldrb	r2, [r2, #21]	@ zero_extendqisi2
 2182 0a1e 92B2     		uxth	r2, r2
 2183 0a20 A3F80320 		strh	r2, [r3, #3]	@ unaligned
 626:build/openmote-cc2538_armgcc/drivers/common/openserial.c ****             celllist_delete[i].isUsed         = TRUE;
 2184              		.loc 1 626 0
 2185 0a24 FA7D     		ldrb	r2, [r7, #23]	@ zero_extendqisi2
 2186 0a26 1346     		mov	r3, r2
 2187 0a28 9B00     		lsls	r3, r3, #2
 2188 0a2a 1344     		add	r3, r3, r2
 2189 0a2c 7A6A     		ldr	r2, [r7, #36]
 2190 0a2e 1344     		add	r3, r3, r2
 2191 0a30 0122     		movs	r2, #1
 2192 0a32 1A70     		strb	r2, [r3]
 627:build/openmote-cc2538_armgcc/drivers/common/openserial.c ****             ptr         += 1;
 2193              		.loc 1 627 0
 2194 0a34 97F83030 		ldrb	r3, [r7, #48]
 2195 0a38 0133     		adds	r3, r3, #1
 2196 0a3a 87F83030 		strb	r3, [r7, #48]
 628:build/openmote-cc2538_armgcc/drivers/common/openserial.c ****             i++;
 2197              		.loc 1 628 0
 2198 0a3e FB7D     		ldrb	r3, [r7, #23]	@ zero_extendqisi2
 2199 0a40 0133     		adds	r3, r3, #1
 2200 0a42 FB75     		strb	r3, [r7, #23]
 2201              	.L111:
 623:build/openmote-cc2538_armgcc/drivers/common/openserial.c ****             celllist_delete[i].slotoffset     = openserial_vars.inputBuf[ptr];
 2202              		.loc 1 623 0
 2203 0a44 3B68     		ldr	r3, [r7]
 2204 0a46 1B78     		ldrb	r3, [r3]	@ zero_extendqisi2
 2205 0a48 FA7D     		ldrb	r2, [r7, #23]	@ zero_extendqisi2
 2206 0a4a 9A42     		cmp	r2, r3
 2207 0a4c CBD3     		bcc	.L112
 629:build/openmote-cc2538_armgcc/drivers/common/openserial.c ****         }
 630:build/openmote-cc2538_armgcc/drivers/common/openserial.c ****         
 631:build/openmote-cc2538_armgcc/drivers/common/openserial.c ****         commandLen      -= (*numCells) * 2;
 2208              		.loc 1 631 0
 2209 0a4e 3B68     		ldr	r3, [r7]
 2210 0a50 1B78     		ldrb	r3, [r3]	@ zero_extendqisi2
 2211 0a52 5B00     		lsls	r3, r3, #1
 2212 0a54 DBB2     		uxtb	r3, r3
 2213 0a56 97F83420 		ldrb	r2, [r7, #52]
 2214 0a5a D31A     		subs	r3, r2, r3
 2215 0a5c 87F83430 		strb	r3, [r7, #52]
 632:build/openmote-cc2538_armgcc/drivers/common/openserial.c ****         ptr             += *numCells;
 2216              		.loc 1 632 0
 2217 0a60 3B68     		ldr	r3, [r7]
 2218 0a62 1A78     		ldrb	r2, [r3]	@ zero_extendqisi2
 2219 0a64 97F83030 		ldrb	r3, [r7, #48]
 2220 0a68 1344     		add	r3, r3, r2
 2221 0a6a 87F83030 		strb	r3, [r7, #48]
 633:build/openmote-cc2538_armgcc/drivers/common/openserial.c ****         // retrieve cell list to be relocated
 634:build/openmote-cc2538_armgcc/drivers/common/openserial.c ****         i = 0;
 2222              		.loc 1 634 0
 2223 0a6e 0023     		movs	r3, #0
 2224 0a70 FB75     		strb	r3, [r7, #23]
 635:build/openmote-cc2538_armgcc/drivers/common/openserial.c ****         celllistLen = commandLen/2;
 2225              		.loc 1 635 0
 2226 0a72 97F83430 		ldrb	r3, [r7, #52]	@ zero_extendqisi2
 2227 0a76 5B08     		lsrs	r3, r3, #1
 2228 0a78 BB75     		strb	r3, [r7, #22]
 636:build/openmote-cc2538_armgcc/drivers/common/openserial.c ****         while(commandLen>celllistLen){
 2229              		.loc 1 636 0
 2230 0a7a 32E0     		b	.L113
 2231              	.L114:
 637:build/openmote-cc2538_armgcc/drivers/common/openserial.c ****             celllist_add[i].slotoffset     = openserial_vars.inputBuf[ptr];
 2232              		.loc 1 637 0
 2233 0a7c FA7D     		ldrb	r2, [r7, #23]	@ zero_extendqisi2
 2234 0a7e 1346     		mov	r3, r2
 2235 0a80 9B00     		lsls	r3, r3, #2
 2236 0a82 1344     		add	r3, r3, r2
 2237 0a84 3A6A     		ldr	r2, [r7, #32]
 2238 0a86 1344     		add	r3, r3, r2
 2239 0a88 97F83020 		ldrb	r2, [r7, #48]	@ zero_extendqisi2
 2240 0a8c 1A49     		ldr	r1, .L115
 2241 0a8e 0A44     		add	r2, r2, r1
 2242 0a90 527D     		ldrb	r2, [r2, #21]	@ zero_extendqisi2
 2243 0a92 92B2     		uxth	r2, r2
 2244 0a94 A3F80120 		strh	r2, [r3, #1]	@ unaligned
 638:build/openmote-cc2538_armgcc/drivers/common/openserial.c ****             celllist_add[i].channeloffset  = openserial_vars.inputBuf[ptr+celllistLen];
 2245              		.loc 1 638 0
 2246 0a98 FA7D     		ldrb	r2, [r7, #23]	@ zero_extendqisi2
 2247 0a9a 1346     		mov	r3, r2
 2248 0a9c 9B00     		lsls	r3, r3, #2
 2249 0a9e 1344     		add	r3, r3, r2
 2250 0aa0 3A6A     		ldr	r2, [r7, #32]
 2251 0aa2 1344     		add	r3, r3, r2
 2252 0aa4 97F83010 		ldrb	r1, [r7, #48]	@ zero_extendqisi2
 2253 0aa8 BA7D     		ldrb	r2, [r7, #22]	@ zero_extendqisi2
 2254 0aaa 0A44     		add	r2, r2, r1
 2255 0aac 1249     		ldr	r1, .L115
 2256 0aae 0A44     		add	r2, r2, r1
 2257 0ab0 527D     		ldrb	r2, [r2, #21]	@ zero_extendqisi2
 2258 0ab2 92B2     		uxth	r2, r2
 2259 0ab4 A3F80320 		strh	r2, [r3, #3]	@ unaligned
 639:build/openmote-cc2538_armgcc/drivers/common/openserial.c ****             celllist_add[i].isUsed         = TRUE;
 2260              		.loc 1 639 0
 2261 0ab8 FA7D     		ldrb	r2, [r7, #23]	@ zero_extendqisi2
 2262 0aba 1346     		mov	r3, r2
 2263 0abc 9B00     		lsls	r3, r3, #2
 2264 0abe 1344     		add	r3, r3, r2
 2265 0ac0 3A6A     		ldr	r2, [r7, #32]
 2266 0ac2 1344     		add	r3, r3, r2
 2267 0ac4 0122     		movs	r2, #1
 2268 0ac6 1A70     		strb	r2, [r3]
 640:build/openmote-cc2538_armgcc/drivers/common/openserial.c ****             ptr         += 1;
 2269              		.loc 1 640 0
 2270 0ac8 97F83030 		ldrb	r3, [r7, #48]
 2271 0acc 0133     		adds	r3, r3, #1
 2272 0ace 87F83030 		strb	r3, [r7, #48]
 641:build/openmote-cc2538_armgcc/drivers/common/openserial.c ****             commandLen  -= 1;
 2273              		.loc 1 641 0
 2274 0ad2 97F83430 		ldrb	r3, [r7, #52]
 2275 0ad6 013B     		subs	r3, r3, #1
 2276 0ad8 87F83430 		strb	r3, [r7, #52]
 642:build/openmote-cc2538_armgcc/drivers/common/openserial.c ****             i++;
 2277              		.loc 1 642 0
 2278 0adc FB7D     		ldrb	r3, [r7, #23]	@ zero_extendqisi2
 2279 0ade 0133     		adds	r3, r3, #1
 2280 0ae0 FB75     		strb	r3, [r7, #23]
 2281              	.L113:
 636:build/openmote-cc2538_armgcc/drivers/common/openserial.c ****             celllist_add[i].slotoffset     = openserial_vars.inputBuf[ptr];
 2282              		.loc 1 636 0
 2283 0ae2 97F83420 		ldrb	r2, [r7, #52]	@ zero_extendqisi2
 2284 0ae6 BB7D     		ldrb	r3, [r7, #22]	@ zero_extendqisi2
 2285 0ae8 9A42     		cmp	r2, r3
 2286 0aea C7D8     		bhi	.L114
 643:build/openmote-cc2538_armgcc/drivers/common/openserial.c ****         }
 644:build/openmote-cc2538_armgcc/drivers/common/openserial.c ****         return;
 2287              		.loc 1 644 0 discriminator 3
 2288 0aec 00BF     		nop
 2289              	.L100:
 645:build/openmote-cc2538_armgcc/drivers/common/openserial.c ****     }
 646:build/openmote-cc2538_armgcc/drivers/common/openserial.c **** }
 2290              		.loc 1 646 0
 2291 0aee 1C37     		adds	r7, r7, #28
 2292              		.cfi_def_cfa_offset 4
 2293 0af0 BD46     		mov	sp, r7
 2294              		.cfi_def_cfa_register 13
 2295              		@ sp needed
 2296 0af2 80BC     		pop	{r7}
 2297              		.cfi_restore 7
 2298              		.cfi_def_cfa_offset 0
 2299 0af4 7047     		bx	lr
 2300              	.L116:
 2301 0af6 00BF     		.align	2
 2302              	.L115:
 2303 0af8 00000000 		.word	openserial_vars
 2304              		.cfi_endproc
 2305              	.LFE16:
 2307              		.align	2
 2308              		.global	openserial_handleCommands
 2309              		.thumb
 2310              		.thumb_func
 2312              	openserial_handleCommands:
 2313              	.LFB17:
 647:build/openmote-cc2538_armgcc/drivers/common/openserial.c **** 
 648:build/openmote-cc2538_armgcc/drivers/common/openserial.c **** void openserial_handleCommands(void){
 2314              		.loc 1 648 0
 2315              		.cfi_startproc
 2316              		@ args = 0, pretend = 0, frame = 112
 2317              		@ frame_needed = 1, uses_anonymous_args = 0
 2318 0afc F0B5     		push	{r4, r5, r6, r7, lr}
 2319              		.cfi_def_cfa_offset 20
 2320              		.cfi_offset 4, -20
 2321              		.cfi_offset 5, -16
 2322              		.cfi_offset 6, -12
 2323              		.cfi_offset 7, -8
 2324              		.cfi_offset 14, -4
 2325 0afe A3B0     		sub	sp, sp, #140
 2326              		.cfi_def_cfa_offset 160
 2327 0b00 06AF     		add	r7, sp, #24
 2328              		.cfi_def_cfa 7, 136
 649:build/openmote-cc2538_armgcc/drivers/common/openserial.c ****     uint8_t  input_buffer[20];
 650:build/openmote-cc2538_armgcc/drivers/common/openserial.c ****     uint8_t  numDataBytes;
 651:build/openmote-cc2538_armgcc/drivers/common/openserial.c ****     uint8_t  commandId;
 652:build/openmote-cc2538_armgcc/drivers/common/openserial.c ****     uint8_t  commandLen;
 653:build/openmote-cc2538_armgcc/drivers/common/openserial.c ****     uint8_t  comandParam_8;
 654:build/openmote-cc2538_armgcc/drivers/common/openserial.c ****     uint16_t comandParam_16;
 655:build/openmote-cc2538_armgcc/drivers/common/openserial.c ****     
 656:build/openmote-cc2538_armgcc/drivers/common/openserial.c ****     uint8_t  code,cellOptions,numCell,listOffset,maxListLen;
 657:build/openmote-cc2538_armgcc/drivers/common/openserial.c ****     uint8_t  ptr;
 658:build/openmote-cc2538_armgcc/drivers/common/openserial.c ****     cellInfo_ht celllist_add[CELLLIST_MAX_LEN];
 659:build/openmote-cc2538_armgcc/drivers/common/openserial.c ****     cellInfo_ht celllist_delete[CELLLIST_MAX_LEN];
 660:build/openmote-cc2538_armgcc/drivers/common/openserial.c ****    
 661:build/openmote-cc2538_armgcc/drivers/common/openserial.c ****     open_addr_t neighbor;
 662:build/openmote-cc2538_armgcc/drivers/common/openserial.c ****     bool        foundNeighbor;
 663:build/openmote-cc2538_armgcc/drivers/common/openserial.c ****     
 664:build/openmote-cc2538_armgcc/drivers/common/openserial.c ****     ptr = 0;
 2329              		.loc 1 664 0
 2330 0b02 0023     		movs	r3, #0
 2331 0b04 87F86F30 		strb	r3, [r7, #111]
 665:build/openmote-cc2538_armgcc/drivers/common/openserial.c ****     memset(celllist_add,0,CELLLIST_MAX_LEN*sizeof(cellInfo_ht));
 2332              		.loc 1 665 0
 2333 0b08 07F13003 		add	r3, r7, #48
 2334 0b0c 1922     		movs	r2, #25
 2335 0b0e 0021     		movs	r1, #0
 2336 0b10 1846     		mov	r0, r3
 2337 0b12 FFF7FEFF 		bl	memset
 666:build/openmote-cc2538_armgcc/drivers/common/openserial.c ****     memset(celllist_delete,0,CELLLIST_MAX_LEN*sizeof(cellInfo_ht));
 2338              		.loc 1 666 0
 2339 0b16 07F11403 		add	r3, r7, #20
 2340 0b1a 1922     		movs	r2, #25
 2341 0b1c 0021     		movs	r1, #0
 2342 0b1e 1846     		mov	r0, r3
 2343 0b20 FFF7FEFF 		bl	memset
 667:build/openmote-cc2538_armgcc/drivers/common/openserial.c ****     
 668:build/openmote-cc2538_armgcc/drivers/common/openserial.c ****     numDataBytes = openserial_getInputBufferFilllevel();
 2344              		.loc 1 668 0
 2345 0b24 FFF7FEFF 		bl	openserial_getInputBufferFilllevel
 2346 0b28 0346     		mov	r3, r0
 2347 0b2a 87F86E30 		strb	r3, [r7, #110]
 669:build/openmote-cc2538_armgcc/drivers/common/openserial.c ****     //copying the buffer
 670:build/openmote-cc2538_armgcc/drivers/common/openserial.c ****     openserial_getInputBuffer(&(input_buffer[ptr]),numDataBytes);
 2348              		.loc 1 670 0
 2349 0b2e 97F86F30 		ldrb	r3, [r7, #111]	@ zero_extendqisi2
 2350 0b32 07F15002 		add	r2, r7, #80
 2351 0b36 1344     		add	r3, r3, r2
 2352 0b38 97F86E20 		ldrb	r2, [r7, #110]	@ zero_extendqisi2
 2353 0b3c 1146     		mov	r1, r2
 2354 0b3e 1846     		mov	r0, r3
 2355 0b40 FFF7FEFF 		bl	openserial_getInputBuffer
 671:build/openmote-cc2538_armgcc/drivers/common/openserial.c ****     ptr++;
 2356              		.loc 1 671 0
 2357 0b44 97F86F30 		ldrb	r3, [r7, #111]	@ zero_extendqisi2
 2358 0b48 0133     		adds	r3, r3, #1
 2359 0b4a 87F86F30 		strb	r3, [r7, #111]
 672:build/openmote-cc2538_armgcc/drivers/common/openserial.c ****     commandId  = openserial_vars.inputBuf[ptr];
 2360              		.loc 1 672 0
 2361 0b4e 97F86F30 		ldrb	r3, [r7, #111]	@ zero_extendqisi2
 2362 0b52 CC4A     		ldr	r2, .L149
 2363 0b54 1344     		add	r3, r3, r2
 2364 0b56 5B7D     		ldrb	r3, [r3, #21]
 2365 0b58 87F86D30 		strb	r3, [r7, #109]
 673:build/openmote-cc2538_armgcc/drivers/common/openserial.c ****     ptr++;
 2366              		.loc 1 673 0
 2367 0b5c 97F86F30 		ldrb	r3, [r7, #111]	@ zero_extendqisi2
 2368 0b60 0133     		adds	r3, r3, #1
 2369 0b62 87F86F30 		strb	r3, [r7, #111]
 674:build/openmote-cc2538_armgcc/drivers/common/openserial.c ****     commandLen = openserial_vars.inputBuf[ptr];
 2370              		.loc 1 674 0
 2371 0b66 97F86F30 		ldrb	r3, [r7, #111]	@ zero_extendqisi2
 2372 0b6a C64A     		ldr	r2, .L149
 2373 0b6c 1344     		add	r3, r3, r2
 2374 0b6e 5B7D     		ldrb	r3, [r3, #21]
 2375 0b70 87F86C30 		strb	r3, [r7, #108]
 675:build/openmote-cc2538_armgcc/drivers/common/openserial.c ****     ptr++;
 2376              		.loc 1 675 0
 2377 0b74 97F86F30 		ldrb	r3, [r7, #111]	@ zero_extendqisi2
 2378 0b78 0133     		adds	r3, r3, #1
 2379 0b7a 87F86F30 		strb	r3, [r7, #111]
 676:build/openmote-cc2538_armgcc/drivers/common/openserial.c ****     
 677:build/openmote-cc2538_armgcc/drivers/common/openserial.c ****     switch(commandId) {
 2380              		.loc 1 677 0
 2381 0b7e 97F86D30 		ldrb	r3, [r7, #109]	@ zero_extendqisi2
 2382 0b82 132B     		cmp	r3, #19
 2383 0b84 00F29681 		bhi	.L144
 2384 0b88 01A2     		adr	r2, .L120
 2385 0b8a 52F823F0 		ldr	pc, [r2, r3, lsl #2]
 2386 0b8e 00BF     		.p2align 2
 2387              	.L120:
 2388 0b90 E10B0000 		.word	.L119+1
 2389 0b94 FB0B0000 		.word	.L121+1
 2390 0b98 1F0C0000 		.word	.L122+1
 2391 0b9c 4F0C0000 		.word	.L123+1
 2392 0ba0 7F0C0000 		.word	.L124+1
 2393 0ba4 AF0C0000 		.word	.L125+1
 2394 0ba8 DF0C0000 		.word	.L126+1
 2395 0bac 030D0000 		.word	.L127+1
 2396 0bb0 330D0000 		.word	.L128+1
 2397 0bb4 570D0000 		.word	.L129+1
 2398 0bb8 570D0000 		.word	.L129+1
 2399 0bbc 570D0000 		.word	.L129+1
 2400 0bc0 570D0000 		.word	.L129+1
 2401 0bc4 570D0000 		.word	.L129+1
 2402 0bc8 570D0000 		.word	.L129+1
 2403 0bcc EF0D0000 		.word	.L130+1
 2404 0bd0 1F0E0000 		.word	.L131+1
 2405 0bd4 4D0E0000 		.word	.L132+1
 2406 0bd8 670E0000 		.word	.L133+1
 2407 0bdc 990E0000 		.word	.L134+1
 2408              		.p2align 1
 2409              	.L119:
 678:build/openmote-cc2538_armgcc/drivers/common/openserial.c ****         case COMMAND_SET_EBPERIOD:
 679:build/openmote-cc2538_armgcc/drivers/common/openserial.c ****             comandParam_8 = openserial_vars.inputBuf[ptr];
 2410              		.loc 1 679 0
 2411 0be0 97F86F30 		ldrb	r3, [r7, #111]	@ zero_extendqisi2
 2412 0be4 A74A     		ldr	r2, .L149
 2413 0be6 1344     		add	r3, r3, r2
 2414 0be8 5B7D     		ldrb	r3, [r3, #21]
 2415 0bea 87F86B30 		strb	r3, [r7, #107]
 680:build/openmote-cc2538_armgcc/drivers/common/openserial.c ****             sixtop_setEBPeriod(comandParam_8); // one byte, in seconds
 2416              		.loc 1 680 0
 2417 0bee 97F86B30 		ldrb	r3, [r7, #107]	@ zero_extendqisi2
 2418 0bf2 1846     		mov	r0, r3
 2419 0bf4 FFF7FEFF 		bl	sixtop_setEBPeriod
 681:build/openmote-cc2538_armgcc/drivers/common/openserial.c ****             break;
 2420              		.loc 1 681 0
 2421 0bf8 65E1     		b	.L135
 2422              	.L121:
 682:build/openmote-cc2538_armgcc/drivers/common/openserial.c ****         case COMMAND_SET_CHANNEL:
 683:build/openmote-cc2538_armgcc/drivers/common/openserial.c ****            comandParam_8 = openserial_vars.inputBuf[ptr];
 2423              		.loc 1 683 0
 2424 0bfa 97F86F30 		ldrb	r3, [r7, #111]	@ zero_extendqisi2
 2425 0bfe A14A     		ldr	r2, .L149
 2426 0c00 1344     		add	r3, r3, r2
 2427 0c02 5B7D     		ldrb	r3, [r3, #21]
 2428 0c04 87F86B30 		strb	r3, [r7, #107]
 684:build/openmote-cc2538_armgcc/drivers/common/openserial.c ****            // set communication channel for protocol stack
 685:build/openmote-cc2538_armgcc/drivers/common/openserial.c ****            ieee154e_setSingleChannel(comandParam_8); // one byte
 2429              		.loc 1 685 0
 2430 0c08 97F86B30 		ldrb	r3, [r7, #107]	@ zero_extendqisi2
 2431 0c0c 1846     		mov	r0, r3
 2432 0c0e FFF7FEFF 		bl	ieee154e_setSingleChannel
 686:build/openmote-cc2538_armgcc/drivers/common/openserial.c ****            // set listenning channel for sniffer
 687:build/openmote-cc2538_armgcc/drivers/common/openserial.c ****            sniffer_setListeningChannel(comandParam_8); // one byte
 2433              		.loc 1 687 0
 2434 0c12 97F86B30 		ldrb	r3, [r7, #107]	@ zero_extendqisi2
 2435 0c16 1846     		mov	r0, r3
 2436 0c18 FFF7FEFF 		bl	sniffer_setListeningChannel
 688:build/openmote-cc2538_armgcc/drivers/common/openserial.c ****            break;
 2437              		.loc 1 688 0
 2438 0c1c 53E1     		b	.L135
 2439              	.L122:
 689:build/openmote-cc2538_armgcc/drivers/common/openserial.c ****         case COMMAND_SET_KAPERIOD: // two bytes, in slots
 690:build/openmote-cc2538_armgcc/drivers/common/openserial.c ****             comandParam_16 = (openserial_vars.inputBuf[ptr] & 0x00ff) | \
 2440              		.loc 1 690 0
 2441 0c1e 97F86F30 		ldrb	r3, [r7, #111]	@ zero_extendqisi2
 2442 0c22 984A     		ldr	r2, .L149
 2443 0c24 1344     		add	r3, r3, r2
 2444 0c26 5B7D     		ldrb	r3, [r3, #21]	@ zero_extendqisi2
 2445 0c28 1AB2     		sxth	r2, r3
 691:build/openmote-cc2538_armgcc/drivers/common/openserial.c ****                 ((openserial_vars.inputBuf[ptr+1]<<8) & 0xff00); 
 2446              		.loc 1 691 0
 2447 0c2a 97F86F30 		ldrb	r3, [r7, #111]	@ zero_extendqisi2
 2448 0c2e 0133     		adds	r3, r3, #1
 2449 0c30 9449     		ldr	r1, .L149
 2450 0c32 0B44     		add	r3, r3, r1
 2451 0c34 5B7D     		ldrb	r3, [r3, #21]	@ zero_extendqisi2
 2452 0c36 1B02     		lsls	r3, r3, #8
 690:build/openmote-cc2538_armgcc/drivers/common/openserial.c ****                 ((openserial_vars.inputBuf[ptr+1]<<8) & 0xff00); 
 2453              		.loc 1 690 0
 2454 0c38 1BB2     		sxth	r3, r3
 2455 0c3a 1343     		orrs	r3, r3, r2
 2456 0c3c 1BB2     		sxth	r3, r3
 2457 0c3e A7F86830 		strh	r3, [r7, #104]	@ movhi
 692:build/openmote-cc2538_armgcc/drivers/common/openserial.c ****             sixtop_setKaPeriod(comandParam_16);
 2458              		.loc 1 692 0
 2459 0c42 B7F86830 		ldrh	r3, [r7, #104]
 2460 0c46 1846     		mov	r0, r3
 2461 0c48 FFF7FEFF 		bl	sixtop_setKaPeriod
 693:build/openmote-cc2538_armgcc/drivers/common/openserial.c ****             break;
 2462              		.loc 1 693 0
 2463 0c4c 3BE1     		b	.L135
 2464              	.L123:
 694:build/openmote-cc2538_armgcc/drivers/common/openserial.c ****         case COMMAND_SET_DIOPERIOD: // two bytes, in mili-seconds
 695:build/openmote-cc2538_armgcc/drivers/common/openserial.c ****             comandParam_16 = (openserial_vars.inputBuf[ptr] & 0x00ff) | \
 2465              		.loc 1 695 0
 2466 0c4e 97F86F30 		ldrb	r3, [r7, #111]	@ zero_extendqisi2
 2467 0c52 8C4A     		ldr	r2, .L149
 2468 0c54 1344     		add	r3, r3, r2
 2469 0c56 5B7D     		ldrb	r3, [r3, #21]	@ zero_extendqisi2
 2470 0c58 1AB2     		sxth	r2, r3
 696:build/openmote-cc2538_armgcc/drivers/common/openserial.c ****                 ((openserial_vars.inputBuf[ptr+1]<<8) & 0xff00); 
 2471              		.loc 1 696 0
 2472 0c5a 97F86F30 		ldrb	r3, [r7, #111]	@ zero_extendqisi2
 2473 0c5e 0133     		adds	r3, r3, #1
 2474 0c60 8849     		ldr	r1, .L149
 2475 0c62 0B44     		add	r3, r3, r1
 2476 0c64 5B7D     		ldrb	r3, [r3, #21]	@ zero_extendqisi2
 2477 0c66 1B02     		lsls	r3, r3, #8
 695:build/openmote-cc2538_armgcc/drivers/common/openserial.c ****                 ((openserial_vars.inputBuf[ptr+1]<<8) & 0xff00); 
 2478              		.loc 1 695 0
 2479 0c68 1BB2     		sxth	r3, r3
 2480 0c6a 1343     		orrs	r3, r3, r2
 2481 0c6c 1BB2     		sxth	r3, r3
 2482 0c6e A7F86830 		strh	r3, [r7, #104]	@ movhi
 697:build/openmote-cc2538_armgcc/drivers/common/openserial.c ****             icmpv6rpl_setDIOPeriod(comandParam_16);
 2483              		.loc 1 697 0
 2484 0c72 B7F86830 		ldrh	r3, [r7, #104]
 2485 0c76 1846     		mov	r0, r3
 2486 0c78 FFF7FEFF 		bl	icmpv6rpl_setDIOPeriod
 698:build/openmote-cc2538_armgcc/drivers/common/openserial.c ****             break;
 2487              		.loc 1 698 0
 2488 0c7c 23E1     		b	.L135
 2489              	.L124:
 699:build/openmote-cc2538_armgcc/drivers/common/openserial.c ****         case COMMAND_SET_DAOPERIOD: // two bytes, in mili-seconds
 700:build/openmote-cc2538_armgcc/drivers/common/openserial.c ****             comandParam_16 = (openserial_vars.inputBuf[ptr] & 0x00ff) | \
 2490              		.loc 1 700 0
 2491 0c7e 97F86F30 		ldrb	r3, [r7, #111]	@ zero_extendqisi2
 2492 0c82 804A     		ldr	r2, .L149
 2493 0c84 1344     		add	r3, r3, r2
 2494 0c86 5B7D     		ldrb	r3, [r3, #21]	@ zero_extendqisi2
 2495 0c88 1AB2     		sxth	r2, r3
 701:build/openmote-cc2538_armgcc/drivers/common/openserial.c ****                 ((openserial_vars.inputBuf[ptr+1]<<8) & 0xff00); 
 2496              		.loc 1 701 0
 2497 0c8a 97F86F30 		ldrb	r3, [r7, #111]	@ zero_extendqisi2
 2498 0c8e 0133     		adds	r3, r3, #1
 2499 0c90 7C49     		ldr	r1, .L149
 2500 0c92 0B44     		add	r3, r3, r1
 2501 0c94 5B7D     		ldrb	r3, [r3, #21]	@ zero_extendqisi2
 2502 0c96 1B02     		lsls	r3, r3, #8
 700:build/openmote-cc2538_armgcc/drivers/common/openserial.c ****                 ((openserial_vars.inputBuf[ptr+1]<<8) & 0xff00); 
 2503              		.loc 1 700 0
 2504 0c98 1BB2     		sxth	r3, r3
 2505 0c9a 1343     		orrs	r3, r3, r2
 2506 0c9c 1BB2     		sxth	r3, r3
 2507 0c9e A7F86830 		strh	r3, [r7, #104]	@ movhi
 702:build/openmote-cc2538_armgcc/drivers/common/openserial.c ****             icmpv6rpl_setDAOPeriod(comandParam_16);
 2508              		.loc 1 702 0
 2509 0ca2 B7F86830 		ldrh	r3, [r7, #104]
 2510 0ca6 1846     		mov	r0, r3
 2511 0ca8 FFF7FEFF 		bl	icmpv6rpl_setDAOPeriod
 703:build/openmote-cc2538_armgcc/drivers/common/openserial.c ****             break;
 2512              		.loc 1 703 0
 2513 0cac 0BE1     		b	.L135
 2514              	.L125:
 704:build/openmote-cc2538_armgcc/drivers/common/openserial.c ****         case COMMAND_SET_DAGRANK: // two bytes
 705:build/openmote-cc2538_armgcc/drivers/common/openserial.c ****             comandParam_16 = (openserial_vars.inputBuf[ptr] & 0x00ff) | \
 2515              		.loc 1 705 0
 2516 0cae 97F86F30 		ldrb	r3, [r7, #111]	@ zero_extendqisi2
 2517 0cb2 744A     		ldr	r2, .L149
 2518 0cb4 1344     		add	r3, r3, r2
 2519 0cb6 5B7D     		ldrb	r3, [r3, #21]	@ zero_extendqisi2
 2520 0cb8 1AB2     		sxth	r2, r3
 706:build/openmote-cc2538_armgcc/drivers/common/openserial.c ****                 ((openserial_vars.inputBuf[ptr+1]<<8) & 0xff00); 
 2521              		.loc 1 706 0
 2522 0cba 97F86F30 		ldrb	r3, [r7, #111]	@ zero_extendqisi2
 2523 0cbe 0133     		adds	r3, r3, #1
 2524 0cc0 7049     		ldr	r1, .L149
 2525 0cc2 0B44     		add	r3, r3, r1
 2526 0cc4 5B7D     		ldrb	r3, [r3, #21]	@ zero_extendqisi2
 2527 0cc6 1B02     		lsls	r3, r3, #8
 705:build/openmote-cc2538_armgcc/drivers/common/openserial.c ****                 ((openserial_vars.inputBuf[ptr+1]<<8) & 0xff00); 
 2528              		.loc 1 705 0
 2529 0cc8 1BB2     		sxth	r3, r3
 2530 0cca 1343     		orrs	r3, r3, r2
 2531 0ccc 1BB2     		sxth	r3, r3
 2532 0cce A7F86830 		strh	r3, [r7, #104]	@ movhi
 707:build/openmote-cc2538_armgcc/drivers/common/openserial.c ****             icmpv6rpl_setMyDAGrank(comandParam_16);
 2533              		.loc 1 707 0
 2534 0cd2 B7F86830 		ldrh	r3, [r7, #104]
 2535 0cd6 1846     		mov	r0, r3
 2536 0cd8 FFF7FEFF 		bl	icmpv6rpl_setMyDAGrank
 708:build/openmote-cc2538_armgcc/drivers/common/openserial.c ****             break;
 2537              		.loc 1 708 0
 2538 0cdc F3E0     		b	.L135
 2539              	.L126:
 709:build/openmote-cc2538_armgcc/drivers/common/openserial.c ****         case COMMAND_SET_SECURITY_STATUS: // one byte
 710:build/openmote-cc2538_armgcc/drivers/common/openserial.c ****             comandParam_8 = openserial_vars.inputBuf[ptr];
 2540              		.loc 1 710 0
 2541 0cde 97F86F30 		ldrb	r3, [r7, #111]	@ zero_extendqisi2
 2542 0ce2 684A     		ldr	r2, .L149
 2543 0ce4 1344     		add	r3, r3, r2
 2544 0ce6 5B7D     		ldrb	r3, [r3, #21]
 2545 0ce8 87F86B30 		strb	r3, [r7, #107]
 711:build/openmote-cc2538_armgcc/drivers/common/openserial.c ****             ieee154e_setIsSecurityEnabled(comandParam_8);
 2546              		.loc 1 711 0
 2547 0cec 97F86B30 		ldrb	r3, [r7, #107]	@ zero_extendqisi2
 2548 0cf0 002B     		cmp	r3, #0
 2549 0cf2 14BF     		ite	ne
 2550 0cf4 0123     		movne	r3, #1
 2551 0cf6 0023     		moveq	r3, #0
 2552 0cf8 DBB2     		uxtb	r3, r3
 2553 0cfa 1846     		mov	r0, r3
 2554 0cfc FFF7FEFF 		bl	ieee154e_setIsSecurityEnabled
 712:build/openmote-cc2538_armgcc/drivers/common/openserial.c ****             break;
 2555              		.loc 1 712 0
 2556 0d00 E1E0     		b	.L135
 2557              	.L127:
 713:build/openmote-cc2538_armgcc/drivers/common/openserial.c ****         case COMMAND_SET_SLOTFRAMELENGTH: // two bytes
 714:build/openmote-cc2538_armgcc/drivers/common/openserial.c ****             comandParam_16 = (openserial_vars.inputBuf[ptr] & 0x00ff) | \
 2558              		.loc 1 714 0
 2559 0d02 97F86F30 		ldrb	r3, [r7, #111]	@ zero_extendqisi2
 2560 0d06 5F4A     		ldr	r2, .L149
 2561 0d08 1344     		add	r3, r3, r2
 2562 0d0a 5B7D     		ldrb	r3, [r3, #21]	@ zero_extendqisi2
 2563 0d0c 1AB2     		sxth	r2, r3
 715:build/openmote-cc2538_armgcc/drivers/common/openserial.c ****                 ((openserial_vars.inputBuf[ptr+1]<<8) & 0xff00); 
 2564              		.loc 1 715 0
 2565 0d0e 97F86F30 		ldrb	r3, [r7, #111]	@ zero_extendqisi2
 2566 0d12 0133     		adds	r3, r3, #1
 2567 0d14 5B49     		ldr	r1, .L149
 2568 0d16 0B44     		add	r3, r3, r1
 2569 0d18 5B7D     		ldrb	r3, [r3, #21]	@ zero_extendqisi2
 2570 0d1a 1B02     		lsls	r3, r3, #8
 714:build/openmote-cc2538_armgcc/drivers/common/openserial.c ****                 ((openserial_vars.inputBuf[ptr+1]<<8) & 0xff00); 
 2571              		.loc 1 714 0
 2572 0d1c 1BB2     		sxth	r3, r3
 2573 0d1e 1343     		orrs	r3, r3, r2
 2574 0d20 1BB2     		sxth	r3, r3
 2575 0d22 A7F86830 		strh	r3, [r7, #104]	@ movhi
 716:build/openmote-cc2538_armgcc/drivers/common/openserial.c ****             schedule_setFrameLength(comandParam_16);
 2576              		.loc 1 716 0
 2577 0d26 B7F86830 		ldrh	r3, [r7, #104]
 2578 0d2a 1846     		mov	r0, r3
 2579 0d2c FFF7FEFF 		bl	schedule_setFrameLength
 717:build/openmote-cc2538_armgcc/drivers/common/openserial.c ****             break;
 2580              		.loc 1 717 0
 2581 0d30 C9E0     		b	.L135
 2582              	.L128:
 718:build/openmote-cc2538_armgcc/drivers/common/openserial.c ****         case COMMAND_SET_ACK_STATUS:
 719:build/openmote-cc2538_armgcc/drivers/common/openserial.c ****             comandParam_8 = openserial_vars.inputBuf[ptr];
 2583              		.loc 1 719 0
 2584 0d32 97F86F30 		ldrb	r3, [r7, #111]	@ zero_extendqisi2
 2585 0d36 534A     		ldr	r2, .L149
 2586 0d38 1344     		add	r3, r3, r2
 2587 0d3a 5B7D     		ldrb	r3, [r3, #21]
 2588 0d3c 87F86B30 		strb	r3, [r7, #107]
 720:build/openmote-cc2538_armgcc/drivers/common/openserial.c ****             ieee154e_setIsAckEnabled(comandParam_8);
 2589              		.loc 1 720 0
 2590 0d40 97F86B30 		ldrb	r3, [r7, #107]	@ zero_extendqisi2
 2591 0d44 002B     		cmp	r3, #0
 2592 0d46 14BF     		ite	ne
 2593 0d48 0123     		movne	r3, #1
 2594 0d4a 0023     		moveq	r3, #0
 2595 0d4c DBB2     		uxtb	r3, r3
 2596 0d4e 1846     		mov	r0, r3
 2597 0d50 FFF7FEFF 		bl	ieee154e_setIsAckEnabled
 721:build/openmote-cc2538_armgcc/drivers/common/openserial.c ****             break;
 2598              		.loc 1 721 0
 2599 0d54 B7E0     		b	.L135
 2600              	.L129:
 722:build/openmote-cc2538_armgcc/drivers/common/openserial.c ****         case COMMAND_SET_6P_ADD:
 723:build/openmote-cc2538_armgcc/drivers/common/openserial.c ****         case COMMAND_SET_6P_DELETE:
 724:build/openmote-cc2538_armgcc/drivers/common/openserial.c ****         case COMMAND_SET_6P_RELOCATE:
 725:build/openmote-cc2538_armgcc/drivers/common/openserial.c ****         case COMMAND_SET_6P_COUNT:
 726:build/openmote-cc2538_armgcc/drivers/common/openserial.c ****         case COMMAND_SET_6P_LIST:
 727:build/openmote-cc2538_armgcc/drivers/common/openserial.c ****         case COMMAND_SET_6P_CLEAR:
 728:build/openmote-cc2538_armgcc/drivers/common/openserial.c ****             // get preferred parent
 729:build/openmote-cc2538_armgcc/drivers/common/openserial.c ****             foundNeighbor =icmpv6rpl_getPreferredParentEui64(&neighbor);
 2601              		.loc 1 729 0
 2602 0d56 3B46     		mov	r3, r7
 2603 0d58 1846     		mov	r0, r3
 2604 0d5a FFF7FEFF 		bl	icmpv6rpl_getPreferredParentEui64
 2605 0d5e 0346     		mov	r3, r0
 2606 0d60 87F86730 		strb	r3, [r7, #103]
 730:build/openmote-cc2538_armgcc/drivers/common/openserial.c ****             if (foundNeighbor==FALSE) {
 2607              		.loc 1 730 0
 2608 0d64 97F86730 		ldrb	r3, [r7, #103]
 2609 0d68 83F00103 		eor	r3, r3, #1
 2610 0d6c DBB2     		uxtb	r3, r3
 2611 0d6e 002B     		cmp	r3, #0
 2612 0d70 40F0A280 		bne	.L145
 731:build/openmote-cc2538_armgcc/drivers/common/openserial.c ****                 break;
 732:build/openmote-cc2538_armgcc/drivers/common/openserial.c ****             }
 733:build/openmote-cc2538_armgcc/drivers/common/openserial.c ****             // the following sequence of bytes are, slotframe, cellOption, numCell, celllist
 734:build/openmote-cc2538_armgcc/drivers/common/openserial.c ****             openserial_get6pInfo(commandId,&code,&cellOptions,&numCell,celllist_add,celllist_delete
 2613              		.loc 1 734 0
 2614 0d74 07F14D04 		add	r4, r7, #77
 2615 0d78 07F14E02 		add	r2, r7, #78
 2616 0d7c 07F14F01 		add	r1, r7, #79
 2617 0d80 97F86D00 		ldrb	r0, [r7, #109]	@ zero_extendqisi2
 2618 0d84 97F86C30 		ldrb	r3, [r7, #108]	@ zero_extendqisi2
 2619 0d88 0593     		str	r3, [sp, #20]
 2620 0d8a 97F86F30 		ldrb	r3, [r7, #111]	@ zero_extendqisi2
 2621 0d8e 0493     		str	r3, [sp, #16]
 2622 0d90 07F14B03 		add	r3, r7, #75
 2623 0d94 0393     		str	r3, [sp, #12]
 2624 0d96 07F14C03 		add	r3, r7, #76
 2625 0d9a 0293     		str	r3, [sp, #8]
 2626 0d9c 07F11403 		add	r3, r7, #20
 2627 0da0 0193     		str	r3, [sp, #4]
 2628 0da2 07F13003 		add	r3, r7, #48
 2629 0da6 0093     		str	r3, [sp]
 2630 0da8 2346     		mov	r3, r4
 2631 0daa FFF7FEFF 		bl	openserial_get6pInfo
 735:build/openmote-cc2538_armgcc/drivers/common/openserial.c ****             sixtop_request(
 2632              		.loc 1 735 0
 2633 0dae 97F84F40 		ldrb	r4, [r7, #79]	@ zero_extendqisi2
 2634 0db2 97F84D50 		ldrb	r5, [r7, #77]	@ zero_extendqisi2
 2635 0db6 97F84E60 		ldrb	r6, [r7, #78]	@ zero_extendqisi2
 2636 0dba FFF7FEFF 		bl	msf_getsfid
 2637 0dbe 0346     		mov	r3, r0
 2638 0dc0 1846     		mov	r0, r3
 2639 0dc2 97F84C30 		ldrb	r3, [r7, #76]	@ zero_extendqisi2
 2640 0dc6 9BB2     		uxth	r3, r3
 2641 0dc8 97F84B20 		ldrb	r2, [r7, #75]	@ zero_extendqisi2
 2642 0dcc 92B2     		uxth	r2, r2
 2643 0dce 3946     		mov	r1, r7
 2644 0dd0 0492     		str	r2, [sp, #16]
 2645 0dd2 0393     		str	r3, [sp, #12]
 2646 0dd4 0290     		str	r0, [sp, #8]
 2647 0dd6 07F11403 		add	r3, r7, #20
 2648 0dda 0193     		str	r3, [sp, #4]
 2649 0ddc 07F13003 		add	r3, r7, #48
 2650 0de0 0093     		str	r3, [sp]
 2651 0de2 3346     		mov	r3, r6
 2652 0de4 2A46     		mov	r2, r5
 2653 0de6 2046     		mov	r0, r4
 2654 0de8 FFF7FEFF 		bl	sixtop_request
 736:build/openmote-cc2538_armgcc/drivers/common/openserial.c ****                 code,              // code
 737:build/openmote-cc2538_armgcc/drivers/common/openserial.c ****                 &neighbor,         // neighbor
 738:build/openmote-cc2538_armgcc/drivers/common/openserial.c ****                 numCell,           // number cells
 739:build/openmote-cc2538_armgcc/drivers/common/openserial.c ****                 cellOptions,       // cellOptions
 740:build/openmote-cc2538_armgcc/drivers/common/openserial.c ****                 celllist_add,      // celllist to add
 741:build/openmote-cc2538_armgcc/drivers/common/openserial.c ****                 celllist_delete,   // celllist to delete (not used)
 742:build/openmote-cc2538_armgcc/drivers/common/openserial.c ****                 msf_getsfid(),     // sfid
 743:build/openmote-cc2538_armgcc/drivers/common/openserial.c ****                 listOffset,        // list command offset (not used)
 744:build/openmote-cc2538_armgcc/drivers/common/openserial.c ****                 maxListLen         // list command maximum celllist (not used)
 745:build/openmote-cc2538_armgcc/drivers/common/openserial.c ****             );
 746:build/openmote-cc2538_armgcc/drivers/common/openserial.c ****             break;
 2655              		.loc 1 746 0
 2656 0dec 6BE0     		b	.L135
 2657              	.L130:
 747:build/openmote-cc2538_armgcc/drivers/common/openserial.c ****         case COMMAND_SET_SLOTDURATION:
 748:build/openmote-cc2538_armgcc/drivers/common/openserial.c ****             comandParam_16 = (openserial_vars.inputBuf[ptr] & 0x00ff) | \
 2658              		.loc 1 748 0
 2659 0dee 97F86F30 		ldrb	r3, [r7, #111]	@ zero_extendqisi2
 2660 0df2 244A     		ldr	r2, .L149
 2661 0df4 1344     		add	r3, r3, r2
 2662 0df6 5B7D     		ldrb	r3, [r3, #21]	@ zero_extendqisi2
 2663 0df8 1AB2     		sxth	r2, r3
 749:build/openmote-cc2538_armgcc/drivers/common/openserial.c ****                 ((openserial_vars.inputBuf[ptr+1]<<8) & 0xff00); 
 2664              		.loc 1 749 0
 2665 0dfa 97F86F30 		ldrb	r3, [r7, #111]	@ zero_extendqisi2
 2666 0dfe 0133     		adds	r3, r3, #1
 2667 0e00 2049     		ldr	r1, .L149
 2668 0e02 0B44     		add	r3, r3, r1
 2669 0e04 5B7D     		ldrb	r3, [r3, #21]	@ zero_extendqisi2
 2670 0e06 1B02     		lsls	r3, r3, #8
 748:build/openmote-cc2538_armgcc/drivers/common/openserial.c ****                 ((openserial_vars.inputBuf[ptr+1]<<8) & 0xff00); 
 2671              		.loc 1 748 0
 2672 0e08 1BB2     		sxth	r3, r3
 2673 0e0a 1343     		orrs	r3, r3, r2
 2674 0e0c 1BB2     		sxth	r3, r3
 2675 0e0e A7F86830 		strh	r3, [r7, #104]	@ movhi
 750:build/openmote-cc2538_armgcc/drivers/common/openserial.c ****             ieee154e_setSlotDuration(comandParam_16);
 2676              		.loc 1 750 0
 2677 0e12 B7F86830 		ldrh	r3, [r7, #104]
 2678 0e16 1846     		mov	r0, r3
 2679 0e18 FFF7FEFF 		bl	ieee154e_setSlotDuration
 751:build/openmote-cc2538_armgcc/drivers/common/openserial.c ****             break;
 2680              		.loc 1 751 0
 2681 0e1c 53E0     		b	.L135
 2682              	.L131:
 752:build/openmote-cc2538_armgcc/drivers/common/openserial.c ****         case COMMAND_SET_6PRESPONSE:
 753:build/openmote-cc2538_armgcc/drivers/common/openserial.c ****             comandParam_8 = openserial_vars.inputBuf[ptr];
 2683              		.loc 1 753 0
 2684 0e1e 97F86F30 		ldrb	r3, [r7, #111]	@ zero_extendqisi2
 2685 0e22 184A     		ldr	r2, .L149
 2686 0e24 1344     		add	r3, r3, r2
 2687 0e26 5B7D     		ldrb	r3, [r3, #21]
 2688 0e28 87F86B30 		strb	r3, [r7, #107]
 754:build/openmote-cc2538_armgcc/drivers/common/openserial.c ****             if (comandParam_8 ==1) {
 2689              		.loc 1 754 0
 2690 0e2c 97F86B30 		ldrb	r3, [r7, #107]	@ zero_extendqisi2
 2691 0e30 012B     		cmp	r3, #1
 2692 0e32 03D1     		bne	.L137
 755:build/openmote-cc2538_armgcc/drivers/common/openserial.c ****                 sixtop_setIsResponseEnabled(TRUE);
 2693              		.loc 1 755 0
 2694 0e34 0120     		movs	r0, #1
 2695 0e36 FFF7FEFF 		bl	sixtop_setIsResponseEnabled
 756:build/openmote-cc2538_armgcc/drivers/common/openserial.c ****             } else {
 757:build/openmote-cc2538_armgcc/drivers/common/openserial.c ****                 if (comandParam_8 == 0) {
 758:build/openmote-cc2538_armgcc/drivers/common/openserial.c ****                     sixtop_setIsResponseEnabled(FALSE);
 759:build/openmote-cc2538_armgcc/drivers/common/openserial.c ****                 } else {
 760:build/openmote-cc2538_armgcc/drivers/common/openserial.c ****                     // security only can be 1 or 0 
 761:build/openmote-cc2538_armgcc/drivers/common/openserial.c ****                     break;
 762:build/openmote-cc2538_armgcc/drivers/common/openserial.c ****                 }
 763:build/openmote-cc2538_armgcc/drivers/common/openserial.c ****             }
 764:build/openmote-cc2538_armgcc/drivers/common/openserial.c ****             break;
 2696              		.loc 1 764 0
 2697 0e3a 44E0     		b	.L135
 2698              	.L137:
 757:build/openmote-cc2538_armgcc/drivers/common/openserial.c ****                     sixtop_setIsResponseEnabled(FALSE);
 2699              		.loc 1 757 0
 2700 0e3c 97F86B30 		ldrb	r3, [r7, #107]	@ zero_extendqisi2
 2701 0e40 002B     		cmp	r3, #0
 2702 0e42 3BD1     		bne	.L146
 758:build/openmote-cc2538_armgcc/drivers/common/openserial.c ****                 } else {
 2703              		.loc 1 758 0
 2704 0e44 0020     		movs	r0, #0
 2705 0e46 FFF7FEFF 		bl	sixtop_setIsResponseEnabled
 2706              		.loc 1 764 0
 2707 0e4a 3CE0     		b	.L135
 2708              	.L132:
 765:build/openmote-cc2538_armgcc/drivers/common/openserial.c ****         case COMMAND_SET_UINJECTPERIOD:
 766:build/openmote-cc2538_armgcc/drivers/common/openserial.c ****             comandParam_8 = openserial_vars.inputBuf[ptr];
 2709              		.loc 1 766 0
 2710 0e4c 97F86F30 		ldrb	r3, [r7, #111]	@ zero_extendqisi2
 2711 0e50 0C4A     		ldr	r2, .L149
 2712 0e52 1344     		add	r3, r3, r2
 2713 0e54 5B7D     		ldrb	r3, [r3, #21]
 2714 0e56 87F86B30 		strb	r3, [r7, #107]
 767:build/openmote-cc2538_armgcc/drivers/common/openserial.c ****             msf_appPktPeriod(comandParam_8);
 2715              		.loc 1 767 0
 2716 0e5a 97F86B30 		ldrb	r3, [r7, #107]	@ zero_extendqisi2
 2717 0e5e 1846     		mov	r0, r3
 2718 0e60 FFF7FEFF 		bl	msf_appPktPeriod
 768:build/openmote-cc2538_armgcc/drivers/common/openserial.c ****             break;
 2719              		.loc 1 768 0
 2720 0e64 2FE0     		b	.L135
 2721              	.L133:
 769:build/openmote-cc2538_armgcc/drivers/common/openserial.c ****         case COMMAND_SET_ECHO_REPLY_STATUS:
 770:build/openmote-cc2538_armgcc/drivers/common/openserial.c ****             comandParam_8 = openserial_vars.inputBuf[ptr];
 2722              		.loc 1 770 0
 2723 0e66 97F86F30 		ldrb	r3, [r7, #111]	@ zero_extendqisi2
 2724 0e6a 064A     		ldr	r2, .L149
 2725 0e6c 1344     		add	r3, r3, r2
 2726 0e6e 5B7D     		ldrb	r3, [r3, #21]
 2727 0e70 87F86B30 		strb	r3, [r7, #107]
 771:build/openmote-cc2538_armgcc/drivers/common/openserial.c ****             if (comandParam_8 == 1) {
 2728              		.loc 1 771 0
 2729 0e74 97F86B30 		ldrb	r3, [r7, #107]	@ zero_extendqisi2
 2730 0e78 012B     		cmp	r3, #1
 2731 0e7a 05D1     		bne	.L140
 772:build/openmote-cc2538_armgcc/drivers/common/openserial.c ****                 icmpv6echo_setIsReplyEnabled(TRUE);
 2732              		.loc 1 772 0
 2733 0e7c 0120     		movs	r0, #1
 2734 0e7e FFF7FEFF 		bl	icmpv6echo_setIsReplyEnabled
 773:build/openmote-cc2538_armgcc/drivers/common/openserial.c ****             } else {
 774:build/openmote-cc2538_armgcc/drivers/common/openserial.c ****                 if (comandParam_8 == 0) {
 775:build/openmote-cc2538_armgcc/drivers/common/openserial.c ****                     icmpv6echo_setIsReplyEnabled(FALSE);
 776:build/openmote-cc2538_armgcc/drivers/common/openserial.c ****                 } else {
 777:build/openmote-cc2538_armgcc/drivers/common/openserial.c ****                     // ack reply
 778:build/openmote-cc2538_armgcc/drivers/common/openserial.c ****                     break;
 779:build/openmote-cc2538_armgcc/drivers/common/openserial.c ****                 }
 780:build/openmote-cc2538_armgcc/drivers/common/openserial.c ****             }
 781:build/openmote-cc2538_armgcc/drivers/common/openserial.c ****             break;
 2735              		.loc 1 781 0
 2736 0e82 20E0     		b	.L135
 2737              	.L150:
 2738              		.align	2
 2739              	.L149:
 2740 0e84 00000000 		.word	openserial_vars
 2741              	.L140:
 774:build/openmote-cc2538_armgcc/drivers/common/openserial.c ****                     icmpv6echo_setIsReplyEnabled(FALSE);
 2742              		.loc 1 774 0
 2743 0e88 97F86B30 		ldrb	r3, [r7, #107]	@ zero_extendqisi2
 2744 0e8c 002B     		cmp	r3, #0
 2745 0e8e 17D1     		bne	.L147
 775:build/openmote-cc2538_armgcc/drivers/common/openserial.c ****                 } else {
 2746              		.loc 1 775 0
 2747 0e90 0020     		movs	r0, #0
 2748 0e92 FFF7FEFF 		bl	icmpv6echo_setIsReplyEnabled
 2749              		.loc 1 781 0
 2750 0e96 16E0     		b	.L135
 2751              	.L134:
 782:build/openmote-cc2538_armgcc/drivers/common/openserial.c ****         case COMMAND_SET_JOIN_KEY:
 783:build/openmote-cc2538_armgcc/drivers/common/openserial.c ****             if (commandLen != 16) { break; }
 2752              		.loc 1 783 0
 2753 0e98 97F86C30 		ldrb	r3, [r7, #108]	@ zero_extendqisi2
 2754 0e9c 102B     		cmp	r3, #16
 2755 0e9e 11D1     		bne	.L148
 784:build/openmote-cc2538_armgcc/drivers/common/openserial.c ****             idmanager_setJoinKey(&openserial_vars.inputBuf[ptr]);
 2756              		.loc 1 784 0
 2757 0ea0 97F86F30 		ldrb	r3, [r7, #111]	@ zero_extendqisi2
 2758 0ea4 1033     		adds	r3, r3, #16
 2759 0ea6 0A4A     		ldr	r2, .L151
 2760 0ea8 1344     		add	r3, r3, r2
 2761 0eaa 0533     		adds	r3, r3, #5
 2762 0eac 1846     		mov	r0, r3
 2763 0eae FFF7FEFF 		bl	idmanager_setJoinKey
 785:build/openmote-cc2538_armgcc/drivers/common/openserial.c ****             break;
 2764              		.loc 1 785 0
 2765 0eb2 08E0     		b	.L135
 2766              	.L144:
 786:build/openmote-cc2538_armgcc/drivers/common/openserial.c ****         default:
 787:build/openmote-cc2538_armgcc/drivers/common/openserial.c ****            // wrong command ID
 788:build/openmote-cc2538_armgcc/drivers/common/openserial.c ****            break;
 2767              		.loc 1 788 0
 2768 0eb4 00BF     		nop
 2769 0eb6 06E0     		b	.L135
 2770              	.L145:
 731:build/openmote-cc2538_armgcc/drivers/common/openserial.c ****             }
 2771              		.loc 1 731 0
 2772 0eb8 00BF     		nop
 2773 0eba 04E0     		b	.L135
 2774              	.L146:
 761:build/openmote-cc2538_armgcc/drivers/common/openserial.c ****                 }
 2775              		.loc 1 761 0
 2776 0ebc 00BF     		nop
 2777 0ebe 02E0     		b	.L135
 2778              	.L147:
 778:build/openmote-cc2538_armgcc/drivers/common/openserial.c ****                 }
 2779              		.loc 1 778 0
 2780 0ec0 00BF     		nop
 2781 0ec2 00E0     		b	.L135
 2782              	.L148:
 783:build/openmote-cc2538_armgcc/drivers/common/openserial.c ****             idmanager_setJoinKey(&openserial_vars.inputBuf[ptr]);
 2783              		.loc 1 783 0
 2784 0ec4 00BF     		nop
 2785              	.L135:
 789:build/openmote-cc2538_armgcc/drivers/common/openserial.c ****    }
 790:build/openmote-cc2538_armgcc/drivers/common/openserial.c **** }
 2786              		.loc 1 790 0 discriminator 1
 2787 0ec6 00BF     		nop
 2788 0ec8 7437     		adds	r7, r7, #116
 2789              		.cfi_def_cfa_offset 20
 2790 0eca BD46     		mov	sp, r7
 2791              		.cfi_def_cfa_register 13
 2792              		@ sp needed
 2793 0ecc F0BD     		pop	{r4, r5, r6, r7, pc}
 2794              	.L152:
 2795 0ece 00BF     		.align	2
 2796              	.L151:
 2797 0ed0 00000000 		.word	openserial_vars
 2798              		.cfi_endproc
 2799              	.LFE17:
 2801              		.align	2
 2802              		.global	openserial_board_reset_cb
 2803              		.thumb
 2804              		.thumb_func
 2806              	openserial_board_reset_cb:
 2807              	.LFB18:
 791:build/openmote-cc2538_armgcc/drivers/common/openserial.c **** 
 792:build/openmote-cc2538_armgcc/drivers/common/openserial.c **** //===== misc
 793:build/openmote-cc2538_armgcc/drivers/common/openserial.c **** 
 794:build/openmote-cc2538_armgcc/drivers/common/openserial.c **** void openserial_board_reset_cb(opentimers_id_t id) {
 2808              		.loc 1 794 0
 2809              		.cfi_startproc
 2810              		@ args = 0, pretend = 0, frame = 8
 2811              		@ frame_needed = 1, uses_anonymous_args = 0
 2812 0ed4 80B5     		push	{r7, lr}
 2813              		.cfi_def_cfa_offset 8
 2814              		.cfi_offset 7, -8
 2815              		.cfi_offset 14, -4
 2816 0ed6 82B0     		sub	sp, sp, #8
 2817              		.cfi_def_cfa_offset 16
 2818 0ed8 00AF     		add	r7, sp, #0
 2819              		.cfi_def_cfa_register 7
 2820 0eda 0346     		mov	r3, r0
 2821 0edc FB71     		strb	r3, [r7, #7]
 795:build/openmote-cc2538_armgcc/drivers/common/openserial.c ****     board_reset();
 2822              		.loc 1 795 0
 2823 0ede FFF7FEFF 		bl	board_reset
 796:build/openmote-cc2538_armgcc/drivers/common/openserial.c **** }
 2824              		.loc 1 796 0
 2825 0ee2 00BF     		nop
 2826 0ee4 0837     		adds	r7, r7, #8
 2827              		.cfi_def_cfa_offset 8
 2828 0ee6 BD46     		mov	sp, r7
 2829              		.cfi_def_cfa_register 13
 2830              		@ sp needed
 2831 0ee8 80BD     		pop	{r7, pc}
 2832              		.cfi_endproc
 2833              	.LFE18:
 2835 0eea 00BF     		.align	2
 2836              		.global	outputHdlcOpen
 2837              		.thumb
 2838              		.thumb_func
 2840              	outputHdlcOpen:
 2841              	.LFB19:
 797:build/openmote-cc2538_armgcc/drivers/common/openserial.c **** 
 798:build/openmote-cc2538_armgcc/drivers/common/openserial.c **** //===== hdlc (output)
 799:build/openmote-cc2538_armgcc/drivers/common/openserial.c **** 
 800:build/openmote-cc2538_armgcc/drivers/common/openserial.c **** /**
 801:build/openmote-cc2538_armgcc/drivers/common/openserial.c **** \brief Start an HDLC frame in the output buffer.
 802:build/openmote-cc2538_armgcc/drivers/common/openserial.c **** */
 803:build/openmote-cc2538_armgcc/drivers/common/openserial.c **** port_INLINE void outputHdlcOpen() {
 2842              		.loc 1 803 0
 2843              		.cfi_startproc
 2844              		@ args = 0, pretend = 0, frame = 0
 2845              		@ frame_needed = 1, uses_anonymous_args = 0
 2846              		@ link register save eliminated.
 2847 0eec 80B4     		push	{r7}
 2848              		.cfi_def_cfa_offset 4
 2849              		.cfi_offset 7, -4
 2850 0eee 00AF     		add	r7, sp, #0
 2851              		.cfi_def_cfa_register 7
 804:build/openmote-cc2538_armgcc/drivers/common/openserial.c ****     // initialize the value of the CRC
 805:build/openmote-cc2538_armgcc/drivers/common/openserial.c ****     openserial_vars.outputCrc                                        = HDLC_CRCINIT;
 2852              		.loc 1 805 0
 2853 0ef0 0B4B     		ldr	r3, .L155
 2854 0ef2 4FF6FF72 		movw	r2, #65535
 2855 0ef6 A3F8DE20 		strh	r2, [r3, #222]	@ movhi
 806:build/openmote-cc2538_armgcc/drivers/common/openserial.c **** 
 807:build/openmote-cc2538_armgcc/drivers/common/openserial.c ****     // write the opening HDLC flag
 808:build/openmote-cc2538_armgcc/drivers/common/openserial.c ****     openserial_vars.outputBuf[OUTPUT_BUFFER_MASK & (openserial_vars.outputBufIdxW++)]       = HDLC_
 2856              		.loc 1 808 0
 2857 0efa 094B     		ldr	r3, .L155
 2858 0efc B3F8E030 		ldrh	r3, [r3, #224]
 2859 0f00 5A1C     		adds	r2, r3, #1
 2860 0f02 91B2     		uxth	r1, r2
 2861 0f04 064A     		ldr	r2, .L155
 2862 0f06 A2F8E010 		strh	r1, [r2, #224]	@ movhi
 2863 0f0a C3F30903 		ubfx	r3, r3, #0, #10
 2864 0f0e 044A     		ldr	r2, .L155
 2865 0f10 1344     		add	r3, r3, r2
 2866 0f12 7E22     		movs	r2, #126
 2867 0f14 83F8E420 		strb	r2, [r3, #228]
 809:build/openmote-cc2538_armgcc/drivers/common/openserial.c **** }
 2868              		.loc 1 809 0
 2869 0f18 00BF     		nop
 2870 0f1a BD46     		mov	sp, r7
 2871              		.cfi_def_cfa_register 13
 2872              		@ sp needed
 2873 0f1c 80BC     		pop	{r7}
 2874              		.cfi_restore 7
 2875              		.cfi_def_cfa_offset 0
 2876 0f1e 7047     		bx	lr
 2877              	.L156:
 2878              		.align	2
 2879              	.L155:
 2880 0f20 00000000 		.word	openserial_vars
 2881              		.cfi_endproc
 2882              	.LFE19:
 2884              		.align	2
 2885              		.global	outputHdlcWrite
 2886              		.thumb
 2887              		.thumb_func
 2889              	outputHdlcWrite:
 2890              	.LFB20:
 810:build/openmote-cc2538_armgcc/drivers/common/openserial.c **** /**
 811:build/openmote-cc2538_armgcc/drivers/common/openserial.c **** \brief Add a byte to the outgoing HDLC frame being built.
 812:build/openmote-cc2538_armgcc/drivers/common/openserial.c **** */
 813:build/openmote-cc2538_armgcc/drivers/common/openserial.c **** port_INLINE void outputHdlcWrite(uint8_t b) {
 2891              		.loc 1 813 0
 2892              		.cfi_startproc
 2893              		@ args = 0, pretend = 0, frame = 8
 2894              		@ frame_needed = 1, uses_anonymous_args = 0
 2895 0f24 80B5     		push	{r7, lr}
 2896              		.cfi_def_cfa_offset 8
 2897              		.cfi_offset 7, -8
 2898              		.cfi_offset 14, -4
 2899 0f26 82B0     		sub	sp, sp, #8
 2900              		.cfi_def_cfa_offset 16
 2901 0f28 00AF     		add	r7, sp, #0
 2902              		.cfi_def_cfa_register 7
 2903 0f2a 0346     		mov	r3, r0
 2904 0f2c FB71     		strb	r3, [r7, #7]
 814:build/openmote-cc2538_armgcc/drivers/common/openserial.c ****     
 815:build/openmote-cc2538_armgcc/drivers/common/openserial.c ****     // iterate through CRC calculator
 816:build/openmote-cc2538_armgcc/drivers/common/openserial.c ****     openserial_vars.outputCrc = crcIteration(openserial_vars.outputCrc,b);
 2905              		.loc 1 816 0
 2906 0f2e 1C4B     		ldr	r3, .L160
 2907 0f30 B3F8DE30 		ldrh	r3, [r3, #222]
 2908 0f34 FA79     		ldrb	r2, [r7, #7]	@ zero_extendqisi2
 2909 0f36 1146     		mov	r1, r2
 2910 0f38 1846     		mov	r0, r3
 2911 0f3a FFF7FEFF 		bl	crcIteration
 2912 0f3e 0346     		mov	r3, r0
 2913 0f40 1A46     		mov	r2, r3
 2914 0f42 174B     		ldr	r3, .L160
 2915 0f44 A3F8DE20 		strh	r2, [r3, #222]	@ movhi
 817:build/openmote-cc2538_armgcc/drivers/common/openserial.c ****     
 818:build/openmote-cc2538_armgcc/drivers/common/openserial.c ****     // add byte to buffer
 819:build/openmote-cc2538_armgcc/drivers/common/openserial.c ****     if (b==HDLC_FLAG || b==HDLC_ESCAPE) {
 2916              		.loc 1 819 0
 2917 0f48 FB79     		ldrb	r3, [r7, #7]	@ zero_extendqisi2
 2918 0f4a 7E2B     		cmp	r3, #126
 2919 0f4c 02D0     		beq	.L158
 2920              		.loc 1 819 0 is_stmt 0 discriminator 1
 2921 0f4e FB79     		ldrb	r3, [r7, #7]	@ zero_extendqisi2
 2922 0f50 7D2B     		cmp	r3, #125
 2923 0f52 12D1     		bne	.L159
 2924              	.L158:
 820:build/openmote-cc2538_armgcc/drivers/common/openserial.c ****         openserial_vars.outputBuf[OUTPUT_BUFFER_MASK & (openserial_vars.outputBufIdxW++)]   = HDLC_
 2925              		.loc 1 820 0 is_stmt 1
 2926 0f54 124B     		ldr	r3, .L160
 2927 0f56 B3F8E030 		ldrh	r3, [r3, #224]
 2928 0f5a 5A1C     		adds	r2, r3, #1
 2929 0f5c 91B2     		uxth	r1, r2
 2930 0f5e 104A     		ldr	r2, .L160
 2931 0f60 A2F8E010 		strh	r1, [r2, #224]	@ movhi
 2932 0f64 C3F30903 		ubfx	r3, r3, #0, #10
 2933 0f68 0D4A     		ldr	r2, .L160
 2934 0f6a 1344     		add	r3, r3, r2
 2935 0f6c 7D22     		movs	r2, #125
 2936 0f6e 83F8E420 		strb	r2, [r3, #228]
 821:build/openmote-cc2538_armgcc/drivers/common/openserial.c ****         b                                                            = b^HDLC_ESCAPE_MASK;
 2937              		.loc 1 821 0
 2938 0f72 FB79     		ldrb	r3, [r7, #7]
 2939 0f74 83F02003 		eor	r3, r3, #32
 2940 0f78 FB71     		strb	r3, [r7, #7]
 2941              	.L159:
 822:build/openmote-cc2538_armgcc/drivers/common/openserial.c ****     }
 823:build/openmote-cc2538_armgcc/drivers/common/openserial.c ****     openserial_vars.outputBuf[OUTPUT_BUFFER_MASK & (openserial_vars.outputBufIdxW++)]       = b;
 2942              		.loc 1 823 0
 2943 0f7a 094B     		ldr	r3, .L160
 2944 0f7c B3F8E030 		ldrh	r3, [r3, #224]
 2945 0f80 5A1C     		adds	r2, r3, #1
 2946 0f82 91B2     		uxth	r1, r2
 2947 0f84 064A     		ldr	r2, .L160
 2948 0f86 A2F8E010 		strh	r1, [r2, #224]	@ movhi
 2949 0f8a C3F30903 		ubfx	r3, r3, #0, #10
 2950 0f8e 044A     		ldr	r2, .L160
 2951 0f90 1344     		add	r3, r3, r2
 2952 0f92 FA79     		ldrb	r2, [r7, #7]
 2953 0f94 83F8E420 		strb	r2, [r3, #228]
 824:build/openmote-cc2538_armgcc/drivers/common/openserial.c **** }
 2954              		.loc 1 824 0
 2955 0f98 00BF     		nop
 2956 0f9a 0837     		adds	r7, r7, #8
 2957              		.cfi_def_cfa_offset 8
 2958 0f9c BD46     		mov	sp, r7
 2959              		.cfi_def_cfa_register 13
 2960              		@ sp needed
 2961 0f9e 80BD     		pop	{r7, pc}
 2962              	.L161:
 2963              		.align	2
 2964              	.L160:
 2965 0fa0 00000000 		.word	openserial_vars
 2966              		.cfi_endproc
 2967              	.LFE20:
 2969              		.align	2
 2970              		.global	outputHdlcClose
 2971              		.thumb
 2972              		.thumb_func
 2974              	outputHdlcClose:
 2975              	.LFB21:
 825:build/openmote-cc2538_armgcc/drivers/common/openserial.c **** /**
 826:build/openmote-cc2538_armgcc/drivers/common/openserial.c **** \brief Finalize the outgoing HDLC frame.
 827:build/openmote-cc2538_armgcc/drivers/common/openserial.c **** */
 828:build/openmote-cc2538_armgcc/drivers/common/openserial.c **** port_INLINE void outputHdlcClose() {
 2976              		.loc 1 828 0
 2977              		.cfi_startproc
 2978              		@ args = 0, pretend = 0, frame = 8
 2979              		@ frame_needed = 1, uses_anonymous_args = 0
 2980 0fa4 80B5     		push	{r7, lr}
 2981              		.cfi_def_cfa_offset 8
 2982              		.cfi_offset 7, -8
 2983              		.cfi_offset 14, -4
 2984 0fa6 82B0     		sub	sp, sp, #8
 2985              		.cfi_def_cfa_offset 16
 2986 0fa8 00AF     		add	r7, sp, #0
 2987              		.cfi_def_cfa_register 7
 829:build/openmote-cc2538_armgcc/drivers/common/openserial.c ****     uint16_t   finalCrc;
 830:build/openmote-cc2538_armgcc/drivers/common/openserial.c **** 
 831:build/openmote-cc2538_armgcc/drivers/common/openserial.c ****     // finalize the calculation of the CRC
 832:build/openmote-cc2538_armgcc/drivers/common/openserial.c ****     finalCrc   = ~openserial_vars.outputCrc;
 2988              		.loc 1 832 0
 2989 0faa 124B     		ldr	r3, .L163
 2990 0fac B3F8DE30 		ldrh	r3, [r3, #222]
 2991 0fb0 DB43     		mvns	r3, r3
 2992 0fb2 FB80     		strh	r3, [r7, #6]	@ movhi
 833:build/openmote-cc2538_armgcc/drivers/common/openserial.c **** 
 834:build/openmote-cc2538_armgcc/drivers/common/openserial.c ****     // write the CRC value
 835:build/openmote-cc2538_armgcc/drivers/common/openserial.c ****     outputHdlcWrite((finalCrc>>0)&0xff);
 2993              		.loc 1 835 0
 2994 0fb4 FB88     		ldrh	r3, [r7, #6]	@ movhi
 2995 0fb6 DBB2     		uxtb	r3, r3
 2996 0fb8 1846     		mov	r0, r3
 2997 0fba FFF7FEFF 		bl	outputHdlcWrite
 836:build/openmote-cc2538_armgcc/drivers/common/openserial.c ****     outputHdlcWrite((finalCrc>>8)&0xff);
 2998              		.loc 1 836 0
 2999 0fbe FB88     		ldrh	r3, [r7, #6]
 3000 0fc0 1B0A     		lsrs	r3, r3, #8
 3001 0fc2 9BB2     		uxth	r3, r3
 3002 0fc4 DBB2     		uxtb	r3, r3
 3003 0fc6 1846     		mov	r0, r3
 3004 0fc8 FFF7FEFF 		bl	outputHdlcWrite
 837:build/openmote-cc2538_armgcc/drivers/common/openserial.c **** 
 838:build/openmote-cc2538_armgcc/drivers/common/openserial.c ****     // write the closing HDLC flag
 839:build/openmote-cc2538_armgcc/drivers/common/openserial.c ****     openserial_vars.outputBuf[OUTPUT_BUFFER_MASK & (openserial_vars.outputBufIdxW++)]       = HDLC_
 3005              		.loc 1 839 0
 3006 0fcc 094B     		ldr	r3, .L163
 3007 0fce B3F8E030 		ldrh	r3, [r3, #224]
 3008 0fd2 5A1C     		adds	r2, r3, #1
 3009 0fd4 91B2     		uxth	r1, r2
 3010 0fd6 074A     		ldr	r2, .L163
 3011 0fd8 A2F8E010 		strh	r1, [r2, #224]	@ movhi
 3012 0fdc C3F30903 		ubfx	r3, r3, #0, #10
 3013 0fe0 044A     		ldr	r2, .L163
 3014 0fe2 1344     		add	r3, r3, r2
 3015 0fe4 7E22     		movs	r2, #126
 3016 0fe6 83F8E420 		strb	r2, [r3, #228]
 840:build/openmote-cc2538_armgcc/drivers/common/openserial.c **** }
 3017              		.loc 1 840 0
 3018 0fea 00BF     		nop
 3019 0fec 0837     		adds	r7, r7, #8
 3020              		.cfi_def_cfa_offset 8
 3021 0fee BD46     		mov	sp, r7
 3022              		.cfi_def_cfa_register 13
 3023              		@ sp needed
 3024 0ff0 80BD     		pop	{r7, pc}
 3025              	.L164:
 3026 0ff2 00BF     		.align	2
 3027              	.L163:
 3028 0ff4 00000000 		.word	openserial_vars
 3029              		.cfi_endproc
 3030              	.LFE21:
 3032              		.align	2
 3033              		.global	inputHdlcOpen
 3034              		.thumb
 3035              		.thumb_func
 3037              	inputHdlcOpen:
 3038              	.LFB22:
 841:build/openmote-cc2538_armgcc/drivers/common/openserial.c **** 
 842:build/openmote-cc2538_armgcc/drivers/common/openserial.c **** //===== hdlc (input)
 843:build/openmote-cc2538_armgcc/drivers/common/openserial.c **** 
 844:build/openmote-cc2538_armgcc/drivers/common/openserial.c **** /**
 845:build/openmote-cc2538_armgcc/drivers/common/openserial.c **** \brief Start an HDLC frame in the input buffer.
 846:build/openmote-cc2538_armgcc/drivers/common/openserial.c **** */
 847:build/openmote-cc2538_armgcc/drivers/common/openserial.c **** port_INLINE void inputHdlcOpen() {
 3039              		.loc 1 847 0
 3040              		.cfi_startproc
 3041              		@ args = 0, pretend = 0, frame = 0
 3042              		@ frame_needed = 1, uses_anonymous_args = 0
 3043              		@ link register save eliminated.
 3044 0ff8 80B4     		push	{r7}
 3045              		.cfi_def_cfa_offset 4
 3046              		.cfi_offset 7, -4
 3047 0ffa 00AF     		add	r7, sp, #0
 3048              		.cfi_def_cfa_register 7
 848:build/openmote-cc2538_armgcc/drivers/common/openserial.c ****     // reset the input buffer index
 849:build/openmote-cc2538_armgcc/drivers/common/openserial.c ****     openserial_vars.inputBufFill                                     = 0;
 3049              		.loc 1 849 0
 3050 0ffc 054B     		ldr	r3, .L166
 3051 0ffe 0022     		movs	r2, #0
 3052 1000 1A75     		strb	r2, [r3, #20]
 850:build/openmote-cc2538_armgcc/drivers/common/openserial.c **** 
 851:build/openmote-cc2538_armgcc/drivers/common/openserial.c ****     // initialize the value of the CRC
 852:build/openmote-cc2538_armgcc/drivers/common/openserial.c ****     openserial_vars.inputCrc                                         = HDLC_CRCINIT;
 3053              		.loc 1 852 0
 3054 1002 044B     		ldr	r3, .L166
 3055 1004 4FF6FF72 		movw	r2, #65535
 3056 1008 5A82     		strh	r2, [r3, #18]	@ movhi
 853:build/openmote-cc2538_armgcc/drivers/common/openserial.c **** }
 3057              		.loc 1 853 0
 3058 100a 00BF     		nop
 3059 100c BD46     		mov	sp, r7
 3060              		.cfi_def_cfa_register 13
 3061              		@ sp needed
 3062 100e 80BC     		pop	{r7}
 3063              		.cfi_restore 7
 3064              		.cfi_def_cfa_offset 0
 3065 1010 7047     		bx	lr
 3066              	.L167:
 3067 1012 00BF     		.align	2
 3068              	.L166:
 3069 1014 00000000 		.word	openserial_vars
 3070              		.cfi_endproc
 3071              	.LFE22:
 3073              		.align	2
 3074              		.global	inputHdlcWrite
 3075              		.thumb
 3076              		.thumb_func
 3078              	inputHdlcWrite:
 3079              	.LFB23:
 854:build/openmote-cc2538_armgcc/drivers/common/openserial.c **** /**
 855:build/openmote-cc2538_armgcc/drivers/common/openserial.c **** \brief Add a byte to the incoming HDLC frame.
 856:build/openmote-cc2538_armgcc/drivers/common/openserial.c **** */
 857:build/openmote-cc2538_armgcc/drivers/common/openserial.c **** port_INLINE void inputHdlcWrite(uint8_t b) {
 3080              		.loc 1 857 0
 3081              		.cfi_startproc
 3082              		@ args = 0, pretend = 0, frame = 8
 3083              		@ frame_needed = 1, uses_anonymous_args = 0
 3084 1018 80B5     		push	{r7, lr}
 3085              		.cfi_def_cfa_offset 8
 3086              		.cfi_offset 7, -8
 3087              		.cfi_offset 14, -4
 3088 101a 82B0     		sub	sp, sp, #8
 3089              		.cfi_def_cfa_offset 16
 3090 101c 00AF     		add	r7, sp, #0
 3091              		.cfi_def_cfa_register 7
 3092 101e 0346     		mov	r3, r0
 3093 1020 FB71     		strb	r3, [r7, #7]
 858:build/openmote-cc2538_armgcc/drivers/common/openserial.c ****     if (b==HDLC_ESCAPE) {
 3094              		.loc 1 858 0
 3095 1022 FB79     		ldrb	r3, [r7, #7]	@ zero_extendqisi2
 3096 1024 7D2B     		cmp	r3, #125
 3097 1026 03D1     		bne	.L169
 859:build/openmote-cc2538_armgcc/drivers/common/openserial.c ****         openserial_vars.inputEscaping = TRUE;
 3098              		.loc 1 859 0
 3099 1028 154B     		ldr	r3, .L173
 3100 102a 0122     		movs	r2, #1
 3101 102c 1A74     		strb	r2, [r3, #16]
 860:build/openmote-cc2538_armgcc/drivers/common/openserial.c ****     } else {
 861:build/openmote-cc2538_armgcc/drivers/common/openserial.c ****         if (openserial_vars.inputEscaping==TRUE) {
 862:build/openmote-cc2538_armgcc/drivers/common/openserial.c ****             b                             = b^HDLC_ESCAPE_MASK;
 863:build/openmote-cc2538_armgcc/drivers/common/openserial.c ****             openserial_vars.inputEscaping = FALSE;
 864:build/openmote-cc2538_armgcc/drivers/common/openserial.c ****         }
 865:build/openmote-cc2538_armgcc/drivers/common/openserial.c ****         
 866:build/openmote-cc2538_armgcc/drivers/common/openserial.c ****         // add byte to input buffer
 867:build/openmote-cc2538_armgcc/drivers/common/openserial.c ****         openserial_vars.inputBuf[openserial_vars.inputBufFill] = b;
 868:build/openmote-cc2538_armgcc/drivers/common/openserial.c ****         openserial_vars.inputBufFill++;
 869:build/openmote-cc2538_armgcc/drivers/common/openserial.c ****         
 870:build/openmote-cc2538_armgcc/drivers/common/openserial.c ****         // iterate through CRC calculator
 871:build/openmote-cc2538_armgcc/drivers/common/openserial.c ****         openserial_vars.inputCrc = crcIteration(openserial_vars.inputCrc,b);
 872:build/openmote-cc2538_armgcc/drivers/common/openserial.c ****     }
 873:build/openmote-cc2538_armgcc/drivers/common/openserial.c **** }
 3102              		.loc 1 873 0
 3103 102e 22E0     		b	.L172
 3104              	.L169:
 861:build/openmote-cc2538_armgcc/drivers/common/openserial.c ****             b                             = b^HDLC_ESCAPE_MASK;
 3105              		.loc 1 861 0
 3106 1030 134B     		ldr	r3, .L173
 3107 1032 1B7C     		ldrb	r3, [r3, #16]	@ zero_extendqisi2
 3108 1034 002B     		cmp	r3, #0
 3109 1036 06D0     		beq	.L171
 862:build/openmote-cc2538_armgcc/drivers/common/openserial.c ****             openserial_vars.inputEscaping = FALSE;
 3110              		.loc 1 862 0
 3111 1038 FB79     		ldrb	r3, [r7, #7]
 3112 103a 83F02003 		eor	r3, r3, #32
 3113 103e FB71     		strb	r3, [r7, #7]
 863:build/openmote-cc2538_armgcc/drivers/common/openserial.c ****         }
 3114              		.loc 1 863 0
 3115 1040 0F4B     		ldr	r3, .L173
 3116 1042 0022     		movs	r2, #0
 3117 1044 1A74     		strb	r2, [r3, #16]
 3118              	.L171:
 867:build/openmote-cc2538_armgcc/drivers/common/openserial.c ****         openserial_vars.inputBufFill++;
 3119              		.loc 1 867 0
 3120 1046 0E4B     		ldr	r3, .L173
 3121 1048 1B7D     		ldrb	r3, [r3, #20]	@ zero_extendqisi2
 3122 104a 1A46     		mov	r2, r3
 3123 104c 0C4B     		ldr	r3, .L173
 3124 104e 1344     		add	r3, r3, r2
 3125 1050 FA79     		ldrb	r2, [r7, #7]
 3126 1052 5A75     		strb	r2, [r3, #21]
 868:build/openmote-cc2538_armgcc/drivers/common/openserial.c ****         
 3127              		.loc 1 868 0
 3128 1054 0A4B     		ldr	r3, .L173
 3129 1056 1B7D     		ldrb	r3, [r3, #20]	@ zero_extendqisi2
 3130 1058 0133     		adds	r3, r3, #1
 3131 105a DAB2     		uxtb	r2, r3
 3132 105c 084B     		ldr	r3, .L173
 3133 105e 1A75     		strb	r2, [r3, #20]
 871:build/openmote-cc2538_armgcc/drivers/common/openserial.c ****     }
 3134              		.loc 1 871 0
 3135 1060 074B     		ldr	r3, .L173
 3136 1062 5B8A     		ldrh	r3, [r3, #18]
 3137 1064 FA79     		ldrb	r2, [r7, #7]	@ zero_extendqisi2
 3138 1066 1146     		mov	r1, r2
 3139 1068 1846     		mov	r0, r3
 3140 106a FFF7FEFF 		bl	crcIteration
 3141 106e 0346     		mov	r3, r0
 3142 1070 1A46     		mov	r2, r3
 3143 1072 034B     		ldr	r3, .L173
 3144 1074 5A82     		strh	r2, [r3, #18]	@ movhi
 3145              	.L172:
 3146              		.loc 1 873 0
 3147 1076 00BF     		nop
 3148 1078 0837     		adds	r7, r7, #8
 3149              		.cfi_def_cfa_offset 8
 3150 107a BD46     		mov	sp, r7
 3151              		.cfi_def_cfa_register 13
 3152              		@ sp needed
 3153 107c 80BD     		pop	{r7, pc}
 3154              	.L174:
 3155 107e 00BF     		.align	2
 3156              	.L173:
 3157 1080 00000000 		.word	openserial_vars
 3158              		.cfi_endproc
 3159              	.LFE23:
 3161              		.align	2
 3162              		.global	inputHdlcClose
 3163              		.thumb
 3164              		.thumb_func
 3166              	inputHdlcClose:
 3167              	.LFB24:
 874:build/openmote-cc2538_armgcc/drivers/common/openserial.c **** /**
 875:build/openmote-cc2538_armgcc/drivers/common/openserial.c **** \brief Finalize the incoming HDLC frame.
 876:build/openmote-cc2538_armgcc/drivers/common/openserial.c **** */
 877:build/openmote-cc2538_armgcc/drivers/common/openserial.c **** port_INLINE void inputHdlcClose() {
 3168              		.loc 1 877 0
 3169              		.cfi_startproc
 3170              		@ args = 0, pretend = 0, frame = 0
 3171              		@ frame_needed = 1, uses_anonymous_args = 0
 3172              		@ link register save eliminated.
 3173 1084 80B4     		push	{r7}
 3174              		.cfi_def_cfa_offset 4
 3175              		.cfi_offset 7, -4
 3176 1086 00AF     		add	r7, sp, #0
 3177              		.cfi_def_cfa_register 7
 878:build/openmote-cc2538_armgcc/drivers/common/openserial.c ****     
 879:build/openmote-cc2538_armgcc/drivers/common/openserial.c ****     // verify the validity of the frame
 880:build/openmote-cc2538_armgcc/drivers/common/openserial.c ****     if (openserial_vars.inputCrc==HDLC_CRCGOOD) {
 3178              		.loc 1 880 0
 3179 1088 094B     		ldr	r3, .L179
 3180 108a 5B8A     		ldrh	r3, [r3, #18]
 3181 108c 4FF2B802 		movw	r2, #61624
 3182 1090 9342     		cmp	r3, r2
 3183 1092 06D1     		bne	.L176
 881:build/openmote-cc2538_armgcc/drivers/common/openserial.c ****         // the CRC is correct
 882:build/openmote-cc2538_armgcc/drivers/common/openserial.c ****         
 883:build/openmote-cc2538_armgcc/drivers/common/openserial.c ****         // remove the CRC from the input buffer
 884:build/openmote-cc2538_armgcc/drivers/common/openserial.c ****         openserial_vars.inputBufFill    -= 2;
 3184              		.loc 1 884 0
 3185 1094 064B     		ldr	r3, .L179
 3186 1096 1B7D     		ldrb	r3, [r3, #20]	@ zero_extendqisi2
 3187 1098 023B     		subs	r3, r3, #2
 3188 109a DAB2     		uxtb	r2, r3
 3189 109c 044B     		ldr	r3, .L179
 3190 109e 1A75     		strb	r2, [r3, #20]
 885:build/openmote-cc2538_armgcc/drivers/common/openserial.c ****     } else {
 886:build/openmote-cc2538_armgcc/drivers/common/openserial.c ****         // the CRC is incorrect
 887:build/openmote-cc2538_armgcc/drivers/common/openserial.c ****         
 888:build/openmote-cc2538_armgcc/drivers/common/openserial.c ****         // drop the incoming fram
 889:build/openmote-cc2538_armgcc/drivers/common/openserial.c ****         openserial_vars.inputBufFill     = 0;
 890:build/openmote-cc2538_armgcc/drivers/common/openserial.c ****     }
 891:build/openmote-cc2538_armgcc/drivers/common/openserial.c **** }
 3191              		.loc 1 891 0
 3192 10a0 02E0     		b	.L178
 3193              	.L176:
 889:build/openmote-cc2538_armgcc/drivers/common/openserial.c ****     }
 3194              		.loc 1 889 0
 3195 10a2 034B     		ldr	r3, .L179
 3196 10a4 0022     		movs	r2, #0
 3197 10a6 1A75     		strb	r2, [r3, #20]
 3198              	.L178:
 3199              		.loc 1 891 0
 3200 10a8 00BF     		nop
 3201 10aa BD46     		mov	sp, r7
 3202              		.cfi_def_cfa_register 13
 3203              		@ sp needed
 3204 10ac 80BC     		pop	{r7}
 3205              		.cfi_restore 7
 3206              		.cfi_def_cfa_offset 0
 3207 10ae 7047     		bx	lr
 3208              	.L180:
 3209              		.align	2
 3210              	.L179:
 3211 10b0 00000000 		.word	openserial_vars
 3212              		.cfi_endproc
 3213              	.LFE24:
 3215              		.align	2
 3216              		.global	isr_openserial_tx
 3217              		.thumb
 3218              		.thumb_func
 3220              	isr_openserial_tx:
 3221              	.LFB25:
 892:build/openmote-cc2538_armgcc/drivers/common/openserial.c **** 
 893:build/openmote-cc2538_armgcc/drivers/common/openserial.c **** //=========================== interrupt handlers ==============================
 894:build/openmote-cc2538_armgcc/drivers/common/openserial.c **** 
 895:build/openmote-cc2538_armgcc/drivers/common/openserial.c **** // executed in ISR, called from scheduler.c
 896:build/openmote-cc2538_armgcc/drivers/common/openserial.c **** void isr_openserial_tx() {
 3222              		.loc 1 896 0
 3223              		.cfi_startproc
 3224              		@ args = 0, pretend = 0, frame = 0
 3225              		@ frame_needed = 1, uses_anonymous_args = 0
 3226 10b4 80B5     		push	{r7, lr}
 3227              		.cfi_def_cfa_offset 8
 3228              		.cfi_offset 7, -8
 3229              		.cfi_offset 14, -4
 3230 10b6 00AF     		add	r7, sp, #0
 3231              		.cfi_def_cfa_register 7
 897:build/openmote-cc2538_armgcc/drivers/common/openserial.c ****     switch (openserial_vars.mode) {
 3232              		.loc 1 897 0
 3233 10b8 214B     		ldr	r3, .L191
 3234 10ba 1B78     		ldrb	r3, [r3]	@ zero_extendqisi2
 3235 10bc 012B     		cmp	r3, #1
 3236 10be 02D0     		beq	.L183
 3237 10c0 022B     		cmp	r3, #2
 3238 10c2 14D0     		beq	.L184
 898:build/openmote-cc2538_armgcc/drivers/common/openserial.c ****         case MODE_INPUT:
 899:build/openmote-cc2538_armgcc/drivers/common/openserial.c ****             openserial_vars.reqFrameIdx++;
 900:build/openmote-cc2538_armgcc/drivers/common/openserial.c ****             if (openserial_vars.reqFrameIdx<sizeof(openserial_vars.reqFrame)) {
 901:build/openmote-cc2538_armgcc/drivers/common/openserial.c ****                 uart_writeByte(openserial_vars.reqFrame[openserial_vars.reqFrameIdx]);
 902:build/openmote-cc2538_armgcc/drivers/common/openserial.c ****             }
 903:build/openmote-cc2538_armgcc/drivers/common/openserial.c ****             break;
 904:build/openmote-cc2538_armgcc/drivers/common/openserial.c ****         case MODE_OUTPUT:
 905:build/openmote-cc2538_armgcc/drivers/common/openserial.c ****             if (openserial_vars.outputBufIdxW==openserial_vars.outputBufIdxR) {
 906:build/openmote-cc2538_armgcc/drivers/common/openserial.c ****                 openserial_vars.outputBufFilled = FALSE;
 907:build/openmote-cc2538_armgcc/drivers/common/openserial.c ****             }
 908:build/openmote-cc2538_armgcc/drivers/common/openserial.c ****             if (openserial_vars.outputBufFilled) {
 909:build/openmote-cc2538_armgcc/drivers/common/openserial.c ****                 uart_writeByte(openserial_vars.outputBuf[OUTPUT_BUFFER_MASK & (openserial_vars.outp
 910:build/openmote-cc2538_armgcc/drivers/common/openserial.c ****             }
 911:build/openmote-cc2538_armgcc/drivers/common/openserial.c ****             break;
 912:build/openmote-cc2538_armgcc/drivers/common/openserial.c ****         case MODE_OFF:
 913:build/openmote-cc2538_armgcc/drivers/common/openserial.c ****             default:
 914:build/openmote-cc2538_armgcc/drivers/common/openserial.c ****             break;
 3239              		.loc 1 914 0
 3240 10c4 39E0     		b	.L186
 3241              	.L183:
 899:build/openmote-cc2538_armgcc/drivers/common/openserial.c ****             if (openserial_vars.reqFrameIdx<sizeof(openserial_vars.reqFrame)) {
 3242              		.loc 1 899 0
 3243 10c6 1E4B     		ldr	r3, .L191
 3244 10c8 5B7B     		ldrb	r3, [r3, #13]	@ zero_extendqisi2
 3245 10ca 0133     		adds	r3, r3, #1
 3246 10cc DAB2     		uxtb	r2, r3
 3247 10ce 1C4B     		ldr	r3, .L191
 3248 10d0 5A73     		strb	r2, [r3, #13]
 900:build/openmote-cc2538_armgcc/drivers/common/openserial.c ****                 uart_writeByte(openserial_vars.reqFrame[openserial_vars.reqFrameIdx]);
 3249              		.loc 1 900 0
 3250 10d2 1B4B     		ldr	r3, .L191
 3251 10d4 5B7B     		ldrb	r3, [r3, #13]	@ zero_extendqisi2
 3252 10d6 042B     		cmp	r3, #4
 3253 10d8 2CD8     		bhi	.L189
 901:build/openmote-cc2538_armgcc/drivers/common/openserial.c ****             }
 3254              		.loc 1 901 0
 3255 10da 194B     		ldr	r3, .L191
 3256 10dc 5B7B     		ldrb	r3, [r3, #13]	@ zero_extendqisi2
 3257 10de 1A46     		mov	r2, r3
 3258 10e0 174B     		ldr	r3, .L191
 3259 10e2 1344     		add	r3, r3, r2
 3260 10e4 1B7A     		ldrb	r3, [r3, #8]	@ zero_extendqisi2
 3261 10e6 1846     		mov	r0, r3
 3262 10e8 FFF7FEFF 		bl	uart_writeByte
 903:build/openmote-cc2538_armgcc/drivers/common/openserial.c ****         case MODE_OUTPUT:
 3263              		.loc 1 903 0
 3264 10ec 22E0     		b	.L189
 3265              	.L184:
 905:build/openmote-cc2538_armgcc/drivers/common/openserial.c ****                 openserial_vars.outputBufFilled = FALSE;
 3266              		.loc 1 905 0
 3267 10ee 144B     		ldr	r3, .L191
 3268 10f0 B3F8E020 		ldrh	r2, [r3, #224]
 3269 10f4 124B     		ldr	r3, .L191
 3270 10f6 B3F8E230 		ldrh	r3, [r3, #226]
 3271 10fa 9A42     		cmp	r2, r3
 3272 10fc 03D1     		bne	.L187
 906:build/openmote-cc2538_armgcc/drivers/common/openserial.c ****             }
 3273              		.loc 1 906 0
 3274 10fe 104B     		ldr	r3, .L191
 3275 1100 0022     		movs	r2, #0
 3276 1102 83F8DD20 		strb	r2, [r3, #221]
 3277              	.L187:
 908:build/openmote-cc2538_armgcc/drivers/common/openserial.c ****                 uart_writeByte(openserial_vars.outputBuf[OUTPUT_BUFFER_MASK & (openserial_vars.outp
 3278              		.loc 1 908 0
 3279 1106 0E4B     		ldr	r3, .L191
 3280 1108 93F8DD30 		ldrb	r3, [r3, #221]	@ zero_extendqisi2
 3281 110c 002B     		cmp	r3, #0
 3282 110e 13D0     		beq	.L190
 909:build/openmote-cc2538_armgcc/drivers/common/openserial.c ****             }
 3283              		.loc 1 909 0
 3284 1110 0B4B     		ldr	r3, .L191
 3285 1112 B3F8E230 		ldrh	r3, [r3, #226]
 3286 1116 5A1C     		adds	r2, r3, #1
 3287 1118 91B2     		uxth	r1, r2
 3288 111a 094A     		ldr	r2, .L191
 3289 111c A2F8E210 		strh	r1, [r2, #226]	@ movhi
 3290 1120 C3F30903 		ubfx	r3, r3, #0, #10
 3291 1124 064A     		ldr	r2, .L191
 3292 1126 1344     		add	r3, r3, r2
 3293 1128 93F8E430 		ldrb	r3, [r3, #228]	@ zero_extendqisi2
 3294 112c 1846     		mov	r0, r3
 3295 112e FFF7FEFF 		bl	uart_writeByte
 911:build/openmote-cc2538_armgcc/drivers/common/openserial.c ****         case MODE_OFF:
 3296              		.loc 1 911 0
 3297 1132 01E0     		b	.L190
 3298              	.L189:
 903:build/openmote-cc2538_armgcc/drivers/common/openserial.c ****         case MODE_OUTPUT:
 3299              		.loc 1 903 0
 3300 1134 00BF     		nop
 3301 1136 00E0     		b	.L186
 3302              	.L190:
 911:build/openmote-cc2538_armgcc/drivers/common/openserial.c ****         case MODE_OFF:
 3303              		.loc 1 911 0
 3304 1138 00BF     		nop
 3305              	.L186:
 915:build/openmote-cc2538_armgcc/drivers/common/openserial.c ****     }
 916:build/openmote-cc2538_armgcc/drivers/common/openserial.c **** }
 3306              		.loc 1 916 0
 3307 113a 00BF     		nop
 3308 113c 80BD     		pop	{r7, pc}
 3309              	.L192:
 3310 113e 00BF     		.align	2
 3311              	.L191:
 3312 1140 00000000 		.word	openserial_vars
 3313              		.cfi_endproc
 3314              	.LFE25:
 3316              		.align	2
 3317              		.global	isr_openserial_rx
 3318              		.thumb
 3319              		.thumb_func
 3321              	isr_openserial_rx:
 3322              	.LFB26:
 917:build/openmote-cc2538_armgcc/drivers/common/openserial.c **** 
 918:build/openmote-cc2538_armgcc/drivers/common/openserial.c **** // executed in ISR, called from scheduler.c
 919:build/openmote-cc2538_armgcc/drivers/common/openserial.c **** void isr_openserial_rx() {
 3323              		.loc 1 919 0
 3324              		.cfi_startproc
 3325              		@ args = 0, pretend = 0, frame = 8
 3326              		@ frame_needed = 1, uses_anonymous_args = 0
 3327 1144 80B5     		push	{r7, lr}
 3328              		.cfi_def_cfa_offset 8
 3329              		.cfi_offset 7, -8
 3330              		.cfi_offset 14, -4
 3331 1146 82B0     		sub	sp, sp, #8
 3332              		.cfi_def_cfa_offset 16
 3333 1148 00AF     		add	r7, sp, #0
 3334              		.cfi_def_cfa_register 7
 920:build/openmote-cc2538_armgcc/drivers/common/openserial.c ****     uint8_t rxbyte;
 921:build/openmote-cc2538_armgcc/drivers/common/openserial.c ****     uint8_t inputBufFill;
 922:build/openmote-cc2538_armgcc/drivers/common/openserial.c **** 
 923:build/openmote-cc2538_armgcc/drivers/common/openserial.c ****     // stop if I'm not in input mode
 924:build/openmote-cc2538_armgcc/drivers/common/openserial.c ****     if (openserial_vars.mode!=MODE_INPUT) {
 3335              		.loc 1 924 0
 3336 114a 314B     		ldr	r3, .L202
 3337 114c 1B78     		ldrb	r3, [r3]	@ zero_extendqisi2
 3338 114e 012B     		cmp	r3, #1
 3339 1150 5AD1     		bne	.L201
 925:build/openmote-cc2538_armgcc/drivers/common/openserial.c ****         return;
 926:build/openmote-cc2538_armgcc/drivers/common/openserial.c ****     }
 927:build/openmote-cc2538_armgcc/drivers/common/openserial.c **** 
 928:build/openmote-cc2538_armgcc/drivers/common/openserial.c ****     // read byte just received
 929:build/openmote-cc2538_armgcc/drivers/common/openserial.c ****     rxbyte = uart_readByte();
 3340              		.loc 1 929 0
 3341 1152 FFF7FEFF 		bl	uart_readByte
 3342 1156 0346     		mov	r3, r0
 3343 1158 FB71     		strb	r3, [r7, #7]
 930:build/openmote-cc2538_armgcc/drivers/common/openserial.c ****     // keep length
 931:build/openmote-cc2538_armgcc/drivers/common/openserial.c ****     inputBufFill=openserial_vars.inputBufFill;
 3344              		.loc 1 931 0
 3345 115a 2D4B     		ldr	r3, .L202
 3346 115c 1B7D     		ldrb	r3, [r3, #20]
 3347 115e BB71     		strb	r3, [r7, #6]
 932:build/openmote-cc2538_armgcc/drivers/common/openserial.c ****     
 933:build/openmote-cc2538_armgcc/drivers/common/openserial.c ****     if (
 934:build/openmote-cc2538_armgcc/drivers/common/openserial.c ****         openserial_vars.busyReceiving==FALSE  &&
 3348              		.loc 1 934 0
 3349 1160 2B4B     		ldr	r3, .L202
 3350 1162 DB7B     		ldrb	r3, [r3, #15]	@ zero_extendqisi2
 3351 1164 83F00103 		eor	r3, r3, #1
 3352 1168 DBB2     		uxtb	r3, r3
 933:build/openmote-cc2538_armgcc/drivers/common/openserial.c ****         openserial_vars.busyReceiving==FALSE  &&
 3353              		.loc 1 933 0
 3354 116a 002B     		cmp	r3, #0
 3355 116c 10D0     		beq	.L196
 935:build/openmote-cc2538_armgcc/drivers/common/openserial.c ****         openserial_vars.lastRxByte==HDLC_FLAG &&
 3356              		.loc 1 935 0
 3357 116e 284B     		ldr	r3, .L202
 3358 1170 9B7B     		ldrb	r3, [r3, #14]	@ zero_extendqisi2
 934:build/openmote-cc2538_armgcc/drivers/common/openserial.c ****         openserial_vars.lastRxByte==HDLC_FLAG &&
 3359              		.loc 1 934 0
 3360 1172 7E2B     		cmp	r3, #126
 3361 1174 0CD1     		bne	.L196
 3362              		.loc 1 935 0
 3363 1176 FB79     		ldrb	r3, [r7, #7]	@ zero_extendqisi2
 3364 1178 7E2B     		cmp	r3, #126
 3365 117a 09D0     		beq	.L196
 936:build/openmote-cc2538_armgcc/drivers/common/openserial.c ****         rxbyte!=HDLC_FLAG
 937:build/openmote-cc2538_armgcc/drivers/common/openserial.c ****     ) {
 938:build/openmote-cc2538_armgcc/drivers/common/openserial.c ****         // start of frame
 939:build/openmote-cc2538_armgcc/drivers/common/openserial.c **** 
 940:build/openmote-cc2538_armgcc/drivers/common/openserial.c ****         // I'm now receiving
 941:build/openmote-cc2538_armgcc/drivers/common/openserial.c ****         openserial_vars.busyReceiving         = TRUE;
 3366              		.loc 1 941 0
 3367 117c 244B     		ldr	r3, .L202
 3368 117e 0122     		movs	r2, #1
 3369 1180 DA73     		strb	r2, [r3, #15]
 942:build/openmote-cc2538_armgcc/drivers/common/openserial.c **** 
 943:build/openmote-cc2538_armgcc/drivers/common/openserial.c ****         // create the HDLC frame
 944:build/openmote-cc2538_armgcc/drivers/common/openserial.c ****         inputHdlcOpen();
 3370              		.loc 1 944 0
 3371 1182 FFF7FEFF 		bl	inputHdlcOpen
 945:build/openmote-cc2538_armgcc/drivers/common/openserial.c **** 
 946:build/openmote-cc2538_armgcc/drivers/common/openserial.c ****         // add the byte just received
 947:build/openmote-cc2538_armgcc/drivers/common/openserial.c ****         inputHdlcWrite(rxbyte);
 3372              		.loc 1 947 0
 3373 1186 FB79     		ldrb	r3, [r7, #7]	@ zero_extendqisi2
 3374 1188 1846     		mov	r0, r3
 3375 118a FFF7FEFF 		bl	inputHdlcWrite
 3376 118e 37E0     		b	.L197
 3377              	.L196:
 948:build/openmote-cc2538_armgcc/drivers/common/openserial.c ****     } else if (
 949:build/openmote-cc2538_armgcc/drivers/common/openserial.c ****         openserial_vars.busyReceiving==TRUE   &&
 3378              		.loc 1 949 0
 3379 1190 1F4B     		ldr	r3, .L202
 3380 1192 DB7B     		ldrb	r3, [r3, #15]	@ zero_extendqisi2
 948:build/openmote-cc2538_armgcc/drivers/common/openserial.c ****     } else if (
 3381              		.loc 1 948 0
 3382 1194 002B     		cmp	r3, #0
 3383 1196 1AD0     		beq	.L198
 3384              		.loc 1 949 0
 3385 1198 FB79     		ldrb	r3, [r7, #7]	@ zero_extendqisi2
 3386 119a 7E2B     		cmp	r3, #126
 3387 119c 17D0     		beq	.L198
 950:build/openmote-cc2538_armgcc/drivers/common/openserial.c ****         rxbyte!=HDLC_FLAG
 951:build/openmote-cc2538_armgcc/drivers/common/openserial.c ****     ) {
 952:build/openmote-cc2538_armgcc/drivers/common/openserial.c ****         // middle of frame
 953:build/openmote-cc2538_armgcc/drivers/common/openserial.c **** 
 954:build/openmote-cc2538_armgcc/drivers/common/openserial.c ****         // add the byte just received
 955:build/openmote-cc2538_armgcc/drivers/common/openserial.c ****         inputHdlcWrite(rxbyte);
 3388              		.loc 1 955 0
 3389 119e FB79     		ldrb	r3, [r7, #7]	@ zero_extendqisi2
 3390 11a0 1846     		mov	r0, r3
 3391 11a2 FFF7FEFF 		bl	inputHdlcWrite
 956:build/openmote-cc2538_armgcc/drivers/common/openserial.c ****         if (openserial_vars.inputBufFill+1>SERIAL_INPUT_BUFFER_SIZE){
 3392              		.loc 1 956 0
 3393 11a6 1A4B     		ldr	r3, .L202
 3394 11a8 1B7D     		ldrb	r3, [r3, #20]	@ zero_extendqisi2
 3395 11aa 0133     		adds	r3, r3, #1
 3396 11ac C82B     		cmp	r3, #200
 3397 11ae 27DD     		ble	.L197
 957:build/openmote-cc2538_armgcc/drivers/common/openserial.c ****             // input buffer overflow
 958:build/openmote-cc2538_armgcc/drivers/common/openserial.c ****             openserial_printError(
 3398              		.loc 1 958 0
 3399 11b0 0023     		movs	r3, #0
 3400 11b2 0022     		movs	r2, #0
 3401 11b4 0421     		movs	r1, #4
 3402 11b6 0420     		movs	r0, #4
 3403 11b8 FFF7FEFF 		bl	openserial_printError
 959:build/openmote-cc2538_armgcc/drivers/common/openserial.c ****                 COMPONENT_OPENSERIAL,
 960:build/openmote-cc2538_armgcc/drivers/common/openserial.c ****                 ERR_INPUT_BUFFER_OVERFLOW,
 961:build/openmote-cc2538_armgcc/drivers/common/openserial.c ****                 (errorparameter_t)0,
 962:build/openmote-cc2538_armgcc/drivers/common/openserial.c ****                 (errorparameter_t)0
 963:build/openmote-cc2538_armgcc/drivers/common/openserial.c ****             );
 964:build/openmote-cc2538_armgcc/drivers/common/openserial.c ****             openserial_vars.inputBufFill       = 0;
 3404              		.loc 1 964 0
 3405 11bc 144B     		ldr	r3, .L202
 3406 11be 0022     		movs	r2, #0
 3407 11c0 1A75     		strb	r2, [r3, #20]
 965:build/openmote-cc2538_armgcc/drivers/common/openserial.c ****             openserial_vars.busyReceiving      = FALSE;
 3408              		.loc 1 965 0
 3409 11c2 134B     		ldr	r3, .L202
 3410 11c4 0022     		movs	r2, #0
 3411 11c6 DA73     		strb	r2, [r3, #15]
 966:build/openmote-cc2538_armgcc/drivers/common/openserial.c ****             openserial_stop();
 3412              		.loc 1 966 0
 3413 11c8 FFF7FEFF 		bl	openserial_stop
 956:build/openmote-cc2538_armgcc/drivers/common/openserial.c ****             // input buffer overflow
 3414              		.loc 1 956 0
 3415 11cc 18E0     		b	.L197
 3416              	.L198:
 967:build/openmote-cc2538_armgcc/drivers/common/openserial.c ****         }
 968:build/openmote-cc2538_armgcc/drivers/common/openserial.c ****     } else if (
 969:build/openmote-cc2538_armgcc/drivers/common/openserial.c ****         openserial_vars.busyReceiving==TRUE   &&
 3417              		.loc 1 969 0
 3418 11ce 104B     		ldr	r3, .L202
 3419 11d0 DB7B     		ldrb	r3, [r3, #15]	@ zero_extendqisi2
 968:build/openmote-cc2538_armgcc/drivers/common/openserial.c ****         openserial_vars.busyReceiving==TRUE   &&
 3420              		.loc 1 968 0
 3421 11d2 002B     		cmp	r3, #0
 3422 11d4 14D0     		beq	.L197
 3423              		.loc 1 969 0
 3424 11d6 FB79     		ldrb	r3, [r7, #7]	@ zero_extendqisi2
 3425 11d8 7E2B     		cmp	r3, #126
 3426 11da 11D1     		bne	.L197
 970:build/openmote-cc2538_armgcc/drivers/common/openserial.c ****         rxbyte==HDLC_FLAG
 971:build/openmote-cc2538_armgcc/drivers/common/openserial.c ****     ) {
 972:build/openmote-cc2538_armgcc/drivers/common/openserial.c ****         // end of frame
 973:build/openmote-cc2538_armgcc/drivers/common/openserial.c ****         
 974:build/openmote-cc2538_armgcc/drivers/common/openserial.c ****         // finalize the HDLC frame
 975:build/openmote-cc2538_armgcc/drivers/common/openserial.c ****         inputHdlcClose();
 3427              		.loc 1 975 0
 3428 11dc FFF7FEFF 		bl	inputHdlcClose
 976:build/openmote-cc2538_armgcc/drivers/common/openserial.c ****         
 977:build/openmote-cc2538_armgcc/drivers/common/openserial.c ****         if (openserial_vars.inputBufFill==0){
 3429              		.loc 1 977 0
 3430 11e0 0B4B     		ldr	r3, .L202
 3431 11e2 1B7D     		ldrb	r3, [r3, #20]	@ zero_extendqisi2
 3432 11e4 002B     		cmp	r3, #0
 3433 11e6 06D1     		bne	.L200
 978:build/openmote-cc2538_armgcc/drivers/common/openserial.c ****             // invalid HDLC frame
 979:build/openmote-cc2538_armgcc/drivers/common/openserial.c ****             openserial_printError(
 3434              		.loc 1 979 0
 3435 11e8 BB79     		ldrb	r3, [r7, #6]	@ zero_extendqisi2
 3436 11ea 9AB2     		uxth	r2, r3
 3437 11ec 0023     		movs	r3, #0
 3438 11ee 3921     		movs	r1, #57
 3439 11f0 0420     		movs	r0, #4
 3440 11f2 FFF7FEFF 		bl	openserial_printError
 3441              	.L200:
 980:build/openmote-cc2538_armgcc/drivers/common/openserial.c ****                 COMPONENT_OPENSERIAL,
 981:build/openmote-cc2538_armgcc/drivers/common/openserial.c ****                 ERR_WRONG_CRC_INPUT,
 982:build/openmote-cc2538_armgcc/drivers/common/openserial.c ****                 (errorparameter_t)inputBufFill,
 983:build/openmote-cc2538_armgcc/drivers/common/openserial.c ****                 (errorparameter_t)0
 984:build/openmote-cc2538_armgcc/drivers/common/openserial.c ****             );
 985:build/openmote-cc2538_armgcc/drivers/common/openserial.c ****         }
 986:build/openmote-cc2538_armgcc/drivers/common/openserial.c ****          
 987:build/openmote-cc2538_armgcc/drivers/common/openserial.c ****         openserial_vars.busyReceiving      = FALSE;
 3442              		.loc 1 987 0
 3443 11f6 064B     		ldr	r3, .L202
 3444 11f8 0022     		movs	r2, #0
 3445 11fa DA73     		strb	r2, [r3, #15]
 988:build/openmote-cc2538_armgcc/drivers/common/openserial.c ****         openserial_stop();
 3446              		.loc 1 988 0
 3447 11fc FFF7FEFF 		bl	openserial_stop
 3448              	.L197:
 989:build/openmote-cc2538_armgcc/drivers/common/openserial.c ****     }
 990:build/openmote-cc2538_armgcc/drivers/common/openserial.c ****     
 991:build/openmote-cc2538_armgcc/drivers/common/openserial.c ****     openserial_vars.lastRxByte = rxbyte;
 3449              		.loc 1 991 0
 3450 1200 034A     		ldr	r2, .L202
 3451 1202 FB79     		ldrb	r3, [r7, #7]
 3452 1204 9373     		strb	r3, [r2, #14]
 3453 1206 00E0     		b	.L193
 3454              	.L201:
 925:build/openmote-cc2538_armgcc/drivers/common/openserial.c ****     }
 3455              		.loc 1 925 0
 3456 1208 00BF     		nop
 3457              	.L193:
 992:build/openmote-cc2538_armgcc/drivers/common/openserial.c **** }
 3458              		.loc 1 992 0
 3459 120a 0837     		adds	r7, r7, #8
 3460              		.cfi_def_cfa_offset 8
 3461 120c BD46     		mov	sp, r7
 3462              		.cfi_def_cfa_register 13
 3463              		@ sp needed
 3464 120e 80BD     		pop	{r7, pc}
 3465              	.L203:
 3466              		.align	2
 3467              	.L202:
 3468 1210 00000000 		.word	openserial_vars
 3469              		.cfi_endproc
 3470              	.LFE26:
 3472              	.Letext0:
 3473              		.file 2 "/usr/include/newlib/machine/_default_types.h"
 3474              		.file 3 "/usr/include/newlib/sys/_stdint.h"
 3475              		.file 4 "inc/opendefs.h"
 3476              		.file 5 "build/openmote-cc2538_armgcc/drivers/common/openserial.h"
 3477              		.file 6 "drivers/common/opentimers.h"
 3478              		.file 7 "bsp/boards/openmote-cc2538/board_info.h"
 3479              		.file 8 "openstack/02a-MAClow/IEEE802154E.h"
 3480              		.file 9 "openstack/03b-IPv6/icmpv6rpl.h"
 3481              		.file 10 "openstack/cross-layers/idmanager.h"
 3482              		.file 11 "build/openmote-cc2538_armgcc/drivers/common/openhdlc.h"