   1              		.syntax unified
   2              		.cpu cortex-m3
   3              		.fpu softvfp
   4              		.eabi_attribute 20, 1
   5              		.eabi_attribute 21, 1
   6              		.eabi_attribute 23, 3
   7              		.eabi_attribute 24, 1
   8              		.eabi_attribute 25, 1
   9              		.eabi_attribute 26, 1
  10              		.eabi_attribute 30, 6
  11              		.eabi_attribute 34, 1
  12              		.eabi_attribute 18, 4
  13              		.thumb
  14              		.syntax unified
  15              		.file	"opensensors.c"
  16              		.text
  17              	.Ltext0:
  18              		.cfi_sections	.debug_frame
  19              		.section	.rodata
  20              		.align	2
  23              	rreg_uriquery:
  24 0000 683D7563 		.ascii	"h=ucb\000"
  24      6200
  25 0006 0000     		.align	2
  28              	infoBoardname:
  29 0008 43433235 		.ascii	"CC2538\000"
  29      333800
  30 000f 00       		.align	2
  33              	infouCName:
  34 0010 43433235 		.ascii	"CC2538\000"
  34      333800
  35 0017 00       		.align	2
  38              	infoRadioName:
  39 0018 43433235 		.ascii	"CC2538 SoC\000"
  39      33382053 
  39      6F4300
  40 0023 00       		.align	2
  43              	infoStackName:
  44 0024 4F70656E 		.ascii	"OpenWSN \000"
  44      57534E20 
  44      00
  45              		.comm	opensensors_vars,88,4
  46              		.text
  47              		.align	2
  48              		.global	opensensors_init
  49              		.thumb
  50              		.thumb_func
  52              	opensensors_init:
  53              	.LFB0:
  54              		.file 1 "build/openmote-cc2538_armgcc/drivers/common/opensensors.c"
   1:build/openmote-cc2538_armgcc/drivers/common/opensensors.c **** /**
   2:build/openmote-cc2538_armgcc/drivers/common/opensensors.c **** \brief Definition of the "opensensors" driver.
   3:build/openmote-cc2538_armgcc/drivers/common/opensensors.c **** 
   4:build/openmote-cc2538_armgcc/drivers/common/opensensors.c **** \author Nicola Accettura <nicola.accettura@eecs.berkeley.edu>, March 2015.
   5:build/openmote-cc2538_armgcc/drivers/common/opensensors.c **** */
   6:build/openmote-cc2538_armgcc/drivers/common/opensensors.c **** 
   7:build/openmote-cc2538_armgcc/drivers/common/opensensors.c **** #include "opendefs.h"
   8:build/openmote-cc2538_armgcc/drivers/common/opensensors.c **** #include "opensensors.h"
   9:build/openmote-cc2538_armgcc/drivers/common/opensensors.c **** #include "sensors.h"
  10:build/openmote-cc2538_armgcc/drivers/common/opensensors.c **** 
  11:build/openmote-cc2538_armgcc/drivers/common/opensensors.c **** //=========================== defines =========================================
  12:build/openmote-cc2538_armgcc/drivers/common/opensensors.c **** 
  13:build/openmote-cc2538_armgcc/drivers/common/opensensors.c **** //=========================== variables =======================================
  14:build/openmote-cc2538_armgcc/drivers/common/opensensors.c **** 
  15:build/openmote-cc2538_armgcc/drivers/common/opensensors.c **** opensensors_vars_t opensensors_vars;
  16:build/openmote-cc2538_armgcc/drivers/common/opensensors.c **** 
  17:build/openmote-cc2538_armgcc/drivers/common/opensensors.c **** //=========================== prototypes ======================================
  18:build/openmote-cc2538_armgcc/drivers/common/opensensors.c **** 
  19:build/openmote-cc2538_armgcc/drivers/common/opensensors.c **** void opensensors_register(
  20:build/openmote-cc2538_armgcc/drivers/common/opensensors.c ****    uint8_t sensorType
  21:build/openmote-cc2538_armgcc/drivers/common/opensensors.c **** );
  22:build/openmote-cc2538_armgcc/drivers/common/opensensors.c **** 
  23:build/openmote-cc2538_armgcc/drivers/common/opensensors.c **** //=========================== public ==========================================
  24:build/openmote-cc2538_armgcc/drivers/common/opensensors.c **** 
  25:build/openmote-cc2538_armgcc/drivers/common/opensensors.c **** /**
  26:build/openmote-cc2538_armgcc/drivers/common/opensensors.c ****    \brief Initialize OpenSensors
  27:build/openmote-cc2538_armgcc/drivers/common/opensensors.c **** */
  28:build/openmote-cc2538_armgcc/drivers/common/opensensors.c **** void opensensors_init(void) {
  55              		.loc 1 28 0
  56              		.cfi_startproc
  57              		@ args = 0, pretend = 0, frame = 8
  58              		@ frame_needed = 1, uses_anonymous_args = 0
  59 0000 80B5     		push	{r7, lr}
  60              		.cfi_def_cfa_offset 8
  61              		.cfi_offset 7, -8
  62              		.cfi_offset 14, -4
  63 0002 82B0     		sub	sp, sp, #8
  64              		.cfi_def_cfa_offset 16
  65 0004 00AF     		add	r7, sp, #0
  66              		.cfi_def_cfa_register 7
  29:build/openmote-cc2538_armgcc/drivers/common/opensensors.c ****    uint8_t sensorType;
  30:build/openmote-cc2538_armgcc/drivers/common/opensensors.c ****    
  31:build/openmote-cc2538_armgcc/drivers/common/opensensors.c ****    memset(&opensensors_vars,0,sizeof(opensensors_vars_t));
  67              		.loc 1 31 0
  68 0006 5822     		movs	r2, #88
  69 0008 0021     		movs	r1, #0
  70 000a 0A48     		ldr	r0, .L4
  71 000c FFF7FEFF 		bl	memset
  32:build/openmote-cc2538_armgcc/drivers/common/opensensors.c ****    for (sensorType=SENSOR_ZERO+1;sensorType<SENSOR_LAST;sensorType++) {
  72              		.loc 1 32 0
  73 0010 0123     		movs	r3, #1
  74 0012 FB71     		strb	r3, [r7, #7]
  75 0014 06E0     		b	.L2
  76              	.L3:
  33:build/openmote-cc2538_armgcc/drivers/common/opensensors.c ****       opensensors_register(sensorType);
  77              		.loc 1 33 0 discriminator 3
  78 0016 FB79     		ldrb	r3, [r7, #7]	@ zero_extendqisi2
  79 0018 1846     		mov	r0, r3
  80 001a FFF7FEFF 		bl	opensensors_register
  32:build/openmote-cc2538_armgcc/drivers/common/opensensors.c ****    for (sensorType=SENSOR_ZERO+1;sensorType<SENSOR_LAST;sensorType++) {
  81              		.loc 1 32 0 discriminator 3
  82 001e FB79     		ldrb	r3, [r7, #7]	@ zero_extendqisi2
  83 0020 0133     		adds	r3, r3, #1
  84 0022 FB71     		strb	r3, [r7, #7]
  85              	.L2:
  32:build/openmote-cc2538_armgcc/drivers/common/opensensors.c ****    for (sensorType=SENSOR_ZERO+1;sensorType<SENSOR_LAST;sensorType++) {
  86              		.loc 1 32 0 is_stmt 0 discriminator 1
  87 0024 FB79     		ldrb	r3, [r7, #7]	@ zero_extendqisi2
  88 0026 082B     		cmp	r3, #8
  89 0028 F5D9     		bls	.L3
  34:build/openmote-cc2538_armgcc/drivers/common/opensensors.c ****    }
  35:build/openmote-cc2538_armgcc/drivers/common/opensensors.c **** }
  90              		.loc 1 35 0 is_stmt 1
  91 002a 00BF     		nop
  92 002c 0837     		adds	r7, r7, #8
  93              		.cfi_def_cfa_offset 8
  94 002e BD46     		mov	sp, r7
  95              		.cfi_def_cfa_register 13
  96              		@ sp needed
  97 0030 80BD     		pop	{r7, pc}
  98              	.L5:
  99 0032 00BF     		.align	2
 100              	.L4:
 101 0034 00000000 		.word	opensensors_vars
 102              		.cfi_endproc
 103              	.LFE0:
 105              		.align	2
 106              		.global	opensensors_getNumSensors
 107              		.thumb
 108              		.thumb_func
 110              	opensensors_getNumSensors:
 111              	.LFB1:
  36:build/openmote-cc2538_armgcc/drivers/common/opensensors.c **** 
  37:build/openmote-cc2538_armgcc/drivers/common/opensensors.c **** /**
  38:build/openmote-cc2538_armgcc/drivers/common/opensensors.c ****    \brief Return the number of registered OpenSensors
  39:build/openmote-cc2538_armgcc/drivers/common/opensensors.c ****    \returns the number of registered OpenSensors.
  40:build/openmote-cc2538_armgcc/drivers/common/opensensors.c **** */
  41:build/openmote-cc2538_armgcc/drivers/common/opensensors.c **** uint8_t opensensors_getNumSensors(void) {
 112              		.loc 1 41 0
 113              		.cfi_startproc
 114              		@ args = 0, pretend = 0, frame = 0
 115              		@ frame_needed = 1, uses_anonymous_args = 0
 116              		@ link register save eliminated.
 117 0038 80B4     		push	{r7}
 118              		.cfi_def_cfa_offset 4
 119              		.cfi_offset 7, -4
 120 003a 00AF     		add	r7, sp, #0
 121              		.cfi_def_cfa_register 7
  42:build/openmote-cc2538_armgcc/drivers/common/opensensors.c ****    return opensensors_vars.numSensors;
 122              		.loc 1 42 0
 123 003c 034B     		ldr	r3, .L8
 124 003e 93F85430 		ldrb	r3, [r3, #84]	@ zero_extendqisi2
  43:build/openmote-cc2538_armgcc/drivers/common/opensensors.c **** }
 125              		.loc 1 43 0
 126 0042 1846     		mov	r0, r3
 127 0044 BD46     		mov	sp, r7
 128              		.cfi_def_cfa_register 13
 129              		@ sp needed
 130 0046 80BC     		pop	{r7}
 131              		.cfi_restore 7
 132              		.cfi_def_cfa_offset 0
 133 0048 7047     		bx	lr
 134              	.L9:
 135 004a 00BF     		.align	2
 136              	.L8:
 137 004c 00000000 		.word	opensensors_vars
 138              		.cfi_endproc
 139              	.LFE1:
 141              		.align	2
 142              		.global	opensensors_getResource
 143              		.thumb
 144              		.thumb_func
 146              	opensensors_getResource:
 147              	.LFB2:
  44:build/openmote-cc2538_armgcc/drivers/common/opensensors.c **** 
  45:build/openmote-cc2538_armgcc/drivers/common/opensensors.c **** /**
  46:build/openmote-cc2538_armgcc/drivers/common/opensensors.c ****    \brief Return an OpenSensors resource structure
  47:build/openmote-cc2538_armgcc/drivers/common/opensensors.c ****    \param[in] index Index of the OpenSensors resource within Opensensors vars.
  48:build/openmote-cc2538_armgcc/drivers/common/opensensors.c ****    \returns the OpenSensors resource within Opensensors vars.
  49:build/openmote-cc2538_armgcc/drivers/common/opensensors.c **** */
  50:build/openmote-cc2538_armgcc/drivers/common/opensensors.c **** opensensors_resource_desc_t* opensensors_getResource(uint8_t index) {
 148              		.loc 1 50 0
 149              		.cfi_startproc
 150              		@ args = 0, pretend = 0, frame = 8
 151              		@ frame_needed = 1, uses_anonymous_args = 0
 152              		@ link register save eliminated.
 153 0050 80B4     		push	{r7}
 154              		.cfi_def_cfa_offset 4
 155              		.cfi_offset 7, -4
 156 0052 83B0     		sub	sp, sp, #12
 157              		.cfi_def_cfa_offset 16
 158 0054 00AF     		add	r7, sp, #0
 159              		.cfi_def_cfa_register 7
 160 0056 0346     		mov	r3, r0
 161 0058 FB71     		strb	r3, [r7, #7]
  51:build/openmote-cc2538_armgcc/drivers/common/opensensors.c ****    return &(opensensors_vars.opensensors_resource[index]);
 162              		.loc 1 51 0
 163 005a FA79     		ldrb	r2, [r7, #7]	@ zero_extendqisi2
 164 005c 1346     		mov	r3, r2
 165 005e 5B00     		lsls	r3, r3, #1
 166 0060 1344     		add	r3, r3, r2
 167 0062 9B00     		lsls	r3, r3, #2
 168 0064 034A     		ldr	r2, .L12
 169 0066 1344     		add	r3, r3, r2
  52:build/openmote-cc2538_armgcc/drivers/common/opensensors.c **** }
 170              		.loc 1 52 0
 171 0068 1846     		mov	r0, r3
 172 006a 0C37     		adds	r7, r7, #12
 173              		.cfi_def_cfa_offset 4
 174 006c BD46     		mov	sp, r7
 175              		.cfi_def_cfa_register 13
 176              		@ sp needed
 177 006e 80BC     		pop	{r7}
 178              		.cfi_restore 7
 179              		.cfi_def_cfa_offset 0
 180 0070 7047     		bx	lr
 181              	.L13:
 182 0072 00BF     		.align	2
 183              	.L12:
 184 0074 00000000 		.word	opensensors_vars
 185              		.cfi_endproc
 186              	.LFE2:
 188              		.align	2
 189              		.global	opensensors_register
 190              		.thumb
 191              		.thumb_func
 193              	opensensors_register:
 194              	.LFB3:
  53:build/openmote-cc2538_armgcc/drivers/common/opensensors.c **** 
  54:build/openmote-cc2538_armgcc/drivers/common/opensensors.c **** //=========================== private =========================================
  55:build/openmote-cc2538_armgcc/drivers/common/opensensors.c **** 
  56:build/openmote-cc2538_armgcc/drivers/common/opensensors.c **** /**
  57:build/openmote-cc2538_armgcc/drivers/common/opensensors.c ****    \brief Register a OpenSensors resource
  58:build/openmote-cc2538_armgcc/drivers/common/opensensors.c **** 
  59:build/openmote-cc2538_armgcc/drivers/common/opensensors.c ****    \param[in] sensorType the sensor type representation.
  60:build/openmote-cc2538_armgcc/drivers/common/opensensors.c **** */
  61:build/openmote-cc2538_armgcc/drivers/common/opensensors.c **** void opensensors_register(uint8_t sensorType) {
 195              		.loc 1 61 0
 196              		.cfi_startproc
 197              		@ args = 0, pretend = 0, frame = 8
 198              		@ frame_needed = 1, uses_anonymous_args = 0
 199 0078 90B5     		push	{r4, r7, lr}
 200              		.cfi_def_cfa_offset 12
 201              		.cfi_offset 4, -12
 202              		.cfi_offset 7, -8
 203              		.cfi_offset 14, -4
 204 007a 83B0     		sub	sp, sp, #12
 205              		.cfi_def_cfa_offset 24
 206 007c 00AF     		add	r7, sp, #0
 207              		.cfi_def_cfa_register 7
 208 007e 0346     		mov	r3, r0
 209 0080 FB71     		strb	r3, [r7, #7]
  62:build/openmote-cc2538_armgcc/drivers/common/opensensors.c ****    if (sensors_is_present(sensorType)) {
 210              		.loc 1 62 0
 211 0082 FB79     		ldrb	r3, [r7, #7]	@ zero_extendqisi2
 212 0084 1846     		mov	r0, r3
 213 0086 FFF7FEFF 		bl	sensors_is_present
 214 008a 0346     		mov	r3, r0
 215 008c 002B     		cmp	r3, #0
 216 008e 35D0     		beq	.L16
  63:build/openmote-cc2538_armgcc/drivers/common/opensensors.c ****       opensensors_vars.opensensors_resource[opensensors_vars.numSensors].sensorType      = sensorTy
 217              		.loc 1 63 0
 218 0090 1C4B     		ldr	r3, .L17
 219 0092 93F85430 		ldrb	r3, [r3, #84]	@ zero_extendqisi2
 220 0096 1946     		mov	r1, r3
 221 0098 1A4A     		ldr	r2, .L17
 222 009a 0B46     		mov	r3, r1
 223 009c 5B00     		lsls	r3, r3, #1
 224 009e 0B44     		add	r3, r3, r1
 225 00a0 9B00     		lsls	r3, r3, #2
 226 00a2 1344     		add	r3, r3, r2
 227 00a4 FA79     		ldrb	r2, [r7, #7]
 228 00a6 1A70     		strb	r2, [r3]
  64:build/openmote-cc2538_armgcc/drivers/common/opensensors.c ****       opensensors_vars.opensensors_resource[opensensors_vars.numSensors].callbackRead    = sensors_
 229              		.loc 1 64 0
 230 00a8 164B     		ldr	r3, .L17
 231 00aa 93F85430 		ldrb	r3, [r3, #84]	@ zero_extendqisi2
 232 00ae 1C46     		mov	r4, r3
 233 00b0 FB79     		ldrb	r3, [r7, #7]	@ zero_extendqisi2
 234 00b2 1846     		mov	r0, r3
 235 00b4 FFF7FEFF 		bl	sensors_getCallbackRead
 236 00b8 0146     		mov	r1, r0
 237 00ba 124A     		ldr	r2, .L17
 238 00bc 2346     		mov	r3, r4
 239 00be 5B00     		lsls	r3, r3, #1
 240 00c0 2344     		add	r3, r3, r4
 241 00c2 9B00     		lsls	r3, r3, #2
 242 00c4 1344     		add	r3, r3, r2
 243 00c6 0433     		adds	r3, r3, #4
 244 00c8 1960     		str	r1, [r3]
  65:build/openmote-cc2538_armgcc/drivers/common/opensensors.c ****       opensensors_vars.opensensors_resource[opensensors_vars.numSensors].callbackConvert = sensors_
 245              		.loc 1 65 0
 246 00ca 0E4B     		ldr	r3, .L17
 247 00cc 93F85430 		ldrb	r3, [r3, #84]	@ zero_extendqisi2
 248 00d0 1C46     		mov	r4, r3
 249 00d2 FB79     		ldrb	r3, [r7, #7]	@ zero_extendqisi2
 250 00d4 1846     		mov	r0, r3
 251 00d6 FFF7FEFF 		bl	sensors_getCallbackConvert
 252 00da 0146     		mov	r1, r0
 253 00dc 094A     		ldr	r2, .L17
 254 00de 2346     		mov	r3, r4
 255 00e0 5B00     		lsls	r3, r3, #1
 256 00e2 2344     		add	r3, r3, r4
 257 00e4 9B00     		lsls	r3, r3, #2
 258 00e6 1344     		add	r3, r3, r2
 259 00e8 0833     		adds	r3, r3, #8
 260 00ea 1960     		str	r1, [r3]
  66:build/openmote-cc2538_armgcc/drivers/common/opensensors.c ****       opensensors_vars.numSensors++;
 261              		.loc 1 66 0
 262 00ec 054B     		ldr	r3, .L17
 263 00ee 93F85430 		ldrb	r3, [r3, #84]	@ zero_extendqisi2
 264 00f2 0133     		adds	r3, r3, #1
 265 00f4 DAB2     		uxtb	r2, r3
 266 00f6 034B     		ldr	r3, .L17
 267 00f8 83F85420 		strb	r2, [r3, #84]
 268              	.L16:
  67:build/openmote-cc2538_armgcc/drivers/common/opensensors.c ****    }
  68:build/openmote-cc2538_armgcc/drivers/common/opensensors.c **** }
 269              		.loc 1 68 0
 270 00fc 00BF     		nop
 271 00fe 0C37     		adds	r7, r7, #12
 272              		.cfi_def_cfa_offset 12
 273 0100 BD46     		mov	sp, r7
 274              		.cfi_def_cfa_register 13
 275              		@ sp needed
 276 0102 90BD     		pop	{r4, r7, pc}
 277              	.L18:
 278              		.align	2
 279              	.L17:
 280 0104 00000000 		.word	opensensors_vars
 281              		.cfi_endproc
 282              	.LFE3:
 284              	.Letext0:
 285              		.file 2 "/usr/include/newlib/machine/_default_types.h"
 286              		.file 3 "/usr/include/newlib/sys/_stdint.h"
 287              		.file 4 "bsp/boards/sensors.h"
 288              		.file 5 "build/openmote-cc2538_armgcc/drivers/common/opensensors.h"
 289              		.file 6 "bsp/boards/openmote-cc2538/board_info.h"
 290              		.file 7 "inc/opendefs.h"