   1              		.syntax unified
   2              		.cpu cortex-m3
   3              		.fpu softvfp
   4              		.eabi_attribute 20, 1
   5              		.eabi_attribute 21, 1
   6              		.eabi_attribute 23, 3
   7              		.eabi_attribute 24, 1
   8              		.eabi_attribute 25, 1
   9              		.eabi_attribute 26, 1
  10              		.eabi_attribute 30, 6
  11              		.eabi_attribute 34, 1
  12              		.eabi_attribute 18, 4
  13              		.thumb
  14              		.syntax unified
  15              		.file	"whisper.c"
  16              		.text
  17              	.Ltext0:
  18              		.cfi_sections	.debug_frame
  19              		.section	.rodata
  20              		.align	2
  23              	rreg_uriquery:
  24 0000 683D7563 		.ascii	"h=ucb\000"
  24      6200
  25 0006 0000     		.align	2
  28              	infoBoardname:
  29 0008 43433235 		.ascii	"CC2538\000"
  29      333800
  30 000f 00       		.align	2
  33              	infouCName:
  34 0010 43433235 		.ascii	"CC2538\000"
  34      333800
  35 0017 00       		.align	2
  38              	infoRadioName:
  39 0018 43433235 		.ascii	"CC2538 SoC\000"
  39      33382053 
  39      6F4300
  40 0023 00       		.align	2
  43              	infoStackName:
  44 0024 4F70656E 		.ascii	"OpenWSN \000"
  44      57534E20 
  44      00
  45 002d 000000   		.align	2
  48              	ipAddr_ipsoRD:
  49 0030 26       		.byte	38
  50 0031 07       		.byte	7
  51 0032 F7       		.byte	-9
  52 0033 40       		.byte	64
  53 0034 00       		.byte	0
  54 0035 00       		.byte	0
  55 0036 00       		.byte	0
  56 0037 3F       		.byte	63
  57 0038 00       		.byte	0
  58 0039 00       		.byte	0
  59 003a 00       		.byte	0
  60 003b 00       		.byte	0
  61 003c 00       		.byte	0
  62 003d 00       		.byte	0
  63 003e 0E       		.byte	14
  64 003f 29       		.byte	41
  65              		.align	2
  68              	ipAddr_motesEecs:
  69 0040 20       		.byte	32
  70 0041 01       		.byte	1
  71 0042 04       		.byte	4
  72 0043 70       		.byte	112
  73 0044 00       		.byte	0
  74 0045 66       		.byte	102
  75 0046 00       		.byte	0
  76 0047 19       		.byte	25
  77 0048 00       		.byte	0
  78 0049 00       		.byte	0
  79 004a 00       		.byte	0
  80 004b 00       		.byte	0
  81 004c 00       		.byte	0
  82 004d 00       		.byte	0
  83 004e 00       		.byte	0
  84 004f 02       		.byte	2
  85              		.align	2
  88              	ipAddr_local:
  89 0050 26       		.byte	38
  90 0051 07       		.byte	7
  91 0052 F1       		.byte	-15
  92 0053 40       		.byte	64
  93 0054 04       		.byte	4
  94 0055 00       		.byte	0
  95 0056 10       		.byte	16
  96 0057 36       		.byte	54
  97 0058 4D       		.byte	77
  98 0059 CD       		.byte	-51
  99 005a AB       		.byte	-85
 100 005b 54       		.byte	84
 101 005c 81       		.byte	-127
 102 005d 99       		.byte	-103
 103 005e C1       		.byte	-63
 104 005f F7       		.byte	-9
 105              		.align	2
 108              	ipAddr_motedata:
 109 0060 20       		.byte	32
 110 0061 01       		.byte	1
 111 0062 04       		.byte	4
 112 0063 70       		.byte	112
 113 0064 00       		.byte	0
 114 0065 66       		.byte	102
 115 0066 00       		.byte	0
 116 0067 17       		.byte	23
 117 0068 00       		.byte	0
 118 0069 00       		.byte	0
 119 006a 00       		.byte	0
 120 006b 00       		.byte	0
 121 006c 00       		.byte	0
 122 006d 00       		.byte	0
 123 006e 00       		.byte	0
 124 006f 02       		.byte	2
 125              		.align	2
 128              	ipAddr_ringmaster:
 129 0070 BB       		.byte	-69
 130 0071 BB       		.byte	-69
 131 0072 00       		.byte	0
 132 0073 00       		.byte	0
 133 0074 00       		.byte	0
 134 0075 00       		.byte	0
 135 0076 00       		.byte	0
 136 0077 00       		.byte	0
 137 0078 00       		.byte	0
 138 0079 00       		.byte	0
 139 007a 00       		.byte	0
 140 007b 00       		.byte	0
 141 007c 00       		.byte	0
 142 007d 00       		.byte	0
 143 007e 00       		.byte	0
 144 007f 01       		.byte	1
 145              		.align	2
 148              	linklocalprefix:
 149 0080 FE       		.byte	-2
 150 0081 80       		.byte	-128
 151 0082 00       		.byte	0
 152 0083 00       		.byte	0
 153 0084 00       		.byte	0
 154 0085 00       		.byte	0
 155 0086 00       		.byte	0
 156 0087 00       		.byte	0
 157              		.align	2
 160              	all_routers_multicast:
 161 0088 FF       		.byte	-1
 162 0089 02       		.byte	2
 163 008a 00       		.byte	0
 164 008b 00       		.byte	0
 165 008c 00       		.byte	0
 166 008d 00       		.byte	0
 167 008e 00       		.byte	0
 168 008f 00       		.byte	0
 169 0090 00       		.byte	0
 170 0091 00       		.byte	0
 171 0092 00       		.byte	0
 172 0093 00       		.byte	0
 173 0094 00       		.byte	0
 174 0095 00       		.byte	0
 175 0096 00       		.byte	0
 176 0097 1A       		.byte	26
 177              		.align	2
 180              	chTemplate_default:
 181 0098 05       		.byte	5
 182 0099 06       		.byte	6
 183 009a 0C       		.byte	12
 184 009b 07       		.byte	7
 185 009c 0F       		.byte	15
 186 009d 04       		.byte	4
 187 009e 0E       		.byte	14
 188 009f 0B       		.byte	11
 189 00a0 08       		.byte	8
 190 00a1 00       		.byte	0
 191 00a2 01       		.byte	1
 192 00a3 02       		.byte	2
 193 00a4 0D       		.byte	13
 194 00a5 03       		.byte	3
 195 00a6 09       		.byte	9
 196 00a7 0A       		.byte	10
 197              		.align	2
 200              	ebIEsBytestream:
 201 00a8 1A       		.byte	26
 202 00a9 88       		.byte	-120
 203 00aa 06       		.byte	6
 204 00ab 1A       		.byte	26
 205 00ac 00       		.byte	0
 206 00ad 00       		.byte	0
 207 00ae 00       		.byte	0
 208 00af 00       		.byte	0
 209 00b0 00       		.byte	0
 210 00b1 00       		.byte	0
 211 00b2 01       		.byte	1
 212 00b3 1C       		.byte	28
 213 00b4 00       		.byte	0
 214 00b5 01       		.byte	1
 215 00b6 C8       		.byte	-56
 216 00b7 00       		.byte	0
 217 00b8 0A       		.byte	10
 218 00b9 1B       		.byte	27
 219 00ba 01       		.byte	1
 220 00bb 00       		.byte	0
 221 00bc 17       		.byte	23
 222 00bd 00       		.byte	0
 223 00be 01       		.byte	1
 224 00bf 00       		.byte	0
 225 00c0 00       		.byte	0
 226 00c1 00       		.byte	0
 227 00c2 00       		.byte	0
 228 00c3 0F       		.byte	15
 229              		.global	whisper_path0
 230              		.align	2
 233              	whisper_path0:
 234 00c4 7700     		.ascii	"w\000"
 235              		.comm	targetParentNew,1,1
 236              		.comm	targetParentOld,1,1
 237              		.comm	targetChildren,1,1
 238              		.comm	state,1,1
 239              		.comm	fakeSource,1,1
 240              		.comm	numSentDios,1,1
 241              		.comm	celllist_add,25,4
 242              		.comm	whisper_vars,60,4
 243              		.text
 244              		.align	2
 245              		.global	whisper_init
 246              		.thumb
 247              		.thumb_func
 249              	whisper_init:
 250              	.LFB0:
 251              		.file 1 "build/openmote-cc2538_armgcc/openapps/whisper/whisper.c"
   1:build/openmote-cc2538_armgcc/openapps/whisper/whisper.c **** /**
   2:build/openmote-cc2538_armgcc/openapps/whisper/whisper.c **** \brief A CoAP resource which indicates the board its running on.
   3:build/openmote-cc2538_armgcc/openapps/whisper/whisper.c **** */
   4:build/openmote-cc2538_armgcc/openapps/whisper/whisper.c **** 
   5:build/openmote-cc2538_armgcc/openapps/whisper/whisper.c **** #include "opendefs.h"
   6:build/openmote-cc2538_armgcc/openapps/whisper/whisper.c **** #include "whisper.h"
   7:build/openmote-cc2538_armgcc/openapps/whisper/whisper.c **** #include "opencoap.h"
   8:build/openmote-cc2538_armgcc/openapps/whisper/whisper.c **** #include "openqueue.h"
   9:build/openmote-cc2538_armgcc/openapps/whisper/whisper.c **** #include "packetfunctions.h"
  10:build/openmote-cc2538_armgcc/openapps/whisper/whisper.c **** #include "openserial.h"
  11:build/openmote-cc2538_armgcc/openapps/whisper/whisper.c **** #include "openrandom.h"
  12:build/openmote-cc2538_armgcc/openapps/whisper/whisper.c **** #include "board.h"
  13:build/openmote-cc2538_armgcc/openapps/whisper/whisper.c **** #include "idmanager.h"
  14:build/openmote-cc2538_armgcc/openapps/whisper/whisper.c **** #include "msf.h"
  15:build/openmote-cc2538_armgcc/openapps/whisper/whisper.c **** #include "neighbors.h"
  16:build/openmote-cc2538_armgcc/openapps/whisper/whisper.c **** #include "schedule.h"
  17:build/openmote-cc2538_armgcc/openapps/whisper/whisper.c **** #include "IEEE802154E.h"
  18:build/openmote-cc2538_armgcc/openapps/whisper/whisper.c **** #include "scheduler.h"
  19:build/openmote-cc2538_armgcc/openapps/whisper/whisper.c **** #include "sixtop.h"
  20:build/openmote-cc2538_armgcc/openapps/whisper/whisper.c **** 
  21:build/openmote-cc2538_armgcc/openapps/whisper/whisper.c **** //=========================== defines =========================================
  22:build/openmote-cc2538_armgcc/openapps/whisper/whisper.c **** 
  23:build/openmote-cc2538_armgcc/openapps/whisper/whisper.c **** const uint8_t whisper_path0[] = "w";
  24:build/openmote-cc2538_armgcc/openapps/whisper/whisper.c **** 
  25:build/openmote-cc2538_armgcc/openapps/whisper/whisper.c **** //=========================== variables =======================================
  26:build/openmote-cc2538_armgcc/openapps/whisper/whisper.c **** 
  27:build/openmote-cc2538_armgcc/openapps/whisper/whisper.c **** 
  28:build/openmote-cc2538_armgcc/openapps/whisper/whisper.c **** uint8_t targetParentNew;
  29:build/openmote-cc2538_armgcc/openapps/whisper/whisper.c **** uint8_t targetParentOld;
  30:build/openmote-cc2538_armgcc/openapps/whisper/whisper.c **** uint8_t targetChildren;
  31:build/openmote-cc2538_armgcc/openapps/whisper/whisper.c **** uint8_t state;
  32:build/openmote-cc2538_armgcc/openapps/whisper/whisper.c **** uint8_t fakeSource;
  33:build/openmote-cc2538_armgcc/openapps/whisper/whisper.c **** uint8_t numSentDios;
  34:build/openmote-cc2538_armgcc/openapps/whisper/whisper.c **** cellInfo_ht          celllist_add[CELLLIST_MAX_LEN];
  35:build/openmote-cc2538_armgcc/openapps/whisper/whisper.c **** 
  36:build/openmote-cc2538_armgcc/openapps/whisper/whisper.c **** whisper_vars_t whisper_vars;
  37:build/openmote-cc2538_armgcc/openapps/whisper/whisper.c **** 
  38:build/openmote-cc2538_armgcc/openapps/whisper/whisper.c **** void whisper_timer_cb(opentimers_id_t id);
  39:build/openmote-cc2538_armgcc/openapps/whisper/whisper.c **** void whisper_task_cb(void);
  40:build/openmote-cc2538_armgcc/openapps/whisper/whisper.c **** 
  41:build/openmote-cc2538_armgcc/openapps/whisper/whisper.c **** void whisper_timer_cb2(opentimers_id_t id);
  42:build/openmote-cc2538_armgcc/openapps/whisper/whisper.c **** void whisper_task_cb2(void);
  43:build/openmote-cc2538_armgcc/openapps/whisper/whisper.c **** 
  44:build/openmote-cc2538_armgcc/openapps/whisper/whisper.c **** void whisper_timer_cb3(opentimers_id_t id);
  45:build/openmote-cc2538_armgcc/openapps/whisper/whisper.c **** void whisper_task_cb3(void);
  46:build/openmote-cc2538_armgcc/openapps/whisper/whisper.c **** 
  47:build/openmote-cc2538_armgcc/openapps/whisper/whisper.c **** void whisper_timer_cb4(opentimers_id_t id);
  48:build/openmote-cc2538_armgcc/openapps/whisper/whisper.c **** void whisper_task_cb4(void);
  49:build/openmote-cc2538_armgcc/openapps/whisper/whisper.c **** 
  50:build/openmote-cc2538_armgcc/openapps/whisper/whisper.c **** void whisper_task_remote(uint8_t* buf, uint8_t bufLen);
  51:build/openmote-cc2538_armgcc/openapps/whisper/whisper.c **** 
  52:build/openmote-cc2538_armgcc/openapps/whisper/whisper.c **** //bool whisper_candidateAddCellList(cellInfo_ht* cellList,uint8_t requiredCells);
  53:build/openmote-cc2538_armgcc/openapps/whisper/whisper.c **** //=========================== prototypes ======================================
  54:build/openmote-cc2538_armgcc/openapps/whisper/whisper.c **** 
  55:build/openmote-cc2538_armgcc/openapps/whisper/whisper.c **** owerror_t     whisper_receive(
  56:build/openmote-cc2538_armgcc/openapps/whisper/whisper.c ****    OpenQueueEntry_t* msg,
  57:build/openmote-cc2538_armgcc/openapps/whisper/whisper.c ****    coap_header_iht*  coap_header,
  58:build/openmote-cc2538_armgcc/openapps/whisper/whisper.c ****    coap_option_iht*  coap_options
  59:build/openmote-cc2538_armgcc/openapps/whisper/whisper.c **** );
  60:build/openmote-cc2538_armgcc/openapps/whisper/whisper.c **** void          whisper_sendDone(
  61:build/openmote-cc2538_armgcc/openapps/whisper/whisper.c ****    OpenQueueEntry_t* msg,
  62:build/openmote-cc2538_armgcc/openapps/whisper/whisper.c ****    owerror_t error
  63:build/openmote-cc2538_armgcc/openapps/whisper/whisper.c **** );
  64:build/openmote-cc2538_armgcc/openapps/whisper/whisper.c **** 
  65:build/openmote-cc2538_armgcc/openapps/whisper/whisper.c **** //=========================== public ==========================================
  66:build/openmote-cc2538_armgcc/openapps/whisper/whisper.c **** 
  67:build/openmote-cc2538_armgcc/openapps/whisper/whisper.c **** 
  68:build/openmote-cc2538_armgcc/openapps/whisper/whisper.c **** /**
  69:build/openmote-cc2538_armgcc/openapps/whisper/whisper.c **** \brief Initialize this module.
  70:build/openmote-cc2538_armgcc/openapps/whisper/whisper.c **** */
  71:build/openmote-cc2538_armgcc/openapps/whisper/whisper.c **** void whisper_init() {
 252              		.loc 1 71 0
 253              		.cfi_startproc
 254              		@ args = 0, pretend = 0, frame = 0
 255              		@ frame_needed = 1, uses_anonymous_args = 0
 256 0000 80B5     		push	{r7, lr}
 257              		.cfi_def_cfa_offset 8
 258              		.cfi_offset 7, -8
 259              		.cfi_offset 14, -4
 260 0002 00AF     		add	r7, sp, #0
 261              		.cfi_def_cfa_register 7
  72:build/openmote-cc2538_armgcc/openapps/whisper/whisper.c **** 
  73:build/openmote-cc2538_armgcc/openapps/whisper/whisper.c **** 
  74:build/openmote-cc2538_armgcc/openapps/whisper/whisper.c **** 
  75:build/openmote-cc2538_armgcc/openapps/whisper/whisper.c **** 
  76:build/openmote-cc2538_armgcc/openapps/whisper/whisper.c ****    // do not run if DAGroot
  77:build/openmote-cc2538_armgcc/openapps/whisper/whisper.c ****    //if(idmanager_getIsDAGroot()==TRUE) return;
  78:build/openmote-cc2538_armgcc/openapps/whisper/whisper.c ****    // do not run if not whisper node
  79:build/openmote-cc2538_armgcc/openapps/whisper/whisper.c ****    if(idmanager_getMyID(ADDR_64B)->addr_64b[7] != 0x6b) return;
 262              		.loc 1 79 0
 263 0004 0220     		movs	r0, #2
 264 0006 FFF7FEFF 		bl	idmanager_getMyID
 265 000a 0346     		mov	r3, r0
 266 000c 1B7A     		ldrb	r3, [r3, #8]	@ zero_extendqisi2
 267 000e 6B2B     		cmp	r3, #107
 268 0010 36D1     		bne	.L4
  80:build/openmote-cc2538_armgcc/openapps/whisper/whisper.c ****    //if(idmanager_getMyID(ADDR_64B)->addr_64b[7] != 0x01) return;
  81:build/openmote-cc2538_armgcc/openapps/whisper/whisper.c **** 
  82:build/openmote-cc2538_armgcc/openapps/whisper/whisper.c ****    leds_debug_toggle();
 269              		.loc 1 82 0
 270 0012 FFF7FEFF 		bl	leds_debug_toggle
  83:build/openmote-cc2538_armgcc/openapps/whisper/whisper.c **** 
  84:build/openmote-cc2538_armgcc/openapps/whisper/whisper.c ****    // start ONESHOT timer
  85:build/openmote-cc2538_armgcc/openapps/whisper/whisper.c **** //   whisper_vars.timerIdSixp = 0;
  86:build/openmote-cc2538_armgcc/openapps/whisper/whisper.c **** //   whisper_vars.timerIdSixp2 = 2;
  87:build/openmote-cc2538_armgcc/openapps/whisper/whisper.c **** //   whisper_vars.timerIdSixp3 = 3;
  88:build/openmote-cc2538_armgcc/openapps/whisper/whisper.c **** //   whisper_vars.timerIdRpl = 1;
  89:build/openmote-cc2538_armgcc/openapps/whisper/whisper.c **** 
  90:build/openmote-cc2538_armgcc/openapps/whisper/whisper.c ****    // prepare the resource descriptor for the /w path
  91:build/openmote-cc2538_armgcc/openapps/whisper/whisper.c **** 
  92:build/openmote-cc2538_armgcc/openapps/whisper/whisper.c ****    whisper_setState(0);
 271              		.loc 1 92 0
 272 0016 0020     		movs	r0, #0
 273 0018 FFF7FEFF 		bl	whisper_setState
  93:build/openmote-cc2538_armgcc/openapps/whisper/whisper.c ****    targetParentOld=0;
 274              		.loc 1 93 0
 275 001c 194B     		ldr	r3, .L5
 276 001e 0022     		movs	r2, #0
 277 0020 1A70     		strb	r2, [r3]
  94:build/openmote-cc2538_armgcc/openapps/whisper/whisper.c ****    targetParentNew=0;
 278              		.loc 1 94 0
 279 0022 194B     		ldr	r3, .L5+4
 280 0024 0022     		movs	r2, #0
 281 0026 1A70     		strb	r2, [r3]
  95:build/openmote-cc2538_armgcc/openapps/whisper/whisper.c ****    targetChildren=0;
 282              		.loc 1 95 0
 283 0028 184B     		ldr	r3, .L5+8
 284 002a 0022     		movs	r2, #0
 285 002c 1A70     		strb	r2, [r3]
  96:build/openmote-cc2538_armgcc/openapps/whisper/whisper.c ****    fakeSource=0;
 286              		.loc 1 96 0
 287 002e 184B     		ldr	r3, .L5+12
 288 0030 0022     		movs	r2, #0
 289 0032 1A70     		strb	r2, [r3]
  97:build/openmote-cc2538_armgcc/openapps/whisper/whisper.c ****    numSentDios=0;
 290              		.loc 1 97 0
 291 0034 174B     		ldr	r3, .L5+16
 292 0036 0022     		movs	r2, #0
 293 0038 1A70     		strb	r2, [r3]
  98:build/openmote-cc2538_armgcc/openapps/whisper/whisper.c **** 
  99:build/openmote-cc2538_armgcc/openapps/whisper/whisper.c ****    whisper_vars.desc.path0len             = sizeof(whisper_path0)-1;
 294              		.loc 1 99 0
 295 003a 174B     		ldr	r3, .L5+20
 296 003c 0122     		movs	r2, #1
 297 003e 1A70     		strb	r2, [r3]
 100:build/openmote-cc2538_armgcc/openapps/whisper/whisper.c ****    whisper_vars.desc.path0val             = (uint8_t*)(&whisper_path0);
 298              		.loc 1 100 0
 299 0040 154B     		ldr	r3, .L5+20
 300 0042 164A     		ldr	r2, .L5+24
 301 0044 5A60     		str	r2, [r3, #4]
 101:build/openmote-cc2538_armgcc/openapps/whisper/whisper.c ****    whisper_vars.desc.path1len             = 0;
 302              		.loc 1 101 0
 303 0046 144B     		ldr	r3, .L5+20
 304 0048 0022     		movs	r2, #0
 305 004a 1A72     		strb	r2, [r3, #8]
 102:build/openmote-cc2538_armgcc/openapps/whisper/whisper.c ****    whisper_vars.desc.path1val             = NULL;
 306              		.loc 1 102 0
 307 004c 124B     		ldr	r3, .L5+20
 308 004e 0022     		movs	r2, #0
 309 0050 DA60     		str	r2, [r3, #12]
 103:build/openmote-cc2538_armgcc/openapps/whisper/whisper.c ****    whisper_vars.desc.componentID          = COMPONENT_WHISPER;
 310              		.loc 1 103 0
 311 0052 114B     		ldr	r3, .L5+20
 312 0054 2D22     		movs	r2, #45
 313 0056 1A74     		strb	r2, [r3, #16]
 104:build/openmote-cc2538_armgcc/openapps/whisper/whisper.c ****    whisper_vars.desc.discoverable         = TRUE;
 314              		.loc 1 104 0
 315 0058 0F4B     		ldr	r3, .L5+20
 316 005a 0122     		movs	r2, #1
 317 005c 1A76     		strb	r2, [r3, #24]
 105:build/openmote-cc2538_armgcc/openapps/whisper/whisper.c ****    whisper_vars.desc.callbackRx           = &whisper_receive;
 318              		.loc 1 105 0
 319 005e 0E4B     		ldr	r3, .L5+20
 320 0060 0F4A     		ldr	r2, .L5+28
 321 0062 DA61     		str	r2, [r3, #28]
 106:build/openmote-cc2538_armgcc/openapps/whisper/whisper.c ****    whisper_vars.desc.callbackSendDone     = &whisper_sendDone;
 322              		.loc 1 106 0
 323 0064 0C4B     		ldr	r3, .L5+20
 324 0066 0F4A     		ldr	r2, .L5+32
 325 0068 1A62     		str	r2, [r3, #32]
 107:build/openmote-cc2538_armgcc/openapps/whisper/whisper.c ****   
 108:build/openmote-cc2538_armgcc/openapps/whisper/whisper.c ****    whisper_vars.timerIdWhisper = opentimers_create();
 326              		.loc 1 108 0
 327 006a FFF7FEFF 		bl	opentimers_create
 328 006e 0346     		mov	r3, r0
 329 0070 1A46     		mov	r2, r3
 330 0072 094B     		ldr	r3, .L5+20
 331 0074 83F83820 		strb	r2, [r3, #56]
 109:build/openmote-cc2538_armgcc/openapps/whisper/whisper.c **** 
 110:build/openmote-cc2538_armgcc/openapps/whisper/whisper.c ****    // register with the CoAP module
 111:build/openmote-cc2538_armgcc/openapps/whisper/whisper.c ****    opencoap_register(&whisper_vars.desc);
 332              		.loc 1 111 0
 333 0078 0748     		ldr	r0, .L5+20
 334 007a FFF7FEFF 		bl	opencoap_register
 335 007e 00E0     		b	.L1
 336              	.L4:
  79:build/openmote-cc2538_armgcc/openapps/whisper/whisper.c ****    //if(idmanager_getMyID(ADDR_64B)->addr_64b[7] != 0x01) return;
 337              		.loc 1 79 0
 338 0080 00BF     		nop
 339              	.L1:
 112:build/openmote-cc2538_armgcc/openapps/whisper/whisper.c **** }
 340              		.loc 1 112 0
 341 0082 80BD     		pop	{r7, pc}
 342              	.L6:
 343              		.align	2
 344              	.L5:
 345 0084 00000000 		.word	targetParentOld
 346 0088 00000000 		.word	targetParentNew
 347 008c 00000000 		.word	targetChildren
 348 0090 00000000 		.word	fakeSource
 349 0094 00000000 		.word	numSentDios
 350 0098 00000000 		.word	whisper_vars
 351 009c 00000000 		.word	whisper_path0
 352 00a0 00000000 		.word	whisper_receive
 353 00a4 00000000 		.word	whisper_sendDone
 354              		.cfi_endproc
 355              	.LFE0:
 357              		.align	2
 358              		.global	whisper_setSentDIOs
 359              		.thumb
 360              		.thumb_func
 362              	whisper_setSentDIOs:
 363              	.LFB1:
 113:build/openmote-cc2538_armgcc/openapps/whisper/whisper.c **** 
 114:build/openmote-cc2538_armgcc/openapps/whisper/whisper.c **** void whisper_setSentDIOs(uint8_t i){
 364              		.loc 1 114 0
 365              		.cfi_startproc
 366              		@ args = 0, pretend = 0, frame = 8
 367              		@ frame_needed = 1, uses_anonymous_args = 0
 368              		@ link register save eliminated.
 369 00a8 80B4     		push	{r7}
 370              		.cfi_def_cfa_offset 4
 371              		.cfi_offset 7, -4
 372 00aa 83B0     		sub	sp, sp, #12
 373              		.cfi_def_cfa_offset 16
 374 00ac 00AF     		add	r7, sp, #0
 375              		.cfi_def_cfa_register 7
 376 00ae 0346     		mov	r3, r0
 377 00b0 FB71     		strb	r3, [r7, #7]
 115:build/openmote-cc2538_armgcc/openapps/whisper/whisper.c **** 	numSentDios=i;
 378              		.loc 1 115 0
 379 00b2 044A     		ldr	r2, .L8
 380 00b4 FB79     		ldrb	r3, [r7, #7]
 381 00b6 1370     		strb	r3, [r2]
 116:build/openmote-cc2538_armgcc/openapps/whisper/whisper.c **** }
 382              		.loc 1 116 0
 383 00b8 00BF     		nop
 384 00ba 0C37     		adds	r7, r7, #12
 385              		.cfi_def_cfa_offset 4
 386 00bc BD46     		mov	sp, r7
 387              		.cfi_def_cfa_register 13
 388              		@ sp needed
 389 00be 80BC     		pop	{r7}
 390              		.cfi_restore 7
 391              		.cfi_def_cfa_offset 0
 392 00c0 7047     		bx	lr
 393              	.L9:
 394 00c2 00BF     		.align	2
 395              	.L8:
 396 00c4 00000000 		.word	numSentDios
 397              		.cfi_endproc
 398              	.LFE1:
 400              		.align	2
 401              		.global	whisper_getSentDIOs
 402              		.thumb
 403              		.thumb_func
 405              	whisper_getSentDIOs:
 406              	.LFB2:
 117:build/openmote-cc2538_armgcc/openapps/whisper/whisper.c **** 
 118:build/openmote-cc2538_armgcc/openapps/whisper/whisper.c **** uint8_t whisper_getSentDIOs(){
 407              		.loc 1 118 0
 408              		.cfi_startproc
 409              		@ args = 0, pretend = 0, frame = 0
 410              		@ frame_needed = 1, uses_anonymous_args = 0
 411              		@ link register save eliminated.
 412 00c8 80B4     		push	{r7}
 413              		.cfi_def_cfa_offset 4
 414              		.cfi_offset 7, -4
 415 00ca 00AF     		add	r7, sp, #0
 416              		.cfi_def_cfa_register 7
 119:build/openmote-cc2538_armgcc/openapps/whisper/whisper.c **** 	return numSentDios;
 417              		.loc 1 119 0
 418 00cc 024B     		ldr	r3, .L12
 419 00ce 1B78     		ldrb	r3, [r3]	@ zero_extendqisi2
 120:build/openmote-cc2538_armgcc/openapps/whisper/whisper.c **** }
 420              		.loc 1 120 0
 421 00d0 1846     		mov	r0, r3
 422 00d2 BD46     		mov	sp, r7
 423              		.cfi_def_cfa_register 13
 424              		@ sp needed
 425 00d4 80BC     		pop	{r7}
 426              		.cfi_restore 7
 427              		.cfi_def_cfa_offset 0
 428 00d6 7047     		bx	lr
 429              	.L13:
 430              		.align	2
 431              	.L12:
 432 00d8 00000000 		.word	numSentDios
 433              		.cfi_endproc
 434              	.LFE2:
 436              		.align	2
 437              		.global	whisper_setState
 438              		.thumb
 439              		.thumb_func
 441              	whisper_setState:
 442              	.LFB3:
 121:build/openmote-cc2538_armgcc/openapps/whisper/whisper.c **** 
 122:build/openmote-cc2538_armgcc/openapps/whisper/whisper.c **** void whisper_setState(uint8_t i){
 443              		.loc 1 122 0
 444              		.cfi_startproc
 445              		@ args = 0, pretend = 0, frame = 8
 446              		@ frame_needed = 1, uses_anonymous_args = 0
 447              		@ link register save eliminated.
 448 00dc 80B4     		push	{r7}
 449              		.cfi_def_cfa_offset 4
 450              		.cfi_offset 7, -4
 451 00de 83B0     		sub	sp, sp, #12
 452              		.cfi_def_cfa_offset 16
 453 00e0 00AF     		add	r7, sp, #0
 454              		.cfi_def_cfa_register 7
 455 00e2 0346     		mov	r3, r0
 456 00e4 FB71     		strb	r3, [r7, #7]
 123:build/openmote-cc2538_armgcc/openapps/whisper/whisper.c **** 	state=i;
 457              		.loc 1 123 0
 458 00e6 044A     		ldr	r2, .L15
 459 00e8 FB79     		ldrb	r3, [r7, #7]
 460 00ea 1370     		strb	r3, [r2]
 124:build/openmote-cc2538_armgcc/openapps/whisper/whisper.c **** }
 461              		.loc 1 124 0
 462 00ec 00BF     		nop
 463 00ee 0C37     		adds	r7, r7, #12
 464              		.cfi_def_cfa_offset 4
 465 00f0 BD46     		mov	sp, r7
 466              		.cfi_def_cfa_register 13
 467              		@ sp needed
 468 00f2 80BC     		pop	{r7}
 469              		.cfi_restore 7
 470              		.cfi_def_cfa_offset 0
 471 00f4 7047     		bx	lr
 472              	.L16:
 473 00f6 00BF     		.align	2
 474              	.L15:
 475 00f8 00000000 		.word	state
 476              		.cfi_endproc
 477              	.LFE3:
 479              		.align	2
 480              		.global	whisper_getState
 481              		.thumb
 482              		.thumb_func
 484              	whisper_getState:
 485              	.LFB4:
 125:build/openmote-cc2538_armgcc/openapps/whisper/whisper.c **** 
 126:build/openmote-cc2538_armgcc/openapps/whisper/whisper.c **** uint8_t whisper_getState(){
 486              		.loc 1 126 0
 487              		.cfi_startproc
 488              		@ args = 0, pretend = 0, frame = 0
 489              		@ frame_needed = 1, uses_anonymous_args = 0
 490              		@ link register save eliminated.
 491 00fc 80B4     		push	{r7}
 492              		.cfi_def_cfa_offset 4
 493              		.cfi_offset 7, -4
 494 00fe 00AF     		add	r7, sp, #0
 495              		.cfi_def_cfa_register 7
 127:build/openmote-cc2538_armgcc/openapps/whisper/whisper.c **** 	return state;
 496              		.loc 1 127 0
 497 0100 024B     		ldr	r3, .L19
 498 0102 1B78     		ldrb	r3, [r3]	@ zero_extendqisi2
 128:build/openmote-cc2538_armgcc/openapps/whisper/whisper.c **** }
 499              		.loc 1 128 0
 500 0104 1846     		mov	r0, r3
 501 0106 BD46     		mov	sp, r7
 502              		.cfi_def_cfa_register 13
 503              		@ sp needed
 504 0108 80BC     		pop	{r7}
 505              		.cfi_restore 7
 506              		.cfi_def_cfa_offset 0
 507 010a 7047     		bx	lr
 508              	.L20:
 509              		.align	2
 510              	.L19:
 511 010c 00000000 		.word	state
 512              		.cfi_endproc
 513              	.LFE4:
 515              		.align	2
 516              		.global	whisper_getTargetChildren
 517              		.thumb
 518              		.thumb_func
 520              	whisper_getTargetChildren:
 521              	.LFB5:
 129:build/openmote-cc2538_armgcc/openapps/whisper/whisper.c **** 
 130:build/openmote-cc2538_armgcc/openapps/whisper/whisper.c **** uint8_t whisper_getTargetChildren(){
 522              		.loc 1 130 0
 523              		.cfi_startproc
 524              		@ args = 0, pretend = 0, frame = 0
 525              		@ frame_needed = 1, uses_anonymous_args = 0
 526              		@ link register save eliminated.
 527 0110 80B4     		push	{r7}
 528              		.cfi_def_cfa_offset 4
 529              		.cfi_offset 7, -4
 530 0112 00AF     		add	r7, sp, #0
 531              		.cfi_def_cfa_register 7
 131:build/openmote-cc2538_armgcc/openapps/whisper/whisper.c **** 	return targetChildren;
 532              		.loc 1 131 0
 533 0114 024B     		ldr	r3, .L23
 534 0116 1B78     		ldrb	r3, [r3]	@ zero_extendqisi2
 132:build/openmote-cc2538_armgcc/openapps/whisper/whisper.c **** }
 535              		.loc 1 132 0
 536 0118 1846     		mov	r0, r3
 537 011a BD46     		mov	sp, r7
 538              		.cfi_def_cfa_register 13
 539              		@ sp needed
 540 011c 80BC     		pop	{r7}
 541              		.cfi_restore 7
 542              		.cfi_def_cfa_offset 0
 543 011e 7047     		bx	lr
 544              	.L24:
 545              		.align	2
 546              	.L23:
 547 0120 00000000 		.word	targetChildren
 548              		.cfi_endproc
 549              	.LFE5:
 551              		.align	2
 552              		.global	whisper_setTargetChildren
 553              		.thumb
 554              		.thumb_func
 556              	whisper_setTargetChildren:
 557              	.LFB6:
 133:build/openmote-cc2538_armgcc/openapps/whisper/whisper.c **** 
 134:build/openmote-cc2538_armgcc/openapps/whisper/whisper.c **** void whisper_setTargetChildren(uint8_t i){
 558              		.loc 1 134 0
 559              		.cfi_startproc
 560              		@ args = 0, pretend = 0, frame = 8
 561              		@ frame_needed = 1, uses_anonymous_args = 0
 562              		@ link register save eliminated.
 563 0124 80B4     		push	{r7}
 564              		.cfi_def_cfa_offset 4
 565              		.cfi_offset 7, -4
 566 0126 83B0     		sub	sp, sp, #12
 567              		.cfi_def_cfa_offset 16
 568 0128 00AF     		add	r7, sp, #0
 569              		.cfi_def_cfa_register 7
 570 012a 0346     		mov	r3, r0
 571 012c FB71     		strb	r3, [r7, #7]
 135:build/openmote-cc2538_armgcc/openapps/whisper/whisper.c **** 	targetChildren=i;
 572              		.loc 1 135 0
 573 012e 044A     		ldr	r2, .L26
 574 0130 FB79     		ldrb	r3, [r7, #7]
 575 0132 1370     		strb	r3, [r2]
 136:build/openmote-cc2538_armgcc/openapps/whisper/whisper.c **** }
 576              		.loc 1 136 0
 577 0134 00BF     		nop
 578 0136 0C37     		adds	r7, r7, #12
 579              		.cfi_def_cfa_offset 4
 580 0138 BD46     		mov	sp, r7
 581              		.cfi_def_cfa_register 13
 582              		@ sp needed
 583 013a 80BC     		pop	{r7}
 584              		.cfi_restore 7
 585              		.cfi_def_cfa_offset 0
 586 013c 7047     		bx	lr
 587              	.L27:
 588 013e 00BF     		.align	2
 589              	.L26:
 590 0140 00000000 		.word	targetChildren
 591              		.cfi_endproc
 592              	.LFE6:
 594              		.align	2
 595              		.global	whisper_getTargetParentNew
 596              		.thumb
 597              		.thumb_func
 599              	whisper_getTargetParentNew:
 600              	.LFB7:
 137:build/openmote-cc2538_armgcc/openapps/whisper/whisper.c **** 
 138:build/openmote-cc2538_armgcc/openapps/whisper/whisper.c **** uint8_t whisper_getTargetParentNew(){
 601              		.loc 1 138 0
 602              		.cfi_startproc
 603              		@ args = 0, pretend = 0, frame = 0
 604              		@ frame_needed = 1, uses_anonymous_args = 0
 605              		@ link register save eliminated.
 606 0144 80B4     		push	{r7}
 607              		.cfi_def_cfa_offset 4
 608              		.cfi_offset 7, -4
 609 0146 00AF     		add	r7, sp, #0
 610              		.cfi_def_cfa_register 7
 139:build/openmote-cc2538_armgcc/openapps/whisper/whisper.c **** 	return targetParentNew;
 611              		.loc 1 139 0
 612 0148 024B     		ldr	r3, .L30
 613 014a 1B78     		ldrb	r3, [r3]	@ zero_extendqisi2
 140:build/openmote-cc2538_armgcc/openapps/whisper/whisper.c **** }
 614              		.loc 1 140 0
 615 014c 1846     		mov	r0, r3
 616 014e BD46     		mov	sp, r7
 617              		.cfi_def_cfa_register 13
 618              		@ sp needed
 619 0150 80BC     		pop	{r7}
 620              		.cfi_restore 7
 621              		.cfi_def_cfa_offset 0
 622 0152 7047     		bx	lr
 623              	.L31:
 624              		.align	2
 625              	.L30:
 626 0154 00000000 		.word	targetParentNew
 627              		.cfi_endproc
 628              	.LFE7:
 630              		.align	2
 631              		.global	whisper_setTargetParentNew
 632              		.thumb
 633              		.thumb_func
 635              	whisper_setTargetParentNew:
 636              	.LFB8:
 141:build/openmote-cc2538_armgcc/openapps/whisper/whisper.c **** 
 142:build/openmote-cc2538_armgcc/openapps/whisper/whisper.c **** void whisper_setTargetParentNew(uint8_t i){
 637              		.loc 1 142 0
 638              		.cfi_startproc
 639              		@ args = 0, pretend = 0, frame = 8
 640              		@ frame_needed = 1, uses_anonymous_args = 0
 641              		@ link register save eliminated.
 642 0158 80B4     		push	{r7}
 643              		.cfi_def_cfa_offset 4
 644              		.cfi_offset 7, -4
 645 015a 83B0     		sub	sp, sp, #12
 646              		.cfi_def_cfa_offset 16
 647 015c 00AF     		add	r7, sp, #0
 648              		.cfi_def_cfa_register 7
 649 015e 0346     		mov	r3, r0
 650 0160 FB71     		strb	r3, [r7, #7]
 143:build/openmote-cc2538_armgcc/openapps/whisper/whisper.c **** 	targetParentNew=i;
 651              		.loc 1 143 0
 652 0162 044A     		ldr	r2, .L33
 653 0164 FB79     		ldrb	r3, [r7, #7]
 654 0166 1370     		strb	r3, [r2]
 144:build/openmote-cc2538_armgcc/openapps/whisper/whisper.c **** }
 655              		.loc 1 144 0
 656 0168 00BF     		nop
 657 016a 0C37     		adds	r7, r7, #12
 658              		.cfi_def_cfa_offset 4
 659 016c BD46     		mov	sp, r7
 660              		.cfi_def_cfa_register 13
 661              		@ sp needed
 662 016e 80BC     		pop	{r7}
 663              		.cfi_restore 7
 664              		.cfi_def_cfa_offset 0
 665 0170 7047     		bx	lr
 666              	.L34:
 667 0172 00BF     		.align	2
 668              	.L33:
 669 0174 00000000 		.word	targetParentNew
 670              		.cfi_endproc
 671              	.LFE8:
 673              		.align	2
 674              		.global	whisper_getTargetParentOld
 675              		.thumb
 676              		.thumb_func
 678              	whisper_getTargetParentOld:
 679              	.LFB9:
 145:build/openmote-cc2538_armgcc/openapps/whisper/whisper.c **** 
 146:build/openmote-cc2538_armgcc/openapps/whisper/whisper.c **** uint8_t whisper_getTargetParentOld(){
 680              		.loc 1 146 0
 681              		.cfi_startproc
 682              		@ args = 0, pretend = 0, frame = 0
 683              		@ frame_needed = 1, uses_anonymous_args = 0
 684              		@ link register save eliminated.
 685 0178 80B4     		push	{r7}
 686              		.cfi_def_cfa_offset 4
 687              		.cfi_offset 7, -4
 688 017a 00AF     		add	r7, sp, #0
 689              		.cfi_def_cfa_register 7
 147:build/openmote-cc2538_armgcc/openapps/whisper/whisper.c **** 	return targetParentOld;
 690              		.loc 1 147 0
 691 017c 024B     		ldr	r3, .L37
 692 017e 1B78     		ldrb	r3, [r3]	@ zero_extendqisi2
 148:build/openmote-cc2538_armgcc/openapps/whisper/whisper.c **** }
 693              		.loc 1 148 0
 694 0180 1846     		mov	r0, r3
 695 0182 BD46     		mov	sp, r7
 696              		.cfi_def_cfa_register 13
 697              		@ sp needed
 698 0184 80BC     		pop	{r7}
 699              		.cfi_restore 7
 700              		.cfi_def_cfa_offset 0
 701 0186 7047     		bx	lr
 702              	.L38:
 703              		.align	2
 704              	.L37:
 705 0188 00000000 		.word	targetParentOld
 706              		.cfi_endproc
 707              	.LFE9:
 709              		.align	2
 710              		.global	whisper_setTargetParentOld
 711              		.thumb
 712              		.thumb_func
 714              	whisper_setTargetParentOld:
 715              	.LFB10:
 149:build/openmote-cc2538_armgcc/openapps/whisper/whisper.c **** 
 150:build/openmote-cc2538_armgcc/openapps/whisper/whisper.c **** void whisper_setTargetParentOld(uint8_t i){
 716              		.loc 1 150 0
 717              		.cfi_startproc
 718              		@ args = 0, pretend = 0, frame = 8
 719              		@ frame_needed = 1, uses_anonymous_args = 0
 720              		@ link register save eliminated.
 721 018c 80B4     		push	{r7}
 722              		.cfi_def_cfa_offset 4
 723              		.cfi_offset 7, -4
 724 018e 83B0     		sub	sp, sp, #12
 725              		.cfi_def_cfa_offset 16
 726 0190 00AF     		add	r7, sp, #0
 727              		.cfi_def_cfa_register 7
 728 0192 0346     		mov	r3, r0
 729 0194 FB71     		strb	r3, [r7, #7]
 151:build/openmote-cc2538_armgcc/openapps/whisper/whisper.c **** 	targetParentOld=i;
 730              		.loc 1 151 0
 731 0196 044A     		ldr	r2, .L40
 732 0198 FB79     		ldrb	r3, [r7, #7]
 733 019a 1370     		strb	r3, [r2]
 152:build/openmote-cc2538_armgcc/openapps/whisper/whisper.c **** }
 734              		.loc 1 152 0
 735 019c 00BF     		nop
 736 019e 0C37     		adds	r7, r7, #12
 737              		.cfi_def_cfa_offset 4
 738 01a0 BD46     		mov	sp, r7
 739              		.cfi_def_cfa_register 13
 740              		@ sp needed
 741 01a2 80BC     		pop	{r7}
 742              		.cfi_restore 7
 743              		.cfi_def_cfa_offset 0
 744 01a4 7047     		bx	lr
 745              	.L41:
 746 01a6 00BF     		.align	2
 747              	.L40:
 748 01a8 00000000 		.word	targetParentOld
 749              		.cfi_endproc
 750              	.LFE10:
 752              		.align	2
 753              		.global	whisper_getFakeSource
 754              		.thumb
 755              		.thumb_func
 757              	whisper_getFakeSource:
 758              	.LFB11:
 153:build/openmote-cc2538_armgcc/openapps/whisper/whisper.c **** 
 154:build/openmote-cc2538_armgcc/openapps/whisper/whisper.c **** uint8_t whisper_getFakeSource(){
 759              		.loc 1 154 0
 760              		.cfi_startproc
 761              		@ args = 0, pretend = 0, frame = 0
 762              		@ frame_needed = 1, uses_anonymous_args = 0
 763              		@ link register save eliminated.
 764 01ac 80B4     		push	{r7}
 765              		.cfi_def_cfa_offset 4
 766              		.cfi_offset 7, -4
 767 01ae 00AF     		add	r7, sp, #0
 768              		.cfi_def_cfa_register 7
 155:build/openmote-cc2538_armgcc/openapps/whisper/whisper.c **** 	return fakeSource;
 769              		.loc 1 155 0
 770 01b0 024B     		ldr	r3, .L44
 771 01b2 1B78     		ldrb	r3, [r3]	@ zero_extendqisi2
 156:build/openmote-cc2538_armgcc/openapps/whisper/whisper.c **** }
 772              		.loc 1 156 0
 773 01b4 1846     		mov	r0, r3
 774 01b6 BD46     		mov	sp, r7
 775              		.cfi_def_cfa_register 13
 776              		@ sp needed
 777 01b8 80BC     		pop	{r7}
 778              		.cfi_restore 7
 779              		.cfi_def_cfa_offset 0
 780 01ba 7047     		bx	lr
 781              	.L45:
 782              		.align	2
 783              	.L44:
 784 01bc 00000000 		.word	fakeSource
 785              		.cfi_endproc
 786              	.LFE11:
 788              		.align	2
 789              		.global	whisper_setFakeSource
 790              		.thumb
 791              		.thumb_func
 793              	whisper_setFakeSource:
 794              	.LFB12:
 157:build/openmote-cc2538_armgcc/openapps/whisper/whisper.c **** 
 158:build/openmote-cc2538_armgcc/openapps/whisper/whisper.c **** void whisper_setFakeSource(uint8_t i){
 795              		.loc 1 158 0
 796              		.cfi_startproc
 797              		@ args = 0, pretend = 0, frame = 8
 798              		@ frame_needed = 1, uses_anonymous_args = 0
 799              		@ link register save eliminated.
 800 01c0 80B4     		push	{r7}
 801              		.cfi_def_cfa_offset 4
 802              		.cfi_offset 7, -4
 803 01c2 83B0     		sub	sp, sp, #12
 804              		.cfi_def_cfa_offset 16
 805 01c4 00AF     		add	r7, sp, #0
 806              		.cfi_def_cfa_register 7
 807 01c6 0346     		mov	r3, r0
 808 01c8 FB71     		strb	r3, [r7, #7]
 159:build/openmote-cc2538_armgcc/openapps/whisper/whisper.c **** 	fakeSource=i;
 809              		.loc 1 159 0
 810 01ca 044A     		ldr	r2, .L47
 811 01cc FB79     		ldrb	r3, [r7, #7]
 812 01ce 1370     		strb	r3, [r2]
 160:build/openmote-cc2538_armgcc/openapps/whisper/whisper.c **** }
 813              		.loc 1 160 0
 814 01d0 00BF     		nop
 815 01d2 0C37     		adds	r7, r7, #12
 816              		.cfi_def_cfa_offset 4
 817 01d4 BD46     		mov	sp, r7
 818              		.cfi_def_cfa_register 13
 819              		@ sp needed
 820 01d6 80BC     		pop	{r7}
 821              		.cfi_restore 7
 822              		.cfi_def_cfa_offset 0
 823 01d8 7047     		bx	lr
 824              	.L48:
 825 01da 00BF     		.align	2
 826              	.L47:
 827 01dc 00000000 		.word	fakeSource
 828              		.cfi_endproc
 829              	.LFE12:
 831              		.align	2
 832              		.global	whisper_receive
 833              		.thumb
 834              		.thumb_func
 836              	whisper_receive:
 837              	.LFB13:
 161:build/openmote-cc2538_armgcc/openapps/whisper/whisper.c **** 
 162:build/openmote-cc2538_armgcc/openapps/whisper/whisper.c **** void whisper_trigger_nextStep(void);
 163:build/openmote-cc2538_armgcc/openapps/whisper/whisper.c **** 
 164:build/openmote-cc2538_armgcc/openapps/whisper/whisper.c **** //
 165:build/openmote-cc2538_armgcc/openapps/whisper/whisper.c **** ////sets the
 166:build/openmote-cc2538_armgcc/openapps/whisper/whisper.c **** //uint8_t whisper_getSeqNumOfNeigh(uint8_t n){
 167:build/openmote-cc2538_armgcc/openapps/whisper/whisper.c **** //	return sequenceNumber[n-1];
 168:build/openmote-cc2538_armgcc/openapps/whisper/whisper.c **** //}
 169:build/openmote-cc2538_armgcc/openapps/whisper/whisper.c **** //
 170:build/openmote-cc2538_armgcc/openapps/whisper/whisper.c **** //void whisper_setFakeSource(uint8_t n,uint8_t i){
 171:build/openmote-cc2538_armgcc/openapps/whisper/whisper.c **** //	sequenceNumber[n-1]=i;
 172:build/openmote-cc2538_armgcc/openapps/whisper/whisper.c **** //}
 173:build/openmote-cc2538_armgcc/openapps/whisper/whisper.c **** //=========================== private =========================================
 174:build/openmote-cc2538_armgcc/openapps/whisper/whisper.c **** 
 175:build/openmote-cc2538_armgcc/openapps/whisper/whisper.c **** /**
 176:build/openmote-cc2538_armgcc/openapps/whisper/whisper.c **** \brief Called when a CoAP message is received for this resource.
 177:build/openmote-cc2538_armgcc/openapps/whisper/whisper.c **** 
 178:build/openmote-cc2538_armgcc/openapps/whisper/whisper.c **** \param[in] msg          The received message. CoAP header and options already
 179:build/openmote-cc2538_armgcc/openapps/whisper/whisper.c ****    parsed.
 180:build/openmote-cc2538_armgcc/openapps/whisper/whisper.c **** \param[in] coap_header  The CoAP header contained in the message.
 181:build/openmote-cc2538_armgcc/openapps/whisper/whisper.c **** \param[in] coap_options The CoAP options contained in the message.
 182:build/openmote-cc2538_armgcc/openapps/whisper/whisper.c **** 
 183:build/openmote-cc2538_armgcc/openapps/whisper/whisper.c **** \return Whether the response is prepared successfully.
 184:build/openmote-cc2538_armgcc/openapps/whisper/whisper.c **** */
 185:build/openmote-cc2538_armgcc/openapps/whisper/whisper.c **** owerror_t whisper_receive(
 186:build/openmote-cc2538_armgcc/openapps/whisper/whisper.c ****       OpenQueueEntry_t* msg,
 187:build/openmote-cc2538_armgcc/openapps/whisper/whisper.c ****       coap_header_iht* coap_header,
 188:build/openmote-cc2538_armgcc/openapps/whisper/whisper.c ****       coap_option_iht* coap_options
 189:build/openmote-cc2538_armgcc/openapps/whisper/whisper.c ****    ) {
 838              		.loc 1 189 0
 839              		.cfi_startproc
 840              		@ args = 0, pretend = 0, frame = 40
 841              		@ frame_needed = 1, uses_anonymous_args = 0
 842 01e0 80B5     		push	{r7, lr}
 843              		.cfi_def_cfa_offset 8
 844              		.cfi_offset 7, -8
 845              		.cfi_offset 14, -4
 846 01e2 8AB0     		sub	sp, sp, #40
 847              		.cfi_def_cfa_offset 48
 848 01e4 00AF     		add	r7, sp, #0
 849              		.cfi_def_cfa_register 7
 850 01e6 F860     		str	r0, [r7, #12]
 851 01e8 B960     		str	r1, [r7, #8]
 852 01ea 7A60     		str	r2, [r7, #4]
 190:build/openmote-cc2538_armgcc/openapps/whisper/whisper.c ****    uint8_t          i;
 191:build/openmote-cc2538_armgcc/openapps/whisper/whisper.c ****    owerror_t outcome;
 192:build/openmote-cc2538_armgcc/openapps/whisper/whisper.c **** 
 193:build/openmote-cc2538_armgcc/openapps/whisper/whisper.c ****    if (msf_candidateAddCellList(celllist_add,1)==FALSE){
 853              		.loc 1 193 0
 854 01ec 0121     		movs	r1, #1
 855 01ee 2C48     		ldr	r0, .L58
 856 01f0 FFF7FEFF 		bl	msf_candidateAddCellList
 857 01f4 0346     		mov	r3, r0
 858 01f6 83F00103 		eor	r3, r3, #1
 859 01fa DBB2     		uxtb	r3, r3
 860 01fc 002B     		cmp	r3, #0
 861 01fe 05D0     		beq	.L50
 194:build/openmote-cc2538_armgcc/openapps/whisper/whisper.c ****       // set the CoAP header
 195:build/openmote-cc2538_armgcc/openapps/whisper/whisper.c ****       outcome                       = E_FAIL;
 862              		.loc 1 195 0
 863 0200 0123     		movs	r3, #1
 864 0202 87F82730 		strb	r3, [r7, #39]
 196:build/openmote-cc2538_armgcc/openapps/whisper/whisper.c ****       coap_header->Code             = COAP_CODE_RESP_CHANGED;
 865              		.loc 1 196 0
 866 0206 BB68     		ldr	r3, [r7, #8]
 867 0208 4422     		movs	r2, #68
 868 020a DA70     		strb	r2, [r3, #3]
 869              	.L50:
 197:build/openmote-cc2538_armgcc/openapps/whisper/whisper.c ****    }
 198:build/openmote-cc2538_armgcc/openapps/whisper/whisper.c ****    openrandom_get16b();
 870              		.loc 1 198 0
 871 020c FFF7FEFF 		bl	openrandom_get16b
 199:build/openmote-cc2538_armgcc/openapps/whisper/whisper.c ****    open_addr_t      NeighborAddress;
 200:build/openmote-cc2538_armgcc/openapps/whisper/whisper.c **** 
 201:build/openmote-cc2538_armgcc/openapps/whisper/whisper.c **** /*   uint8_t whisper_sixp_neigh128[] = {*/
 202:build/openmote-cc2538_armgcc/openapps/whisper/whisper.c **** /*   	0xbb, 0xbb, 0x00, 0x00, 0x00, 0x00, 0x00, 0x00, \*/
 203:build/openmote-cc2538_armgcc/openapps/whisper/whisper.c **** /*   	0x14, 0x15, 0x92, 0xcc, 0x00, 0x00, 0x00, 0x03*/
 204:build/openmote-cc2538_armgcc/openapps/whisper/whisper.c **** /*   };*/
 205:build/openmote-cc2538_armgcc/openapps/whisper/whisper.c ****    //whisper_newParent128[15]=fakedio_getTargetChildren();
 206:build/openmote-cc2538_armgcc/openapps/whisper/whisper.c ****    //memcpy(&(whisper_newParent128[15]),icmpv6rpl_vars.newParent,1);
 207:build/openmote-cc2538_armgcc/openapps/whisper/whisper.c ****    //memcpy(&icmpv6rpl_vars.dioFakeDestination.addr_128b[0],whisper_newParent128,sizeof(whisper_new
 208:build/openmote-cc2538_armgcc/openapps/whisper/whisper.c **** 
 209:build/openmote-cc2538_armgcc/openapps/whisper/whisper.c ****    switch (coap_header->Code) {
 872              		.loc 1 209 0
 873 0210 BB68     		ldr	r3, [r7, #8]
 874 0212 DB78     		ldrb	r3, [r3, #3]	@ zero_extendqisi2
 875 0214 032B     		cmp	r3, #3
 876 0216 3AD1     		bne	.L57
 210:build/openmote-cc2538_armgcc/openapps/whisper/whisper.c ****       case COAP_CODE_REQ_PUT:
 211:build/openmote-cc2538_armgcc/openapps/whisper/whisper.c ****         
 212:build/openmote-cc2538_armgcc/openapps/whisper/whisper.c **** 		if (state==0){	//0 IDLE
 877              		.loc 1 212 0
 878 0218 224B     		ldr	r3, .L58+4
 879 021a 1B78     		ldrb	r3, [r3]	@ zero_extendqisi2
 880 021c 002B     		cmp	r3, #0
 881 021e 24D1     		bne	.L53
 213:build/openmote-cc2538_armgcc/openapps/whisper/whisper.c **** 			//printf("I am WHISPER node %d, received a COAP message to change parent of %d from %d to %d \n"
 214:build/openmote-cc2538_armgcc/openapps/whisper/whisper.c **** 				//sending FAKE DIO
 215:build/openmote-cc2538_armgcc/openapps/whisper/whisper.c **** 			//if ( (msg->payload[0]==120) && (msg->payload[1]==4) && (msg->payload[2]==2) && (msg->payload[3
 216:build/openmote-cc2538_armgcc/openapps/whisper/whisper.c **** 			if ( msg->payload[0]==120) { 	// ord('x')=120 , works only with node 4 changing from 2 to 3
 882              		.loc 1 216 0
 883 0220 FB68     		ldr	r3, [r7, #12]
 884 0222 5B68     		ldr	r3, [r3, #4]
 885 0224 1B78     		ldrb	r3, [r3]	@ zero_extendqisi2
 886 0226 782B     		cmp	r3, #120
 887 0228 15D1     		bne	.L54
 217:build/openmote-cc2538_armgcc/openapps/whisper/whisper.c **** 
 218:build/openmote-cc2538_armgcc/openapps/whisper/whisper.c **** 				whisper_setTargetChildren(msg->payload[1]);
 888              		.loc 1 218 0
 889 022a FB68     		ldr	r3, [r7, #12]
 890 022c 5B68     		ldr	r3, [r3, #4]
 891 022e 0133     		adds	r3, r3, #1
 892 0230 1B78     		ldrb	r3, [r3]	@ zero_extendqisi2
 893 0232 1846     		mov	r0, r3
 894 0234 FFF7FEFF 		bl	whisper_setTargetChildren
 219:build/openmote-cc2538_armgcc/openapps/whisper/whisper.c **** 				whisper_setTargetParentOld(msg->payload[2]);
 895              		.loc 1 219 0
 896 0238 FB68     		ldr	r3, [r7, #12]
 897 023a 5B68     		ldr	r3, [r3, #4]
 898 023c 0233     		adds	r3, r3, #2
 899 023e 1B78     		ldrb	r3, [r3]	@ zero_extendqisi2
 900 0240 1846     		mov	r0, r3
 901 0242 FFF7FEFF 		bl	whisper_setTargetParentOld
 220:build/openmote-cc2538_armgcc/openapps/whisper/whisper.c **** 				whisper_setTargetParentNew(msg->payload[3]);
 902              		.loc 1 220 0
 903 0246 FB68     		ldr	r3, [r7, #12]
 904 0248 5B68     		ldr	r3, [r3, #4]
 905 024a 0333     		adds	r3, r3, #3
 906 024c 1B78     		ldrb	r3, [r3]	@ zero_extendqisi2
 907 024e 1846     		mov	r0, r3
 908 0250 FFF7FEFF 		bl	whisper_setTargetParentNew
 909 0254 09E0     		b	.L53
 910              	.L54:
 221:build/openmote-cc2538_armgcc/openapps/whisper/whisper.c **** 
 222:build/openmote-cc2538_armgcc/openapps/whisper/whisper.c **** 				//printf("I am WISHPER node %d, First, adding cells between %d and its new parent %d  \n", idma
 223:build/openmote-cc2538_armgcc/openapps/whisper/whisper.c **** 				//printf("I am WISHPER node %d, Sending DIO to 3. My rank is %d \n", idmanager_getMyID(ADDR_64B
 224:build/openmote-cc2538_armgcc/openapps/whisper/whisper.c **** 				//first add cells in new parent
 225:build/openmote-cc2538_armgcc/openapps/whisper/whisper.c **** 				//only used for set the roles, the dio is trigger over openvisualizer
 226:build/openmote-cc2538_armgcc/openapps/whisper/whisper.c **** 
 227:build/openmote-cc2538_armgcc/openapps/whisper/whisper.c **** 
 228:build/openmote-cc2538_armgcc/openapps/whisper/whisper.c **** //				 for (i=0;i<MAXNUMNEIGHBORS;i++) {
 229:build/openmote-cc2538_armgcc/openapps/whisper/whisper.c **** //					if (neighbors_getNeighborEui64(&NeighborAddress, ADDR_64B, i)) { // this neighbor entry is i
 230:build/openmote-cc2538_armgcc/openapps/whisper/whisper.c **** //						if (NeighborAddress.addr_64b[7] == whisper_getTargetParentNew()){
 231:build/openmote-cc2538_armgcc/openapps/whisper/whisper.c **** //							//printf("Node %d is my neighbor I am going to send him a Fake 6P message\n",NeighborAddre
 232:build/openmote-cc2538_armgcc/openapps/whisper/whisper.c **** //							whisper_setFakeSource(whisper_getTargetChildren());
 233:build/openmote-cc2538_armgcc/openapps/whisper/whisper.c **** //							//printf("with source address  %d\n",whisper_getFakeSource());
 234:build/openmote-cc2538_armgcc/openapps/whisper/whisper.c **** //							 // call sixtop
 235:build/openmote-cc2538_armgcc/openapps/whisper/whisper.c **** //							leds_debug_toggle();
 236:build/openmote-cc2538_armgcc/openapps/whisper/whisper.c **** //							 outcome = sixtop_request(
 237:build/openmote-cc2538_armgcc/openapps/whisper/whisper.c **** //								IANA_6TOP_CMD_ADD,                  // code
 238:build/openmote-cc2538_armgcc/openapps/whisper/whisper.c **** //								&NeighborAddress,                   // neighbor
 239:build/openmote-cc2538_armgcc/openapps/whisper/whisper.c **** //								1,                                  // number cells
 240:build/openmote-cc2538_armgcc/openapps/whisper/whisper.c **** //								CELLOPTIONS_MSF,                    // cellOptions
 241:build/openmote-cc2538_armgcc/openapps/whisper/whisper.c **** //								celllist_add,                       // celllist to add
 242:build/openmote-cc2538_armgcc/openapps/whisper/whisper.c **** //								NULL,                               // celllist to delete (not used)
 243:build/openmote-cc2538_armgcc/openapps/whisper/whisper.c **** //								5,                      		    // sfid 5, means whsiper
 244:build/openmote-cc2538_armgcc/openapps/whisper/whisper.c **** //								0,                                  // list command offset (not used)
 245:build/openmote-cc2538_armgcc/openapps/whisper/whisper.c **** //								0                                   // list command maximum celllist (not used)
 246:build/openmote-cc2538_armgcc/openapps/whisper/whisper.c **** //							 );
 247:build/openmote-cc2538_armgcc/openapps/whisper/whisper.c **** //							 i=100;
 248:build/openmote-cc2538_armgcc/openapps/whisper/whisper.c **** //							 whisper_setState(1);//1 Sending first 6P add
 249:build/openmote-cc2538_armgcc/openapps/whisper/whisper.c **** //						}
 250:build/openmote-cc2538_armgcc/openapps/whisper/whisper.c **** //					}
 251:build/openmote-cc2538_armgcc/openapps/whisper/whisper.c **** //				 }
 252:build/openmote-cc2538_armgcc/openapps/whisper/whisper.c **** //				//whisper_setState(1);
 253:build/openmote-cc2538_armgcc/openapps/whisper/whisper.c **** //				whisper_trigger_nextStep();
 254:build/openmote-cc2538_armgcc/openapps/whisper/whisper.c **** 
 255:build/openmote-cc2538_armgcc/openapps/whisper/whisper.c **** 			}else{
 256:build/openmote-cc2538_armgcc/openapps/whisper/whisper.c **** 				//skipping 6P
 257:build/openmote-cc2538_armgcc/openapps/whisper/whisper.c **** //				if ( msg->payload[0]==122) {
 258:build/openmote-cc2538_armgcc/openapps/whisper/whisper.c **** //					whisper_setState(2);
 259:build/openmote-cc2538_armgcc/openapps/whisper/whisper.c **** //					whisper_trigger_nextStep();
 260:build/openmote-cc2538_armgcc/openapps/whisper/whisper.c **** //				}
 261:build/openmote-cc2538_armgcc/openapps/whisper/whisper.c **** 
 262:build/openmote-cc2538_armgcc/openapps/whisper/whisper.c **** 				//printf("I am WISHPER node %d, end operation (bad Coap request: format -> x,source,oldParent,n
 263:build/openmote-cc2538_armgcc/openapps/whisper/whisper.c **** 			    outcome                       = E_FAIL;
 911              		.loc 1 263 0
 912 0256 0123     		movs	r3, #1
 913 0258 87F82730 		strb	r3, [r7, #39]
 264:build/openmote-cc2538_armgcc/openapps/whisper/whisper.c **** 			    coap_header->Code             = COAP_CODE_RESP_CHANGED;
 914              		.loc 1 264 0
 915 025c BB68     		ldr	r3, [r7, #8]
 916 025e 4422     		movs	r2, #68
 917 0260 DA70     		strb	r2, [r3, #3]
 265:build/openmote-cc2538_armgcc/openapps/whisper/whisper.c **** 				whisper_setState(0);	//back to IDLE
 918              		.loc 1 265 0
 919 0262 0020     		movs	r0, #0
 920 0264 FFF7FEFF 		bl	whisper_setState
 266:build/openmote-cc2538_armgcc/openapps/whisper/whisper.c **** 				break;
 921              		.loc 1 266 0
 922 0268 14E0     		b	.L55
 923              	.L53:
 267:build/openmote-cc2538_armgcc/openapps/whisper/whisper.c **** 			}
 268:build/openmote-cc2538_armgcc/openapps/whisper/whisper.c **** 		}
 269:build/openmote-cc2538_armgcc/openapps/whisper/whisper.c **** //		else{
 270:build/openmote-cc2538_armgcc/openapps/whisper/whisper.c **** //			printf("I am WISHPER node %d, received COAP message, not idle. State = %d \n", idmanager_getMy
 271:build/openmote-cc2538_armgcc/openapps/whisper/whisper.c **** //		}
 272:build/openmote-cc2538_armgcc/openapps/whisper/whisper.c **** 		whisper_setState(0);
 924              		.loc 1 272 0
 925 026a 0020     		movs	r0, #0
 926 026c FFF7FEFF 		bl	whisper_setState
 273:build/openmote-cc2538_armgcc/openapps/whisper/whisper.c **** 		//printf("Done COAP\n");
 274:build/openmote-cc2538_armgcc/openapps/whisper/whisper.c ****         //=== reset packet payload (we will reuse this packetBuffer)
 275:build/openmote-cc2538_armgcc/openapps/whisper/whisper.c ****         msg->payload                     = &(msg->packet[127]);
 927              		.loc 1 275 0
 928 0270 FB68     		ldr	r3, [r7, #12]
 929 0272 03F23F12 		addw	r2, r3, #319
 930 0276 FB68     		ldr	r3, [r7, #12]
 931 0278 5A60     		str	r2, [r3, #4]
 276:build/openmote-cc2538_armgcc/openapps/whisper/whisper.c ****         msg->length                      = 0;
 932              		.loc 1 276 0
 933 027a FB68     		ldr	r3, [r7, #12]
 934 027c 0022     		movs	r2, #0
 935 027e 1A72     		strb	r2, [r3, #8]
 277:build/openmote-cc2538_armgcc/openapps/whisper/whisper.c ****                  
 278:build/openmote-cc2538_armgcc/openapps/whisper/whisper.c ****         // set the CoAP header
 279:build/openmote-cc2538_armgcc/openapps/whisper/whisper.c ****         coap_header->Code                = COAP_CODE_RESP_CONTENT;
 936              		.loc 1 279 0
 937 0280 BB68     		ldr	r3, [r7, #8]
 938 0282 4522     		movs	r2, #69
 939 0284 DA70     		strb	r2, [r3, #3]
 280:build/openmote-cc2538_armgcc/openapps/whisper/whisper.c ****          
 281:build/openmote-cc2538_armgcc/openapps/whisper/whisper.c ****         outcome                          = E_SUCCESS;
 940              		.loc 1 281 0
 941 0286 0023     		movs	r3, #0
 942 0288 87F82730 		strb	r3, [r7, #39]
 282:build/openmote-cc2538_armgcc/openapps/whisper/whisper.c ****         break;
 943              		.loc 1 282 0
 944 028c 02E0     		b	.L55
 945              	.L57:
 283:build/openmote-cc2538_armgcc/openapps/whisper/whisper.c ****       default:
 284:build/openmote-cc2538_armgcc/openapps/whisper/whisper.c ****     	 //printf("I am WISHPER node %d, end operation (no cells in first 6P message)\n",idmanager_get
 285:build/openmote-cc2538_armgcc/openapps/whisper/whisper.c ****          // return an error message
 286:build/openmote-cc2538_armgcc/openapps/whisper/whisper.c ****          outcome = E_FAIL;
 946              		.loc 1 286 0
 947 028e 0123     		movs	r3, #1
 948 0290 87F82730 		strb	r3, [r7, #39]
 949              	.L55:
 287:build/openmote-cc2538_armgcc/openapps/whisper/whisper.c ****    }
 288:build/openmote-cc2538_armgcc/openapps/whisper/whisper.c ****    
 289:build/openmote-cc2538_armgcc/openapps/whisper/whisper.c ****    return outcome;
 950              		.loc 1 289 0
 951 0294 97F82730 		ldrb	r3, [r7, #39]	@ zero_extendqisi2
 290:build/openmote-cc2538_armgcc/openapps/whisper/whisper.c **** }
 952              		.loc 1 290 0
 953 0298 1846     		mov	r0, r3
 954 029a 2837     		adds	r7, r7, #40
 955              		.cfi_def_cfa_offset 8
 956 029c BD46     		mov	sp, r7
 957              		.cfi_def_cfa_register 13
 958              		@ sp needed
 959 029e 80BD     		pop	{r7, pc}
 960              	.L59:
 961              		.align	2
 962              	.L58:
 963 02a0 00000000 		.word	celllist_add
 964 02a4 00000000 		.word	state
 965              		.cfi_endproc
 966              	.LFE13:
 968              		.align	2
 969              		.global	whisper_trigger_nextStep
 970              		.thumb
 971              		.thumb_func
 973              	whisper_trigger_nextStep:
 974              	.LFB14:
 291:build/openmote-cc2538_armgcc/openapps/whisper/whisper.c **** 
 292:build/openmote-cc2538_armgcc/openapps/whisper/whisper.c **** 
 293:build/openmote-cc2538_armgcc/openapps/whisper/whisper.c **** void whisper_trigger_nextStep(void){
 975              		.loc 1 293 0
 976              		.cfi_startproc
 977              		@ args = 0, pretend = 0, frame = 32
 978              		@ frame_needed = 1, uses_anonymous_args = 0
 979 02a8 90B5     		push	{r4, r7, lr}
 980              		.cfi_def_cfa_offset 12
 981              		.cfi_offset 4, -12
 982              		.cfi_offset 7, -8
 983              		.cfi_offset 14, -4
 984 02aa 8BB0     		sub	sp, sp, #44
 985              		.cfi_def_cfa_offset 56
 986 02ac 02AF     		add	r7, sp, #8
 987              		.cfi_def_cfa 7, 48
 294:build/openmote-cc2538_armgcc/openapps/whisper/whisper.c **** 
 295:build/openmote-cc2538_armgcc/openapps/whisper/whisper.c **** 	//bool          res=0;
 296:build/openmote-cc2538_armgcc/openapps/whisper/whisper.c **** 	open_addr_t      NeighborAddress;
 297:build/openmote-cc2538_armgcc/openapps/whisper/whisper.c **** 	uint8_t          i;
 298:build/openmote-cc2538_armgcc/openapps/whisper/whisper.c **** 	cellInfo_ht   celllist_del[1];
 299:build/openmote-cc2538_armgcc/openapps/whisper/whisper.c **** 
 300:build/openmote-cc2538_armgcc/openapps/whisper/whisper.c **** 	//printf("I am WHISPER node %d, next STEP \n", idmanager_getMyID(ADDR_64B)->addr_64b[7]);
 301:build/openmote-cc2538_armgcc/openapps/whisper/whisper.c **** 	switch (whisper_getState()){
 988              		.loc 1 301 0
 989 02ae FFF7FEFF 		bl	whisper_getState
 990 02b2 0346     		mov	r3, r0
 991 02b4 013B     		subs	r3, r3, #1
 992 02b6 042B     		cmp	r3, #4
 993 02b8 00F28880 		bhi	.L75
 994 02bc 01A2     		adr	r2, .L63
 995 02be 52F823F0 		ldr	pc, [r2, r3, lsl #2]
 996 02c2 00BF     		.p2align 2
 997              	.L63:
 998 02c4 D9020000 		.word	.L62+1
 999 02c8 F5020000 		.word	.L64+1
 1000 02cc 11030000 		.word	.L65+1
 1001 02d0 1D030000 		.word	.L66+1
 1002 02d4 35030000 		.word	.L67+1
 1003              		.p2align 1
 1004              	.L62:
 1005              	.LBB2:
 302:build/openmote-cc2538_armgcc/openapps/whisper/whisper.c **** 	case 1: //another 6P add
 303:build/openmote-cc2538_armgcc/openapps/whisper/whisper.c **** 		//printf("I am WHISPER node %d, next STEP is send second 6P add timer id %d \n", idmanager_getMyI
 304:build/openmote-cc2538_armgcc/openapps/whisper/whisper.c **** 		leds_debug_toggle();
 1006              		.loc 1 304 0
 1007 02d8 FFF7FEFF 		bl	leds_debug_toggle
 305:build/openmote-cc2538_armgcc/openapps/whisper/whisper.c **** 		 //whisper_vars.timerIdSixp = opentimers_create();
 306:build/openmote-cc2538_armgcc/openapps/whisper/whisper.c **** 		   opentimers_scheduleIn(
 1008              		.loc 1 306 0
 1009 02dc 3E4B     		ldr	r3, .L77
 1010 02de 93F83800 		ldrb	r0, [r3, #56]	@ zero_extendqisi2
 1011 02e2 3E4B     		ldr	r3, .L77+4
 1012 02e4 0093     		str	r3, [sp]
 1013 02e6 0123     		movs	r3, #1
 1014 02e8 0022     		movs	r2, #0
 1015 02ea 42F21071 		movw	r1, #10000
 1016 02ee FFF7FEFF 		bl	opentimers_scheduleIn
 307:build/openmote-cc2538_armgcc/openapps/whisper/whisper.c **** 			   whisper_vars.timerIdWhisper,
 308:build/openmote-cc2538_armgcc/openapps/whisper/whisper.c **** 			   10000,
 309:build/openmote-cc2538_armgcc/openapps/whisper/whisper.c **** 			   TIME_MS,
 310:build/openmote-cc2538_armgcc/openapps/whisper/whisper.c **** 			   TIMER_ONESHOT,
 311:build/openmote-cc2538_armgcc/openapps/whisper/whisper.c **** 			   whisper_timer_cb
 312:build/openmote-cc2538_armgcc/openapps/whisper/whisper.c **** 		   );
 313:build/openmote-cc2538_armgcc/openapps/whisper/whisper.c **** 		   break;
 1017              		.loc 1 313 0
 1018 02f2 6CE0     		b	.L68
 1019              	.L64:
 314:build/openmote-cc2538_armgcc/openapps/whisper/whisper.c **** 	case 2:	//send RPL fake DIOs
 315:build/openmote-cc2538_armgcc/openapps/whisper/whisper.c **** 		leds_debug_toggle();
 1020              		.loc 1 315 0
 1021 02f4 FFF7FEFF 		bl	leds_debug_toggle
 316:build/openmote-cc2538_armgcc/openapps/whisper/whisper.c **** 		//whisper_vars.timerIdRpl = opentimers_create();
 317:build/openmote-cc2538_armgcc/openapps/whisper/whisper.c **** 		//printf("I am WHISPER node %d, NEXT step starting RPL timer id %d \n", idmanager_getMyID(ADDR_64
 318:build/openmote-cc2538_armgcc/openapps/whisper/whisper.c **** 
 319:build/openmote-cc2538_armgcc/openapps/whisper/whisper.c **** 		   opentimers_scheduleIn(
 1022              		.loc 1 319 0
 1023 02f8 374B     		ldr	r3, .L77
 1024 02fa 93F83800 		ldrb	r0, [r3, #56]	@ zero_extendqisi2
 1025 02fe 384B     		ldr	r3, .L77+8
 1026 0300 0093     		str	r3, [sp]
 1027 0302 0123     		movs	r3, #1
 1028 0304 0022     		movs	r2, #0
 1029 0306 42F21071 		movw	r1, #10000
 1030 030a FFF7FEFF 		bl	opentimers_scheduleIn
 320:build/openmote-cc2538_armgcc/openapps/whisper/whisper.c **** 			   whisper_vars.timerIdWhisper,
 321:build/openmote-cc2538_armgcc/openapps/whisper/whisper.c **** 			   10000,
 322:build/openmote-cc2538_armgcc/openapps/whisper/whisper.c **** 			   TIME_MS,
 323:build/openmote-cc2538_armgcc/openapps/whisper/whisper.c **** 			   TIMER_ONESHOT,
 324:build/openmote-cc2538_armgcc/openapps/whisper/whisper.c **** 			   whisper_timer_cb2
 325:build/openmote-cc2538_armgcc/openapps/whisper/whisper.c **** 		   );
 326:build/openmote-cc2538_armgcc/openapps/whisper/whisper.c **** 		  break;
 1031              		.loc 1 326 0
 1032 030e 5EE0     		b	.L68
 1033              	.L65:
 327:build/openmote-cc2538_armgcc/openapps/whisper/whisper.c **** 	case 3: //first 6P clear
 328:build/openmote-cc2538_armgcc/openapps/whisper/whisper.c **** 		//whisper_vars.timerIdSixp2 = opentimers_create();
 329:build/openmote-cc2538_armgcc/openapps/whisper/whisper.c **** 		//printf("I am WHISPER node %d, next STEP clear 1 time id %d \n", idmanager_getMyID(ADDR_64B)->ad
 330:build/openmote-cc2538_armgcc/openapps/whisper/whisper.c **** 		leds_debug_toggle();
 1034              		.loc 1 330 0
 1035 0310 FFF7FEFF 		bl	leds_debug_toggle
 331:build/openmote-cc2538_armgcc/openapps/whisper/whisper.c **** 
 332:build/openmote-cc2538_armgcc/openapps/whisper/whisper.c **** 		//no Clearing for the moment
 333:build/openmote-cc2538_armgcc/openapps/whisper/whisper.c **** 		whisper_setState(0);
 1036              		.loc 1 333 0
 1037 0314 0020     		movs	r0, #0
 1038 0316 FFF7FEFF 		bl	whisper_setState
 334:build/openmote-cc2538_armgcc/openapps/whisper/whisper.c **** //		   opentimers_scheduleIn(
 335:build/openmote-cc2538_armgcc/openapps/whisper/whisper.c **** //			   whisper_vars.timerIdWhisper,
 336:build/openmote-cc2538_armgcc/openapps/whisper/whisper.c **** //			   10000,
 337:build/openmote-cc2538_armgcc/openapps/whisper/whisper.c **** //			   TIME_MS,
 338:build/openmote-cc2538_armgcc/openapps/whisper/whisper.c **** //			   TIMER_ONESHOT,
 339:build/openmote-cc2538_armgcc/openapps/whisper/whisper.c **** //			   whisper_timer_cb3
 340:build/openmote-cc2538_armgcc/openapps/whisper/whisper.c **** //		   );
 341:build/openmote-cc2538_armgcc/openapps/whisper/whisper.c **** 
 342:build/openmote-cc2538_armgcc/openapps/whisper/whisper.c **** 
 343:build/openmote-cc2538_armgcc/openapps/whisper/whisper.c **** 		   break;
 1039              		.loc 1 343 0
 1040 031a 58E0     		b	.L68
 1041              	.L66:
 344:build/openmote-cc2538_armgcc/openapps/whisper/whisper.c **** 	case 4: //another 6P clear
 345:build/openmote-cc2538_armgcc/openapps/whisper/whisper.c **** 		//whisper_vars.timerIdSixp3 = opentimers_create();
 346:build/openmote-cc2538_armgcc/openapps/whisper/whisper.c **** 	     //printf("I am WHISPER node %d, next STEP clear 2 timer id %d\n", idmanager_getMyID(ADDR_64B)
 347:build/openmote-cc2538_armgcc/openapps/whisper/whisper.c **** 
 348:build/openmote-cc2538_armgcc/openapps/whisper/whisper.c **** 		   opentimers_scheduleIn(
 1042              		.loc 1 348 0
 1043 031c 2E4B     		ldr	r3, .L77
 1044 031e 93F83800 		ldrb	r0, [r3, #56]	@ zero_extendqisi2
 1045 0322 304B     		ldr	r3, .L77+12
 1046 0324 0093     		str	r3, [sp]
 1047 0326 0123     		movs	r3, #1
 1048 0328 0022     		movs	r2, #0
 1049 032a 42F21071 		movw	r1, #10000
 1050 032e FFF7FEFF 		bl	opentimers_scheduleIn
 349:build/openmote-cc2538_armgcc/openapps/whisper/whisper.c **** 			   whisper_vars.timerIdWhisper,
 350:build/openmote-cc2538_armgcc/openapps/whisper/whisper.c **** 			   10000,
 351:build/openmote-cc2538_armgcc/openapps/whisper/whisper.c **** 			   TIME_MS,
 352:build/openmote-cc2538_armgcc/openapps/whisper/whisper.c **** 			   TIMER_ONESHOT,
 353:build/openmote-cc2538_armgcc/openapps/whisper/whisper.c **** 			   whisper_timer_cb4
 354:build/openmote-cc2538_armgcc/openapps/whisper/whisper.c **** 		   );
 355:build/openmote-cc2538_armgcc/openapps/whisper/whisper.c **** 		   break;
 1051              		.loc 1 355 0
 1052 0332 4CE0     		b	.L68
 1053              	.L67:
 356:build/openmote-cc2538_armgcc/openapps/whisper/whisper.c **** 	case 5:
 357:build/openmote-cc2538_armgcc/openapps/whisper/whisper.c **** 
 358:build/openmote-cc2538_armgcc/openapps/whisper/whisper.c **** 		//printf("I am WHISPER node %d, FINISHED, but first I add 1 cell to fake-ack!! \n", idmanager_get
 359:build/openmote-cc2538_armgcc/openapps/whisper/whisper.c **** 		for (i=0;i<MAXNUMNEIGHBORS;i++) {
 1054              		.loc 1 359 0
 1055 0334 0023     		movs	r3, #0
 1056 0336 FB77     		strb	r3, [r7, #31]
 1057 0338 12E0     		b	.L69
 1058              	.L72:
 360:build/openmote-cc2538_armgcc/openapps/whisper/whisper.c **** 					if (neighbors_getNeighborEui64(&NeighborAddress, ADDR_64B, i)) { // this neighbor entry is in 
 1059              		.loc 1 360 0
 1060 033a FA7F     		ldrb	r2, [r7, #31]	@ zero_extendqisi2
 1061 033c 07F10C03 		add	r3, r7, #12
 1062 0340 0221     		movs	r1, #2
 1063 0342 1846     		mov	r0, r3
 1064 0344 FFF7FEFF 		bl	neighbors_getNeighborEui64
 1065 0348 0346     		mov	r3, r0
 1066 034a 002B     		cmp	r3, #0
 1067 034c 05D0     		beq	.L70
 361:build/openmote-cc2538_armgcc/openapps/whisper/whisper.c **** 						if (NeighborAddress.addr_64b[7] == whisper_getTargetParentOld()){
 1068              		.loc 1 361 0
 1069 034e 3C7D     		ldrb	r4, [r7, #20]	@ zero_extendqisi2
 1070 0350 FFF7FEFF 		bl	whisper_getTargetParentOld
 1071 0354 0346     		mov	r3, r0
 1072 0356 9C42     		cmp	r4, r3
 1073 0358 06D0     		beq	.L76
 1074              	.L70:
 359:build/openmote-cc2538_armgcc/openapps/whisper/whisper.c **** 					if (neighbors_getNeighborEui64(&NeighborAddress, ADDR_64B, i)) { // this neighbor entry is in 
 1075              		.loc 1 359 0 discriminator 2
 1076 035a FB7F     		ldrb	r3, [r7, #31]	@ zero_extendqisi2
 1077 035c 0133     		adds	r3, r3, #1
 1078 035e FB77     		strb	r3, [r7, #31]
 1079              	.L69:
 359:build/openmote-cc2538_armgcc/openapps/whisper/whisper.c **** 					if (neighbors_getNeighborEui64(&NeighborAddress, ADDR_64B, i)) { // this neighbor entry is in 
 1080              		.loc 1 359 0 is_stmt 0 discriminator 1
 1081 0360 FB7F     		ldrb	r3, [r7, #31]	@ zero_extendqisi2
 1082 0362 1D2B     		cmp	r3, #29
 1083 0364 E9D9     		bls	.L72
 1084 0366 00E0     		b	.L71
 1085              	.L76:
 362:build/openmote-cc2538_armgcc/openapps/whisper/whisper.c **** 							//printf("Node %d is my neighbor I am going to enable a fake cell \n",NeighborAddress.addr_6
 363:build/openmote-cc2538_armgcc/openapps/whisper/whisper.c **** 							break;
 1086              		.loc 1 363 0 is_stmt 1
 1087 0368 00BF     		nop
 1088              	.L71:
 364:build/openmote-cc2538_armgcc/openapps/whisper/whisper.c **** 						}
 365:build/openmote-cc2538_armgcc/openapps/whisper/whisper.c **** 					}
 366:build/openmote-cc2538_armgcc/openapps/whisper/whisper.c **** 		}
 367:build/openmote-cc2538_armgcc/openapps/whisper/whisper.c **** 
 368:build/openmote-cc2538_armgcc/openapps/whisper/whisper.c **** 		memset(celllist_del,0,101*sizeof(cellInfo_ht));
 1089              		.loc 1 368 0
 1090 036a 3B1D     		adds	r3, r7, #4
 1091 036c 40F2F912 		movw	r2, #505
 1092 0370 0021     		movs	r1, #0
 1093 0372 1846     		mov	r0, r3
 1094 0374 FFF7FEFF 		bl	memset
 369:build/openmote-cc2538_armgcc/openapps/whisper/whisper.c **** 		celllist_del[0].slotoffset       = 5;
 1095              		.loc 1 369 0
 1096 0378 0023     		movs	r3, #0
 1097 037a 43F00503 		orr	r3, r3, #5
 1098 037e 7B71     		strb	r3, [r7, #5]
 1099 0380 0023     		movs	r3, #0
 1100 0382 BB71     		strb	r3, [r7, #6]
 370:build/openmote-cc2538_armgcc/openapps/whisper/whisper.c **** 		celllist_del[0].channeloffset    = 0x0A;
 1101              		.loc 1 370 0
 1102 0384 0023     		movs	r3, #0
 1103 0386 43F00A03 		orr	r3, r3, #10
 1104 038a FB71     		strb	r3, [r7, #7]
 1105 038c 0023     		movs	r3, #0
 1106 038e 3B72     		strb	r3, [r7, #8]
 371:build/openmote-cc2538_armgcc/openapps/whisper/whisper.c **** 		celllist_del[0].isUsed           = TRUE;
 1107              		.loc 1 371 0
 1108 0390 0123     		movs	r3, #1
 1109 0392 3B71     		strb	r3, [r7, #4]
 372:build/openmote-cc2538_armgcc/openapps/whisper/whisper.c **** 
 373:build/openmote-cc2538_armgcc/openapps/whisper/whisper.c **** //        res=sixtop_addCells(
 374:build/openmote-cc2538_armgcc/openapps/whisper/whisper.c **** //            0,
 375:build/openmote-cc2538_armgcc/openapps/whisper/whisper.c **** //			celllist_del,
 376:build/openmote-cc2538_armgcc/openapps/whisper/whisper.c **** //            &NeighborAddress,
 377:build/openmote-cc2538_armgcc/openapps/whisper/whisper.c **** //			CELLOPTIONS_MSF
 378:build/openmote-cc2538_armgcc/openapps/whisper/whisper.c **** //        );
 379:build/openmote-cc2538_armgcc/openapps/whisper/whisper.c **** 
 380:build/openmote-cc2538_armgcc/openapps/whisper/whisper.c ****         schedule_addActiveSlot(
 1110              		.loc 1 380 0
 1111 0394 B7F80530 		ldrh	r3, [r7, #5]	@ unaligned
 1112 0398 98B2     		uxth	r0, r3
 381:build/openmote-cc2538_armgcc/openapps/whisper/whisper.c ****         		celllist_del[0].slotoffset,
 382:build/openmote-cc2538_armgcc/openapps/whisper/whisper.c **** 			CELLTYPE_TXRX,
 383:build/openmote-cc2538_armgcc/openapps/whisper/whisper.c ****             TRUE,
 384:build/openmote-cc2538_armgcc/openapps/whisper/whisper.c **** 			celllist_del[0].channeloffset,
 1113              		.loc 1 384 0
 1114 039a B7F80730 		ldrh	r3, [r7, #7]	@ unaligned
 1115 039e 9BB2     		uxth	r3, r3
 380:build/openmote-cc2538_armgcc/openapps/whisper/whisper.c ****         		celllist_del[0].slotoffset,
 1116              		.loc 1 380 0
 1117 03a0 DAB2     		uxtb	r2, r3
 1118 03a2 07F10C03 		add	r3, r7, #12
 1119 03a6 0093     		str	r3, [sp]
 1120 03a8 1346     		mov	r3, r2
 1121 03aa 0122     		movs	r2, #1
 1122 03ac 0321     		movs	r1, #3
 1123 03ae FFF7FEFF 		bl	schedule_addActiveSlot
 385:build/openmote-cc2538_armgcc/openapps/whisper/whisper.c ****             &NeighborAddress
 386:build/openmote-cc2538_armgcc/openapps/whisper/whisper.c ****         );
 387:build/openmote-cc2538_armgcc/openapps/whisper/whisper.c **** 
 388:build/openmote-cc2538_armgcc/openapps/whisper/whisper.c ****         for (i=0;i<MAXNUMNEIGHBORS;i++) {
 1124              		.loc 1 388 0
 1125 03b2 0023     		movs	r3, #0
 1126 03b4 FB77     		strb	r3, [r7, #31]
 1127 03b6 02E0     		b	.L73
 1128              	.L74:
 1129              		.loc 1 388 0 is_stmt 0 discriminator 3
 1130 03b8 FB7F     		ldrb	r3, [r7, #31]	@ zero_extendqisi2
 1131 03ba 0133     		adds	r3, r3, #1
 1132 03bc FB77     		strb	r3, [r7, #31]
 1133              	.L73:
 1134              		.loc 1 388 0 discriminator 1
 1135 03be FB7F     		ldrb	r3, [r7, #31]	@ zero_extendqisi2
 1136 03c0 1D2B     		cmp	r3, #29
 1137 03c2 F9D9     		bls	.L74
 389:build/openmote-cc2538_armgcc/openapps/whisper/whisper.c **** 
 390:build/openmote-cc2538_armgcc/openapps/whisper/whisper.c ****         }
 391:build/openmote-cc2538_armgcc/openapps/whisper/whisper.c **** 
 392:build/openmote-cc2538_armgcc/openapps/whisper/whisper.c **** 
 393:build/openmote-cc2538_armgcc/openapps/whisper/whisper.c **** //        if (res){
 394:build/openmote-cc2538_armgcc/openapps/whisper/whisper.c **** //        	printf("I am WHISPER node %d, Adding fake cell ok \n", idmanager_getMyID(ADDR_64B)->addr
 395:build/openmote-cc2538_armgcc/openapps/whisper/whisper.c **** //        }else{
 396:build/openmote-cc2538_armgcc/openapps/whisper/whisper.c **** //        	printf("I am WHISPER node %d, Adding fake cell NOK \n", idmanager_getMyID(ADDR_64B)->add
 397:build/openmote-cc2538_armgcc/openapps/whisper/whisper.c **** //        }
 398:build/openmote-cc2538_armgcc/openapps/whisper/whisper.c ****         whisper_setState(6);
 1138              		.loc 1 398 0 is_stmt 1
 1139 03c4 0620     		movs	r0, #6
 1140 03c6 FFF7FEFF 		bl	whisper_setState
 399:build/openmote-cc2538_armgcc/openapps/whisper/whisper.c **** 		//whisper_setState(0); //0 IDLE
 400:build/openmote-cc2538_armgcc/openapps/whisper/whisper.c **** 		break;
 1141              		.loc 1 400 0
 1142 03ca 00E0     		b	.L68
 1143              	.L75:
 401:build/openmote-cc2538_armgcc/openapps/whisper/whisper.c **** 	default:
 402:build/openmote-cc2538_armgcc/openapps/whisper/whisper.c **** 		break;
 1144              		.loc 1 402 0
 1145 03cc 00BF     		nop
 1146              	.L68:
 1147              	.LBE2:
 403:build/openmote-cc2538_armgcc/openapps/whisper/whisper.c **** 		//
 404:build/openmote-cc2538_armgcc/openapps/whisper/whisper.c **** 		//printf("ERROR\n");
 405:build/openmote-cc2538_armgcc/openapps/whisper/whisper.c **** 	}
 406:build/openmote-cc2538_armgcc/openapps/whisper/whisper.c **** 
 407:build/openmote-cc2538_armgcc/openapps/whisper/whisper.c **** }
 1148              		.loc 1 407 0 discriminator 1
 1149 03ce 00BF     		nop
 1150 03d0 2437     		adds	r7, r7, #36
 1151              		.cfi_def_cfa_offset 12
 1152 03d2 BD46     		mov	sp, r7
 1153              		.cfi_def_cfa_register 13
 1154              		@ sp needed
 1155 03d4 90BD     		pop	{r4, r7, pc}
 1156              	.L78:
 1157 03d6 00BF     		.align	2
 1158              	.L77:
 1159 03d8 00000000 		.word	whisper_vars
 1160 03dc 00000000 		.word	whisper_timer_cb
 1161 03e0 00000000 		.word	whisper_timer_cb2
 1162 03e4 00000000 		.word	whisper_timer_cb4
 1163              		.cfi_endproc
 1164              	.LFE14:
 1166              		.align	2
 1167              		.global	whisper_timer_cb
 1168              		.thumb
 1169              		.thumb_func
 1171              	whisper_timer_cb:
 1172              	.LFB15:
 408:build/openmote-cc2538_armgcc/openapps/whisper/whisper.c **** 
 409:build/openmote-cc2538_armgcc/openapps/whisper/whisper.c **** /**
 410:build/openmote-cc2538_armgcc/openapps/whisper/whisper.c **** \note timer fired, but we don't want to execute task in ISR mode instead, push
 411:build/openmote-cc2538_armgcc/openapps/whisper/whisper.c ****    task to scheduler with CoAP priority, and let scheduler take care of it.
 412:build/openmote-cc2538_armgcc/openapps/whisper/whisper.c **** */
 413:build/openmote-cc2538_armgcc/openapps/whisper/whisper.c **** void whisper_timer_cb(opentimers_id_t id){
 1173              		.loc 1 413 0
 1174              		.cfi_startproc
 1175              		@ args = 0, pretend = 0, frame = 8
 1176              		@ frame_needed = 1, uses_anonymous_args = 0
 1177 03e8 80B5     		push	{r7, lr}
 1178              		.cfi_def_cfa_offset 8
 1179              		.cfi_offset 7, -8
 1180              		.cfi_offset 14, -4
 1181 03ea 82B0     		sub	sp, sp, #8
 1182              		.cfi_def_cfa_offset 16
 1183 03ec 00AF     		add	r7, sp, #0
 1184              		.cfi_def_cfa_register 7
 1185 03ee 0346     		mov	r3, r0
 1186 03f0 FB71     		strb	r3, [r7, #7]
 414:build/openmote-cc2538_armgcc/openapps/whisper/whisper.c **** 
 415:build/openmote-cc2538_armgcc/openapps/whisper/whisper.c ****    scheduler_push_task(whisper_task_cb,TASKPRIO_COAP);
 1187              		.loc 1 415 0
 1188 03f2 0621     		movs	r1, #6
 1189 03f4 0348     		ldr	r0, .L80
 1190 03f6 FFF7FEFF 		bl	scheduler_push_task
 416:build/openmote-cc2538_armgcc/openapps/whisper/whisper.c **** }
 1191              		.loc 1 416 0
 1192 03fa 00BF     		nop
 1193 03fc 0837     		adds	r7, r7, #8
 1194              		.cfi_def_cfa_offset 8
 1195 03fe BD46     		mov	sp, r7
 1196              		.cfi_def_cfa_register 13
 1197              		@ sp needed
 1198 0400 80BD     		pop	{r7, pc}
 1199              	.L81:
 1200 0402 00BF     		.align	2
 1201              	.L80:
 1202 0404 00000000 		.word	whisper_task_cb
 1203              		.cfi_endproc
 1204              	.LFE15:
 1206              		.align	2
 1207              		.global	whisper_timer_cb2
 1208              		.thumb
 1209              		.thumb_func
 1211              	whisper_timer_cb2:
 1212              	.LFB16:
 417:build/openmote-cc2538_armgcc/openapps/whisper/whisper.c **** 
 418:build/openmote-cc2538_armgcc/openapps/whisper/whisper.c **** void whisper_timer_cb2(opentimers_id_t id){
 1213              		.loc 1 418 0
 1214              		.cfi_startproc
 1215              		@ args = 0, pretend = 0, frame = 8
 1216              		@ frame_needed = 1, uses_anonymous_args = 0
 1217 0408 80B5     		push	{r7, lr}
 1218              		.cfi_def_cfa_offset 8
 1219              		.cfi_offset 7, -8
 1220              		.cfi_offset 14, -4
 1221 040a 82B0     		sub	sp, sp, #8
 1222              		.cfi_def_cfa_offset 16
 1223 040c 00AF     		add	r7, sp, #0
 1224              		.cfi_def_cfa_register 7
 1225 040e 0346     		mov	r3, r0
 1226 0410 FB71     		strb	r3, [r7, #7]
 419:build/openmote-cc2538_armgcc/openapps/whisper/whisper.c **** 
 420:build/openmote-cc2538_armgcc/openapps/whisper/whisper.c ****    scheduler_push_task(whisper_task_cb2,TASKPRIO_COAP);
 1227              		.loc 1 420 0
 1228 0412 0621     		movs	r1, #6
 1229 0414 0348     		ldr	r0, .L83
 1230 0416 FFF7FEFF 		bl	scheduler_push_task
 421:build/openmote-cc2538_armgcc/openapps/whisper/whisper.c **** }
 1231              		.loc 1 421 0
 1232 041a 00BF     		nop
 1233 041c 0837     		adds	r7, r7, #8
 1234              		.cfi_def_cfa_offset 8
 1235 041e BD46     		mov	sp, r7
 1236              		.cfi_def_cfa_register 13
 1237              		@ sp needed
 1238 0420 80BD     		pop	{r7, pc}
 1239              	.L84:
 1240 0422 00BF     		.align	2
 1241              	.L83:
 1242 0424 00000000 		.word	whisper_task_cb2
 1243              		.cfi_endproc
 1244              	.LFE16:
 1246              		.align	2
 1247              		.global	whisper_timer_cb3
 1248              		.thumb
 1249              		.thumb_func
 1251              	whisper_timer_cb3:
 1252              	.LFB17:
 422:build/openmote-cc2538_armgcc/openapps/whisper/whisper.c **** 
 423:build/openmote-cc2538_armgcc/openapps/whisper/whisper.c **** void whisper_timer_cb3(opentimers_id_t id){
 1253              		.loc 1 423 0
 1254              		.cfi_startproc
 1255              		@ args = 0, pretend = 0, frame = 8
 1256              		@ frame_needed = 1, uses_anonymous_args = 0
 1257 0428 80B5     		push	{r7, lr}
 1258              		.cfi_def_cfa_offset 8
 1259              		.cfi_offset 7, -8
 1260              		.cfi_offset 14, -4
 1261 042a 82B0     		sub	sp, sp, #8
 1262              		.cfi_def_cfa_offset 16
 1263 042c 00AF     		add	r7, sp, #0
 1264              		.cfi_def_cfa_register 7
 1265 042e 0346     		mov	r3, r0
 1266 0430 FB71     		strb	r3, [r7, #7]
 424:build/openmote-cc2538_armgcc/openapps/whisper/whisper.c **** 
 425:build/openmote-cc2538_armgcc/openapps/whisper/whisper.c ****    scheduler_push_task(whisper_task_cb3,TASKPRIO_COAP);
 1267              		.loc 1 425 0
 1268 0432 0621     		movs	r1, #6
 1269 0434 0348     		ldr	r0, .L86
 1270 0436 FFF7FEFF 		bl	scheduler_push_task
 426:build/openmote-cc2538_armgcc/openapps/whisper/whisper.c **** }
 1271              		.loc 1 426 0
 1272 043a 00BF     		nop
 1273 043c 0837     		adds	r7, r7, #8
 1274              		.cfi_def_cfa_offset 8
 1275 043e BD46     		mov	sp, r7
 1276              		.cfi_def_cfa_register 13
 1277              		@ sp needed
 1278 0440 80BD     		pop	{r7, pc}
 1279              	.L87:
 1280 0442 00BF     		.align	2
 1281              	.L86:
 1282 0444 00000000 		.word	whisper_task_cb3
 1283              		.cfi_endproc
 1284              	.LFE17:
 1286              		.align	2
 1287              		.global	whisper_timer_cb4
 1288              		.thumb
 1289              		.thumb_func
 1291              	whisper_timer_cb4:
 1292              	.LFB18:
 427:build/openmote-cc2538_armgcc/openapps/whisper/whisper.c **** 
 428:build/openmote-cc2538_armgcc/openapps/whisper/whisper.c **** void whisper_timer_cb4(opentimers_id_t id){
 1293              		.loc 1 428 0
 1294              		.cfi_startproc
 1295              		@ args = 0, pretend = 0, frame = 8
 1296              		@ frame_needed = 1, uses_anonymous_args = 0
 1297 0448 80B5     		push	{r7, lr}
 1298              		.cfi_def_cfa_offset 8
 1299              		.cfi_offset 7, -8
 1300              		.cfi_offset 14, -4
 1301 044a 82B0     		sub	sp, sp, #8
 1302              		.cfi_def_cfa_offset 16
 1303 044c 00AF     		add	r7, sp, #0
 1304              		.cfi_def_cfa_register 7
 1305 044e 0346     		mov	r3, r0
 1306 0450 FB71     		strb	r3, [r7, #7]
 429:build/openmote-cc2538_armgcc/openapps/whisper/whisper.c **** 
 430:build/openmote-cc2538_armgcc/openapps/whisper/whisper.c ****    scheduler_push_task(whisper_task_cb4,TASKPRIO_COAP);
 1307              		.loc 1 430 0
 1308 0452 0621     		movs	r1, #6
 1309 0454 0348     		ldr	r0, .L89
 1310 0456 FFF7FEFF 		bl	scheduler_push_task
 431:build/openmote-cc2538_armgcc/openapps/whisper/whisper.c **** }
 1311              		.loc 1 431 0
 1312 045a 00BF     		nop
 1313 045c 0837     		adds	r7, r7, #8
 1314              		.cfi_def_cfa_offset 8
 1315 045e BD46     		mov	sp, r7
 1316              		.cfi_def_cfa_register 13
 1317              		@ sp needed
 1318 0460 80BD     		pop	{r7, pc}
 1319              	.L90:
 1320 0462 00BF     		.align	2
 1321              	.L89:
 1322 0464 00000000 		.word	whisper_task_cb4
 1323              		.cfi_endproc
 1324              	.LFE18:
 1326              		.align	2
 1327              		.global	whisper_task_cb
 1328              		.thumb
 1329              		.thumb_func
 1331              	whisper_task_cb:
 1332              	.LFB19:
 432:build/openmote-cc2538_armgcc/openapps/whisper/whisper.c **** 
 433:build/openmote-cc2538_armgcc/openapps/whisper/whisper.c **** void whisper_task_cb() {
 1333              		.loc 1 433 0
 1334              		.cfi_startproc
 1335              		@ args = 0, pretend = 0, frame = 24
 1336              		@ frame_needed = 1, uses_anonymous_args = 0
 1337 0468 90B5     		push	{r4, r7, lr}
 1338              		.cfi_def_cfa_offset 12
 1339              		.cfi_offset 4, -12
 1340              		.cfi_offset 7, -8
 1341              		.cfi_offset 14, -4
 1342 046a 8DB0     		sub	sp, sp, #52
 1343              		.cfi_def_cfa_offset 64
 1344 046c 06AF     		add	r7, sp, #24
 1345              		.cfi_def_cfa 7, 40
 434:build/openmote-cc2538_armgcc/openapps/whisper/whisper.c **** 	   // run only in Whisper node
 435:build/openmote-cc2538_armgcc/openapps/whisper/whisper.c **** 
 436:build/openmote-cc2538_armgcc/openapps/whisper/whisper.c ****       //printf("I am WHISPER node %d, timer has expired!! Sending second 6P message \n", idmanager_
 437:build/openmote-cc2538_armgcc/openapps/whisper/whisper.c **** 
 438:build/openmote-cc2538_armgcc/openapps/whisper/whisper.c ****       if (state==1){
 1346              		.loc 1 438 0
 1347 046e 1F4B     		ldr	r3, .L100
 1348 0470 1B78     		ldrb	r3, [r3]	@ zero_extendqisi2
 1349 0472 012B     		cmp	r3, #1
 1350 0474 35D1     		bne	.L99
 1351              	.LBB3:
 439:build/openmote-cc2538_armgcc/openapps/whisper/whisper.c **** 
 440:build/openmote-cc2538_armgcc/openapps/whisper/whisper.c ****     	  whisper_trigger_nextStep();
 1352              		.loc 1 440 0
 1353 0476 FFF7FEFF 		bl	whisper_trigger_nextStep
 441:build/openmote-cc2538_armgcc/openapps/whisper/whisper.c ****     	 open_addr_t      NeighborAddress;
 442:build/openmote-cc2538_armgcc/openapps/whisper/whisper.c ****     	 uint8_t          i;
 443:build/openmote-cc2538_armgcc/openapps/whisper/whisper.c **** 
 444:build/openmote-cc2538_armgcc/openapps/whisper/whisper.c **** //    	  if (msf_candidateAddCellList(celllist_add,1)==FALSE){
 445:build/openmote-cc2538_armgcc/openapps/whisper/whisper.c **** //
 446:build/openmote-cc2538_armgcc/openapps/whisper/whisper.c **** //    	      printf("I am WHISPER node %d, end operation (no cells in second 6P message)\n",idmanag
 447:build/openmote-cc2538_armgcc/openapps/whisper/whisper.c **** //    	      whisper_setState(0);
 448:build/openmote-cc2538_armgcc/openapps/whisper/whisper.c **** //
 449:build/openmote-cc2538_armgcc/openapps/whisper/whisper.c **** //    		  opentimers_destroy(whisper_vars.timerIdWhisper);
 450:build/openmote-cc2538_armgcc/openapps/whisper/whisper.c **** //    		  return;
 451:build/openmote-cc2538_armgcc/openapps/whisper/whisper.c **** //    	  }
 452:build/openmote-cc2538_armgcc/openapps/whisper/whisper.c ****     	 //printf("I am WHISPER node %d, I have some cells \n", idmanager_getMyID(ADDR_64B)->addr_64b[
 453:build/openmote-cc2538_armgcc/openapps/whisper/whisper.c **** 		 for (i=0;i<MAXNUMNEIGHBORS;i++) {
 1354              		.loc 1 453 0
 1355 047a 0023     		movs	r3, #0
 1356 047c FB75     		strb	r3, [r7, #23]
 1357 047e 28E0     		b	.L93
 1358              	.L96:
 454:build/openmote-cc2538_armgcc/openapps/whisper/whisper.c **** 			if (neighbors_getNeighborEui64(&NeighborAddress, ADDR_64B, i)) { // this neighbor entry is in us
 1359              		.loc 1 454 0
 1360 0480 FA7D     		ldrb	r2, [r7, #23]	@ zero_extendqisi2
 1361 0482 3B1D     		adds	r3, r7, #4
 1362 0484 0221     		movs	r1, #2
 1363 0486 1846     		mov	r0, r3
 1364 0488 FFF7FEFF 		bl	neighbors_getNeighborEui64
 1365 048c 0346     		mov	r3, r0
 1366 048e 002B     		cmp	r3, #0
 1367 0490 1CD0     		beq	.L94
 455:build/openmote-cc2538_armgcc/openapps/whisper/whisper.c **** 				if (NeighborAddress.addr_64b[7] == whisper_getTargetChildren()){
 1368              		.loc 1 455 0
 1369 0492 3C7B     		ldrb	r4, [r7, #12]	@ zero_extendqisi2
 1370 0494 FFF7FEFF 		bl	whisper_getTargetChildren
 1371 0498 0346     		mov	r3, r0
 1372 049a 9C42     		cmp	r4, r3
 1373 049c 16D1     		bne	.L94
 456:build/openmote-cc2538_armgcc/openapps/whisper/whisper.c **** 			//		printf("Node %d is my neighbor I am going to send him a Fake 6P message\n",NeighborAddress.a
 457:build/openmote-cc2538_armgcc/openapps/whisper/whisper.c **** 					 // call sixtop
 458:build/openmote-cc2538_armgcc/openapps/whisper/whisper.c **** 					whisper_setFakeSource(whisper_getTargetParentNew());
 1374              		.loc 1 458 0
 1375 049e FFF7FEFF 		bl	whisper_getTargetParentNew
 1376 04a2 0346     		mov	r3, r0
 1377 04a4 1846     		mov	r0, r3
 1378 04a6 FFF7FEFF 		bl	whisper_setFakeSource
 459:build/openmote-cc2538_armgcc/openapps/whisper/whisper.c **** 				//	printf("with source address  %d\n",whisper_getFakeSource());
 460:build/openmote-cc2538_armgcc/openapps/whisper/whisper.c **** 					 sixtop_request(
 1379              		.loc 1 460 0
 1380 04aa 391D     		adds	r1, r7, #4
 1381 04ac 0023     		movs	r3, #0
 1382 04ae 0493     		str	r3, [sp, #16]
 1383 04b0 0023     		movs	r3, #0
 1384 04b2 0393     		str	r3, [sp, #12]
 1385 04b4 0523     		movs	r3, #5
 1386 04b6 0293     		str	r3, [sp, #8]
 1387 04b8 0023     		movs	r3, #0
 1388 04ba 0193     		str	r3, [sp, #4]
 1389 04bc 0C4B     		ldr	r3, .L100+4
 1390 04be 0093     		str	r3, [sp]
 1391 04c0 0723     		movs	r3, #7
 1392 04c2 0122     		movs	r2, #1
 1393 04c4 0120     		movs	r0, #1
 1394 04c6 FFF7FEFF 		bl	sixtop_request
 461:build/openmote-cc2538_armgcc/openapps/whisper/whisper.c **** 						IANA_6TOP_CMD_ADD,                  // code
 462:build/openmote-cc2538_armgcc/openapps/whisper/whisper.c **** 						&NeighborAddress,                   // neighbor
 463:build/openmote-cc2538_armgcc/openapps/whisper/whisper.c **** 						1,                                  // number cells
 464:build/openmote-cc2538_armgcc/openapps/whisper/whisper.c **** 						CELLOPTIONS_MSF,                    // cellOptions
 465:build/openmote-cc2538_armgcc/openapps/whisper/whisper.c **** 						celllist_add,                       // celllist to add
 466:build/openmote-cc2538_armgcc/openapps/whisper/whisper.c **** 						NULL,                               // celllist to delete (not used)
 467:build/openmote-cc2538_armgcc/openapps/whisper/whisper.c **** 						5,                      		    // sfid 5, means whsiper
 468:build/openmote-cc2538_armgcc/openapps/whisper/whisper.c **** 						0,                                  // list command offset (not used)
 469:build/openmote-cc2538_armgcc/openapps/whisper/whisper.c **** 						0                                   // list command maximum celllist (not used)
 470:build/openmote-cc2538_armgcc/openapps/whisper/whisper.c **** 					 );
 471:build/openmote-cc2538_armgcc/openapps/whisper/whisper.c **** 					 break;
 1395              		.loc 1 471 0
 1396 04ca 05E0     		b	.L97
 1397              	.L94:
 453:build/openmote-cc2538_armgcc/openapps/whisper/whisper.c **** 			if (neighbors_getNeighborEui64(&NeighborAddress, ADDR_64B, i)) { // this neighbor entry is in us
 1398              		.loc 1 453 0 discriminator 2
 1399 04cc FB7D     		ldrb	r3, [r7, #23]	@ zero_extendqisi2
 1400 04ce 0133     		adds	r3, r3, #1
 1401 04d0 FB75     		strb	r3, [r7, #23]
 1402              	.L93:
 453:build/openmote-cc2538_armgcc/openapps/whisper/whisper.c **** 			if (neighbors_getNeighborEui64(&NeighborAddress, ADDR_64B, i)) { // this neighbor entry is in us
 1403              		.loc 1 453 0 is_stmt 0 discriminator 1
 1404 04d2 FB7D     		ldrb	r3, [r7, #23]	@ zero_extendqisi2
 1405 04d4 1D2B     		cmp	r3, #29
 1406 04d6 D3D9     		bls	.L96
 1407              	.L97:
 1408              	.LBE3:
 472:build/openmote-cc2538_armgcc/openapps/whisper/whisper.c **** 				}
 473:build/openmote-cc2538_armgcc/openapps/whisper/whisper.c **** //				else{
 474:build/openmote-cc2538_armgcc/openapps/whisper/whisper.c **** //					printf("I am WISHPER node %d, node %d is not my my target children %d \n", idmanager_getMyID
 475:build/openmote-cc2538_armgcc/openapps/whisper/whisper.c **** //				}
 476:build/openmote-cc2538_armgcc/openapps/whisper/whisper.c **** 			}
 477:build/openmote-cc2538_armgcc/openapps/whisper/whisper.c **** 		 }
 478:build/openmote-cc2538_armgcc/openapps/whisper/whisper.c ****       }else{
 479:build/openmote-cc2538_armgcc/openapps/whisper/whisper.c **** 			//printf("I am WISHPER node %d, wrong state in second 6P message. State = %d \n", idmanager_getM
 480:build/openmote-cc2538_armgcc/openapps/whisper/whisper.c **** 			return;
 481:build/openmote-cc2538_armgcc/openapps/whisper/whisper.c ****       }
 482:build/openmote-cc2538_armgcc/openapps/whisper/whisper.c ****       whisper_setState(2);//2 Sending second 6P add
 1409              		.loc 1 482 0 is_stmt 1
 1410 04d8 0220     		movs	r0, #2
 1411 04da FFF7FEFF 		bl	whisper_setState
 483:build/openmote-cc2538_armgcc/openapps/whisper/whisper.c ****       //printf("I am WISHPER node %d, end operation\n",idmanager_getMyID(ADDR_64B)->addr_64b[7]);
 484:build/openmote-cc2538_armgcc/openapps/whisper/whisper.c ****       //whisper_trigger_nextStep();
 485:build/openmote-cc2538_armgcc/openapps/whisper/whisper.c **** 
 486:build/openmote-cc2538_armgcc/openapps/whisper/whisper.c **** 	  //opentimers_destroy(whisper_vars.timerIdSixp);
 487:build/openmote-cc2538_armgcc/openapps/whisper/whisper.c **** 	  return;
 1412              		.loc 1 487 0
 1413 04de 00BF     		nop
 1414 04e0 00E0     		b	.L91
 1415              	.L99:
 480:build/openmote-cc2538_armgcc/openapps/whisper/whisper.c ****       }
 1416              		.loc 1 480 0
 1417 04e2 00BF     		nop
 1418              	.L91:
 488:build/openmote-cc2538_armgcc/openapps/whisper/whisper.c **** 
 489:build/openmote-cc2538_armgcc/openapps/whisper/whisper.c **** }
 1419              		.loc 1 489 0
 1420 04e4 1C37     		adds	r7, r7, #28
 1421              		.cfi_def_cfa_offset 12
 1422 04e6 BD46     		mov	sp, r7
 1423              		.cfi_def_cfa_register 13
 1424              		@ sp needed
 1425 04e8 90BD     		pop	{r4, r7, pc}
 1426              	.L101:
 1427 04ea 00BF     		.align	2
 1428              	.L100:
 1429 04ec 00000000 		.word	state
 1430 04f0 00000000 		.word	celllist_add
 1431              		.cfi_endproc
 1432              	.LFE19:
 1434              		.align	2
 1435              		.global	whisper_task_cb2
 1436              		.thumb
 1437              		.thumb_func
 1439              	whisper_task_cb2:
 1440              	.LFB20:
 490:build/openmote-cc2538_armgcc/openapps/whisper/whisper.c **** 
 491:build/openmote-cc2538_armgcc/openapps/whisper/whisper.c **** void whisper_task_cb2() {
 1441              		.loc 1 491 0
 1442              		.cfi_startproc
 1443              		@ args = 0, pretend = 0, frame = 8
 1444              		@ frame_needed = 1, uses_anonymous_args = 0
 1445 04f4 90B5     		push	{r4, r7, lr}
 1446              		.cfi_def_cfa_offset 12
 1447              		.cfi_offset 4, -12
 1448              		.cfi_offset 7, -8
 1449              		.cfi_offset 14, -4
 1450 04f6 83B0     		sub	sp, sp, #12
 1451              		.cfi_def_cfa_offset 24
 1452 04f8 00AF     		add	r7, sp, #0
 1453              		.cfi_def_cfa_register 7
 492:build/openmote-cc2538_armgcc/openapps/whisper/whisper.c **** 
 493:build/openmote-cc2538_armgcc/openapps/whisper/whisper.c **** 	 //printf("I am WHISPER node %d, RPL timer has expired!! Doing some RPL tasks \n", idmanager_getMy
 494:build/openmote-cc2538_armgcc/openapps/whisper/whisper.c **** 	 uint16_t		  rank;
 495:build/openmote-cc2538_armgcc/openapps/whisper/whisper.c **** 
 496:build/openmote-cc2538_armgcc/openapps/whisper/whisper.c **** 	  if (state==2){
 1454              		.loc 1 496 0
 1455 04fa 164B     		ldr	r3, .L107
 1456 04fc 1B78     		ldrb	r3, [r3]	@ zero_extendqisi2
 1457 04fe 022B     		cmp	r3, #2
 1458 0500 23D1     		bne	.L106
 497:build/openmote-cc2538_armgcc/openapps/whisper/whisper.c **** 
 498:build/openmote-cc2538_armgcc/openapps/whisper/whisper.c **** 		  rank=((3*DEFAULTLINKCOST-2)*MINHOPRANKINCREASE)-1;
 1459              		.loc 1 498 0
 1460 0502 40F6FF13 		movw	r3, #2559
 1461 0506 FB80     		strh	r3, [r7, #6]	@ movhi
 499:build/openmote-cc2538_armgcc/openapps/whisper/whisper.c **** 		  icmpv6rpl_sendWhisperDIO(whisper_getTargetChildren(),whisper_getTargetParentOld(),rank);
 1462              		.loc 1 499 0
 1463 0508 FFF7FEFF 		bl	whisper_getTargetChildren
 1464 050c 0346     		mov	r3, r0
 1465 050e 1C46     		mov	r4, r3
 1466 0510 FFF7FEFF 		bl	whisper_getTargetParentOld
 1467 0514 0346     		mov	r3, r0
 1468 0516 1946     		mov	r1, r3
 1469 0518 FB88     		ldrh	r3, [r7, #6]
 1470 051a 1A46     		mov	r2, r3
 1471 051c 2046     		mov	r0, r4
 1472 051e FFF7FEFF 		bl	icmpv6rpl_sendWhisperDIO
 500:build/openmote-cc2538_armgcc/openapps/whisper/whisper.c **** 		//  printf("Sending 2nd DIO\n");
 501:build/openmote-cc2538_armgcc/openapps/whisper/whisper.c **** 		  icmpv6rpl_sendWhisperDIO(whisper_getTargetChildren(),whisper_getTargetParentOld(),2*rank);
 1473              		.loc 1 501 0
 1474 0522 FFF7FEFF 		bl	whisper_getTargetChildren
 1475 0526 0346     		mov	r3, r0
 1476 0528 1C46     		mov	r4, r3
 1477 052a FFF7FEFF 		bl	whisper_getTargetParentOld
 1478 052e 0346     		mov	r3, r0
 1479 0530 1946     		mov	r1, r3
 1480 0532 FB88     		ldrh	r3, [r7, #6]	@ movhi
 1481 0534 5B00     		lsls	r3, r3, #1
 1482 0536 9BB2     		uxth	r3, r3
 1483 0538 1A46     		mov	r2, r3
 1484 053a 2046     		mov	r0, r4
 1485 053c FFF7FEFF 		bl	icmpv6rpl_sendWhisperDIO
 502:build/openmote-cc2538_armgcc/openapps/whisper/whisper.c **** 	  }else{
 503:build/openmote-cc2538_armgcc/openapps/whisper/whisper.c **** 		 // printf("I am WISHPER node %d, wrong state in sending RPL DIOs. State = %d \n", idmanager_getM
 504:build/openmote-cc2538_armgcc/openapps/whisper/whisper.c **** 		  return;
 505:build/openmote-cc2538_armgcc/openapps/whisper/whisper.c **** 	  }
 506:build/openmote-cc2538_armgcc/openapps/whisper/whisper.c **** 	  whisper_setState(0);	//3 Sending DIOs
 1486              		.loc 1 506 0
 1487 0540 0020     		movs	r0, #0
 1488 0542 FFF7FEFF 		bl	whisper_setState
 507:build/openmote-cc2538_armgcc/openapps/whisper/whisper.c **** 
 508:build/openmote-cc2538_armgcc/openapps/whisper/whisper.c **** 	  //printf("I am WHISPER node %d, preparing next step, send frist 6p clear \n", idmanager_getMyID(
 509:build/openmote-cc2538_armgcc/openapps/whisper/whisper.c **** 	  //opentimers_destroy(whisper_vars.timerIdRpl);
 510:build/openmote-cc2538_armgcc/openapps/whisper/whisper.c **** 	  //whisper_trigger_nextStep();
 511:build/openmote-cc2538_armgcc/openapps/whisper/whisper.c **** 	  //whisper_trigger_nextStep();
 512:build/openmote-cc2538_armgcc/openapps/whisper/whisper.c **** 
 513:build/openmote-cc2538_armgcc/openapps/whisper/whisper.c **** 	  return;
 1489              		.loc 1 513 0
 1490 0546 00BF     		nop
 1491 0548 00E0     		b	.L102
 1492              	.L106:
 504:build/openmote-cc2538_armgcc/openapps/whisper/whisper.c **** 	  }
 1493              		.loc 1 504 0
 1494 054a 00BF     		nop
 1495              	.L102:
 514:build/openmote-cc2538_armgcc/openapps/whisper/whisper.c **** 
 515:build/openmote-cc2538_armgcc/openapps/whisper/whisper.c **** }
 1496              		.loc 1 515 0
 1497 054c 0C37     		adds	r7, r7, #12
 1498              		.cfi_def_cfa_offset 12
 1499 054e BD46     		mov	sp, r7
 1500              		.cfi_def_cfa_register 13
 1501              		@ sp needed
 1502 0550 90BD     		pop	{r4, r7, pc}
 1503              	.L108:
 1504 0552 00BF     		.align	2
 1505              	.L107:
 1506 0554 00000000 		.word	state
 1507              		.cfi_endproc
 1508              	.LFE20:
 1510              		.align	2
 1511              		.global	whisper_task_cb3
 1512              		.thumb
 1513              		.thumb_func
 1515              	whisper_task_cb3:
 1516              	.LFB21:
 516:build/openmote-cc2538_armgcc/openapps/whisper/whisper.c **** 
 517:build/openmote-cc2538_armgcc/openapps/whisper/whisper.c **** void whisper_task_cb3() {
 1517              		.loc 1 517 0
 1518              		.cfi_startproc
 1519              		@ args = 0, pretend = 0, frame = 24
 1520              		@ frame_needed = 1, uses_anonymous_args = 0
 1521 0558 90B5     		push	{r4, r7, lr}
 1522              		.cfi_def_cfa_offset 12
 1523              		.cfi_offset 4, -12
 1524              		.cfi_offset 7, -8
 1525              		.cfi_offset 14, -4
 1526 055a 8DB0     		sub	sp, sp, #52
 1527              		.cfi_def_cfa_offset 64
 1528 055c 06AF     		add	r7, sp, #24
 1529              		.cfi_def_cfa 7, 40
 518:build/openmote-cc2538_armgcc/openapps/whisper/whisper.c **** 	   // run only in Whisper node
 519:build/openmote-cc2538_armgcc/openapps/whisper/whisper.c **** 
 520:build/openmote-cc2538_armgcc/openapps/whisper/whisper.c ****       //printf("I am WHISPER node %d, timer has expired!! Sending first 6P clear message \n", idman
 521:build/openmote-cc2538_armgcc/openapps/whisper/whisper.c **** 
 522:build/openmote-cc2538_armgcc/openapps/whisper/whisper.c ****       if (state==3){
 1530              		.loc 1 522 0
 1531 055e 1E4B     		ldr	r3, .L118
 1532 0560 1B78     		ldrb	r3, [r3]	@ zero_extendqisi2
 1533 0562 032B     		cmp	r3, #3
 1534 0564 33D1     		bne	.L117
 1535              	.LBB4:
 523:build/openmote-cc2538_armgcc/openapps/whisper/whisper.c ****     	  //whisper_setState(4);
 524:build/openmote-cc2538_armgcc/openapps/whisper/whisper.c ****     	  //whisper_trigger_nextStep();
 525:build/openmote-cc2538_armgcc/openapps/whisper/whisper.c ****     	 open_addr_t      NeighborAddress;
 526:build/openmote-cc2538_armgcc/openapps/whisper/whisper.c ****     	 uint8_t          i;
 527:build/openmote-cc2538_armgcc/openapps/whisper/whisper.c **** 
 528:build/openmote-cc2538_armgcc/openapps/whisper/whisper.c **** //    	  if (msf_candidateAddCellList(celllist_add,1)==FALSE){
 529:build/openmote-cc2538_armgcc/openapps/whisper/whisper.c **** //
 530:build/openmote-cc2538_armgcc/openapps/whisper/whisper.c **** //    	      printf("I am WISHPER node %d, end operation (no cells in second 6P message)\n",idmanag
 531:build/openmote-cc2538_armgcc/openapps/whisper/whisper.c **** //    	      whisper_setState(0);
 532:build/openmote-cc2538_armgcc/openapps/whisper/whisper.c **** //
 533:build/openmote-cc2538_armgcc/openapps/whisper/whisper.c **** //    		  opentimers_destroy(whisper_vars.timerIdSixp);
 534:build/openmote-cc2538_armgcc/openapps/whisper/whisper.c **** //    		  return;
 535:build/openmote-cc2538_armgcc/openapps/whisper/whisper.c **** //    	  }
 536:build/openmote-cc2538_armgcc/openapps/whisper/whisper.c ****     	 //printf("I am WHISPER node %d, I have some cells \n", idmanager_getMyID(ADDR_64B)->addr_64b[
 537:build/openmote-cc2538_armgcc/openapps/whisper/whisper.c **** 		 for (i=0;i<MAXNUMNEIGHBORS;i++) {
 1536              		.loc 1 537 0
 1537 0566 0023     		movs	r3, #0
 1538 0568 FB75     		strb	r3, [r7, #23]
 1539 056a 28E0     		b	.L111
 1540              	.L114:
 538:build/openmote-cc2538_armgcc/openapps/whisper/whisper.c **** 			if (neighbors_getNeighborEui64(&NeighborAddress, ADDR_64B, i)) { // this neighbor entry is in us
 1541              		.loc 1 538 0
 1542 056c FA7D     		ldrb	r2, [r7, #23]	@ zero_extendqisi2
 1543 056e 3B1D     		adds	r3, r7, #4
 1544 0570 0221     		movs	r1, #2
 1545 0572 1846     		mov	r0, r3
 1546 0574 FFF7FEFF 		bl	neighbors_getNeighborEui64
 1547 0578 0346     		mov	r3, r0
 1548 057a 002B     		cmp	r3, #0
 1549 057c 1CD0     		beq	.L112
 539:build/openmote-cc2538_armgcc/openapps/whisper/whisper.c **** 				if (NeighborAddress.addr_64b[7] == whisper_getTargetChildren()){
 1550              		.loc 1 539 0
 1551 057e 3C7B     		ldrb	r4, [r7, #12]	@ zero_extendqisi2
 1552 0580 FFF7FEFF 		bl	whisper_getTargetChildren
 1553 0584 0346     		mov	r3, r0
 1554 0586 9C42     		cmp	r4, r3
 1555 0588 16D1     		bne	.L112
 540:build/openmote-cc2538_armgcc/openapps/whisper/whisper.c **** 			//		printf("Node %d is my neighbor I am going to send him a Fake 6P message\n",NeighborAddress.a
 541:build/openmote-cc2538_armgcc/openapps/whisper/whisper.c **** 					 // call sixtop
 542:build/openmote-cc2538_armgcc/openapps/whisper/whisper.c **** 					whisper_setFakeSource(whisper_getTargetParentOld());
 1556              		.loc 1 542 0
 1557 058a FFF7FEFF 		bl	whisper_getTargetParentOld
 1558 058e 0346     		mov	r3, r0
 1559 0590 1846     		mov	r0, r3
 1560 0592 FFF7FEFF 		bl	whisper_setFakeSource
 543:build/openmote-cc2538_armgcc/openapps/whisper/whisper.c **** 				//	printf("with source address  %d\n",whisper_getFakeSource());
 544:build/openmote-cc2538_armgcc/openapps/whisper/whisper.c **** 			        sixtop_request(
 1561              		.loc 1 544 0
 1562 0596 391D     		adds	r1, r7, #4
 1563 0598 0023     		movs	r3, #0
 1564 059a 0493     		str	r3, [sp, #16]
 1565 059c 0023     		movs	r3, #0
 1566 059e 0393     		str	r3, [sp, #12]
 1567 05a0 0523     		movs	r3, #5
 1568 05a2 0293     		str	r3, [sp, #8]
 1569 05a4 0023     		movs	r3, #0
 1570 05a6 0193     		str	r3, [sp, #4]
 1571 05a8 0023     		movs	r3, #0
 1572 05aa 0093     		str	r3, [sp]
 1573 05ac 0723     		movs	r3, #7
 1574 05ae 0122     		movs	r2, #1
 1575 05b0 0620     		movs	r0, #6
 1576 05b2 FFF7FEFF 		bl	sixtop_request
 545:build/openmote-cc2538_armgcc/openapps/whisper/whisper.c **** 			            IANA_6TOP_CMD_CLEAR,                // code
 546:build/openmote-cc2538_armgcc/openapps/whisper/whisper.c **** 						&NeighborAddress,                           // neighbor
 547:build/openmote-cc2538_armgcc/openapps/whisper/whisper.c **** 			            NUMCELLS_MSF,                       // number cells
 548:build/openmote-cc2538_armgcc/openapps/whisper/whisper.c **** 			            CELLOPTIONS_MSF,                    // cellOptions
 549:build/openmote-cc2538_armgcc/openapps/whisper/whisper.c **** 			            NULL,                               // celllist to add (not used)
 550:build/openmote-cc2538_armgcc/openapps/whisper/whisper.c **** 			            NULL,                               // celllist to delete (not used)
 551:build/openmote-cc2538_armgcc/openapps/whisper/whisper.c **** 			            5,               // sfid
 552:build/openmote-cc2538_armgcc/openapps/whisper/whisper.c **** 			            0,                                  // list command offset (not used)
 553:build/openmote-cc2538_armgcc/openapps/whisper/whisper.c **** 			            0                                   // list command maximum celllist (not used)
 554:build/openmote-cc2538_armgcc/openapps/whisper/whisper.c **** 			        );
 555:build/openmote-cc2538_armgcc/openapps/whisper/whisper.c **** 
 556:build/openmote-cc2538_armgcc/openapps/whisper/whisper.c **** 					 break;
 1577              		.loc 1 556 0
 1578 05b6 05E0     		b	.L115
 1579              	.L112:
 537:build/openmote-cc2538_armgcc/openapps/whisper/whisper.c **** 			if (neighbors_getNeighborEui64(&NeighborAddress, ADDR_64B, i)) { // this neighbor entry is in us
 1580              		.loc 1 537 0 discriminator 2
 1581 05b8 FB7D     		ldrb	r3, [r7, #23]	@ zero_extendqisi2
 1582 05ba 0133     		adds	r3, r3, #1
 1583 05bc FB75     		strb	r3, [r7, #23]
 1584              	.L111:
 537:build/openmote-cc2538_armgcc/openapps/whisper/whisper.c **** 			if (neighbors_getNeighborEui64(&NeighborAddress, ADDR_64B, i)) { // this neighbor entry is in us
 1585              		.loc 1 537 0 is_stmt 0 discriminator 1
 1586 05be FB7D     		ldrb	r3, [r7, #23]	@ zero_extendqisi2
 1587 05c0 1D2B     		cmp	r3, #29
 1588 05c2 D3D9     		bls	.L114
 1589              	.L115:
 1590              	.LBE4:
 557:build/openmote-cc2538_armgcc/openapps/whisper/whisper.c **** 				}
 558:build/openmote-cc2538_armgcc/openapps/whisper/whisper.c **** 			}
 559:build/openmote-cc2538_armgcc/openapps/whisper/whisper.c **** 		 }
 560:build/openmote-cc2538_armgcc/openapps/whisper/whisper.c ****       }else{
 561:build/openmote-cc2538_armgcc/openapps/whisper/whisper.c **** 			//printf("I am WISHPER node %d, wrong state in first 6P clear. State = %d \n", idmanager_getMyID
 562:build/openmote-cc2538_armgcc/openapps/whisper/whisper.c **** 			return;
 563:build/openmote-cc2538_armgcc/openapps/whisper/whisper.c ****       }
 564:build/openmote-cc2538_armgcc/openapps/whisper/whisper.c ****       whisper_setState(4);	//4 Sending first 6P clear
 1591              		.loc 1 564 0 is_stmt 1
 1592 05c4 0420     		movs	r0, #4
 1593 05c6 FFF7FEFF 		bl	whisper_setState
 565:build/openmote-cc2538_armgcc/openapps/whisper/whisper.c ****       //printf("I am WISHPER node %d, prepare next step, last 6p clear\n",idmanager_getMyID(ADDR_64
 566:build/openmote-cc2538_armgcc/openapps/whisper/whisper.c ****       //whisper_trigger_nextStep();
 567:build/openmote-cc2538_armgcc/openapps/whisper/whisper.c **** 
 568:build/openmote-cc2538_armgcc/openapps/whisper/whisper.c **** 	  //opentimers_destroy(whisper_vars.timerIdSixp2);
 569:build/openmote-cc2538_armgcc/openapps/whisper/whisper.c **** 	  return;
 1594              		.loc 1 569 0
 1595 05ca 00BF     		nop
 1596 05cc 00E0     		b	.L109
 1597              	.L117:
 562:build/openmote-cc2538_armgcc/openapps/whisper/whisper.c ****       }
 1598              		.loc 1 562 0
 1599 05ce 00BF     		nop
 1600              	.L109:
 570:build/openmote-cc2538_armgcc/openapps/whisper/whisper.c **** 
 571:build/openmote-cc2538_armgcc/openapps/whisper/whisper.c **** }
 1601              		.loc 1 571 0
 1602 05d0 1C37     		adds	r7, r7, #28
 1603              		.cfi_def_cfa_offset 12
 1604 05d2 BD46     		mov	sp, r7
 1605              		.cfi_def_cfa_register 13
 1606              		@ sp needed
 1607 05d4 90BD     		pop	{r4, r7, pc}
 1608              	.L119:
 1609 05d6 00BF     		.align	2
 1610              	.L118:
 1611 05d8 00000000 		.word	state
 1612              		.cfi_endproc
 1613              	.LFE21:
 1615              		.align	2
 1616              		.global	whisper_task_cb4
 1617              		.thumb
 1618              		.thumb_func
 1620              	whisper_task_cb4:
 1621              	.LFB22:
 572:build/openmote-cc2538_armgcc/openapps/whisper/whisper.c **** 
 573:build/openmote-cc2538_armgcc/openapps/whisper/whisper.c **** void whisper_task_cb4() {
 1622              		.loc 1 573 0
 1623              		.cfi_startproc
 1624              		@ args = 0, pretend = 0, frame = 24
 1625              		@ frame_needed = 1, uses_anonymous_args = 0
 1626 05dc 90B5     		push	{r4, r7, lr}
 1627              		.cfi_def_cfa_offset 12
 1628              		.cfi_offset 4, -12
 1629              		.cfi_offset 7, -8
 1630              		.cfi_offset 14, -4
 1631 05de 8DB0     		sub	sp, sp, #52
 1632              		.cfi_def_cfa_offset 64
 1633 05e0 06AF     		add	r7, sp, #24
 1634              		.cfi_def_cfa 7, 40
 574:build/openmote-cc2538_armgcc/openapps/whisper/whisper.c **** 	   // run only in Whisper node
 575:build/openmote-cc2538_armgcc/openapps/whisper/whisper.c **** 
 576:build/openmote-cc2538_armgcc/openapps/whisper/whisper.c ****       //printf("I am WHISPER node %d, timer has expired!! Sending second 6P clear message \n", idma
 577:build/openmote-cc2538_armgcc/openapps/whisper/whisper.c ****       //bool          res=0;
 578:build/openmote-cc2538_armgcc/openapps/whisper/whisper.c ****       if (state==4){
 1635              		.loc 1 578 0
 1636 05e2 214B     		ldr	r3, .L129
 1637 05e4 1B78     		ldrb	r3, [r3]	@ zero_extendqisi2
 1638 05e6 042B     		cmp	r3, #4
 1639 05e8 39D1     		bne	.L128
 1640              	.LBB5:
 579:build/openmote-cc2538_armgcc/openapps/whisper/whisper.c ****     	//  printf("I am WHISPER node %d, DONE! \n", idmanager_getMyID(ADDR_64B)->addr_64b[7]);
 580:build/openmote-cc2538_armgcc/openapps/whisper/whisper.c **** 
 581:build/openmote-cc2538_armgcc/openapps/whisper/whisper.c ****     	 open_addr_t      NeighborAddress;
 582:build/openmote-cc2538_armgcc/openapps/whisper/whisper.c ****     	 uint8_t          i;
 583:build/openmote-cc2538_armgcc/openapps/whisper/whisper.c **** 
 584:build/openmote-cc2538_armgcc/openapps/whisper/whisper.c **** //    	  if (msf_candidateAddCellList(celllist_add,1)==FALSE){
 585:build/openmote-cc2538_armgcc/openapps/whisper/whisper.c **** //
 586:build/openmote-cc2538_armgcc/openapps/whisper/whisper.c **** //    	      printf("I am WISHPER node %d, end operation (no cells in second 6P message)\n",idmanag
 587:build/openmote-cc2538_armgcc/openapps/whisper/whisper.c **** //    	      whisper_setState(0);
 588:build/openmote-cc2538_armgcc/openapps/whisper/whisper.c **** //
 589:build/openmote-cc2538_armgcc/openapps/whisper/whisper.c **** //    		  opentimers_destroy(whisper_vars.timerIdSixp);
 590:build/openmote-cc2538_armgcc/openapps/whisper/whisper.c **** //    		  return;
 591:build/openmote-cc2538_armgcc/openapps/whisper/whisper.c **** //    	  }
 592:build/openmote-cc2538_armgcc/openapps/whisper/whisper.c ****     	 //printf("I am WHISPER node %d, I have some cells \n", idmanager_getMyID(ADDR_64B)->addr_64b[
 593:build/openmote-cc2538_armgcc/openapps/whisper/whisper.c **** 		 for (i=0;i<MAXNUMNEIGHBORS;i++) {
 1641              		.loc 1 593 0
 1642 05ea 0023     		movs	r3, #0
 1643 05ec FB75     		strb	r3, [r7, #23]
 1644 05ee 28E0     		b	.L122
 1645              	.L125:
 594:build/openmote-cc2538_armgcc/openapps/whisper/whisper.c **** 			if (neighbors_getNeighborEui64(&NeighborAddress, ADDR_64B, i)) { // this neighbor entry is in us
 1646              		.loc 1 594 0
 1647 05f0 FA7D     		ldrb	r2, [r7, #23]	@ zero_extendqisi2
 1648 05f2 3B1D     		adds	r3, r7, #4
 1649 05f4 0221     		movs	r1, #2
 1650 05f6 1846     		mov	r0, r3
 1651 05f8 FFF7FEFF 		bl	neighbors_getNeighborEui64
 1652 05fc 0346     		mov	r3, r0
 1653 05fe 002B     		cmp	r3, #0
 1654 0600 1CD0     		beq	.L123
 595:build/openmote-cc2538_armgcc/openapps/whisper/whisper.c **** 				if (NeighborAddress.addr_64b[7] == whisper_getTargetParentOld()){
 1655              		.loc 1 595 0
 1656 0602 3C7B     		ldrb	r4, [r7, #12]	@ zero_extendqisi2
 1657 0604 FFF7FEFF 		bl	whisper_getTargetParentOld
 1658 0608 0346     		mov	r3, r0
 1659 060a 9C42     		cmp	r4, r3
 1660 060c 16D1     		bne	.L123
 596:build/openmote-cc2538_armgcc/openapps/whisper/whisper.c **** 					//printf("Node %d is my neighbor I am going to send him a Fake 6P message\n",NeighborAddress.a
 597:build/openmote-cc2538_armgcc/openapps/whisper/whisper.c **** 					 // call sixtop
 598:build/openmote-cc2538_armgcc/openapps/whisper/whisper.c **** 
 599:build/openmote-cc2538_armgcc/openapps/whisper/whisper.c **** 
 600:build/openmote-cc2538_armgcc/openapps/whisper/whisper.c **** 
 601:build/openmote-cc2538_armgcc/openapps/whisper/whisper.c **** 
 602:build/openmote-cc2538_armgcc/openapps/whisper/whisper.c **** 					whisper_setFakeSource(whisper_getTargetChildren());
 1661              		.loc 1 602 0
 1662 060e FFF7FEFF 		bl	whisper_getTargetChildren
 1663 0612 0346     		mov	r3, r0
 1664 0614 1846     		mov	r0, r3
 1665 0616 FFF7FEFF 		bl	whisper_setFakeSource
 603:build/openmote-cc2538_armgcc/openapps/whisper/whisper.c **** 					//printf("with source address  %d\n",whisper_getFakeSource());
 604:build/openmote-cc2538_armgcc/openapps/whisper/whisper.c **** //				        sixtop_request(
 605:build/openmote-cc2538_armgcc/openapps/whisper/whisper.c **** //				            IANA_6TOP_CMD_CLEAR,                // code
 606:build/openmote-cc2538_armgcc/openapps/whisper/whisper.c **** //							&NeighborAddress,                           // neighbor
 607:build/openmote-cc2538_armgcc/openapps/whisper/whisper.c **** //				            NUMCELLS_MSF,                       // number cells
 608:build/openmote-cc2538_armgcc/openapps/whisper/whisper.c **** //				            CELLOPTIONS_MSF,                    // cellOptions
 609:build/openmote-cc2538_armgcc/openapps/whisper/whisper.c **** //				            NULL,                               // celllist to add (not used)
 610:build/openmote-cc2538_armgcc/openapps/whisper/whisper.c **** //				            NULL,                               // celllist to delete (not used)
 611:build/openmote-cc2538_armgcc/openapps/whisper/whisper.c **** //				            5,               // sfid
 612:build/openmote-cc2538_armgcc/openapps/whisper/whisper.c **** //				            0,                                  // list command offset (not used)
 613:build/openmote-cc2538_armgcc/openapps/whisper/whisper.c **** //				            0                                   // list command maximum celllist (not used)
 614:build/openmote-cc2538_armgcc/openapps/whisper/whisper.c **** //				        );
 615:build/openmote-cc2538_armgcc/openapps/whisper/whisper.c **** 				    sixtop_request(
 1666              		.loc 1 615 0
 1667 061a 391D     		adds	r1, r7, #4
 1668 061c 0023     		movs	r3, #0
 1669 061e 0493     		str	r3, [sp, #16]
 1670 0620 0023     		movs	r3, #0
 1671 0622 0393     		str	r3, [sp, #12]
 1672 0624 0523     		movs	r3, #5
 1673 0626 0293     		str	r3, [sp, #8]
 1674 0628 0023     		movs	r3, #0
 1675 062a 0193     		str	r3, [sp, #4]
 1676 062c 0023     		movs	r3, #0
 1677 062e 0093     		str	r3, [sp]
 1678 0630 0723     		movs	r3, #7
 1679 0632 0122     		movs	r2, #1
 1680 0634 0620     		movs	r0, #6
 1681 0636 FFF7FEFF 		bl	sixtop_request
 616:build/openmote-cc2538_armgcc/openapps/whisper/whisper.c **** 				        IANA_6TOP_CMD_CLEAR,   // code
 617:build/openmote-cc2538_armgcc/openapps/whisper/whisper.c **** 						&NeighborAddress,              // neighbor
 618:build/openmote-cc2538_armgcc/openapps/whisper/whisper.c **** 				        NUMCELLS_MSF,           // number cells
 619:build/openmote-cc2538_armgcc/openapps/whisper/whisper.c **** 				        CELLOPTIONS_MSF,        // cellOptions
 620:build/openmote-cc2538_armgcc/openapps/whisper/whisper.c **** 				        NULL,                   // celllist to add (not used)
 621:build/openmote-cc2538_armgcc/openapps/whisper/whisper.c **** 						NULL,        // celllist to delete
 622:build/openmote-cc2538_armgcc/openapps/whisper/whisper.c **** 				        5,   // sfid
 623:build/openmote-cc2538_armgcc/openapps/whisper/whisper.c **** 				        0,                      // list command offset (not used)
 624:build/openmote-cc2538_armgcc/openapps/whisper/whisper.c **** 				        0                       // list command maximum celllist (not used)
 625:build/openmote-cc2538_armgcc/openapps/whisper/whisper.c **** 				    );
 626:build/openmote-cc2538_armgcc/openapps/whisper/whisper.c **** 					 break;
 1682              		.loc 1 626 0
 1683 063a 05E0     		b	.L126
 1684              	.L123:
 593:build/openmote-cc2538_armgcc/openapps/whisper/whisper.c **** 			if (neighbors_getNeighborEui64(&NeighborAddress, ADDR_64B, i)) { // this neighbor entry is in us
 1685              		.loc 1 593 0 discriminator 2
 1686 063c FB7D     		ldrb	r3, [r7, #23]	@ zero_extendqisi2
 1687 063e 0133     		adds	r3, r3, #1
 1688 0640 FB75     		strb	r3, [r7, #23]
 1689              	.L122:
 593:build/openmote-cc2538_armgcc/openapps/whisper/whisper.c **** 			if (neighbors_getNeighborEui64(&NeighborAddress, ADDR_64B, i)) { // this neighbor entry is in us
 1690              		.loc 1 593 0 is_stmt 0 discriminator 1
 1691 0642 FB7D     		ldrb	r3, [r7, #23]	@ zero_extendqisi2
 1692 0644 1D2B     		cmp	r3, #29
 1693 0646 D3D9     		bls	.L125
 1694              	.L126:
 1695              	.LBE5:
 627:build/openmote-cc2538_armgcc/openapps/whisper/whisper.c **** 				}
 628:build/openmote-cc2538_armgcc/openapps/whisper/whisper.c **** 			}
 629:build/openmote-cc2538_armgcc/openapps/whisper/whisper.c **** 		 }
 630:build/openmote-cc2538_armgcc/openapps/whisper/whisper.c ****       }else{
 631:build/openmote-cc2538_armgcc/openapps/whisper/whisper.c **** 			//printf("I am WISHPER node %d, wrong state in second 6P clear message. State = %d \n", idmanage
 632:build/openmote-cc2538_armgcc/openapps/whisper/whisper.c **** 			return;
 633:build/openmote-cc2538_armgcc/openapps/whisper/whisper.c ****       }
 634:build/openmote-cc2538_armgcc/openapps/whisper/whisper.c **** 
 635:build/openmote-cc2538_armgcc/openapps/whisper/whisper.c ****       //printf("I am WISHPER node %d, end TOTAL operation\n",idmanager_getMyID(ADDR_64B)->addr_64b[
 636:build/openmote-cc2538_armgcc/openapps/whisper/whisper.c **** 
 637:build/openmote-cc2538_armgcc/openapps/whisper/whisper.c ****       whisper_setState(5);
 1696              		.loc 1 637 0 is_stmt 1
 1697 0648 0520     		movs	r0, #5
 1698 064a FFF7FEFF 		bl	whisper_setState
 638:build/openmote-cc2538_armgcc/openapps/whisper/whisper.c **** 	  opentimers_destroy(whisper_vars.timerIdWhisper);
 1699              		.loc 1 638 0
 1700 064e 074B     		ldr	r3, .L129+4
 1701 0650 93F83830 		ldrb	r3, [r3, #56]	@ zero_extendqisi2
 1702 0654 1846     		mov	r0, r3
 1703 0656 FFF7FEFF 		bl	opentimers_destroy
 639:build/openmote-cc2538_armgcc/openapps/whisper/whisper.c **** 
 640:build/openmote-cc2538_armgcc/openapps/whisper/whisper.c **** 	  return;
 1704              		.loc 1 640 0
 1705 065a 00BF     		nop
 1706 065c 00E0     		b	.L120
 1707              	.L128:
 632:build/openmote-cc2538_armgcc/openapps/whisper/whisper.c ****       }
 1708              		.loc 1 632 0
 1709 065e 00BF     		nop
 1710              	.L120:
 641:build/openmote-cc2538_armgcc/openapps/whisper/whisper.c **** 
 642:build/openmote-cc2538_armgcc/openapps/whisper/whisper.c **** }
 1711              		.loc 1 642 0
 1712 0660 1C37     		adds	r7, r7, #28
 1713              		.cfi_def_cfa_offset 12
 1714 0662 BD46     		mov	sp, r7
 1715              		.cfi_def_cfa_register 13
 1716              		@ sp needed
 1717 0664 90BD     		pop	{r4, r7, pc}
 1718              	.L130:
 1719 0666 00BF     		.align	2
 1720              	.L129:
 1721 0668 00000000 		.word	state
 1722 066c 00000000 		.word	whisper_vars
 1723              		.cfi_endproc
 1724              	.LFE22:
 1726              		.align	2
 1727              		.global	whisper_task_remote
 1728              		.thumb
 1729              		.thumb_func
 1731              	whisper_task_remote:
 1732              	.LFB23:
 643:build/openmote-cc2538_armgcc/openapps/whisper/whisper.c **** 
 644:build/openmote-cc2538_armgcc/openapps/whisper/whisper.c **** 
 645:build/openmote-cc2538_armgcc/openapps/whisper/whisper.c **** void whisper_task_remote(uint8_t* buf, uint8_t bufLen){
 1733              		.loc 1 645 0
 1734              		.cfi_startproc
 1735              		@ args = 0, pretend = 0, frame = 16
 1736              		@ frame_needed = 1, uses_anonymous_args = 0
 1737 0670 90B5     		push	{r4, r7, lr}
 1738              		.cfi_def_cfa_offset 12
 1739              		.cfi_offset 4, -12
 1740              		.cfi_offset 7, -8
 1741              		.cfi_offset 14, -4
 1742 0672 85B0     		sub	sp, sp, #20
 1743              		.cfi_def_cfa_offset 32
 1744 0674 00AF     		add	r7, sp, #0
 1745              		.cfi_def_cfa_register 7
 1746 0676 7860     		str	r0, [r7, #4]
 1747 0678 0B46     		mov	r3, r1
 1748 067a FB70     		strb	r3, [r7, #3]
 646:build/openmote-cc2538_armgcc/openapps/whisper/whisper.c **** 
 647:build/openmote-cc2538_armgcc/openapps/whisper/whisper.c **** 	//printf("I am WISHPER node %d, sending FAKE REMOTE DIO\n",idmanager_getMyID(ADDR_64B)->addr_64b[7
 648:build/openmote-cc2538_armgcc/openapps/whisper/whisper.c **** 
 649:build/openmote-cc2538_armgcc/openapps/whisper/whisper.c **** 
 650:build/openmote-cc2538_armgcc/openapps/whisper/whisper.c **** 	if (buf[1]==85){
 1749              		.loc 1 650 0
 1750 067c 7B68     		ldr	r3, [r7, #4]
 1751 067e 0133     		adds	r3, r3, #1
 1752 0680 1B78     		ldrb	r3, [r3]	@ zero_extendqisi2
 1753 0682 552B     		cmp	r3, #85
 1754 0684 0BD1     		bne	.L132
 1755              	.LBB6:
 651:build/openmote-cc2538_armgcc/openapps/whisper/whisper.c **** 		whisper_setTargetChildren(0x36);
 1756              		.loc 1 651 0
 1757 0686 3620     		movs	r0, #54
 1758 0688 FFF7FEFF 		bl	whisper_setTargetChildren
 652:build/openmote-cc2538_armgcc/openapps/whisper/whisper.c **** 		whisper_setTargetParentOld(0x55);
 1759              		.loc 1 652 0
 1760 068c 5520     		movs	r0, #85
 1761 068e FFF7FEFF 		bl	whisper_setTargetParentOld
 653:build/openmote-cc2538_armgcc/openapps/whisper/whisper.c **** 		whisper_setTargetParentNew(0xac);
 1762              		.loc 1 653 0
 1763 0692 AC20     		movs	r0, #172
 1764 0694 FFF7FEFF 		bl	whisper_setTargetParentNew
 654:build/openmote-cc2538_armgcc/openapps/whisper/whisper.c **** 		leds_debug_toggle();
 1765              		.loc 1 654 0
 1766 0698 FFF7FEFF 		bl	leds_debug_toggle
 1767              	.LBE6:
 1768 069c 0AE0     		b	.L133
 1769              	.L132:
 1770              	.LBB7:
 655:build/openmote-cc2538_armgcc/openapps/whisper/whisper.c **** 
 656:build/openmote-cc2538_armgcc/openapps/whisper/whisper.c **** 	}else{
 657:build/openmote-cc2538_armgcc/openapps/whisper/whisper.c **** 		whisper_setTargetChildren(0x36);
 1771              		.loc 1 657 0
 1772 069e 3620     		movs	r0, #54
 1773 06a0 FFF7FEFF 		bl	whisper_setTargetChildren
 658:build/openmote-cc2538_armgcc/openapps/whisper/whisper.c **** 		whisper_setTargetParentOld(0xac);
 1774              		.loc 1 658 0
 1775 06a4 AC20     		movs	r0, #172
 1776 06a6 FFF7FEFF 		bl	whisper_setTargetParentOld
 659:build/openmote-cc2538_armgcc/openapps/whisper/whisper.c **** 		whisper_setTargetParentNew(0x55);
 1777              		.loc 1 659 0
 1778 06aa 5520     		movs	r0, #85
 1779 06ac FFF7FEFF 		bl	whisper_setTargetParentNew
 660:build/openmote-cc2538_armgcc/openapps/whisper/whisper.c **** 		leds_debug_toggle();
 1780              		.loc 1 660 0
 1781 06b0 FFF7FEFF 		bl	leds_debug_toggle
 1782              	.L133:
 1783              	.LBE7:
 661:build/openmote-cc2538_armgcc/openapps/whisper/whisper.c **** 
 662:build/openmote-cc2538_armgcc/openapps/whisper/whisper.c **** 
 663:build/openmote-cc2538_armgcc/openapps/whisper/whisper.c **** 
 664:build/openmote-cc2538_armgcc/openapps/whisper/whisper.c **** 	}
 665:build/openmote-cc2538_armgcc/openapps/whisper/whisper.c **** 
 666:build/openmote-cc2538_armgcc/openapps/whisper/whisper.c **** 	if (whisper_getTargetParentOld()==0x55){
 1784              		.loc 1 666 0
 1785 06b4 FFF7FEFF 		bl	whisper_getTargetParentOld
 1786 06b8 0346     		mov	r3, r0
 1787 06ba 552B     		cmp	r3, #85
 1788 06bc 02D1     		bne	.L134
 1789              	.LBB8:
 667:build/openmote-cc2538_armgcc/openapps/whisper/whisper.c **** 		leds_sync_toggle();
 1790              		.loc 1 667 0
 1791 06be FFF7FEFF 		bl	leds_sync_toggle
 1792              	.LBE8:
 1793 06c2 01E0     		b	.L135
 1794              	.L134:
 1795              	.LBB9:
 668:build/openmote-cc2538_armgcc/openapps/whisper/whisper.c **** 	}else{
 669:build/openmote-cc2538_armgcc/openapps/whisper/whisper.c **** 		leds_error_toggle();
 1796              		.loc 1 669 0
 1797 06c4 FFF7FEFF 		bl	leds_error_toggle
 1798              	.L135:
 1799              	.LBE9:
 670:build/openmote-cc2538_armgcc/openapps/whisper/whisper.c **** 
 671:build/openmote-cc2538_armgcc/openapps/whisper/whisper.c **** 	}
 672:build/openmote-cc2538_armgcc/openapps/whisper/whisper.c **** 
 673:build/openmote-cc2538_armgcc/openapps/whisper/whisper.c **** 	//printf("I am WISHPER node %d, sending FAKE REMOTE DIO\n",idmanager_getMyID(ADDR_64B)->addr_64b[7
 674:build/openmote-cc2538_armgcc/openapps/whisper/whisper.c **** 
 675:build/openmote-cc2538_armgcc/openapps/whisper/whisper.c **** 	 uint16_t		  rank;
 676:build/openmote-cc2538_armgcc/openapps/whisper/whisper.c **** 
 677:build/openmote-cc2538_armgcc/openapps/whisper/whisper.c **** 
 678:build/openmote-cc2538_armgcc/openapps/whisper/whisper.c **** 
 679:build/openmote-cc2538_armgcc/openapps/whisper/whisper.c **** 	  rank=((3*DEFAULTLINKCOST-2)*MINHOPRANKINCREASE)-1;
 1800              		.loc 1 679 0
 1801 06c8 40F6FF13 		movw	r3, #2559
 1802 06cc FB81     		strh	r3, [r7, #14]	@ movhi
 680:build/openmote-cc2538_armgcc/openapps/whisper/whisper.c ****       icmpv6rpl_sendWhisperDIO(whisper_getTargetChildren(),whisper_getTargetParentOld(),rank);
 1803              		.loc 1 680 0
 1804 06ce FFF7FEFF 		bl	whisper_getTargetChildren
 1805 06d2 0346     		mov	r3, r0
 1806 06d4 1C46     		mov	r4, r3
 1807 06d6 FFF7FEFF 		bl	whisper_getTargetParentOld
 1808 06da 0346     		mov	r3, r0
 1809 06dc 1946     		mov	r1, r3
 1810 06de FB89     		ldrh	r3, [r7, #14]
 1811 06e0 1A46     		mov	r2, r3
 1812 06e2 2046     		mov	r0, r4
 1813 06e4 FFF7FEFF 		bl	icmpv6rpl_sendWhisperDIO
 681:build/openmote-cc2538_armgcc/openapps/whisper/whisper.c **** 
 682:build/openmote-cc2538_armgcc/openapps/whisper/whisper.c **** 	  icmpv6rpl_sendWhisperDIO(whisper_getTargetChildren(),whisper_getTargetParentOld(),2*rank);
 1814              		.loc 1 682 0
 1815 06e8 FFF7FEFF 		bl	whisper_getTargetChildren
 1816 06ec 0346     		mov	r3, r0
 1817 06ee 1C46     		mov	r4, r3
 1818 06f0 FFF7FEFF 		bl	whisper_getTargetParentOld
 1819 06f4 0346     		mov	r3, r0
 1820 06f6 1946     		mov	r1, r3
 1821 06f8 FB89     		ldrh	r3, [r7, #14]	@ movhi
 1822 06fa 5B00     		lsls	r3, r3, #1
 1823 06fc 9BB2     		uxth	r3, r3
 1824 06fe 1A46     		mov	r2, r3
 1825 0700 2046     		mov	r0, r4
 1826 0702 FFF7FEFF 		bl	icmpv6rpl_sendWhisperDIO
 683:build/openmote-cc2538_armgcc/openapps/whisper/whisper.c **** 
 684:build/openmote-cc2538_armgcc/openapps/whisper/whisper.c **** 	  whisper_setState(0);	//3 Sending DIOs
 1827              		.loc 1 684 0
 1828 0706 0020     		movs	r0, #0
 1829 0708 FFF7FEFF 		bl	whisper_setState
 685:build/openmote-cc2538_armgcc/openapps/whisper/whisper.c **** 
 686:build/openmote-cc2538_armgcc/openapps/whisper/whisper.c **** 	return;
 1830              		.loc 1 686 0
 1831 070c 00BF     		nop
 687:build/openmote-cc2538_armgcc/openapps/whisper/whisper.c **** 
 688:build/openmote-cc2538_armgcc/openapps/whisper/whisper.c **** }
 1832              		.loc 1 688 0
 1833 070e 1437     		adds	r7, r7, #20
 1834              		.cfi_def_cfa_offset 12
 1835 0710 BD46     		mov	sp, r7
 1836              		.cfi_def_cfa_register 13
 1837              		@ sp needed
 1838 0712 90BD     		pop	{r4, r7, pc}
 1839              		.cfi_endproc
 1840              	.LFE23:
 1842              		.align	2
 1843              		.global	whisper_sendDone
 1844              		.thumb
 1845              		.thumb_func
 1847              	whisper_sendDone:
 1848              	.LFB24:
 689:build/openmote-cc2538_armgcc/openapps/whisper/whisper.c **** 
 690:build/openmote-cc2538_armgcc/openapps/whisper/whisper.c **** 
 691:build/openmote-cc2538_armgcc/openapps/whisper/whisper.c **** /**
 692:build/openmote-cc2538_armgcc/openapps/whisper/whisper.c **** \brief The stack indicates that the packet was sent.
 693:build/openmote-cc2538_armgcc/openapps/whisper/whisper.c **** 
 694:build/openmote-cc2538_armgcc/openapps/whisper/whisper.c **** \param[in] msg The CoAP message just sent.
 695:build/openmote-cc2538_armgcc/openapps/whisper/whisper.c **** \param[in] error The outcome of sending it.
 696:build/openmote-cc2538_armgcc/openapps/whisper/whisper.c **** */
 697:build/openmote-cc2538_armgcc/openapps/whisper/whisper.c **** void whisper_sendDone(OpenQueueEntry_t* msg, owerror_t error) {
 1849              		.loc 1 697 0
 1850              		.cfi_startproc
 1851              		@ args = 0, pretend = 0, frame = 8
 1852              		@ frame_needed = 1, uses_anonymous_args = 0
 1853 0714 80B5     		push	{r7, lr}
 1854              		.cfi_def_cfa_offset 8
 1855              		.cfi_offset 7, -8
 1856              		.cfi_offset 14, -4
 1857 0716 82B0     		sub	sp, sp, #8
 1858              		.cfi_def_cfa_offset 16
 1859 0718 00AF     		add	r7, sp, #0
 1860              		.cfi_def_cfa_register 7
 1861 071a 7860     		str	r0, [r7, #4]
 1862 071c 0B46     		mov	r3, r1
 1863 071e FB70     		strb	r3, [r7, #3]
 698:build/openmote-cc2538_armgcc/openapps/whisper/whisper.c **** 
 699:build/openmote-cc2538_armgcc/openapps/whisper/whisper.c **** 
 700:build/openmote-cc2538_armgcc/openapps/whisper/whisper.c ****    openqueue_freePacketBuffer(msg);
 1864              		.loc 1 700 0
 1865 0720 7868     		ldr	r0, [r7, #4]
 1866 0722 FFF7FEFF 		bl	openqueue_freePacketBuffer
 701:build/openmote-cc2538_armgcc/openapps/whisper/whisper.c **** }
 1867              		.loc 1 701 0
 1868 0726 00BF     		nop
 1869 0728 0837     		adds	r7, r7, #8
 1870              		.cfi_def_cfa_offset 8
 1871 072a BD46     		mov	sp, r7
 1872              		.cfi_def_cfa_register 13
 1873              		@ sp needed
 1874 072c 80BD     		pop	{r7, pc}
 1875              		.cfi_endproc
 1876              	.LFE24:
 1878              	.Letext0:
 1879              		.file 2 "/usr/include/newlib/machine/_default_types.h"
 1880              		.file 3 "/usr/include/newlib/sys/_stdint.h"
 1881              		.file 4 "inc/opendefs.h"
 1882              		.file 5 "drivers/common/opentimers.h"
 1883              		.file 6 "openapps/opencoap/opencoap.h"
 1884              		.file 7 "build/openmote-cc2538_armgcc/openapps/whisper/whisper.h"
 1885              		.file 8 "openstack/02b-MAChigh/schedule.h"
 1886              		.file 9 "kernel/scheduler.h"
 1887              		.file 10 "bsp/boards/openmote-cc2538/board_info.h"
 1888              		.file 11 "openstack/cross-layers/idmanager.h"
 1889              		.file 12 "openstack/03b-IPv6/icmpv6rpl.h"
 1890              		.file 13 "openstack/02a-MAClow/IEEE802154E.h"