   1              		.syntax unified
   2              		.cpu cortex-m3
   3              		.fpu softvfp
   4              		.eabi_attribute 20, 1
   5              		.eabi_attribute 21, 1
   6              		.eabi_attribute 23, 3
   7              		.eabi_attribute 24, 1
   8              		.eabi_attribute 25, 1
   9              		.eabi_attribute 26, 1
  10              		.eabi_attribute 30, 6
  11              		.eabi_attribute 34, 1
  12              		.eabi_attribute 18, 4
  13              		.thumb
  14              		.syntax unified
  15              		.file	"whispersender.c"
  16              		.text
  17              	.Ltext0:
  18              		.cfi_sections	.debug_frame
  19              		.section	.rodata
  20              		.align	2
  23              	rreg_uriquery:
  24 0000 683D7563 		.ascii	"h=ucb\000"
  24      6200
  25 0006 0000     		.align	2
  28              	infoBoardname:
  29 0008 43433235 		.ascii	"CC2538\000"
  29      333800
  30 000f 00       		.align	2
  33              	infouCName:
  34 0010 43433235 		.ascii	"CC2538\000"
  34      333800
  35 0017 00       		.align	2
  38              	infoRadioName:
  39 0018 43433235 		.ascii	"CC2538 SoC\000"
  39      33382053 
  39      6F4300
  40 0023 00       		.align	2
  43              	infoStackName:
  44 0024 4F70656E 		.ascii	"OpenWSN \000"
  44      57534E20 
  44      00
  45 002d 000000   		.align	2
  48              	ipAddr_ipsoRD:
  49 0030 26       		.byte	38
  50 0031 07       		.byte	7
  51 0032 F7       		.byte	-9
  52 0033 40       		.byte	64
  53 0034 00       		.byte	0
  54 0035 00       		.byte	0
  55 0036 00       		.byte	0
  56 0037 3F       		.byte	63
  57 0038 00       		.byte	0
  58 0039 00       		.byte	0
  59 003a 00       		.byte	0
  60 003b 00       		.byte	0
  61 003c 00       		.byte	0
  62 003d 00       		.byte	0
  63 003e 0E       		.byte	14
  64 003f 29       		.byte	41
  65              		.align	2
  68              	ipAddr_motesEecs:
  69 0040 20       		.byte	32
  70 0041 01       		.byte	1
  71 0042 04       		.byte	4
  72 0043 70       		.byte	112
  73 0044 00       		.byte	0
  74 0045 66       		.byte	102
  75 0046 00       		.byte	0
  76 0047 19       		.byte	25
  77 0048 00       		.byte	0
  78 0049 00       		.byte	0
  79 004a 00       		.byte	0
  80 004b 00       		.byte	0
  81 004c 00       		.byte	0
  82 004d 00       		.byte	0
  83 004e 00       		.byte	0
  84 004f 02       		.byte	2
  85              		.align	2
  88              	ipAddr_local:
  89 0050 26       		.byte	38
  90 0051 07       		.byte	7
  91 0052 F1       		.byte	-15
  92 0053 40       		.byte	64
  93 0054 04       		.byte	4
  94 0055 00       		.byte	0
  95 0056 10       		.byte	16
  96 0057 36       		.byte	54
  97 0058 4D       		.byte	77
  98 0059 CD       		.byte	-51
  99 005a AB       		.byte	-85
 100 005b 54       		.byte	84
 101 005c 81       		.byte	-127
 102 005d 99       		.byte	-103
 103 005e C1       		.byte	-63
 104 005f F7       		.byte	-9
 105              		.align	2
 108              	ipAddr_motedata:
 109 0060 20       		.byte	32
 110 0061 01       		.byte	1
 111 0062 04       		.byte	4
 112 0063 70       		.byte	112
 113 0064 00       		.byte	0
 114 0065 66       		.byte	102
 115 0066 00       		.byte	0
 116 0067 17       		.byte	23
 117 0068 00       		.byte	0
 118 0069 00       		.byte	0
 119 006a 00       		.byte	0
 120 006b 00       		.byte	0
 121 006c 00       		.byte	0
 122 006d 00       		.byte	0
 123 006e 00       		.byte	0
 124 006f 02       		.byte	2
 125              		.align	2
 128              	ipAddr_ringmaster:
 129 0070 BB       		.byte	-69
 130 0071 BB       		.byte	-69
 131 0072 00       		.byte	0
 132 0073 00       		.byte	0
 133 0074 00       		.byte	0
 134 0075 00       		.byte	0
 135 0076 00       		.byte	0
 136 0077 00       		.byte	0
 137 0078 00       		.byte	0
 138 0079 00       		.byte	0
 139 007a 00       		.byte	0
 140 007b 00       		.byte	0
 141 007c 00       		.byte	0
 142 007d 00       		.byte	0
 143 007e 00       		.byte	0
 144 007f 01       		.byte	1
 145              		.align	2
 148              	chTemplate_default:
 149 0080 05       		.byte	5
 150 0081 06       		.byte	6
 151 0082 0C       		.byte	12
 152 0083 07       		.byte	7
 153 0084 0F       		.byte	15
 154 0085 04       		.byte	4
 155 0086 0E       		.byte	14
 156 0087 0B       		.byte	11
 157 0088 08       		.byte	8
 158 0089 00       		.byte	0
 159 008a 01       		.byte	1
 160 008b 02       		.byte	2
 161 008c 0D       		.byte	13
 162 008d 03       		.byte	3
 163 008e 09       		.byte	9
 164 008f 0A       		.byte	10
 165              		.align	2
 168              	ebIEsBytestream:
 169 0090 1A       		.byte	26
 170 0091 88       		.byte	-120
 171 0092 06       		.byte	6
 172 0093 1A       		.byte	26
 173 0094 00       		.byte	0
 174 0095 00       		.byte	0
 175 0096 00       		.byte	0
 176 0097 00       		.byte	0
 177 0098 00       		.byte	0
 178 0099 00       		.byte	0
 179 009a 01       		.byte	1
 180 009b 1C       		.byte	28
 181 009c 00       		.byte	0
 182 009d 01       		.byte	1
 183 009e C8       		.byte	-56
 184 009f 00       		.byte	0
 185 00a0 0A       		.byte	10
 186 00a1 1B       		.byte	27
 187 00a2 01       		.byte	1
 188 00a3 00       		.byte	0
 189 00a4 17       		.byte	23
 190 00a5 00       		.byte	0
 191 00a6 01       		.byte	1
 192 00a7 00       		.byte	0
 193 00a8 00       		.byte	0
 194 00a9 00       		.byte	0
 195 00aa 00       		.byte	0
 196 00ab 0F       		.byte	15
 197              		.align	2
 200              	linklocalprefix:
 201 00ac FE       		.byte	-2
 202 00ad 80       		.byte	-128
 203 00ae 00       		.byte	0
 204 00af 00       		.byte	0
 205 00b0 00       		.byte	0
 206 00b1 00       		.byte	0
 207 00b2 00       		.byte	0
 208 00b3 00       		.byte	0
 209              		.comm	whispersender_vars,80,4
 210              		.align	2
 213              	whispersender_payload:
 214 00b4 77686973 		.ascii	"whispersender\000"
 214      70657273 
 214      656E6465 
 214      7200
 215 00c2 0000     		.align	2
 218              	whispersender_dst_addr:
 219 00c4 BB       		.byte	-69
 220 00c5 BB       		.byte	-69
 221 00c6 00       		.byte	0
 222 00c7 00       		.byte	0
 223 00c8 00       		.byte	0
 224 00c9 00       		.byte	0
 225 00ca 00       		.byte	0
 226 00cb 00       		.byte	0
 227 00cc 00       		.byte	0
 228 00cd 00       		.byte	0
 229 00ce 00       		.byte	0
 230 00cf 00       		.byte	0
 231 00d0 00       		.byte	0
 232 00d1 00       		.byte	0
 233 00d2 00       		.byte	0
 234 00d3 01       		.byte	1
 235              		.global	whispersender_path0
 236              		.align	2
 239              	whispersender_path0:
 240 00d4 7000     		.ascii	"p\000"
 241              		.text
 242              		.align	2
 243              		.global	whispersender_init
 244              		.thumb
 245              		.thumb_func
 247              	whispersender_init:
 248              	.LFB0:
 249              		.file 1 "build/openmote-cc2538_armgcc/openapps/whispersender/whispersender.c"
   1:build/openmote-cc2538_armgcc/openapps/whispersender/whispersender.c **** #include "opendefs.h"
   2:build/openmote-cc2538_armgcc/openapps/whispersender/whispersender.c **** #include "whispersender.h"
   3:build/openmote-cc2538_armgcc/openapps/whispersender/whispersender.c **** #include "openqueue.h"
   4:build/openmote-cc2538_armgcc/openapps/whispersender/whispersender.c **** #include "openserial.h"
   5:build/openmote-cc2538_armgcc/openapps/whispersender/whispersender.c **** #include "packetfunctions.h"
   6:build/openmote-cc2538_armgcc/openapps/whispersender/whispersender.c **** #include "scheduler.h"
   7:build/openmote-cc2538_armgcc/openapps/whispersender/whispersender.c **** #include "IEEE802154E.h"
   8:build/openmote-cc2538_armgcc/openapps/whispersender/whispersender.c **** #include "idmanager.h"
   9:build/openmote-cc2538_armgcc/openapps/whispersender/whispersender.c **** #include "opencoap.h"
  10:build/openmote-cc2538_armgcc/openapps/whispersender/whispersender.c **** 
  11:build/openmote-cc2538_armgcc/openapps/whispersender/whispersender.c **** //=========================== variables =======================================
  12:build/openmote-cc2538_armgcc/openapps/whispersender/whispersender.c **** 
  13:build/openmote-cc2538_armgcc/openapps/whispersender/whispersender.c **** whispersender_vars_t whispersender_vars;
  14:build/openmote-cc2538_armgcc/openapps/whispersender/whispersender.c **** 
  15:build/openmote-cc2538_armgcc/openapps/whispersender/whispersender.c **** static const uint8_t whispersender_payload[]    = "whispersender";
  16:build/openmote-cc2538_armgcc/openapps/whispersender/whispersender.c **** static const uint8_t whispersender_dst_addr[]   = {
  17:build/openmote-cc2538_armgcc/openapps/whispersender/whispersender.c ****    0xbb, 0xbb, 0x00, 0x00, 0x00, 0x00, 0x00, 0x00,
  18:build/openmote-cc2538_armgcc/openapps/whispersender/whispersender.c ****    0x00, 0x00, 0x00, 0x00, 0x00, 0x00, 0x00, 0x01
  19:build/openmote-cc2538_armgcc/openapps/whispersender/whispersender.c **** }; 
  20:build/openmote-cc2538_armgcc/openapps/whispersender/whispersender.c **** 
  21:build/openmote-cc2538_armgcc/openapps/whispersender/whispersender.c **** const uint8_t whispersender_path0[] = "p";
  22:build/openmote-cc2538_armgcc/openapps/whispersender/whispersender.c **** 
  23:build/openmote-cc2538_armgcc/openapps/whispersender/whispersender.c **** //=========================== prototypes ======================================
  24:build/openmote-cc2538_armgcc/openapps/whispersender/whispersender.c **** 
  25:build/openmote-cc2538_armgcc/openapps/whispersender/whispersender.c **** void whispersender_timer_cb(opentimers_id_t id);
  26:build/openmote-cc2538_armgcc/openapps/whispersender/whispersender.c **** void whispersender_task_cb(void);
  27:build/openmote-cc2538_armgcc/openapps/whispersender/whispersender.c **** owerror_t whispersender_receiveCoap(
  28:build/openmote-cc2538_armgcc/openapps/whispersender/whispersender.c ****       OpenQueueEntry_t* msg,
  29:build/openmote-cc2538_armgcc/openapps/whispersender/whispersender.c ****       coap_header_iht* coap_header,
  30:build/openmote-cc2538_armgcc/openapps/whispersender/whispersender.c ****       coap_option_iht* coap_options
  31:build/openmote-cc2538_armgcc/openapps/whispersender/whispersender.c ****    );
  32:build/openmote-cc2538_armgcc/openapps/whispersender/whispersender.c **** void whispersender_receiveUdp(OpenQueueEntry_t* pkt);
  33:build/openmote-cc2538_armgcc/openapps/whispersender/whispersender.c **** void whispersender_sendDoneCoap(OpenQueueEntry_t* msg, owerror_t error);
  34:build/openmote-cc2538_armgcc/openapps/whispersender/whispersender.c **** 
  35:build/openmote-cc2538_armgcc/openapps/whispersender/whispersender.c **** void whispersender_sendDoneUdp(OpenQueueEntry_t* msg, owerror_t error);
  36:build/openmote-cc2538_armgcc/openapps/whispersender/whispersender.c **** //=========================== public ==========================================
  37:build/openmote-cc2538_armgcc/openapps/whispersender/whispersender.c **** 
  38:build/openmote-cc2538_armgcc/openapps/whispersender/whispersender.c **** void whispersender_init() {
 250              		.loc 1 38 0
 251              		.cfi_startproc
 252              		@ args = 0, pretend = 0, frame = 0
 253              		@ frame_needed = 1, uses_anonymous_args = 0
 254 0000 80B5     		push	{r7, lr}
 255              		.cfi_def_cfa_offset 8
 256              		.cfi_offset 7, -8
 257              		.cfi_offset 14, -4
 258 0002 00AF     		add	r7, sp, #0
 259              		.cfi_def_cfa_register 7
  39:build/openmote-cc2538_armgcc/openapps/whispersender/whispersender.c **** 
  40:build/openmote-cc2538_armgcc/openapps/whispersender/whispersender.c ****     // do not run if DAGroot
  41:build/openmote-cc2538_armgcc/openapps/whispersender/whispersender.c ****     if(idmanager_getIsDAGroot()==TRUE) return; 
 260              		.loc 1 41 0
 261 0004 FFF7FEFF 		bl	idmanager_getIsDAGroot
 262 0008 0346     		mov	r3, r0
 263 000a 002B     		cmp	r3, #0
 264 000c 45D1     		bne	.L5
  42:build/openmote-cc2538_armgcc/openapps/whispersender/whispersender.c ****     // do not run if not whisper node
  43:build/openmote-cc2538_armgcc/openapps/whispersender/whispersender.c ****     if(idmanager_getMyID(ADDR_64B)->addr_64b[7] != 0x36) return;	//only mote 4 can send
 265              		.loc 1 43 0
 266 000e 0220     		movs	r0, #2
 267 0010 FFF7FEFF 		bl	idmanager_getMyID
 268 0014 0346     		mov	r3, r0
 269 0016 1B7A     		ldrb	r3, [r3, #8]	@ zero_extendqisi2
 270 0018 362B     		cmp	r3, #54
 271 001a 40D1     		bne	.L6
  44:build/openmote-cc2538_armgcc/openapps/whispersender/whispersender.c **** 
  45:build/openmote-cc2538_armgcc/openapps/whispersender/whispersender.c ****     leds_debug_toggle();
 272              		.loc 1 45 0
 273 001c FFF7FEFF 		bl	leds_debug_toggle
  46:build/openmote-cc2538_armgcc/openapps/whispersender/whispersender.c ****     // clear local variables
  47:build/openmote-cc2538_armgcc/openapps/whispersender/whispersender.c ****     memset(&whispersender_vars,0,sizeof(whispersender_vars_t));
 274              		.loc 1 47 0
 275 0020 5022     		movs	r2, #80
 276 0022 0021     		movs	r1, #0
 277 0024 1F48     		ldr	r0, .L7
 278 0026 FFF7FEFF 		bl	memset
  48:build/openmote-cc2538_armgcc/openapps/whispersender/whispersender.c **** 
  49:build/openmote-cc2538_armgcc/openapps/whispersender/whispersender.c **** 
  50:build/openmote-cc2538_armgcc/openapps/whispersender/whispersender.c ****     whispersender_vars.descoap.path0len             = sizeof(whispersender_path0)-1;
 279              		.loc 1 50 0
 280 002a 1E4B     		ldr	r3, .L7
 281 002c 0122     		movs	r2, #1
 282 002e 1A72     		strb	r2, [r3, #8]
  51:build/openmote-cc2538_armgcc/openapps/whispersender/whispersender.c ****     whispersender_vars.descoap.path0val             = (uint8_t*)(&whispersender_path0);
 283              		.loc 1 51 0
 284 0030 1C4B     		ldr	r3, .L7
 285 0032 1D4A     		ldr	r2, .L7+4
 286 0034 DA60     		str	r2, [r3, #12]
  52:build/openmote-cc2538_armgcc/openapps/whispersender/whispersender.c ****     whispersender_vars.descoap.path1len             = 0;
 287              		.loc 1 52 0
 288 0036 1B4B     		ldr	r3, .L7
 289 0038 0022     		movs	r2, #0
 290 003a 1A74     		strb	r2, [r3, #16]
  53:build/openmote-cc2538_armgcc/openapps/whispersender/whispersender.c ****     whispersender_vars.descoap.path1val             = NULL;
 291              		.loc 1 53 0
 292 003c 194B     		ldr	r3, .L7
 293 003e 0022     		movs	r2, #0
 294 0040 5A61     		str	r2, [r3, #20]
  54:build/openmote-cc2538_armgcc/openapps/whispersender/whispersender.c ****     whispersender_vars.descoap.componentID          = COMPONENT_WHISPERSENDER;
 295              		.loc 1 54 0
 296 0042 184B     		ldr	r3, .L7
 297 0044 2E22     		movs	r2, #46
 298 0046 1A76     		strb	r2, [r3, #24]
  55:build/openmote-cc2538_armgcc/openapps/whispersender/whispersender.c ****     whispersender_vars.descoap.discoverable         = TRUE;
 299              		.loc 1 55 0
 300 0048 164B     		ldr	r3, .L7
 301 004a 0122     		movs	r2, #1
 302 004c 83F82020 		strb	r2, [r3, #32]
  56:build/openmote-cc2538_armgcc/openapps/whispersender/whispersender.c ****     whispersender_vars.descoap.callbackRx           = &whispersender_receiveCoap;
 303              		.loc 1 56 0
 304 0050 144B     		ldr	r3, .L7
 305 0052 164A     		ldr	r2, .L7+8
 306 0054 5A62     		str	r2, [r3, #36]
  57:build/openmote-cc2538_armgcc/openapps/whispersender/whispersender.c ****     whispersender_vars.descoap.callbackSendDone     = &whispersender_sendDoneCoap;
 307              		.loc 1 57 0
 308 0056 134B     		ldr	r3, .L7
 309 0058 154A     		ldr	r2, .L7+12
 310 005a 9A62     		str	r2, [r3, #40]
  58:build/openmote-cc2538_armgcc/openapps/whispersender/whispersender.c **** 
  59:build/openmote-cc2538_armgcc/openapps/whispersender/whispersender.c ****     whispersender_vars.timerIdWhispersender = opentimers_create();
 311              		.loc 1 59 0
 312 005c FFF7FEFF 		bl	opentimers_create
 313 0060 0346     		mov	r3, r0
 314 0062 1A46     		mov	r2, r3
 315 0064 0F4B     		ldr	r3, .L7
 316 0066 1A70     		strb	r2, [r3]
  60:build/openmote-cc2538_armgcc/openapps/whispersender/whispersender.c ****     whispersender_vars.counter=0;
 317              		.loc 1 60 0
 318 0068 0E4B     		ldr	r3, .L7
 319 006a 0022     		movs	r2, #0
 320 006c 5A80     		strh	r2, [r3, #2]	@ movhi
  61:build/openmote-cc2538_armgcc/openapps/whispersender/whispersender.c **** 
  62:build/openmote-cc2538_armgcc/openapps/whispersender/whispersender.c ****     // register with the CoAP module
  63:build/openmote-cc2538_armgcc/openapps/whispersender/whispersender.c ****     opencoap_register(&whispersender_vars.descoap);
 321              		.loc 1 63 0
 322 006e 1148     		ldr	r0, .L7+16
 323 0070 FFF7FEFF 		bl	opencoap_register
  64:build/openmote-cc2538_armgcc/openapps/whispersender/whispersender.c **** 
  65:build/openmote-cc2538_armgcc/openapps/whispersender/whispersender.c **** 
  66:build/openmote-cc2538_armgcc/openapps/whispersender/whispersender.c ****     whispersender_vars.period = WHISPERSENDER_PERIOD_MS;
 324              		.loc 1 66 0
 325 0074 0B4B     		ldr	r3, .L7
 326 0076 4FF47A72 		mov	r2, #1000
 327 007a 9A80     		strh	r2, [r3, #4]	@ movhi
  67:build/openmote-cc2538_armgcc/openapps/whispersender/whispersender.c **** 
  68:build/openmote-cc2538_armgcc/openapps/whispersender/whispersender.c ****         // register at UDP stack
  69:build/openmote-cc2538_armgcc/openapps/whispersender/whispersender.c ****     whispersender_vars.descudp.port              	= WKP_UDP_WHISPER;
 328              		.loc 1 69 0
 329 007c 094B     		ldr	r3, .L7
 330 007e 4FF2B402 		movw	r2, #61620
 331 0082 A3F84020 		strh	r2, [r3, #64]	@ movhi
  70:build/openmote-cc2538_armgcc/openapps/whispersender/whispersender.c ****     whispersender_vars.descudp.callbackReceive      = &whispersender_receiveUdp;
 332              		.loc 1 70 0
 333 0086 074B     		ldr	r3, .L7
 334 0088 0B4A     		ldr	r2, .L7+20
 335 008a 5A64     		str	r2, [r3, #68]
  71:build/openmote-cc2538_armgcc/openapps/whispersender/whispersender.c ****     whispersender_vars.descudp.callbackSendDone     = &whispersender_sendDoneUdp;
 336              		.loc 1 71 0
 337 008c 054B     		ldr	r3, .L7
 338 008e 0B4A     		ldr	r2, .L7+24
 339 0090 9A64     		str	r2, [r3, #72]
  72:build/openmote-cc2538_armgcc/openapps/whispersender/whispersender.c ****     openudp_register(&whispersender_vars.descudp);
 340              		.loc 1 72 0
 341 0092 0B48     		ldr	r0, .L7+28
 342 0094 FFF7FEFF 		bl	openudp_register
 343 0098 02E0     		b	.L1
 344              	.L5:
  41:build/openmote-cc2538_armgcc/openapps/whispersender/whispersender.c ****     // do not run if not whisper node
 345              		.loc 1 41 0
 346 009a 00BF     		nop
 347 009c 00E0     		b	.L1
 348              	.L6:
  43:build/openmote-cc2538_armgcc/openapps/whispersender/whispersender.c **** 
 349              		.loc 1 43 0
 350 009e 00BF     		nop
 351              	.L1:
  73:build/openmote-cc2538_armgcc/openapps/whispersender/whispersender.c **** 
  74:build/openmote-cc2538_armgcc/openapps/whispersender/whispersender.c **** /*    // start periodic timer*/
  75:build/openmote-cc2538_armgcc/openapps/whispersender/whispersender.c **** /*    whispersender_sender_vars.timerId = opentimers_create();*/
  76:build/openmote-cc2538_armgcc/openapps/whispersender/whispersender.c **** /*    opentimers_scheduleIn(*/
  77:build/openmote-cc2538_armgcc/openapps/whispersender/whispersender.c **** /*        whispersender_sender_vars.timerId,*/
  78:build/openmote-cc2538_armgcc/openapps/whispersender/whispersender.c **** /*        WHISPER_SENDER_PERIOD_MS,*/
  79:build/openmote-cc2538_armgcc/openapps/whispersender/whispersender.c **** /*        TIME_MS,*/
  80:build/openmote-cc2538_armgcc/openapps/whispersender/whispersender.c **** /*        TIMER_PERIODIC,*/
  81:build/openmote-cc2538_armgcc/openapps/whispersender/whispersender.c **** /*        whispersender_sender_timer_cb*/
  82:build/openmote-cc2538_armgcc/openapps/whispersender/whispersender.c **** /*    );*/
  83:build/openmote-cc2538_armgcc/openapps/whispersender/whispersender.c **** }
 352              		.loc 1 83 0
 353 00a0 80BD     		pop	{r7, pc}
 354              	.L8:
 355 00a2 00BF     		.align	2
 356              	.L7:
 357 00a4 00000000 		.word	whispersender_vars
 358 00a8 00000000 		.word	whispersender_path0
 359 00ac 00000000 		.word	whispersender_receiveCoap
 360 00b0 00000000 		.word	whispersender_sendDoneCoap
 361 00b4 08000000 		.word	whispersender_vars+8
 362 00b8 00000000 		.word	whispersender_receiveUdp
 363 00bc 00000000 		.word	whispersender_sendDoneUdp
 364 00c0 40000000 		.word	whispersender_vars+64
 365              		.cfi_endproc
 366              	.LFE0:
 368              		.align	2
 369              		.global	whispersender_receiveUdp
 370              		.thumb
 371              		.thumb_func
 373              	whispersender_receiveUdp:
 374              	.LFB1:
  84:build/openmote-cc2538_armgcc/openapps/whispersender/whispersender.c **** 
  85:build/openmote-cc2538_armgcc/openapps/whispersender/whispersender.c **** void whispersender_receiveUdp(OpenQueueEntry_t* pkt) {
 375              		.loc 1 85 0
 376              		.cfi_startproc
 377              		@ args = 0, pretend = 0, frame = 8
 378              		@ frame_needed = 1, uses_anonymous_args = 0
 379 00c4 80B5     		push	{r7, lr}
 380              		.cfi_def_cfa_offset 8
 381              		.cfi_offset 7, -8
 382              		.cfi_offset 14, -4
 383 00c6 82B0     		sub	sp, sp, #8
 384              		.cfi_def_cfa_offset 16
 385 00c8 00AF     		add	r7, sp, #0
 386              		.cfi_def_cfa_register 7
 387 00ca 7860     		str	r0, [r7, #4]
  86:build/openmote-cc2538_armgcc/openapps/whispersender/whispersender.c ****    
  87:build/openmote-cc2538_armgcc/openapps/whispersender/whispersender.c ****    openqueue_freePacketBuffer(pkt);
 388              		.loc 1 87 0
 389 00cc 7868     		ldr	r0, [r7, #4]
 390 00ce FFF7FEFF 		bl	openqueue_freePacketBuffer
  88:build/openmote-cc2538_armgcc/openapps/whispersender/whispersender.c ****    
  89:build/openmote-cc2538_armgcc/openapps/whispersender/whispersender.c ****    openserial_printError(
 391              		.loc 1 89 0
 392 00d2 0023     		movs	r3, #0
 393 00d4 0022     		movs	r2, #0
 394 00d6 0221     		movs	r1, #2
 395 00d8 2520     		movs	r0, #37
 396 00da FFF7FEFF 		bl	openserial_printError
  90:build/openmote-cc2538_armgcc/openapps/whispersender/whispersender.c ****       COMPONENT_UINJECT,
  91:build/openmote-cc2538_armgcc/openapps/whispersender/whispersender.c ****       ERR_RCVD_ECHO_REPLY,
  92:build/openmote-cc2538_armgcc/openapps/whispersender/whispersender.c ****       (errorparameter_t)0,
  93:build/openmote-cc2538_armgcc/openapps/whispersender/whispersender.c ****       (errorparameter_t)0
  94:build/openmote-cc2538_armgcc/openapps/whispersender/whispersender.c ****    );
  95:build/openmote-cc2538_armgcc/openapps/whispersender/whispersender.c **** }
 397              		.loc 1 95 0
 398 00de 00BF     		nop
 399 00e0 0837     		adds	r7, r7, #8
 400              		.cfi_def_cfa_offset 8
 401 00e2 BD46     		mov	sp, r7
 402              		.cfi_def_cfa_register 13
 403              		@ sp needed
 404 00e4 80BD     		pop	{r7, pc}
 405              		.cfi_endproc
 406              	.LFE1:
 408 00e6 00BF     		.align	2
 409              		.global	whispersender_receiveCoap
 410              		.thumb
 411              		.thumb_func
 413              	whispersender_receiveCoap:
 414              	.LFB2:
  96:build/openmote-cc2538_armgcc/openapps/whispersender/whispersender.c **** 
  97:build/openmote-cc2538_armgcc/openapps/whispersender/whispersender.c **** 
  98:build/openmote-cc2538_armgcc/openapps/whispersender/whispersender.c **** owerror_t whispersender_receiveCoap(
  99:build/openmote-cc2538_armgcc/openapps/whispersender/whispersender.c **** 	      OpenQueueEntry_t* msg,
 100:build/openmote-cc2538_armgcc/openapps/whispersender/whispersender.c **** 	      coap_header_iht* coap_header,
 101:build/openmote-cc2538_armgcc/openapps/whispersender/whispersender.c **** 	      coap_option_iht* coap_options) {
 415              		.loc 1 101 0
 416              		.cfi_startproc
 417              		@ args = 0, pretend = 0, frame = 24
 418              		@ frame_needed = 1, uses_anonymous_args = 0
 419 00e8 80B5     		push	{r7, lr}
 420              		.cfi_def_cfa_offset 8
 421              		.cfi_offset 7, -8
 422              		.cfi_offset 14, -4
 423 00ea 88B0     		sub	sp, sp, #32
 424              		.cfi_def_cfa_offset 40
 425 00ec 02AF     		add	r7, sp, #8
 426              		.cfi_def_cfa 7, 32
 427 00ee F860     		str	r0, [r7, #12]
 428 00f0 B960     		str	r1, [r7, #8]
 429 00f2 7A60     		str	r2, [r7, #4]
 102:build/openmote-cc2538_armgcc/openapps/whispersender/whispersender.c ****    
 103:build/openmote-cc2538_armgcc/openapps/whispersender/whispersender.c **** 
 104:build/openmote-cc2538_armgcc/openapps/whispersender/whispersender.c ****    uint8_t          i;
 105:build/openmote-cc2538_armgcc/openapps/whispersender/whispersender.c ****    owerror_t outcome=0;
 430              		.loc 1 105 0
 431 00f4 0023     		movs	r3, #0
 432 00f6 FB75     		strb	r3, [r7, #23]
 106:build/openmote-cc2538_armgcc/openapps/whispersender/whispersender.c **** 
 107:build/openmote-cc2538_armgcc/openapps/whispersender/whispersender.c **** 
 108:build/openmote-cc2538_armgcc/openapps/whispersender/whispersender.c ****    switch (coap_header->Code) {
 433              		.loc 1 108 0
 434 00f8 BB68     		ldr	r3, [r7, #8]
 435 00fa DB78     		ldrb	r3, [r3, #3]	@ zero_extendqisi2
 436 00fc 032B     		cmp	r3, #3
 437 00fe 23D1     		bne	.L17
 109:build/openmote-cc2538_armgcc/openapps/whispersender/whispersender.c ****       case COAP_CODE_REQ_PUT:
 110:build/openmote-cc2538_armgcc/openapps/whispersender/whispersender.c **** 
 111:build/openmote-cc2538_armgcc/openapps/whispersender/whispersender.c ****     	  //leds_debug_toggle();
 112:build/openmote-cc2538_armgcc/openapps/whispersender/whispersender.c **** 
 113:build/openmote-cc2538_armgcc/openapps/whispersender/whispersender.c **** 			//printf("I am TARGET node %d, received a COAP message to start sending packets to the root \n",
 114:build/openmote-cc2538_armgcc/openapps/whispersender/whispersender.c **** 				//sending FAKE DIO
 115:build/openmote-cc2538_armgcc/openapps/whispersender/whispersender.c **** 			//if ( (msg->payload[0]==120) && (msg->payload[1]==4) && (msg->payload[2]==2) && (msg->payload[3
 116:build/openmote-cc2538_armgcc/openapps/whispersender/whispersender.c **** 			if ( msg->payload[0]==120) {
 438              		.loc 1 116 0
 439 0100 FB68     		ldr	r3, [r7, #12]
 440 0102 5B68     		ldr	r3, [r3, #4]
 441 0104 1B78     		ldrb	r3, [r3]	@ zero_extendqisi2
 442 0106 782B     		cmp	r3, #120
 443 0108 18D1     		bne	.L13
 117:build/openmote-cc2538_armgcc/openapps/whispersender/whispersender.c **** 				//printf("I am TARGET node %d, starting sending packets to the root \n", idmanager_getMyID(ADDR
 118:build/openmote-cc2538_armgcc/openapps/whispersender/whispersender.c **** 				   opentimers_scheduleIn(
 444              		.loc 1 118 0
 445 010a 134B     		ldr	r3, .L18
 446 010c 1878     		ldrb	r0, [r3]	@ zero_extendqisi2
 119:build/openmote-cc2538_armgcc/openapps/whispersender/whispersender.c **** 					   whispersender_vars.timerIdWhispersender,
 120:build/openmote-cc2538_armgcc/openapps/whispersender/whispersender.c **** 					   whispersender_vars.period,
 447              		.loc 1 120 0
 448 010e 124B     		ldr	r3, .L18
 449 0110 9B88     		ldrh	r3, [r3, #4]
 118:build/openmote-cc2538_armgcc/openapps/whispersender/whispersender.c **** 					   whispersender_vars.timerIdWhispersender,
 450              		.loc 1 118 0
 451 0112 1946     		mov	r1, r3
 452 0114 114B     		ldr	r3, .L18+4
 453 0116 0093     		str	r3, [sp]
 454 0118 0023     		movs	r3, #0
 455 011a 0022     		movs	r2, #0
 456 011c FFF7FEFF 		bl	opentimers_scheduleIn
 121:build/openmote-cc2538_armgcc/openapps/whispersender/whispersender.c **** 					   TIME_MS,
 122:build/openmote-cc2538_armgcc/openapps/whispersender/whispersender.c **** 					   TIMER_PERIODIC,
 123:build/openmote-cc2538_armgcc/openapps/whispersender/whispersender.c **** 					   whispersender_timer_cb
 124:build/openmote-cc2538_armgcc/openapps/whispersender/whispersender.c **** 				   );
 125:build/openmote-cc2538_armgcc/openapps/whispersender/whispersender.c **** 
 126:build/openmote-cc2538_armgcc/openapps/whispersender/whispersender.c **** 			}else{
 127:build/openmote-cc2538_armgcc/openapps/whispersender/whispersender.c **** 
 128:build/openmote-cc2538_armgcc/openapps/whispersender/whispersender.c **** 				//printf("I am TARGET node %d, end operation (bad Coap request: format -> x)\n",idmanager_getMy
 129:build/openmote-cc2538_armgcc/openapps/whispersender/whispersender.c **** 			    outcome                       = E_FAIL;
 130:build/openmote-cc2538_armgcc/openapps/whispersender/whispersender.c **** 			    coap_header->Code             = COAP_CODE_RESP_CHANGED;
 131:build/openmote-cc2538_armgcc/openapps/whispersender/whispersender.c **** 					//back to IDLE
 132:build/openmote-cc2538_armgcc/openapps/whispersender/whispersender.c **** 				break;
 133:build/openmote-cc2538_armgcc/openapps/whispersender/whispersender.c **** 			}
 134:build/openmote-cc2538_armgcc/openapps/whispersender/whispersender.c **** 			//printf("Done COAP\n");
 135:build/openmote-cc2538_armgcc/openapps/whispersender/whispersender.c **** 	        //=== reset packet payload (we will reuse this packetBuffer)
 136:build/openmote-cc2538_armgcc/openapps/whispersender/whispersender.c **** 	        msg->payload                     = &(msg->packet[127]);
 457              		.loc 1 136 0
 458 0120 FB68     		ldr	r3, [r7, #12]
 459 0122 03F23F12 		addw	r2, r3, #319
 460 0126 FB68     		ldr	r3, [r7, #12]
 461 0128 5A60     		str	r2, [r3, #4]
 137:build/openmote-cc2538_armgcc/openapps/whispersender/whispersender.c **** 	        msg->length                      = 0;
 462              		.loc 1 137 0
 463 012a FB68     		ldr	r3, [r7, #12]
 464 012c 0022     		movs	r2, #0
 465 012e 1A72     		strb	r2, [r3, #8]
 138:build/openmote-cc2538_armgcc/openapps/whispersender/whispersender.c **** 
 139:build/openmote-cc2538_armgcc/openapps/whispersender/whispersender.c **** 	        // set the CoAP header
 140:build/openmote-cc2538_armgcc/openapps/whispersender/whispersender.c **** 	        coap_header->Code                = COAP_CODE_RESP_CONTENT;
 466              		.loc 1 140 0
 467 0130 BB68     		ldr	r3, [r7, #8]
 468 0132 4522     		movs	r2, #69
 469 0134 DA70     		strb	r2, [r3, #3]
 141:build/openmote-cc2538_armgcc/openapps/whispersender/whispersender.c **** 
 142:build/openmote-cc2538_armgcc/openapps/whispersender/whispersender.c **** 	        outcome                          = E_SUCCESS;
 470              		.loc 1 142 0
 471 0136 0023     		movs	r3, #0
 472 0138 FB75     		strb	r3, [r7, #23]
 143:build/openmote-cc2538_armgcc/openapps/whispersender/whispersender.c **** 	        break;
 473              		.loc 1 143 0
 474 013a 07E0     		b	.L15
 475              	.L13:
 129:build/openmote-cc2538_armgcc/openapps/whispersender/whispersender.c **** 			    coap_header->Code             = COAP_CODE_RESP_CHANGED;
 476              		.loc 1 129 0
 477 013c 0123     		movs	r3, #1
 478 013e FB75     		strb	r3, [r7, #23]
 130:build/openmote-cc2538_armgcc/openapps/whispersender/whispersender.c **** 					//back to IDLE
 479              		.loc 1 130 0
 480 0140 BB68     		ldr	r3, [r7, #8]
 481 0142 4422     		movs	r2, #68
 482 0144 DA70     		strb	r2, [r3, #3]
 132:build/openmote-cc2538_armgcc/openapps/whispersender/whispersender.c **** 			}
 483              		.loc 1 132 0
 484 0146 01E0     		b	.L15
 485              	.L17:
 144:build/openmote-cc2538_armgcc/openapps/whispersender/whispersender.c **** 
 145:build/openmote-cc2538_armgcc/openapps/whispersender/whispersender.c **** 	      default:
 146:build/openmote-cc2538_armgcc/openapps/whispersender/whispersender.c **** 	    	 //printf("I am TARGET node %d, end operation (no cells in first 6P message)\n",idmanager_get
 147:build/openmote-cc2538_armgcc/openapps/whispersender/whispersender.c **** 	         // return an error message
 148:build/openmote-cc2538_armgcc/openapps/whispersender/whispersender.c **** 	         outcome = E_FAIL;
 486              		.loc 1 148 0
 487 0148 0123     		movs	r3, #1
 488 014a FB75     		strb	r3, [r7, #23]
 489              	.L15:
 149:build/openmote-cc2538_armgcc/openapps/whispersender/whispersender.c **** 	   }
 150:build/openmote-cc2538_armgcc/openapps/whispersender/whispersender.c **** 
 151:build/openmote-cc2538_armgcc/openapps/whispersender/whispersender.c **** 
 152:build/openmote-cc2538_armgcc/openapps/whispersender/whispersender.c ****    return outcome;
 490              		.loc 1 152 0
 491 014c FB7D     		ldrb	r3, [r7, #23]	@ zero_extendqisi2
 153:build/openmote-cc2538_armgcc/openapps/whispersender/whispersender.c **** 
 154:build/openmote-cc2538_armgcc/openapps/whispersender/whispersender.c ****    
 155:build/openmote-cc2538_armgcc/openapps/whispersender/whispersender.c **** //   openserial_printError(
 156:build/openmote-cc2538_armgcc/openapps/whispersender/whispersender.c **** //      COMPONENT_whispersender,
 157:build/openmote-cc2538_armgcc/openapps/whispersender/whispersender.c **** //      ERR_RCVD_ECHO_REPLY,
 158:build/openmote-cc2538_armgcc/openapps/whispersender/whispersender.c **** //      (errorparameter_t)0,
 159:build/openmote-cc2538_armgcc/openapps/whispersender/whispersender.c **** //      (errorparameter_t)0
 160:build/openmote-cc2538_armgcc/openapps/whispersender/whispersender.c **** //   );
 161:build/openmote-cc2538_armgcc/openapps/whispersender/whispersender.c **** }
 492              		.loc 1 161 0
 493 014e 1846     		mov	r0, r3
 494 0150 1837     		adds	r7, r7, #24
 495              		.cfi_def_cfa_offset 8
 496 0152 BD46     		mov	sp, r7
 497              		.cfi_def_cfa_register 13
 498              		@ sp needed
 499 0154 80BD     		pop	{r7, pc}
 500              	.L19:
 501 0156 00BF     		.align	2
 502              	.L18:
 503 0158 00000000 		.word	whispersender_vars
 504 015c 00000000 		.word	whispersender_timer_cb
 505              		.cfi_endproc
 506              	.LFE2:
 508              		.align	2
 509              		.global	whispersender_timer_cb
 510              		.thumb
 511              		.thumb_func
 513              	whispersender_timer_cb:
 514              	.LFB3:
 162:build/openmote-cc2538_armgcc/openapps/whispersender/whispersender.c **** 
 163:build/openmote-cc2538_armgcc/openapps/whispersender/whispersender.c **** //=========================== private =========================================
 164:build/openmote-cc2538_armgcc/openapps/whispersender/whispersender.c **** 
 165:build/openmote-cc2538_armgcc/openapps/whispersender/whispersender.c **** /**
 166:build/openmote-cc2538_armgcc/openapps/whispersender/whispersender.c **** \note timer fired, but we don't want to execute task in ISR mode instead, push
 167:build/openmote-cc2538_armgcc/openapps/whispersender/whispersender.c ****    task to scheduler with CoAP priority, and let scheduler take care of it.
 168:build/openmote-cc2538_armgcc/openapps/whispersender/whispersender.c **** */
 169:build/openmote-cc2538_armgcc/openapps/whispersender/whispersender.c **** void whispersender_timer_cb(opentimers_id_t id){
 515              		.loc 1 169 0
 516              		.cfi_startproc
 517              		@ args = 0, pretend = 0, frame = 8
 518              		@ frame_needed = 1, uses_anonymous_args = 0
 519 0160 80B5     		push	{r7, lr}
 520              		.cfi_def_cfa_offset 8
 521              		.cfi_offset 7, -8
 522              		.cfi_offset 14, -4
 523 0162 82B0     		sub	sp, sp, #8
 524              		.cfi_def_cfa_offset 16
 525 0164 00AF     		add	r7, sp, #0
 526              		.cfi_def_cfa_register 7
 527 0166 0346     		mov	r3, r0
 528 0168 FB71     		strb	r3, [r7, #7]
 170:build/openmote-cc2538_armgcc/openapps/whispersender/whispersender.c ****    
 171:build/openmote-cc2538_armgcc/openapps/whispersender/whispersender.c ****    scheduler_push_task(whispersender_task_cb,TASKPRIO_COAP);
 529              		.loc 1 171 0
 530 016a 0621     		movs	r1, #6
 531 016c 0348     		ldr	r0, .L21
 532 016e FFF7FEFF 		bl	scheduler_push_task
 172:build/openmote-cc2538_armgcc/openapps/whispersender/whispersender.c **** }
 533              		.loc 1 172 0
 534 0172 00BF     		nop
 535 0174 0837     		adds	r7, r7, #8
 536              		.cfi_def_cfa_offset 8
 537 0176 BD46     		mov	sp, r7
 538              		.cfi_def_cfa_register 13
 539              		@ sp needed
 540 0178 80BD     		pop	{r7, pc}
 541              	.L22:
 542 017a 00BF     		.align	2
 543              	.L21:
 544 017c 00000000 		.word	whispersender_task_cb
 545              		.cfi_endproc
 546              	.LFE3:
 548              		.align	2
 549              		.global	whispersender_task_cb
 550              		.thumb
 551              		.thumb_func
 553              	whispersender_task_cb:
 554              	.LFB4:
 173:build/openmote-cc2538_armgcc/openapps/whispersender/whispersender.c **** 
 174:build/openmote-cc2538_armgcc/openapps/whispersender/whispersender.c **** void whispersender_task_cb() {
 555              		.loc 1 174 0
 556              		.cfi_startproc
 557              		@ args = 0, pretend = 0, frame = 16
 558              		@ frame_needed = 1, uses_anonymous_args = 0
 559 0180 B0B5     		push	{r4, r5, r7, lr}
 560              		.cfi_def_cfa_offset 16
 561              		.cfi_offset 4, -16
 562              		.cfi_offset 5, -12
 563              		.cfi_offset 7, -8
 564              		.cfi_offset 14, -4
 565 0182 84B0     		sub	sp, sp, #16
 566              		.cfi_def_cfa_offset 32
 567 0184 00AF     		add	r7, sp, #0
 568              		.cfi_def_cfa_register 7
 175:build/openmote-cc2538_armgcc/openapps/whispersender/whispersender.c **** 
 176:build/openmote-cc2538_armgcc/openapps/whispersender/whispersender.c **** 	
 177:build/openmote-cc2538_armgcc/openapps/whispersender/whispersender.c **** 
 178:build/openmote-cc2538_armgcc/openapps/whispersender/whispersender.c ****    OpenQueueEntry_t*    pkt;
 179:build/openmote-cc2538_armgcc/openapps/whispersender/whispersender.c ****    uint8_t              asnArray[5];
 180:build/openmote-cc2538_armgcc/openapps/whispersender/whispersender.c **** 
 181:build/openmote-cc2538_armgcc/openapps/whispersender/whispersender.c ****    leds_sync_toggle();
 569              		.loc 1 181 0
 570 0186 FFF7FEFF 		bl	leds_sync_toggle
 182:build/openmote-cc2538_armgcc/openapps/whispersender/whispersender.c ****    //printf("I am TARGET node %d, Timer expired. Sending another packet\n",idmanager_getMyID(ADDR_6
 183:build/openmote-cc2538_armgcc/openapps/whispersender/whispersender.c **** 
 184:build/openmote-cc2538_armgcc/openapps/whispersender/whispersender.c ****    // don't run if not synch
 185:build/openmote-cc2538_armgcc/openapps/whispersender/whispersender.c ****    if (ieee154e_isSynch() == FALSE){
 571              		.loc 1 185 0
 572 018a FFF7FEFF 		bl	ieee154e_isSynch
 573 018e 0346     		mov	r3, r0
 574 0190 83F00103 		eor	r3, r3, #1
 575 0194 DBB2     		uxtb	r3, r3
 576 0196 002B     		cmp	r3, #0
 577 0198 05D0     		beq	.L24
 186:build/openmote-cc2538_armgcc/openapps/whispersender/whispersender.c **** 	   opentimers_destroy(whispersender_vars.timerIdWhispersender);
 578              		.loc 1 186 0
 579 019a 4D4B     		ldr	r3, .L30
 580 019c 1B78     		ldrb	r3, [r3]	@ zero_extendqisi2
 581 019e 1846     		mov	r0, r3
 582 01a0 FFF7FEFF 		bl	opentimers_destroy
 187:build/openmote-cc2538_armgcc/openapps/whispersender/whispersender.c **** 	   return;
 583              		.loc 1 187 0
 584 01a4 91E0     		b	.L23
 585              	.L24:
 188:build/openmote-cc2538_armgcc/openapps/whispersender/whispersender.c ****    }
 189:build/openmote-cc2538_armgcc/openapps/whispersender/whispersender.c **** 
 190:build/openmote-cc2538_armgcc/openapps/whispersender/whispersender.c ****    // don't run on dagroot
 191:build/openmote-cc2538_armgcc/openapps/whispersender/whispersender.c ****    if (idmanager_getIsDAGroot()) {
 586              		.loc 1 191 0
 587 01a6 FFF7FEFF 		bl	idmanager_getIsDAGroot
 588 01aa 0346     		mov	r3, r0
 589 01ac 002B     		cmp	r3, #0
 590 01ae 05D0     		beq	.L26
 192:build/openmote-cc2538_armgcc/openapps/whispersender/whispersender.c ****       opentimers_destroy(whispersender_vars.timerIdWhispersender);
 591              		.loc 1 192 0
 592 01b0 474B     		ldr	r3, .L30
 593 01b2 1B78     		ldrb	r3, [r3]	@ zero_extendqisi2
 594 01b4 1846     		mov	r0, r3
 595 01b6 FFF7FEFF 		bl	opentimers_destroy
 193:build/openmote-cc2538_armgcc/openapps/whispersender/whispersender.c ****       return;
 596              		.loc 1 193 0
 597 01ba 86E0     		b	.L23
 598              	.L26:
 194:build/openmote-cc2538_armgcc/openapps/whispersender/whispersender.c ****    }
 195:build/openmote-cc2538_armgcc/openapps/whispersender/whispersender.c **** 
 196:build/openmote-cc2538_armgcc/openapps/whispersender/whispersender.c ****    // if you get here, send a packet. You should be only be node 4
 197:build/openmote-cc2538_armgcc/openapps/whispersender/whispersender.c **** 
 198:build/openmote-cc2538_armgcc/openapps/whispersender/whispersender.c ****    // get a free packet buffer
 199:build/openmote-cc2538_armgcc/openapps/whispersender/whispersender.c ****    pkt = openqueue_getFreePacketBuffer(COMPONENT_WHISPERSENDER);
 599              		.loc 1 199 0
 600 01bc 2E20     		movs	r0, #46
 601 01be FFF7FEFF 		bl	openqueue_getFreePacketBuffer
 602 01c2 F860     		str	r0, [r7, #12]
 200:build/openmote-cc2538_armgcc/openapps/whispersender/whispersender.c ****    if (pkt==NULL) {
 603              		.loc 1 200 0
 604 01c4 FB68     		ldr	r3, [r7, #12]
 605 01c6 002B     		cmp	r3, #0
 606 01c8 06D1     		bne	.L27
 201:build/openmote-cc2538_armgcc/openapps/whispersender/whispersender.c ****       openserial_printError(
 607              		.loc 1 201 0
 608 01ca 0023     		movs	r3, #0
 609 01cc 0022     		movs	r2, #0
 610 01ce 2C21     		movs	r1, #44
 611 01d0 2520     		movs	r0, #37
 612 01d2 FFF7FEFF 		bl	openserial_printError
 202:build/openmote-cc2538_armgcc/openapps/whispersender/whispersender.c ****     		  COMPONENT_UINJECT,
 203:build/openmote-cc2538_armgcc/openapps/whispersender/whispersender.c ****          ERR_NO_FREE_PACKET_BUFFER,
 204:build/openmote-cc2538_armgcc/openapps/whispersender/whispersender.c ****          (errorparameter_t)0,
 205:build/openmote-cc2538_armgcc/openapps/whispersender/whispersender.c ****          (errorparameter_t)0
 206:build/openmote-cc2538_armgcc/openapps/whispersender/whispersender.c ****       );
 207:build/openmote-cc2538_armgcc/openapps/whispersender/whispersender.c ****       return;
 613              		.loc 1 207 0
 614 01d6 78E0     		b	.L23
 615              	.L27:
 208:build/openmote-cc2538_armgcc/openapps/whispersender/whispersender.c ****    }
 209:build/openmote-cc2538_armgcc/openapps/whispersender/whispersender.c **** 
 210:build/openmote-cc2538_armgcc/openapps/whispersender/whispersender.c ****    pkt->owner                         = COMPONENT_WHISPERSENDER;
 616              		.loc 1 210 0
 617 01d8 FB68     		ldr	r3, [r7, #12]
 618 01da 2E22     		movs	r2, #46
 619 01dc 5A70     		strb	r2, [r3, #1]
 211:build/openmote-cc2538_armgcc/openapps/whispersender/whispersender.c ****    pkt->creator                       = COMPONENT_WHISPERSENDER;
 620              		.loc 1 211 0
 621 01de FB68     		ldr	r3, [r7, #12]
 622 01e0 2E22     		movs	r2, #46
 623 01e2 1A70     		strb	r2, [r3]
 212:build/openmote-cc2538_armgcc/openapps/whispersender/whispersender.c ****    pkt->l4_protocol                   = IANA_UDP;
 624              		.loc 1 212 0
 625 01e4 FB68     		ldr	r3, [r7, #12]
 626 01e6 1122     		movs	r2, #17
 627 01e8 9A73     		strb	r2, [r3, #14]
 213:build/openmote-cc2538_armgcc/openapps/whispersender/whispersender.c ****    pkt->l4_destination_port           = WKP_UDP_WHISPER;
 628              		.loc 1 213 0
 629 01ea FB68     		ldr	r3, [r7, #12]
 630 01ec 4FF2B402 		movw	r2, #61620
 631 01f0 5A82     		strh	r2, [r3, #18]	@ movhi
 214:build/openmote-cc2538_armgcc/openapps/whispersender/whispersender.c ****    pkt->l4_sourcePortORicmpv6Type     = WKP_UDP_WHISPER;
 632              		.loc 1 214 0
 633 01f2 FB68     		ldr	r3, [r7, #12]
 634 01f4 4FF2B402 		movw	r2, #61620
 635 01f8 1A82     		strh	r2, [r3, #16]	@ movhi
 215:build/openmote-cc2538_armgcc/openapps/whispersender/whispersender.c ****    pkt->l3_destinationAdd.type        = ADDR_128B;
 636              		.loc 1 215 0
 637 01fa FB68     		ldr	r3, [r7, #12]
 638 01fc 0322     		movs	r2, #3
 639 01fe 5A76     		strb	r2, [r3, #25]
 216:build/openmote-cc2538_armgcc/openapps/whispersender/whispersender.c ****    memcpy(&pkt->l3_destinationAdd.addr_128b[0],whispersender_dst_addr,16);
 640              		.loc 1 216 0
 641 0200 FB68     		ldr	r3, [r7, #12]
 642 0202 1A33     		adds	r3, r3, #26
 643 0204 334A     		ldr	r2, .L30+4
 644 0206 1C46     		mov	r4, r3
 645 0208 1546     		mov	r5, r2
 646 020a 0FCD     		ldmia	r5!, {r0, r1, r2, r3}
 647 020c 2060     		str	r0, [r4]	@ unaligned
 648 020e 6160     		str	r1, [r4, #4]	@ unaligned
 649 0210 A260     		str	r2, [r4, #8]	@ unaligned
 650 0212 E360     		str	r3, [r4, #12]	@ unaligned
 217:build/openmote-cc2538_armgcc/openapps/whispersender/whispersender.c **** 
 218:build/openmote-cc2538_armgcc/openapps/whispersender/whispersender.c ****    // add payload
 219:build/openmote-cc2538_armgcc/openapps/whispersender/whispersender.c ****    packetfunctions_reserveHeaderSize(pkt,sizeof(whispersender_payload)-1);
 651              		.loc 1 219 0
 652 0214 0D21     		movs	r1, #13
 653 0216 F868     		ldr	r0, [r7, #12]
 654 0218 FFF7FEFF 		bl	packetfunctions_reserveHeaderSize
 220:build/openmote-cc2538_armgcc/openapps/whispersender/whispersender.c ****    memcpy(&pkt->payload[0],whispersender_payload,sizeof(whispersender_payload)-1);
 655              		.loc 1 220 0
 656 021c FB68     		ldr	r3, [r7, #12]
 657 021e 5B68     		ldr	r3, [r3, #4]
 658 0220 0D22     		movs	r2, #13
 659 0222 2D49     		ldr	r1, .L30+8
 660 0224 1846     		mov	r0, r3
 661 0226 FFF7FEFF 		bl	memcpy
 221:build/openmote-cc2538_armgcc/openapps/whispersender/whispersender.c **** 
 222:build/openmote-cc2538_armgcc/openapps/whispersender/whispersender.c ****    packetfunctions_reserveHeaderSize(pkt,sizeof(uint16_t));
 662              		.loc 1 222 0
 663 022a 0221     		movs	r1, #2
 664 022c F868     		ldr	r0, [r7, #12]
 665 022e FFF7FEFF 		bl	packetfunctions_reserveHeaderSize
 223:build/openmote-cc2538_armgcc/openapps/whispersender/whispersender.c ****    pkt->payload[1] = (uint8_t)((whispersender_vars.counter & 0xff00)>>8);
 666              		.loc 1 223 0
 667 0232 FB68     		ldr	r3, [r7, #12]
 668 0234 5B68     		ldr	r3, [r3, #4]
 669 0236 0133     		adds	r3, r3, #1
 670 0238 254A     		ldr	r2, .L30
 671 023a 5288     		ldrh	r2, [r2, #2]
 672 023c 120A     		lsrs	r2, r2, #8
 673 023e 92B2     		uxth	r2, r2
 674 0240 D2B2     		uxtb	r2, r2
 675 0242 1A70     		strb	r2, [r3]
 224:build/openmote-cc2538_armgcc/openapps/whispersender/whispersender.c ****    pkt->payload[0] = (uint8_t)(whispersender_vars.counter & 0x00ff);
 676              		.loc 1 224 0
 677 0244 FB68     		ldr	r3, [r7, #12]
 678 0246 5B68     		ldr	r3, [r3, #4]
 679 0248 214A     		ldr	r2, .L30
 680 024a 5288     		ldrh	r2, [r2, #2]
 681 024c D2B2     		uxtb	r2, r2
 682 024e 1A70     		strb	r2, [r3]
 225:build/openmote-cc2538_armgcc/openapps/whispersender/whispersender.c ****    whispersender_vars.counter++;
 683              		.loc 1 225 0
 684 0250 1F4B     		ldr	r3, .L30
 685 0252 5B88     		ldrh	r3, [r3, #2]
 686 0254 0133     		adds	r3, r3, #1
 687 0256 9AB2     		uxth	r2, r3
 688 0258 1D4B     		ldr	r3, .L30
 689 025a 5A80     		strh	r2, [r3, #2]	@ movhi
 226:build/openmote-cc2538_armgcc/openapps/whispersender/whispersender.c **** 
 227:build/openmote-cc2538_armgcc/openapps/whispersender/whispersender.c ****    packetfunctions_reserveHeaderSize(pkt,sizeof(asn_t));
 690              		.loc 1 227 0
 691 025c 0521     		movs	r1, #5
 692 025e F868     		ldr	r0, [r7, #12]
 693 0260 FFF7FEFF 		bl	packetfunctions_reserveHeaderSize
 228:build/openmote-cc2538_armgcc/openapps/whispersender/whispersender.c ****    ieee154e_getAsn(asnArray);
 694              		.loc 1 228 0
 695 0264 3B1D     		adds	r3, r7, #4
 696 0266 1846     		mov	r0, r3
 697 0268 FFF7FEFF 		bl	ieee154e_getAsn
 229:build/openmote-cc2538_armgcc/openapps/whispersender/whispersender.c ****    pkt->payload[0] = asnArray[0];
 698              		.loc 1 229 0
 699 026c FB68     		ldr	r3, [r7, #12]
 700 026e 5B68     		ldr	r3, [r3, #4]
 701 0270 3A79     		ldrb	r2, [r7, #4]	@ zero_extendqisi2
 702 0272 1A70     		strb	r2, [r3]
 230:build/openmote-cc2538_armgcc/openapps/whispersender/whispersender.c ****    pkt->payload[1] = asnArray[1];
 703              		.loc 1 230 0
 704 0274 FB68     		ldr	r3, [r7, #12]
 705 0276 5B68     		ldr	r3, [r3, #4]
 706 0278 0133     		adds	r3, r3, #1
 707 027a 7A79     		ldrb	r2, [r7, #5]	@ zero_extendqisi2
 708 027c 1A70     		strb	r2, [r3]
 231:build/openmote-cc2538_armgcc/openapps/whispersender/whispersender.c ****    pkt->payload[2] = asnArray[2];
 709              		.loc 1 231 0
 710 027e FB68     		ldr	r3, [r7, #12]
 711 0280 5B68     		ldr	r3, [r3, #4]
 712 0282 0233     		adds	r3, r3, #2
 713 0284 BA79     		ldrb	r2, [r7, #6]	@ zero_extendqisi2
 714 0286 1A70     		strb	r2, [r3]
 232:build/openmote-cc2538_armgcc/openapps/whispersender/whispersender.c ****    pkt->payload[3] = asnArray[3];
 715              		.loc 1 232 0
 716 0288 FB68     		ldr	r3, [r7, #12]
 717 028a 5B68     		ldr	r3, [r3, #4]
 718 028c 0333     		adds	r3, r3, #3
 719 028e FA79     		ldrb	r2, [r7, #7]	@ zero_extendqisi2
 720 0290 1A70     		strb	r2, [r3]
 233:build/openmote-cc2538_armgcc/openapps/whispersender/whispersender.c ****    pkt->payload[4] = asnArray[4];
 721              		.loc 1 233 0
 722 0292 FB68     		ldr	r3, [r7, #12]
 723 0294 5B68     		ldr	r3, [r3, #4]
 724 0296 0433     		adds	r3, r3, #4
 725 0298 3A7A     		ldrb	r2, [r7, #8]	@ zero_extendqisi2
 726 029a 1A70     		strb	r2, [r3]
 234:build/openmote-cc2538_armgcc/openapps/whispersender/whispersender.c **** 
 235:build/openmote-cc2538_armgcc/openapps/whispersender/whispersender.c ****    packetfunctions_reserveHeaderSize(pkt,sizeof(uint8_t));
 727              		.loc 1 235 0
 728 029c 0121     		movs	r1, #1
 729 029e F868     		ldr	r0, [r7, #12]
 730 02a0 FFF7FEFF 		bl	packetfunctions_reserveHeaderSize
 236:build/openmote-cc2538_armgcc/openapps/whispersender/whispersender.c ****    pkt->payload[0] = idmanager_getMyID(ADDR_64B)->addr_64b[7];
 731              		.loc 1 236 0
 732 02a4 FB68     		ldr	r3, [r7, #12]
 733 02a6 5C68     		ldr	r4, [r3, #4]
 734 02a8 0220     		movs	r0, #2
 735 02aa FFF7FEFF 		bl	idmanager_getMyID
 736 02ae 0346     		mov	r3, r0
 737 02b0 1B7A     		ldrb	r3, [r3, #8]	@ zero_extendqisi2
 738 02b2 2370     		strb	r3, [r4]
 237:build/openmote-cc2538_armgcc/openapps/whispersender/whispersender.c **** 
 238:build/openmote-cc2538_armgcc/openapps/whispersender/whispersender.c ****    //printf("I am TARGET node %d, enqueueing DATAW packet with counter %d \n",idmanager_getMyID(ADD
 239:build/openmote-cc2538_armgcc/openapps/whispersender/whispersender.c ****    leds_debug_toggle();
 739              		.loc 1 239 0
 740 02b4 FFF7FEFF 		bl	leds_debug_toggle
 240:build/openmote-cc2538_armgcc/openapps/whispersender/whispersender.c ****    if ((openudp_send(pkt))==E_FAIL) {
 741              		.loc 1 240 0
 742 02b8 F868     		ldr	r0, [r7, #12]
 743 02ba FFF7FEFF 		bl	openudp_send
 744 02be 0346     		mov	r3, r0
 745 02c0 012B     		cmp	r3, #1
 746 02c2 02D1     		bne	.L23
 241:build/openmote-cc2538_armgcc/openapps/whispersender/whispersender.c ****       openqueue_freePacketBuffer(pkt);
 747              		.loc 1 241 0
 748 02c4 F868     		ldr	r0, [r7, #12]
 749 02c6 FFF7FEFF 		bl	openqueue_freePacketBuffer
 750              	.L23:
 242:build/openmote-cc2538_armgcc/openapps/whispersender/whispersender.c ****    }
 243:build/openmote-cc2538_armgcc/openapps/whispersender/whispersender.c **** 
 244:build/openmote-cc2538_armgcc/openapps/whispersender/whispersender.c **** }
 751              		.loc 1 244 0
 752 02ca 1037     		adds	r7, r7, #16
 753              		.cfi_def_cfa_offset 16
 754 02cc BD46     		mov	sp, r7
 755              		.cfi_def_cfa_register 13
 756              		@ sp needed
 757 02ce B0BD     		pop	{r4, r5, r7, pc}
 758              	.L31:
 759              		.align	2
 760              	.L30:
 761 02d0 00000000 		.word	whispersender_vars
 762 02d4 C4000000 		.word	whispersender_dst_addr
 763 02d8 B4000000 		.word	whispersender_payload
 764              		.cfi_endproc
 765              	.LFE4:
 767              		.align	2
 768              		.global	whispersender_sendDoneCoap
 769              		.thumb
 770              		.thumb_func
 772              	whispersender_sendDoneCoap:
 773              	.LFB5:
 245:build/openmote-cc2538_armgcc/openapps/whispersender/whispersender.c **** 
 246:build/openmote-cc2538_armgcc/openapps/whispersender/whispersender.c **** void whispersender_sendDoneCoap(OpenQueueEntry_t* msg, owerror_t error) {
 774              		.loc 1 246 0
 775              		.cfi_startproc
 776              		@ args = 0, pretend = 0, frame = 8
 777              		@ frame_needed = 1, uses_anonymous_args = 0
 778 02dc 80B5     		push	{r7, lr}
 779              		.cfi_def_cfa_offset 8
 780              		.cfi_offset 7, -8
 781              		.cfi_offset 14, -4
 782 02de 82B0     		sub	sp, sp, #8
 783              		.cfi_def_cfa_offset 16
 784 02e0 00AF     		add	r7, sp, #0
 785              		.cfi_def_cfa_register 7
 786 02e2 7860     		str	r0, [r7, #4]
 787 02e4 0B46     		mov	r3, r1
 788 02e6 FB70     		strb	r3, [r7, #3]
 247:build/openmote-cc2538_armgcc/openapps/whispersender/whispersender.c **** 
 248:build/openmote-cc2538_armgcc/openapps/whispersender/whispersender.c ****    //printf("I am TARGET node %d, Send done DATAW packet with counter %d \n",idmanager_getMyID(ADDR
 249:build/openmote-cc2538_armgcc/openapps/whispersender/whispersender.c **** 
 250:build/openmote-cc2538_armgcc/openapps/whispersender/whispersender.c ****    openqueue_freePacketBuffer(msg);
 789              		.loc 1 250 0
 790 02e8 7868     		ldr	r0, [r7, #4]
 791 02ea FFF7FEFF 		bl	openqueue_freePacketBuffer
 251:build/openmote-cc2538_armgcc/openapps/whispersender/whispersender.c **** }
 792              		.loc 1 251 0
 793 02ee 00BF     		nop
 794 02f0 0837     		adds	r7, r7, #8
 795              		.cfi_def_cfa_offset 8
 796 02f2 BD46     		mov	sp, r7
 797              		.cfi_def_cfa_register 13
 798              		@ sp needed
 799 02f4 80BD     		pop	{r7, pc}
 800              		.cfi_endproc
 801              	.LFE5:
 803 02f6 00BF     		.align	2
 804              		.global	whispersender_sendDoneUdp
 805              		.thumb
 806              		.thumb_func
 808              	whispersender_sendDoneUdp:
 809              	.LFB6:
 252:build/openmote-cc2538_armgcc/openapps/whispersender/whispersender.c **** 
 253:build/openmote-cc2538_armgcc/openapps/whispersender/whispersender.c **** void whispersender_sendDoneUdp(OpenQueueEntry_t* msg, owerror_t error) {
 810              		.loc 1 253 0
 811              		.cfi_startproc
 812              		@ args = 0, pretend = 0, frame = 8
 813              		@ frame_needed = 1, uses_anonymous_args = 0
 814 02f8 80B5     		push	{r7, lr}
 815              		.cfi_def_cfa_offset 8
 816              		.cfi_offset 7, -8
 817              		.cfi_offset 14, -4
 818 02fa 82B0     		sub	sp, sp, #8
 819              		.cfi_def_cfa_offset 16
 820 02fc 00AF     		add	r7, sp, #0
 821              		.cfi_def_cfa_register 7
 822 02fe 7860     		str	r0, [r7, #4]
 823 0300 0B46     		mov	r3, r1
 824 0302 FB70     		strb	r3, [r7, #3]
 254:build/openmote-cc2538_armgcc/openapps/whispersender/whispersender.c **** 
 255:build/openmote-cc2538_armgcc/openapps/whispersender/whispersender.c ****    //printf("I am TARGET node %d, Send done DATAW packet with counter %d \n",idmanager_getMyID(ADDR
 256:build/openmote-cc2538_armgcc/openapps/whispersender/whispersender.c **** 
 257:build/openmote-cc2538_armgcc/openapps/whispersender/whispersender.c ****    openqueue_freePacketBuffer(msg);
 825              		.loc 1 257 0
 826 0304 7868     		ldr	r0, [r7, #4]
 827 0306 FFF7FEFF 		bl	openqueue_freePacketBuffer
 258:build/openmote-cc2538_armgcc/openapps/whispersender/whispersender.c **** }
 828              		.loc 1 258 0
 829 030a 00BF     		nop
 830 030c 0837     		adds	r7, r7, #8
 831              		.cfi_def_cfa_offset 8
 832 030e BD46     		mov	sp, r7
 833              		.cfi_def_cfa_register 13
 834              		@ sp needed
 835 0310 80BD     		pop	{r7, pc}
 836              		.cfi_endproc
 837              	.LFE6:
 839              	.Letext0:
 840              		.file 2 "/usr/include/newlib/machine/_default_types.h"
 841              		.file 3 "/usr/include/newlib/sys/_stdint.h"
 842              		.file 4 "inc/opendefs.h"
 843              		.file 5 "drivers/common/opentimers.h"
 844              		.file 6 "openstack/04-TRAN/openudp.h"
 845              		.file 7 "openapps/opencoap/opencoap.h"
 846              		.file 8 "build/openmote-cc2538_armgcc/openapps/whispersender/whispersender.h"
 847              		.file 9 "kernel/scheduler.h"
 848              		.file 10 "bsp/boards/openmote-cc2538/board_info.h"
 849              		.file 11 "openstack/02a-MAClow/IEEE802154E.h"
 850              		.file 12 "openstack/cross-layers/idmanager.h"