   1              		.syntax unified
   2              		.cpu cortex-m3
   3              		.fpu softvfp
   4              		.eabi_attribute 20, 1
   5              		.eabi_attribute 21, 1
   6              		.eabi_attribute 23, 3
   7              		.eabi_attribute 24, 1
   8              		.eabi_attribute 25, 1
   9              		.eabi_attribute 26, 1
  10              		.eabi_attribute 30, 6
  11              		.eabi_attribute 34, 1
  12              		.eabi_attribute 18, 4
  13              		.thumb
  14              		.syntax unified
  15              		.file	"icmpv6rpl.c"
  16              		.text
  17              	.Ltext0:
  18              		.cfi_sections	.debug_frame
  19              		.section	.rodata
  20              		.align	2
  23              	rreg_uriquery:
  24 0000 683D7563 		.ascii	"h=ucb\000"
  24      6200
  25 0006 0000     		.align	2
  28              	infoBoardname:
  29 0008 43433235 		.ascii	"CC2538\000"
  29      333800
  30 000f 00       		.align	2
  33              	infouCName:
  34 0010 43433235 		.ascii	"CC2538\000"
  34      333800
  35 0017 00       		.align	2
  38              	infoRadioName:
  39 0018 43433235 		.ascii	"CC2538 SoC\000"
  39      33382053 
  39      6F4300
  40 0023 00       		.align	2
  43              	infoStackName:
  44 0024 4F70656E 		.ascii	"OpenWSN \000"
  44      57534E20 
  44      00
  45 002d 000000   		.align	2
  48              	all_routers_multicast:
  49 0030 FF       		.byte	-1
  50 0031 02       		.byte	2
  51 0032 00       		.byte	0
  52 0033 00       		.byte	0
  53 0034 00       		.byte	0
  54 0035 00       		.byte	0
  55 0036 00       		.byte	0
  56 0037 00       		.byte	0
  57 0038 00       		.byte	0
  58 0039 00       		.byte	0
  59 003a 00       		.byte	0
  60 003b 00       		.byte	0
  61 003c 00       		.byte	0
  62 003d 00       		.byte	0
  63 003e 00       		.byte	0
  64 003f 1A       		.byte	26
  65              		.align	2
  68              	linklocalprefix:
  69 0040 FE       		.byte	-2
  70 0041 80       		.byte	-128
  71 0042 00       		.byte	0
  72 0043 00       		.byte	0
  73 0044 00       		.byte	0
  74 0045 00       		.byte	0
  75 0046 00       		.byte	0
  76 0047 00       		.byte	0
  77              		.align	2
  80              	chTemplate_default:
  81 0048 05       		.byte	5
  82 0049 06       		.byte	6
  83 004a 0C       		.byte	12
  84 004b 07       		.byte	7
  85 004c 0F       		.byte	15
  86 004d 04       		.byte	4
  87 004e 0E       		.byte	14
  88 004f 0B       		.byte	11
  89 0050 08       		.byte	8
  90 0051 00       		.byte	0
  91 0052 01       		.byte	1
  92 0053 02       		.byte	2
  93 0054 0D       		.byte	13
  94 0055 03       		.byte	3
  95 0056 09       		.byte	9
  96 0057 0A       		.byte	10
  97              		.align	2
 100              	ebIEsBytestream:
 101 0058 1A       		.byte	26
 102 0059 88       		.byte	-120
 103 005a 06       		.byte	6
 104 005b 1A       		.byte	26
 105 005c 00       		.byte	0
 106 005d 00       		.byte	0
 107 005e 00       		.byte	0
 108 005f 00       		.byte	0
 109 0060 00       		.byte	0
 110 0061 00       		.byte	0
 111 0062 01       		.byte	1
 112 0063 1C       		.byte	28
 113 0064 00       		.byte	0
 114 0065 01       		.byte	1
 115 0066 C8       		.byte	-56
 116 0067 00       		.byte	0
 117 0068 0A       		.byte	10
 118 0069 1B       		.byte	27
 119 006a 01       		.byte	1
 120 006b 00       		.byte	0
 121 006c 17       		.byte	23
 122 006d 00       		.byte	0
 123 006e 01       		.byte	1
 124 006f 00       		.byte	0
 125 0070 00       		.byte	0
 126 0071 00       		.byte	0
 127 0072 00       		.byte	0
 128 0073 0F       		.byte	15
 129              		.comm	icmpv6rpl_vars,156,4
 130              		.text
 131              		.align	2
 132              		.global	icmpv6rpl_init
 133              		.thumb
 134              		.thumb_func
 136              	icmpv6rpl_init:
 137              	.LFB0:
 138              		.file 1 "build/openmote-cc2538_armgcc/openstack/03b-IPv6/icmpv6rpl.c"
   1:build/openmote-cc2538_armgcc/openstack/03b-IPv6/icmpv6rpl.c **** #include "opendefs.h"
   2:build/openmote-cc2538_armgcc/openstack/03b-IPv6/icmpv6rpl.c **** #include "icmpv6rpl.h"
   3:build/openmote-cc2538_armgcc/openstack/03b-IPv6/icmpv6rpl.c **** #include "icmpv6.h"
   4:build/openmote-cc2538_armgcc/openstack/03b-IPv6/icmpv6rpl.c **** #include "openserial.h"
   5:build/openmote-cc2538_armgcc/openstack/03b-IPv6/icmpv6rpl.c **** #include "openqueue.h"
   6:build/openmote-cc2538_armgcc/openstack/03b-IPv6/icmpv6rpl.c **** #include "neighbors.h"
   7:build/openmote-cc2538_armgcc/openstack/03b-IPv6/icmpv6rpl.c **** #include "packetfunctions.h"
   8:build/openmote-cc2538_armgcc/openstack/03b-IPv6/icmpv6rpl.c **** #include "openrandom.h"
   9:build/openmote-cc2538_armgcc/openstack/03b-IPv6/icmpv6rpl.c **** #include "scheduler.h"
  10:build/openmote-cc2538_armgcc/openstack/03b-IPv6/icmpv6rpl.c **** #include "idmanager.h"
  11:build/openmote-cc2538_armgcc/openstack/03b-IPv6/icmpv6rpl.c **** #include "opentimers.h"
  12:build/openmote-cc2538_armgcc/openstack/03b-IPv6/icmpv6rpl.c **** #include "IEEE802154E.h"
  13:build/openmote-cc2538_armgcc/openstack/03b-IPv6/icmpv6rpl.c **** #include "msf.h"
  14:build/openmote-cc2538_armgcc/openstack/03b-IPv6/icmpv6rpl.c **** 
  15:build/openmote-cc2538_armgcc/openstack/03b-IPv6/icmpv6rpl.c **** //=========================== variables =======================================
  16:build/openmote-cc2538_armgcc/openstack/03b-IPv6/icmpv6rpl.c **** 
  17:build/openmote-cc2538_armgcc/openstack/03b-IPv6/icmpv6rpl.c **** icmpv6rpl_vars_t             icmpv6rpl_vars;
  18:build/openmote-cc2538_armgcc/openstack/03b-IPv6/icmpv6rpl.c **** 
  19:build/openmote-cc2538_armgcc/openstack/03b-IPv6/icmpv6rpl.c **** //=========================== prototypes ======================================
  20:build/openmote-cc2538_armgcc/openstack/03b-IPv6/icmpv6rpl.c **** 
  21:build/openmote-cc2538_armgcc/openstack/03b-IPv6/icmpv6rpl.c **** // DIO-related
  22:build/openmote-cc2538_armgcc/openstack/03b-IPv6/icmpv6rpl.c **** void icmpv6rpl_timer_DIO_cb(opentimers_id_t id);
  23:build/openmote-cc2538_armgcc/openstack/03b-IPv6/icmpv6rpl.c **** void icmpv6rpl_timer_DIO_task(void);
  24:build/openmote-cc2538_armgcc/openstack/03b-IPv6/icmpv6rpl.c **** void sendDIO(void);
  25:build/openmote-cc2538_armgcc/openstack/03b-IPv6/icmpv6rpl.c **** // DAO-related
  26:build/openmote-cc2538_armgcc/openstack/03b-IPv6/icmpv6rpl.c **** void icmpv6rpl_timer_DAO_cb(opentimers_id_t id);
  27:build/openmote-cc2538_armgcc/openstack/03b-IPv6/icmpv6rpl.c **** void icmpv6rpl_timer_DAO_task(void);
  28:build/openmote-cc2538_armgcc/openstack/03b-IPv6/icmpv6rpl.c **** void sendDAO(void);
  29:build/openmote-cc2538_armgcc/openstack/03b-IPv6/icmpv6rpl.c **** 
  30:build/openmote-cc2538_armgcc/openstack/03b-IPv6/icmpv6rpl.c **** //=========================== public ==========================================
  31:build/openmote-cc2538_armgcc/openstack/03b-IPv6/icmpv6rpl.c **** 
  32:build/openmote-cc2538_armgcc/openstack/03b-IPv6/icmpv6rpl.c **** /**
  33:build/openmote-cc2538_armgcc/openstack/03b-IPv6/icmpv6rpl.c **** \brief Initialize this module.
  34:build/openmote-cc2538_armgcc/openstack/03b-IPv6/icmpv6rpl.c **** */
  35:build/openmote-cc2538_armgcc/openstack/03b-IPv6/icmpv6rpl.c **** void icmpv6rpl_init() {
 139              		.loc 1 35 0
 140              		.cfi_startproc
 141              		@ args = 0, pretend = 0, frame = 16
 142              		@ frame_needed = 1, uses_anonymous_args = 0
 143 0000 B0B5     		push	{r4, r5, r7, lr}
 144              		.cfi_def_cfa_offset 16
 145              		.cfi_offset 4, -16
 146              		.cfi_offset 5, -12
 147              		.cfi_offset 7, -8
 148              		.cfi_offset 14, -4
 149 0002 86B0     		sub	sp, sp, #24
 150              		.cfi_def_cfa_offset 40
 151 0004 02AF     		add	r7, sp, #8
 152              		.cfi_def_cfa 7, 32
  36:build/openmote-cc2538_armgcc/openstack/03b-IPv6/icmpv6rpl.c ****    uint8_t         dodagid[16];
  37:build/openmote-cc2538_armgcc/openstack/03b-IPv6/icmpv6rpl.c ****    
  38:build/openmote-cc2538_armgcc/openstack/03b-IPv6/icmpv6rpl.c ****    // retrieve my prefix and EUI64
  39:build/openmote-cc2538_armgcc/openstack/03b-IPv6/icmpv6rpl.c ****    memcpy(&dodagid[0],idmanager_getMyID(ADDR_PREFIX)->prefix,8); // prefix
 153              		.loc 1 39 0
 154 0006 0520     		movs	r0, #5
 155 0008 FFF7FEFF 		bl	idmanager_getMyID
 156 000c 0346     		mov	r3, r0
 157 000e 591C     		adds	r1, r3, #1
 158 0010 3B46     		mov	r3, r7
 159 0012 0822     		movs	r2, #8
 160 0014 1846     		mov	r0, r3
 161 0016 FFF7FEFF 		bl	memcpy
  40:build/openmote-cc2538_armgcc/openstack/03b-IPv6/icmpv6rpl.c ****    memcpy(&dodagid[8],idmanager_getMyID(ADDR_64B)->addr_64b,8);  // eui64
 162              		.loc 1 40 0
 163 001a 0220     		movs	r0, #2
 164 001c FFF7FEFF 		bl	idmanager_getMyID
 165 0020 0346     		mov	r3, r0
 166 0022 591C     		adds	r1, r3, #1
 167 0024 3B46     		mov	r3, r7
 168 0026 0833     		adds	r3, r3, #8
 169 0028 0822     		movs	r2, #8
 170 002a 1846     		mov	r0, r3
 171 002c FFF7FEFF 		bl	memcpy
  41:build/openmote-cc2538_armgcc/openstack/03b-IPv6/icmpv6rpl.c ****    
  42:build/openmote-cc2538_armgcc/openstack/03b-IPv6/icmpv6rpl.c ****    //===== reset local variables
  43:build/openmote-cc2538_armgcc/openstack/03b-IPv6/icmpv6rpl.c ****    memset(&icmpv6rpl_vars,0,sizeof(icmpv6rpl_vars_t));
 172              		.loc 1 43 0
 173 0030 9C22     		movs	r2, #156
 174 0032 0021     		movs	r1, #0
 175 0034 AA48     		ldr	r0, .L5
 176 0036 FFF7FEFF 		bl	memset
  44:build/openmote-cc2538_armgcc/openstack/03b-IPv6/icmpv6rpl.c ****    
  45:build/openmote-cc2538_armgcc/openstack/03b-IPv6/icmpv6rpl.c ****    //=== routing
  46:build/openmote-cc2538_armgcc/openstack/03b-IPv6/icmpv6rpl.c ****    icmpv6rpl_vars.haveParent=FALSE;
 177              		.loc 1 46 0
 178 003a A94B     		ldr	r3, .L5
 179 003c 0022     		movs	r2, #0
 180 003e 83F88A20 		strb	r2, [r3, #138]
  47:build/openmote-cc2538_armgcc/openstack/03b-IPv6/icmpv6rpl.c ****    icmpv6rpl_vars.daoSent=FALSE;
 181              		.loc 1 47 0
 182 0042 A74B     		ldr	r3, .L5
 183 0044 0022     		movs	r2, #0
 184 0046 83F89820 		strb	r2, [r3, #152]
  48:build/openmote-cc2538_armgcc/openstack/03b-IPv6/icmpv6rpl.c ****    if (idmanager_getIsDAGroot()==TRUE) {
 185              		.loc 1 48 0
 186 004a FFF7FEFF 		bl	idmanager_getIsDAGroot
 187 004e 0346     		mov	r3, r0
 188 0050 002B     		cmp	r3, #0
 189 0052 05D0     		beq	.L2
  49:build/openmote-cc2538_armgcc/openstack/03b-IPv6/icmpv6rpl.c ****       icmpv6rpl_vars.myDAGrank=MINHOPRANKINCREASE;
 190              		.loc 1 49 0
 191 0054 A24B     		ldr	r3, .L5
 192 0056 4FF48072 		mov	r2, #256
 193 005a A3F88620 		strh	r2, [r3, #134]	@ movhi
 194 005e 04E0     		b	.L3
 195              	.L2:
  50:build/openmote-cc2538_armgcc/openstack/03b-IPv6/icmpv6rpl.c ****    } else {
  51:build/openmote-cc2538_armgcc/openstack/03b-IPv6/icmpv6rpl.c ****       icmpv6rpl_vars.myDAGrank=DEFAULTDAGRANK;
 196              		.loc 1 51 0
 197 0060 9F4B     		ldr	r3, .L5
 198 0062 4FF6FF72 		movw	r2, #65535
 199 0066 A3F88620 		strh	r2, [r3, #134]	@ movhi
 200              	.L3:
  52:build/openmote-cc2538_armgcc/openstack/03b-IPv6/icmpv6rpl.c ****    }
  53:build/openmote-cc2538_armgcc/openstack/03b-IPv6/icmpv6rpl.c **** 
  54:build/openmote-cc2538_armgcc/openstack/03b-IPv6/icmpv6rpl.c ****    //=== admin
  55:build/openmote-cc2538_armgcc/openstack/03b-IPv6/icmpv6rpl.c ****    
  56:build/openmote-cc2538_armgcc/openstack/03b-IPv6/icmpv6rpl.c ****    icmpv6rpl_vars.busySendingDIO            = FALSE;
 201              		.loc 1 56 0
 202 006a 9D4B     		ldr	r3, .L5
 203 006c 0022     		movs	r2, #0
 204 006e 1A70     		strb	r2, [r3]
  57:build/openmote-cc2538_armgcc/openstack/03b-IPv6/icmpv6rpl.c ****    icmpv6rpl_vars.busySendingDAO            = FALSE;
 205              		.loc 1 57 0
 206 0070 9B4B     		ldr	r3, .L5
 207 0072 0022     		movs	r2, #0
 208 0074 5A70     		strb	r2, [r3, #1]
  58:build/openmote-cc2538_armgcc/openstack/03b-IPv6/icmpv6rpl.c ****    icmpv6rpl_vars.fDodagidWritten           = 0;
 209              		.loc 1 58 0
 210 0076 9A4B     		ldr	r3, .L5
 211 0078 0022     		movs	r2, #0
 212 007a 9A70     		strb	r2, [r3, #2]
  59:build/openmote-cc2538_armgcc/openstack/03b-IPv6/icmpv6rpl.c ****    
  60:build/openmote-cc2538_armgcc/openstack/03b-IPv6/icmpv6rpl.c ****    //=== DIO
  61:build/openmote-cc2538_armgcc/openstack/03b-IPv6/icmpv6rpl.c ****    
  62:build/openmote-cc2538_armgcc/openstack/03b-IPv6/icmpv6rpl.c ****    icmpv6rpl_vars.dio.rplinstanceId         = 0x00;        ///< TODO: put correct value
 213              		.loc 1 62 0
 214 007c 984B     		ldr	r3, .L5
 215 007e 0022     		movs	r2, #0
 216 0080 DA70     		strb	r2, [r3, #3]
  63:build/openmote-cc2538_armgcc/openstack/03b-IPv6/icmpv6rpl.c ****    icmpv6rpl_vars.dio.verNumb               = 0x00;        ///< TODO: put correct value
 217              		.loc 1 63 0
 218 0082 974B     		ldr	r3, .L5
 219 0084 0022     		movs	r2, #0
 220 0086 1A71     		strb	r2, [r3, #4]
  64:build/openmote-cc2538_armgcc/openstack/03b-IPv6/icmpv6rpl.c ****    // rank: to be populated upon TX
  65:build/openmote-cc2538_armgcc/openstack/03b-IPv6/icmpv6rpl.c ****    icmpv6rpl_vars.dio.rplOptions            = MOP_DIO_A | \
 221              		.loc 1 65 0
 222 0088 954B     		ldr	r3, .L5
 223 008a 8822     		movs	r2, #136
 224 008c DA71     		strb	r2, [r3, #7]
  66:build/openmote-cc2538_armgcc/openstack/03b-IPv6/icmpv6rpl.c ****                                               MOP_DIO_B | \
  67:build/openmote-cc2538_armgcc/openstack/03b-IPv6/icmpv6rpl.c ****                                               MOP_DIO_C | \
  68:build/openmote-cc2538_armgcc/openstack/03b-IPv6/icmpv6rpl.c ****                                               PRF_DIO_A | \
  69:build/openmote-cc2538_armgcc/openstack/03b-IPv6/icmpv6rpl.c ****                                               PRF_DIO_B | \
  70:build/openmote-cc2538_armgcc/openstack/03b-IPv6/icmpv6rpl.c ****                                               PRF_DIO_C | \
  71:build/openmote-cc2538_armgcc/openstack/03b-IPv6/icmpv6rpl.c ****                                               G_DIO ;
  72:build/openmote-cc2538_armgcc/openstack/03b-IPv6/icmpv6rpl.c ****    icmpv6rpl_vars.dio.DTSN                  = 0x33;        ///< TODO: put correct value
 225              		.loc 1 72 0
 226 008e 944B     		ldr	r3, .L5
 227 0090 3322     		movs	r2, #51
 228 0092 1A72     		strb	r2, [r3, #8]
  73:build/openmote-cc2538_armgcc/openstack/03b-IPv6/icmpv6rpl.c ****    icmpv6rpl_vars.dio.flags                 = 0x00;
 229              		.loc 1 73 0
 230 0094 924B     		ldr	r3, .L5
 231 0096 0022     		movs	r2, #0
 232 0098 5A72     		strb	r2, [r3, #9]
  74:build/openmote-cc2538_armgcc/openstack/03b-IPv6/icmpv6rpl.c ****    icmpv6rpl_vars.dio.reserved              = 0x00;
 233              		.loc 1 74 0
 234 009a 914B     		ldr	r3, .L5
 235 009c 0022     		movs	r2, #0
 236 009e 9A72     		strb	r2, [r3, #10]
  75:build/openmote-cc2538_armgcc/openstack/03b-IPv6/icmpv6rpl.c ****    memcpy(
 237              		.loc 1 75 0
 238 00a0 8F4B     		ldr	r3, .L5
 239 00a2 03F10B04 		add	r4, r3, #11
 240 00a6 3D46     		mov	r5, r7
 241 00a8 0FCD     		ldmia	r5!, {r0, r1, r2, r3}
 242 00aa 2060     		str	r0, [r4]	@ unaligned
 243 00ac 6160     		str	r1, [r4, #4]	@ unaligned
 244 00ae A260     		str	r2, [r4, #8]	@ unaligned
 245 00b0 E360     		str	r3, [r4, #12]	@ unaligned
  76:build/openmote-cc2538_armgcc/openstack/03b-IPv6/icmpv6rpl.c ****       &(icmpv6rpl_vars.dio.DODAGID[0]),
  77:build/openmote-cc2538_armgcc/openstack/03b-IPv6/icmpv6rpl.c ****       dodagid,
  78:build/openmote-cc2538_armgcc/openstack/03b-IPv6/icmpv6rpl.c ****       sizeof(icmpv6rpl_vars.dio.DODAGID)
  79:build/openmote-cc2538_armgcc/openstack/03b-IPv6/icmpv6rpl.c ****    ); // can be replaced later
  80:build/openmote-cc2538_armgcc/openstack/03b-IPv6/icmpv6rpl.c ****    
  81:build/openmote-cc2538_armgcc/openstack/03b-IPv6/icmpv6rpl.c ****    icmpv6rpl_vars.dioDestination.type = ADDR_128B;
 246              		.loc 1 81 0
 247 00b2 8B4B     		ldr	r3, .L5
 248 00b4 0322     		movs	r2, #3
 249 00b6 83F84B20 		strb	r2, [r3, #75]
  82:build/openmote-cc2538_armgcc/openstack/03b-IPv6/icmpv6rpl.c ****    memcpy(&icmpv6rpl_vars.dioDestination.addr_128b[0],all_routers_multicast,sizeof(all_routers_mult
 250              		.loc 1 82 0
 251 00ba 894B     		ldr	r3, .L5
 252 00bc 894A     		ldr	r2, .L5+4
 253 00be 03F14C04 		add	r4, r3, #76
 254 00c2 1346     		mov	r3, r2
 255 00c4 0FCB     		ldmia	r3, {r0, r1, r2, r3}
 256 00c6 84E80F00 		stmia	r4, {r0, r1, r2, r3}
  83:build/openmote-cc2538_armgcc/openstack/03b-IPv6/icmpv6rpl.c ****    
  84:build/openmote-cc2538_armgcc/openstack/03b-IPv6/icmpv6rpl.c ****    icmpv6rpl_vars.dioPeriod                 = DIO_PORTION*(neighbors_getNumNeighbors()+1);
 257              		.loc 1 84 0
 258 00ca FFF7FEFF 		bl	neighbors_getNumNeighbors
 259 00ce 0346     		mov	r3, r0
 260 00d0 0133     		adds	r3, r3, #1
 261 00d2 9BB2     		uxth	r3, r3
 262 00d4 1A46     		mov	r2, r3	@ movhi
 263 00d6 5200     		lsls	r2, r2, #1
 264 00d8 1344     		add	r3, r3, r2
 265 00da 5B00     		lsls	r3, r3, #1
 266 00dc 9AB2     		uxth	r2, r3
 267 00de 804B     		ldr	r3, .L5
 268 00e0 A3F86020 		strh	r2, [r3, #96]	@ movhi
  85:build/openmote-cc2538_armgcc/openstack/03b-IPv6/icmpv6rpl.c ****    icmpv6rpl_vars.timerIdDIO                = opentimers_create();
 269              		.loc 1 85 0
 270 00e4 FFF7FEFF 		bl	opentimers_create
 271 00e8 0346     		mov	r3, r0
 272 00ea 1A46     		mov	r2, r3
 273 00ec 7C4B     		ldr	r3, .L5
 274 00ee 83F85E20 		strb	r2, [r3, #94]
  86:build/openmote-cc2538_armgcc/openstack/03b-IPv6/icmpv6rpl.c **** 
  87:build/openmote-cc2538_armgcc/openstack/03b-IPv6/icmpv6rpl.c ****    //initialize PIO -> move this to dagroot code
  88:build/openmote-cc2538_armgcc/openstack/03b-IPv6/icmpv6rpl.c ****    icmpv6rpl_vars.pio.type                  = RPL_OPTION_PIO;
 275              		.loc 1 88 0
 276 00f2 7B4B     		ldr	r3, .L5
 277 00f4 0822     		movs	r2, #8
 278 00f6 DA76     		strb	r2, [r3, #27]
  89:build/openmote-cc2538_armgcc/openstack/03b-IPv6/icmpv6rpl.c ****    icmpv6rpl_vars.pio.optLen                = 30;
 279              		.loc 1 89 0
 280 00f8 794B     		ldr	r3, .L5
 281 00fa 1E22     		movs	r2, #30
 282 00fc 1A77     		strb	r2, [r3, #28]
  90:build/openmote-cc2538_armgcc/openstack/03b-IPv6/icmpv6rpl.c ****    icmpv6rpl_vars.pio.prefLen               = 64;
 283              		.loc 1 90 0
 284 00fe 784B     		ldr	r3, .L5
 285 0100 4022     		movs	r2, #64
 286 0102 5A77     		strb	r2, [r3, #29]
  91:build/openmote-cc2538_armgcc/openstack/03b-IPv6/icmpv6rpl.c ****    icmpv6rpl_vars.pio.flags                 = 96;
 287              		.loc 1 91 0
 288 0104 764B     		ldr	r3, .L5
 289 0106 6022     		movs	r2, #96
 290 0108 9A77     		strb	r2, [r3, #30]
  92:build/openmote-cc2538_armgcc/openstack/03b-IPv6/icmpv6rpl.c ****    icmpv6rpl_vars.pio.plifetime             = 0xFFFFFFFF;
 291              		.loc 1 92 0
 292 010a 754B     		ldr	r3, .L5
 293 010c 4FF0FF32 		mov	r2, #-1
 294 0110 83F82320 		strb	r2, [r3, #35]
 295 0114 4FF0FF32 		mov	r2, #-1
 296 0118 83F82420 		strb	r2, [r3, #36]
 297 011c 4FF0FF32 		mov	r2, #-1
 298 0120 83F82520 		strb	r2, [r3, #37]
 299 0124 4FF0FF32 		mov	r2, #-1
 300 0128 83F82620 		strb	r2, [r3, #38]
  93:build/openmote-cc2538_armgcc/openstack/03b-IPv6/icmpv6rpl.c ****    icmpv6rpl_vars.pio.vlifetime             = 0xFFFFFFFF;
 301              		.loc 1 93 0
 302 012c 6C4B     		ldr	r3, .L5
 303 012e 4FF0FF32 		mov	r2, #-1
 304 0132 DA77     		strb	r2, [r3, #31]
 305 0134 4FF0FF32 		mov	r2, #-1
 306 0138 83F82020 		strb	r2, [r3, #32]
 307 013c 4FF0FF32 		mov	r2, #-1
 308 0140 83F82120 		strb	r2, [r3, #33]
 309 0144 4FF0FF32 		mov	r2, #-1
 310 0148 83F82220 		strb	r2, [r3, #34]
  94:build/openmote-cc2538_armgcc/openstack/03b-IPv6/icmpv6rpl.c ****    // if not dagroot then do not initialize, will receive PIO and update fields
  95:build/openmote-cc2538_armgcc/openstack/03b-IPv6/icmpv6rpl.c ****    // later
  96:build/openmote-cc2538_armgcc/openstack/03b-IPv6/icmpv6rpl.c ****    if (idmanager_getIsDAGroot()){
 311              		.loc 1 96 0
 312 014c FFF7FEFF 		bl	idmanager_getIsDAGroot
 313 0150 0346     		mov	r3, r0
 314 0152 002B     		cmp	r3, #0
 315 0154 13D0     		beq	.L4
  97:build/openmote-cc2538_armgcc/openstack/03b-IPv6/icmpv6rpl.c ****      memcpy(
  98:build/openmote-cc2538_armgcc/openstack/03b-IPv6/icmpv6rpl.c ****         &(icmpv6rpl_vars.pio.prefix[0]),
  99:build/openmote-cc2538_armgcc/openstack/03b-IPv6/icmpv6rpl.c ****         idmanager_getMyID(ADDR_PREFIX)->prefix,
 316              		.loc 1 99 0
 317 0156 0520     		movs	r0, #5
 318 0158 FFF7FEFF 		bl	idmanager_getMyID
 319 015c 0346     		mov	r3, r0
 320 015e 0133     		adds	r3, r3, #1
  97:build/openmote-cc2538_armgcc/openstack/03b-IPv6/icmpv6rpl.c ****      memcpy(
 321              		.loc 1 97 0
 322 0160 0822     		movs	r2, #8
 323 0162 1946     		mov	r1, r3
 324 0164 6048     		ldr	r0, .L5+8
 325 0166 FFF7FEFF 		bl	memcpy
 100:build/openmote-cc2538_armgcc/openstack/03b-IPv6/icmpv6rpl.c ****         sizeof(idmanager_getMyID(ADDR_PREFIX)->prefix)
 101:build/openmote-cc2538_armgcc/openstack/03b-IPv6/icmpv6rpl.c ****      );
 102:build/openmote-cc2538_armgcc/openstack/03b-IPv6/icmpv6rpl.c ****       memcpy(
 103:build/openmote-cc2538_armgcc/openstack/03b-IPv6/icmpv6rpl.c ****         &(icmpv6rpl_vars.pio.prefix[8]),
 104:build/openmote-cc2538_armgcc/openstack/03b-IPv6/icmpv6rpl.c ****         idmanager_getMyID(ADDR_64B)->addr_64b,
 326              		.loc 1 104 0
 327 016a 0220     		movs	r0, #2
 328 016c FFF7FEFF 		bl	idmanager_getMyID
 329 0170 0346     		mov	r3, r0
 330 0172 0133     		adds	r3, r3, #1
 102:build/openmote-cc2538_armgcc/openstack/03b-IPv6/icmpv6rpl.c ****         &(icmpv6rpl_vars.pio.prefix[8]),
 331              		.loc 1 102 0
 332 0174 0822     		movs	r2, #8
 333 0176 1946     		mov	r1, r3
 334 0178 5C48     		ldr	r0, .L5+12
 335 017a FFF7FEFF 		bl	memcpy
 336              	.L4:
 105:build/openmote-cc2538_armgcc/openstack/03b-IPv6/icmpv6rpl.c ****         sizeof(idmanager_getMyID(ADDR_64B)->addr_64b)
 106:build/openmote-cc2538_armgcc/openstack/03b-IPv6/icmpv6rpl.c ****      );
 107:build/openmote-cc2538_armgcc/openstack/03b-IPv6/icmpv6rpl.c ****    }
 108:build/openmote-cc2538_armgcc/openstack/03b-IPv6/icmpv6rpl.c ****    //configuration option 
 109:build/openmote-cc2538_armgcc/openstack/03b-IPv6/icmpv6rpl.c ****    icmpv6rpl_vars.conf.type = RPL_OPTION_CONFIG;
 337              		.loc 1 109 0
 338 017e 584B     		ldr	r3, .L5
 339 0180 0422     		movs	r2, #4
 340 0182 83F83B20 		strb	r2, [r3, #59]
 110:build/openmote-cc2538_armgcc/openstack/03b-IPv6/icmpv6rpl.c ****    icmpv6rpl_vars.conf.optLen = 14;
 341              		.loc 1 110 0
 342 0186 564B     		ldr	r3, .L5
 343 0188 0E22     		movs	r2, #14
 344 018a 83F83C20 		strb	r2, [r3, #60]
 111:build/openmote-cc2538_armgcc/openstack/03b-IPv6/icmpv6rpl.c ****    icmpv6rpl_vars.conf.flagsAPCS = DEFAULT_PATH_CONTROL_SIZE; //DEFAULT_PATH_CONTROL_SIZE = 0
 345              		.loc 1 111 0
 346 018e 544B     		ldr	r3, .L5
 347 0190 0022     		movs	r2, #0
 348 0192 83F83D20 		strb	r2, [r3, #61]
 112:build/openmote-cc2538_armgcc/openstack/03b-IPv6/icmpv6rpl.c ****    icmpv6rpl_vars.conf.DIOIntDoubl = 8; //8 -> trickle period - max times it will double ~20min
 349              		.loc 1 112 0
 350 0196 524B     		ldr	r3, .L5
 351 0198 0822     		movs	r2, #8
 352 019a 83F83E20 		strb	r2, [r3, #62]
 113:build/openmote-cc2538_armgcc/openstack/03b-IPv6/icmpv6rpl.c ****    icmpv6rpl_vars.conf.DIOIntMin = 12 ; // 12 ->  min trickle period -> 16s 
 353              		.loc 1 113 0
 354 019e 504B     		ldr	r3, .L5
 355 01a0 0C22     		movs	r2, #12
 356 01a2 83F83F20 		strb	r2, [r3, #63]
 114:build/openmote-cc2538_armgcc/openstack/03b-IPv6/icmpv6rpl.c ****    icmpv6rpl_vars.conf.DIORedun = 0 ; // 0
 357              		.loc 1 114 0
 358 01a6 4E4B     		ldr	r3, .L5
 359 01a8 0022     		movs	r2, #0
 360 01aa 83F84020 		strb	r2, [r3, #64]
 115:build/openmote-cc2538_armgcc/openstack/03b-IPv6/icmpv6rpl.c ****    icmpv6rpl_vars.conf.maxRankIncrease = 2048; //  2048
 361              		.loc 1 115 0
 362 01ae 4C4B     		ldr	r3, .L5
 363 01b0 0022     		movs	r2, #0
 364 01b2 83F84120 		strb	r2, [r3, #65]
 365 01b6 0022     		movs	r2, #0
 366 01b8 42F00802 		orr	r2, r2, #8
 367 01bc 83F84220 		strb	r2, [r3, #66]
 116:build/openmote-cc2538_armgcc/openstack/03b-IPv6/icmpv6rpl.c ****    icmpv6rpl_vars.conf.minHopRankIncrease = 256 ; //256
 368              		.loc 1 116 0
 369 01c0 474B     		ldr	r3, .L5
 370 01c2 0022     		movs	r2, #0
 371 01c4 83F84320 		strb	r2, [r3, #67]
 372 01c8 0022     		movs	r2, #0
 373 01ca 42F00102 		orr	r2, r2, #1
 374 01ce 83F84420 		strb	r2, [r3, #68]
 117:build/openmote-cc2538_armgcc/openstack/03b-IPv6/icmpv6rpl.c ****    icmpv6rpl_vars.conf.OCP = 0; // 0 OF0
 375              		.loc 1 117 0
 376 01d2 434B     		ldr	r3, .L5
 377 01d4 0022     		movs	r2, #0
 378 01d6 83F84520 		strb	r2, [r3, #69]
 379 01da 0022     		movs	r2, #0
 380 01dc 83F84620 		strb	r2, [r3, #70]
 118:build/openmote-cc2538_armgcc/openstack/03b-IPv6/icmpv6rpl.c ****    icmpv6rpl_vars.conf.reserved = 0;
 381              		.loc 1 118 0
 382 01e0 3F4B     		ldr	r3, .L5
 383 01e2 0022     		movs	r2, #0
 384 01e4 83F84720 		strb	r2, [r3, #71]
 119:build/openmote-cc2538_armgcc/openstack/03b-IPv6/icmpv6rpl.c ****    icmpv6rpl_vars.conf.defLifetime = 0xff; //infinite - limit for DAO period  -> 0xff 
 385              		.loc 1 119 0
 386 01e8 3D4B     		ldr	r3, .L5
 387 01ea FF22     		movs	r2, #255
 388 01ec 83F84820 		strb	r2, [r3, #72]
 120:build/openmote-cc2538_armgcc/openstack/03b-IPv6/icmpv6rpl.c ****    icmpv6rpl_vars.conf.lifetimeUnit = 0xffff; // 0xffff
 389              		.loc 1 120 0
 390 01f0 3B4B     		ldr	r3, .L5
 391 01f2 4FF0FF32 		mov	r2, #-1
 392 01f6 83F84920 		strb	r2, [r3, #73]
 393 01fa 4FF0FF32 		mov	r2, #-1
 394 01fe 83F84A20 		strb	r2, [r3, #74]
 121:build/openmote-cc2538_armgcc/openstack/03b-IPv6/icmpv6rpl.c ****    
 122:build/openmote-cc2538_armgcc/openstack/03b-IPv6/icmpv6rpl.c ****    opentimers_scheduleIn(
 395              		.loc 1 122 0
 396 0202 374B     		ldr	r3, .L5
 397 0204 93F85E40 		ldrb	r4, [r3, #94]	@ zero_extendqisi2
 123:build/openmote-cc2538_armgcc/openstack/03b-IPv6/icmpv6rpl.c ****        icmpv6rpl_vars.timerIdDIO,
 124:build/openmote-cc2538_armgcc/openstack/03b-IPv6/icmpv6rpl.c ****        872 +(openrandom_get16b()&0xff),
 398              		.loc 1 124 0
 399 0208 FFF7FEFF 		bl	openrandom_get16b
 400 020c 0346     		mov	r3, r0
 401 020e DBB2     		uxtb	r3, r3
 402 0210 03F55A73 		add	r3, r3, #872
 122:build/openmote-cc2538_armgcc/openstack/03b-IPv6/icmpv6rpl.c ****        icmpv6rpl_vars.timerIdDIO,
 403              		.loc 1 122 0
 404 0214 1946     		mov	r1, r3
 405 0216 364B     		ldr	r3, .L5+16
 406 0218 0093     		str	r3, [sp]
 407 021a 0123     		movs	r3, #1
 408 021c 0022     		movs	r2, #0
 409 021e 2046     		mov	r0, r4
 410 0220 FFF7FEFF 		bl	opentimers_scheduleIn
 125:build/openmote-cc2538_armgcc/openstack/03b-IPv6/icmpv6rpl.c ****        TIME_MS,
 126:build/openmote-cc2538_armgcc/openstack/03b-IPv6/icmpv6rpl.c ****        TIMER_ONESHOT,
 127:build/openmote-cc2538_armgcc/openstack/03b-IPv6/icmpv6rpl.c ****        icmpv6rpl_timer_DIO_cb
 128:build/openmote-cc2538_armgcc/openstack/03b-IPv6/icmpv6rpl.c ****    );
 129:build/openmote-cc2538_armgcc/openstack/03b-IPv6/icmpv6rpl.c **** 
 130:build/openmote-cc2538_armgcc/openstack/03b-IPv6/icmpv6rpl.c ****    //=== DAO
 131:build/openmote-cc2538_armgcc/openstack/03b-IPv6/icmpv6rpl.c ****    
 132:build/openmote-cc2538_armgcc/openstack/03b-IPv6/icmpv6rpl.c ****    icmpv6rpl_vars.dao.rplinstanceId         = 0x00;        ///< TODO: put correct value
 411              		.loc 1 132 0
 412 0224 2E4B     		ldr	r3, .L5
 413 0226 0022     		movs	r2, #0
 414 0228 83F86220 		strb	r2, [r3, #98]
 133:build/openmote-cc2538_armgcc/openstack/03b-IPv6/icmpv6rpl.c ****    icmpv6rpl_vars.dao.K_D_flags             = FLAG_DAO_A   | \
 415              		.loc 1 133 0
 416 022c 2C4B     		ldr	r3, .L5
 417 022e 4022     		movs	r2, #64
 418 0230 83F86320 		strb	r2, [r3, #99]
 134:build/openmote-cc2538_armgcc/openstack/03b-IPv6/icmpv6rpl.c ****                                               FLAG_DAO_B   | \
 135:build/openmote-cc2538_armgcc/openstack/03b-IPv6/icmpv6rpl.c ****                                               FLAG_DAO_C   | \
 136:build/openmote-cc2538_armgcc/openstack/03b-IPv6/icmpv6rpl.c ****                                               FLAG_DAO_D   | \
 137:build/openmote-cc2538_armgcc/openstack/03b-IPv6/icmpv6rpl.c ****                                               FLAG_DAO_E   | \
 138:build/openmote-cc2538_armgcc/openstack/03b-IPv6/icmpv6rpl.c ****                                               PRF_DIO_C    | \
 139:build/openmote-cc2538_armgcc/openstack/03b-IPv6/icmpv6rpl.c ****                                               FLAG_DAO_F   | \
 140:build/openmote-cc2538_armgcc/openstack/03b-IPv6/icmpv6rpl.c ****                                               D_DAO        |
 141:build/openmote-cc2538_armgcc/openstack/03b-IPv6/icmpv6rpl.c ****                                               K_DAO;
 142:build/openmote-cc2538_armgcc/openstack/03b-IPv6/icmpv6rpl.c ****    icmpv6rpl_vars.dao.reserved              = 0x00;
 419              		.loc 1 142 0
 420 0234 2A4B     		ldr	r3, .L5
 421 0236 0022     		movs	r2, #0
 422 0238 83F86420 		strb	r2, [r3, #100]
 143:build/openmote-cc2538_armgcc/openstack/03b-IPv6/icmpv6rpl.c ****    icmpv6rpl_vars.dao.DAOSequence           = 0x00;
 423              		.loc 1 143 0
 424 023c 284B     		ldr	r3, .L5
 425 023e 0022     		movs	r2, #0
 426 0240 83F86520 		strb	r2, [r3, #101]
 144:build/openmote-cc2538_armgcc/openstack/03b-IPv6/icmpv6rpl.c ****    memcpy(
 427              		.loc 1 144 0
 428 0244 264B     		ldr	r3, .L5
 429 0246 03F16604 		add	r4, r3, #102
 430 024a 3D46     		mov	r5, r7
 431 024c 0FCD     		ldmia	r5!, {r0, r1, r2, r3}
 432 024e 2060     		str	r0, [r4]	@ unaligned
 433 0250 6160     		str	r1, [r4, #4]	@ unaligned
 434 0252 A260     		str	r2, [r4, #8]	@ unaligned
 435 0254 E360     		str	r3, [r4, #12]	@ unaligned
 145:build/openmote-cc2538_armgcc/openstack/03b-IPv6/icmpv6rpl.c ****       &(icmpv6rpl_vars.dao.DODAGID[0]),
 146:build/openmote-cc2538_armgcc/openstack/03b-IPv6/icmpv6rpl.c ****       dodagid,
 147:build/openmote-cc2538_armgcc/openstack/03b-IPv6/icmpv6rpl.c ****       sizeof(icmpv6rpl_vars.dao.DODAGID)
 148:build/openmote-cc2538_armgcc/openstack/03b-IPv6/icmpv6rpl.c ****    );  // can be replaced later
 149:build/openmote-cc2538_armgcc/openstack/03b-IPv6/icmpv6rpl.c ****    
 150:build/openmote-cc2538_armgcc/openstack/03b-IPv6/icmpv6rpl.c ****    icmpv6rpl_vars.dao_transit.type          = OPTION_TRANSIT_INFORMATION_TYPE;
 436              		.loc 1 150 0
 437 0256 224B     		ldr	r3, .L5
 438 0258 0622     		movs	r2, #6
 439 025a 83F87620 		strb	r2, [r3, #118]
 151:build/openmote-cc2538_armgcc/openstack/03b-IPv6/icmpv6rpl.c ****    // optionLength: to be populated upon TX
 152:build/openmote-cc2538_armgcc/openstack/03b-IPv6/icmpv6rpl.c ****    icmpv6rpl_vars.dao_transit.E_flags       = E_DAO_Transit_Info;
 440              		.loc 1 152 0
 441 025e 204B     		ldr	r3, .L5
 442 0260 0022     		movs	r2, #0
 443 0262 83F87820 		strb	r2, [r3, #120]
 153:build/openmote-cc2538_armgcc/openstack/03b-IPv6/icmpv6rpl.c ****    icmpv6rpl_vars.dao_transit.PathControl   = PC1_A_DAO_Transit_Info | \
 444              		.loc 1 153 0
 445 0266 1E4B     		ldr	r3, .L5
 446 0268 4022     		movs	r2, #64
 447 026a 83F87920 		strb	r2, [r3, #121]
 154:build/openmote-cc2538_armgcc/openstack/03b-IPv6/icmpv6rpl.c ****                                               PC1_B_DAO_Transit_Info | \
 155:build/openmote-cc2538_armgcc/openstack/03b-IPv6/icmpv6rpl.c ****                                               PC2_A_DAO_Transit_Info | \
 156:build/openmote-cc2538_armgcc/openstack/03b-IPv6/icmpv6rpl.c ****                                               PC2_B_DAO_Transit_Info | \
 157:build/openmote-cc2538_armgcc/openstack/03b-IPv6/icmpv6rpl.c ****                                               PC3_A_DAO_Transit_Info | \
 158:build/openmote-cc2538_armgcc/openstack/03b-IPv6/icmpv6rpl.c ****                                               PC3_B_DAO_Transit_Info | \
 159:build/openmote-cc2538_armgcc/openstack/03b-IPv6/icmpv6rpl.c ****                                               PC4_A_DAO_Transit_Info | \
 160:build/openmote-cc2538_armgcc/openstack/03b-IPv6/icmpv6rpl.c ****                                               PC4_B_DAO_Transit_Info;  
 161:build/openmote-cc2538_armgcc/openstack/03b-IPv6/icmpv6rpl.c ****    icmpv6rpl_vars.dao_transit.PathSequence  = 0x00; // to be incremented at each TX
 448              		.loc 1 161 0
 449 026e 1C4B     		ldr	r3, .L5
 450 0270 0022     		movs	r2, #0
 451 0272 83F87A20 		strb	r2, [r3, #122]
 162:build/openmote-cc2538_armgcc/openstack/03b-IPv6/icmpv6rpl.c ****    icmpv6rpl_vars.dao_transit.PathLifetime  = 0xAA;
 452              		.loc 1 162 0
 453 0276 1A4B     		ldr	r3, .L5
 454 0278 AA22     		movs	r2, #170
 455 027a 83F87B20 		strb	r2, [r3, #123]
 163:build/openmote-cc2538_armgcc/openstack/03b-IPv6/icmpv6rpl.c ****    //target information
 164:build/openmote-cc2538_armgcc/openstack/03b-IPv6/icmpv6rpl.c ****    icmpv6rpl_vars.dao_target.type  = OPTION_TARGET_INFORMATION_TYPE;
 456              		.loc 1 164 0
 457 027e 184B     		ldr	r3, .L5
 458 0280 0522     		movs	r2, #5
 459 0282 83F87C20 		strb	r2, [r3, #124]
 165:build/openmote-cc2538_armgcc/openstack/03b-IPv6/icmpv6rpl.c ****    icmpv6rpl_vars.dao_target.optionLength  = 0;
 460              		.loc 1 165 0
 461 0286 164B     		ldr	r3, .L5
 462 0288 0022     		movs	r2, #0
 463 028a 83F87D20 		strb	r2, [r3, #125]
 166:build/openmote-cc2538_armgcc/openstack/03b-IPv6/icmpv6rpl.c ****    icmpv6rpl_vars.dao_target.flags  = 0;
 464              		.loc 1 166 0
 465 028e 144B     		ldr	r3, .L5
 466 0290 0022     		movs	r2, #0
 467 0292 83F87E20 		strb	r2, [r3, #126]
 167:build/openmote-cc2538_armgcc/openstack/03b-IPv6/icmpv6rpl.c ****    icmpv6rpl_vars.dao_target.prefixLength = 0;
 468              		.loc 1 167 0
 469 0296 124B     		ldr	r3, .L5
 470 0298 0022     		movs	r2, #0
 471 029a 83F87F20 		strb	r2, [r3, #127]
 168:build/openmote-cc2538_armgcc/openstack/03b-IPv6/icmpv6rpl.c ****    
 169:build/openmote-cc2538_armgcc/openstack/03b-IPv6/icmpv6rpl.c ****    icmpv6rpl_vars.daoPeriod                 = TIMER_DAO_TIMEOUT;
 472              		.loc 1 169 0
 473 029e 104B     		ldr	r3, .L5
 474 02a0 1E22     		movs	r2, #30
 475 02a2 A3F88420 		strh	r2, [r3, #132]	@ movhi
 170:build/openmote-cc2538_armgcc/openstack/03b-IPv6/icmpv6rpl.c ****    icmpv6rpl_vars.timerIdDAO                = opentimers_create();
 476              		.loc 1 170 0
 477 02a6 FFF7FEFF 		bl	opentimers_create
 478 02aa 0346     		mov	r3, r0
 479 02ac 1A46     		mov	r2, r3
 480 02ae 0C4B     		ldr	r3, .L5
 481 02b0 83F88020 		strb	r2, [r3, #128]
 171:build/openmote-cc2538_armgcc/openstack/03b-IPv6/icmpv6rpl.c ****    opentimers_scheduleIn(
 482              		.loc 1 171 0
 483 02b4 0A4B     		ldr	r3, .L5
 484 02b6 93F88040 		ldrb	r4, [r3, #128]	@ zero_extendqisi2
 172:build/openmote-cc2538_armgcc/openstack/03b-IPv6/icmpv6rpl.c ****        icmpv6rpl_vars.timerIdDAO,
 173:build/openmote-cc2538_armgcc/openstack/03b-IPv6/icmpv6rpl.c ****        872 +(openrandom_get16b()&0xff),
 485              		.loc 1 173 0
 486 02ba FFF7FEFF 		bl	openrandom_get16b
 487 02be 0346     		mov	r3, r0
 488 02c0 DBB2     		uxtb	r3, r3
 489 02c2 03F55A73 		add	r3, r3, #872
 171:build/openmote-cc2538_armgcc/openstack/03b-IPv6/icmpv6rpl.c ****    opentimers_scheduleIn(
 490              		.loc 1 171 0
 491 02c6 1946     		mov	r1, r3
 492 02c8 0A4B     		ldr	r3, .L5+20
 493 02ca 0093     		str	r3, [sp]
 494 02cc 0123     		movs	r3, #1
 495 02ce 0022     		movs	r2, #0
 496 02d0 2046     		mov	r0, r4
 497 02d2 FFF7FEFF 		bl	opentimers_scheduleIn
 174:build/openmote-cc2538_armgcc/openstack/03b-IPv6/icmpv6rpl.c ****        TIME_MS,
 175:build/openmote-cc2538_armgcc/openstack/03b-IPv6/icmpv6rpl.c ****        TIMER_ONESHOT,
 176:build/openmote-cc2538_armgcc/openstack/03b-IPv6/icmpv6rpl.c ****        icmpv6rpl_timer_DAO_cb
 177:build/openmote-cc2538_armgcc/openstack/03b-IPv6/icmpv6rpl.c ****    );
 178:build/openmote-cc2538_armgcc/openstack/03b-IPv6/icmpv6rpl.c **** }
 498              		.loc 1 178 0
 499 02d6 00BF     		nop
 500 02d8 1037     		adds	r7, r7, #16
 501              		.cfi_def_cfa_offset 16
 502 02da BD46     		mov	sp, r7
 503              		.cfi_def_cfa_register 13
 504              		@ sp needed
 505 02dc B0BD     		pop	{r4, r5, r7, pc}
 506              	.L6:
 507 02de 00BF     		.align	2
 508              	.L5:
 509 02e0 00000000 		.word	icmpv6rpl_vars
 510 02e4 30000000 		.word	all_routers_multicast
 511 02e8 2B000000 		.word	icmpv6rpl_vars+43
 512 02ec 33000000 		.word	icmpv6rpl_vars+51
 513 02f0 00000000 		.word	icmpv6rpl_timer_DIO_cb
 514 02f4 00000000 		.word	icmpv6rpl_timer_DAO_cb
 515              		.cfi_endproc
 516              	.LFE0:
 518              		.align	2
 519              		.global	icmpv6rpl_writeDODAGid
 520              		.thumb
 521              		.thumb_func
 523              	icmpv6rpl_writeDODAGid:
 524              	.LFB1:
 179:build/openmote-cc2538_armgcc/openstack/03b-IPv6/icmpv6rpl.c **** 
 180:build/openmote-cc2538_armgcc/openstack/03b-IPv6/icmpv6rpl.c **** void  icmpv6rpl_writeDODAGid(uint8_t* dodagid) {
 525              		.loc 1 180 0
 526              		.cfi_startproc
 527              		@ args = 0, pretend = 0, frame = 8
 528              		@ frame_needed = 1, uses_anonymous_args = 0
 529 02f8 80B5     		push	{r7, lr}
 530              		.cfi_def_cfa_offset 8
 531              		.cfi_offset 7, -8
 532              		.cfi_offset 14, -4
 533 02fa 82B0     		sub	sp, sp, #8
 534              		.cfi_def_cfa_offset 16
 535 02fc 00AF     		add	r7, sp, #0
 536              		.cfi_def_cfa_register 7
 537 02fe 7860     		str	r0, [r7, #4]
 181:build/openmote-cc2538_armgcc/openstack/03b-IPv6/icmpv6rpl.c ****    
 182:build/openmote-cc2538_armgcc/openstack/03b-IPv6/icmpv6rpl.c ****    // write DODAGID to DIO/DAO
 183:build/openmote-cc2538_armgcc/openstack/03b-IPv6/icmpv6rpl.c ****    memcpy(
 538              		.loc 1 183 0
 539 0300 1022     		movs	r2, #16
 540 0302 7968     		ldr	r1, [r7, #4]
 541 0304 0748     		ldr	r0, .L8
 542 0306 FFF7FEFF 		bl	memcpy
 184:build/openmote-cc2538_armgcc/openstack/03b-IPv6/icmpv6rpl.c ****       &(icmpv6rpl_vars.dio.DODAGID[0]),
 185:build/openmote-cc2538_armgcc/openstack/03b-IPv6/icmpv6rpl.c ****       dodagid,
 186:build/openmote-cc2538_armgcc/openstack/03b-IPv6/icmpv6rpl.c ****       sizeof(icmpv6rpl_vars.dio.DODAGID)
 187:build/openmote-cc2538_armgcc/openstack/03b-IPv6/icmpv6rpl.c ****    );
 188:build/openmote-cc2538_armgcc/openstack/03b-IPv6/icmpv6rpl.c ****    memcpy(
 543              		.loc 1 188 0
 544 030a 1022     		movs	r2, #16
 545 030c 7968     		ldr	r1, [r7, #4]
 546 030e 0648     		ldr	r0, .L8+4
 547 0310 FFF7FEFF 		bl	memcpy
 189:build/openmote-cc2538_armgcc/openstack/03b-IPv6/icmpv6rpl.c ****       &(icmpv6rpl_vars.dao.DODAGID[0]),
 190:build/openmote-cc2538_armgcc/openstack/03b-IPv6/icmpv6rpl.c ****       dodagid,
 191:build/openmote-cc2538_armgcc/openstack/03b-IPv6/icmpv6rpl.c ****       sizeof(icmpv6rpl_vars.dao.DODAGID)
 192:build/openmote-cc2538_armgcc/openstack/03b-IPv6/icmpv6rpl.c ****    );
 193:build/openmote-cc2538_armgcc/openstack/03b-IPv6/icmpv6rpl.c ****    
 194:build/openmote-cc2538_armgcc/openstack/03b-IPv6/icmpv6rpl.c ****    // remember I got a DODAGID
 195:build/openmote-cc2538_armgcc/openstack/03b-IPv6/icmpv6rpl.c ****    icmpv6rpl_vars.fDodagidWritten = 1;
 548              		.loc 1 195 0
 549 0314 054B     		ldr	r3, .L8+8
 550 0316 0122     		movs	r2, #1
 551 0318 9A70     		strb	r2, [r3, #2]
 196:build/openmote-cc2538_armgcc/openstack/03b-IPv6/icmpv6rpl.c **** }
 552              		.loc 1 196 0
 553 031a 00BF     		nop
 554 031c 0837     		adds	r7, r7, #8
 555              		.cfi_def_cfa_offset 8
 556 031e BD46     		mov	sp, r7
 557              		.cfi_def_cfa_register 13
 558              		@ sp needed
 559 0320 80BD     		pop	{r7, pc}
 560              	.L9:
 561 0322 00BF     		.align	2
 562              	.L8:
 563 0324 0B000000 		.word	icmpv6rpl_vars+11
 564 0328 66000000 		.word	icmpv6rpl_vars+102
 565 032c 00000000 		.word	icmpv6rpl_vars
 566              		.cfi_endproc
 567              	.LFE1:
 569              		.align	2
 570              		.global	icmpv6rpl_getRPLIntanceID
 571              		.thumb
 572              		.thumb_func
 574              	icmpv6rpl_getRPLIntanceID:
 575              	.LFB2:
 197:build/openmote-cc2538_armgcc/openstack/03b-IPv6/icmpv6rpl.c **** 
 198:build/openmote-cc2538_armgcc/openstack/03b-IPv6/icmpv6rpl.c **** uint8_t icmpv6rpl_getRPLIntanceID(){
 576              		.loc 1 198 0
 577              		.cfi_startproc
 578              		@ args = 0, pretend = 0, frame = 0
 579              		@ frame_needed = 1, uses_anonymous_args = 0
 580              		@ link register save eliminated.
 581 0330 80B4     		push	{r7}
 582              		.cfi_def_cfa_offset 4
 583              		.cfi_offset 7, -4
 584 0332 00AF     		add	r7, sp, #0
 585              		.cfi_def_cfa_register 7
 199:build/openmote-cc2538_armgcc/openstack/03b-IPv6/icmpv6rpl.c ****    return icmpv6rpl_vars.dao.rplinstanceId;
 586              		.loc 1 199 0
 587 0334 034B     		ldr	r3, .L12
 588 0336 93F86230 		ldrb	r3, [r3, #98]	@ zero_extendqisi2
 200:build/openmote-cc2538_armgcc/openstack/03b-IPv6/icmpv6rpl.c **** }
 589              		.loc 1 200 0
 590 033a 1846     		mov	r0, r3
 591 033c BD46     		mov	sp, r7
 592              		.cfi_def_cfa_register 13
 593              		@ sp needed
 594 033e 80BC     		pop	{r7}
 595              		.cfi_restore 7
 596              		.cfi_def_cfa_offset 0
 597 0340 7047     		bx	lr
 598              	.L13:
 599 0342 00BF     		.align	2
 600              	.L12:
 601 0344 00000000 		.word	icmpv6rpl_vars
 602              		.cfi_endproc
 603              	.LFE2:
 605              		.align	2
 606              		.global	icmpv6rpl_getRPLDODAGid
 607              		.thumb
 608              		.thumb_func
 610              	icmpv6rpl_getRPLDODAGid:
 611              	.LFB3:
 201:build/openmote-cc2538_armgcc/openstack/03b-IPv6/icmpv6rpl.c ****                                                 
 202:build/openmote-cc2538_armgcc/openstack/03b-IPv6/icmpv6rpl.c **** owerror_t icmpv6rpl_getRPLDODAGid(uint8_t* address_128b){
 612              		.loc 1 202 0
 613              		.cfi_startproc
 614              		@ args = 0, pretend = 0, frame = 8
 615              		@ frame_needed = 1, uses_anonymous_args = 0
 616              		@ link register save eliminated.
 617 0348 90B4     		push	{r4, r7}
 618              		.cfi_def_cfa_offset 8
 619              		.cfi_offset 4, -8
 620              		.cfi_offset 7, -4
 621 034a 82B0     		sub	sp, sp, #8
 622              		.cfi_def_cfa_offset 16
 623 034c 00AF     		add	r7, sp, #0
 624              		.cfi_def_cfa_register 7
 625 034e 7860     		str	r0, [r7, #4]
 203:build/openmote-cc2538_armgcc/openstack/03b-IPv6/icmpv6rpl.c ****    if (icmpv6rpl_vars.fDodagidWritten) {
 626              		.loc 1 203 0
 627 0350 0B4B     		ldr	r3, .L17
 628 0352 9B78     		ldrb	r3, [r3, #2]	@ zero_extendqisi2
 629 0354 002B     		cmp	r3, #0
 630 0356 0CD0     		beq	.L15
 204:build/openmote-cc2538_armgcc/openstack/03b-IPv6/icmpv6rpl.c ****        memcpy(address_128b,icmpv6rpl_vars.dao.DODAGID,16);
 631              		.loc 1 204 0
 632 0358 7A68     		ldr	r2, [r7, #4]
 633 035a 094B     		ldr	r3, .L17
 634 035c 6633     		adds	r3, r3, #102
 635 035e 1C68     		ldr	r4, [r3]	@ unaligned
 636 0360 5868     		ldr	r0, [r3, #4]	@ unaligned
 637 0362 9968     		ldr	r1, [r3, #8]	@ unaligned
 638 0364 DB68     		ldr	r3, [r3, #12]	@ unaligned
 639 0366 1460     		str	r4, [r2]	@ unaligned
 640 0368 5060     		str	r0, [r2, #4]	@ unaligned
 641 036a 9160     		str	r1, [r2, #8]	@ unaligned
 642 036c D360     		str	r3, [r2, #12]	@ unaligned
 205:build/openmote-cc2538_armgcc/openstack/03b-IPv6/icmpv6rpl.c ****        return E_SUCCESS;
 643              		.loc 1 205 0
 644 036e 0023     		movs	r3, #0
 645 0370 00E0     		b	.L16
 646              	.L15:
 206:build/openmote-cc2538_armgcc/openstack/03b-IPv6/icmpv6rpl.c ****    }
 207:build/openmote-cc2538_armgcc/openstack/03b-IPv6/icmpv6rpl.c ****    return E_FAIL;
 647              		.loc 1 207 0
 648 0372 0123     		movs	r3, #1
 649              	.L16:
 208:build/openmote-cc2538_armgcc/openstack/03b-IPv6/icmpv6rpl.c **** }
 650              		.loc 1 208 0
 651 0374 1846     		mov	r0, r3
 652 0376 0837     		adds	r7, r7, #8
 653              		.cfi_def_cfa_offset 8
 654 0378 BD46     		mov	sp, r7
 655              		.cfi_def_cfa_register 13
 656              		@ sp needed
 657 037a 90BC     		pop	{r4, r7}
 658              		.cfi_restore 7
 659              		.cfi_restore 4
 660              		.cfi_def_cfa_offset 0
 661 037c 7047     		bx	lr
 662              	.L18:
 663 037e 00BF     		.align	2
 664              	.L17:
 665 0380 00000000 		.word	icmpv6rpl_vars
 666              		.cfi_endproc
 667              	.LFE3:
 669              		.align	2
 670              		.global	icmpv6rpl_sendDone
 671              		.thumb
 672              		.thumb_func
 674              	icmpv6rpl_sendDone:
 675              	.LFB4:
 209:build/openmote-cc2538_armgcc/openstack/03b-IPv6/icmpv6rpl.c **** 
 210:build/openmote-cc2538_armgcc/openstack/03b-IPv6/icmpv6rpl.c **** /**
 211:build/openmote-cc2538_armgcc/openstack/03b-IPv6/icmpv6rpl.c **** \brief Called when DIO/DAO was sent.
 212:build/openmote-cc2538_armgcc/openstack/03b-IPv6/icmpv6rpl.c **** 
 213:build/openmote-cc2538_armgcc/openstack/03b-IPv6/icmpv6rpl.c **** \param[in] msg   Pointer to the message just sent.
 214:build/openmote-cc2538_armgcc/openstack/03b-IPv6/icmpv6rpl.c **** \param[in] error Outcome of the sending.
 215:build/openmote-cc2538_armgcc/openstack/03b-IPv6/icmpv6rpl.c **** */
 216:build/openmote-cc2538_armgcc/openstack/03b-IPv6/icmpv6rpl.c **** void icmpv6rpl_sendDone(OpenQueueEntry_t* msg, owerror_t error) {
 676              		.loc 1 216 0
 677              		.cfi_startproc
 678              		@ args = 0, pretend = 0, frame = 8
 679              		@ frame_needed = 1, uses_anonymous_args = 0
 680 0384 80B5     		push	{r7, lr}
 681              		.cfi_def_cfa_offset 8
 682              		.cfi_offset 7, -8
 683              		.cfi_offset 14, -4
 684 0386 82B0     		sub	sp, sp, #8
 685              		.cfi_def_cfa_offset 16
 686 0388 00AF     		add	r7, sp, #0
 687              		.cfi_def_cfa_register 7
 688 038a 7860     		str	r0, [r7, #4]
 689 038c 0B46     		mov	r3, r1
 690 038e FB70     		strb	r3, [r7, #3]
 217:build/openmote-cc2538_armgcc/openstack/03b-IPv6/icmpv6rpl.c ****    
 218:build/openmote-cc2538_armgcc/openstack/03b-IPv6/icmpv6rpl.c ****    // take ownership over that packet
 219:build/openmote-cc2538_armgcc/openstack/03b-IPv6/icmpv6rpl.c ****    msg->owner = COMPONENT_ICMPv6RPL;
 691              		.loc 1 219 0
 692 0390 7B68     		ldr	r3, [r7, #4]
 693 0392 1722     		movs	r2, #23
 694 0394 5A70     		strb	r2, [r3, #1]
 220:build/openmote-cc2538_armgcc/openstack/03b-IPv6/icmpv6rpl.c ****    
 221:build/openmote-cc2538_armgcc/openstack/03b-IPv6/icmpv6rpl.c ****    // make sure I created it
 222:build/openmote-cc2538_armgcc/openstack/03b-IPv6/icmpv6rpl.c ****    if (msg->creator!=COMPONENT_ICMPv6RPL) {
 695              		.loc 1 222 0
 696 0396 7B68     		ldr	r3, [r7, #4]
 697 0398 1B78     		ldrb	r3, [r3]	@ zero_extendqisi2
 698 039a 172B     		cmp	r3, #23
 699 039c 05D0     		beq	.L20
 223:build/openmote-cc2538_armgcc/openstack/03b-IPv6/icmpv6rpl.c ****       openserial_printError(COMPONENT_ICMPv6RPL,ERR_UNEXPECTED_SENDDONE,
 700              		.loc 1 223 0
 701 039e 0023     		movs	r3, #0
 702 03a0 0022     		movs	r2, #0
 703 03a2 2B21     		movs	r1, #43
 704 03a4 1720     		movs	r0, #23
 705 03a6 FFF7FEFF 		bl	openserial_printError
 706              	.L20:
 224:build/openmote-cc2538_armgcc/openstack/03b-IPv6/icmpv6rpl.c ****                             (errorparameter_t)0,
 225:build/openmote-cc2538_armgcc/openstack/03b-IPv6/icmpv6rpl.c ****                             (errorparameter_t)0);
 226:build/openmote-cc2538_armgcc/openstack/03b-IPv6/icmpv6rpl.c ****    }
 227:build/openmote-cc2538_armgcc/openstack/03b-IPv6/icmpv6rpl.c ****    
 228:build/openmote-cc2538_armgcc/openstack/03b-IPv6/icmpv6rpl.c **** //   if (msg->isDioFake==TRUE){
 229:build/openmote-cc2538_armgcc/openstack/03b-IPv6/icmpv6rpl.c **** //		//printf("I am WISHPER node %d, FAKE DIO SEND DONE \n", idmanager_getMyID(ADDR_64B)->addr_64b[7
 230:build/openmote-cc2538_armgcc/openstack/03b-IPv6/icmpv6rpl.c **** //		if (whisper_getState() == 3){
 231:build/openmote-cc2538_armgcc/openstack/03b-IPv6/icmpv6rpl.c **** //			if (whisper_getSentDIOs() == 0){
 232:build/openmote-cc2538_armgcc/openstack/03b-IPv6/icmpv6rpl.c **** //				whisper_setSentDIOs(1);
 233:build/openmote-cc2538_armgcc/openstack/03b-IPv6/icmpv6rpl.c **** //			//	printf("I am WISHPER node %d, FAKE DIO 1 SEND DONE wait 1 more \n", idmanager_getMyID(ADDR_
 234:build/openmote-cc2538_armgcc/openstack/03b-IPv6/icmpv6rpl.c **** //			}else{
 235:build/openmote-cc2538_armgcc/openstack/03b-IPv6/icmpv6rpl.c **** //				if (whisper_getSentDIOs() == 1){
 236:build/openmote-cc2538_armgcc/openstack/03b-IPv6/icmpv6rpl.c **** //				//	printf("I am WISHPER node %d, FAKE DIO 2 SEND DONE NEXT STEP \n", idmanager_getMyID(ADDR_6
 237:build/openmote-cc2538_armgcc/openstack/03b-IPv6/icmpv6rpl.c **** //					whisper_trigger_nextStep();
 238:build/openmote-cc2538_armgcc/openstack/03b-IPv6/icmpv6rpl.c **** //				}
 239:build/openmote-cc2538_armgcc/openstack/03b-IPv6/icmpv6rpl.c **** ////				else{
 240:build/openmote-cc2538_armgcc/openstack/03b-IPv6/icmpv6rpl.c **** ////					/printf("I am WISHPER node %d, UNONWKN ERROR \n", idmanager_getMyID(ADDR_64B)->addr_64b[7]
 241:build/openmote-cc2538_armgcc/openstack/03b-IPv6/icmpv6rpl.c **** ////				}
 242:build/openmote-cc2538_armgcc/openstack/03b-IPv6/icmpv6rpl.c **** //			}
 243:build/openmote-cc2538_armgcc/openstack/03b-IPv6/icmpv6rpl.c **** //
 244:build/openmote-cc2538_armgcc/openstack/03b-IPv6/icmpv6rpl.c **** //		}
 245:build/openmote-cc2538_armgcc/openstack/03b-IPv6/icmpv6rpl.c **** ////		else{
 246:build/openmote-cc2538_armgcc/openstack/03b-IPv6/icmpv6rpl.c **** ////			printf("I am WISHPER node %d, FAKE DIO SEND DONE BAD STATE \n", idmanager_getMyID(ADDR_64B)-
 247:build/openmote-cc2538_armgcc/openstack/03b-IPv6/icmpv6rpl.c **** ////		}
 248:build/openmote-cc2538_armgcc/openstack/03b-IPv6/icmpv6rpl.c **** //
 249:build/openmote-cc2538_armgcc/openstack/03b-IPv6/icmpv6rpl.c **** //   }
 250:build/openmote-cc2538_armgcc/openstack/03b-IPv6/icmpv6rpl.c **** 
 251:build/openmote-cc2538_armgcc/openstack/03b-IPv6/icmpv6rpl.c **** //   if (msg->isDioFake==TRUE){
 252:build/openmote-cc2538_armgcc/openstack/03b-IPv6/icmpv6rpl.c **** //
 253:build/openmote-cc2538_armgcc/openstack/03b-IPv6/icmpv6rpl.c **** //	   icmpv6rpl_vars.busySendingDIO = FALSE;
 254:build/openmote-cc2538_armgcc/openstack/03b-IPv6/icmpv6rpl.c **** //
 255:build/openmote-cc2538_armgcc/openstack/03b-IPv6/icmpv6rpl.c **** //		printf("I am WISHPER node %d, DIO SEND DONE. Checking if I need to send another FAKE DIO \n", i
 256:build/openmote-cc2538_armgcc/openstack/03b-IPv6/icmpv6rpl.c **** //
 257:build/openmote-cc2538_armgcc/openstack/03b-IPv6/icmpv6rpl.c **** //		whisper_trigger_nextStep();
 258:build/openmote-cc2538_armgcc/openstack/03b-IPv6/icmpv6rpl.c **** //   }
 259:build/openmote-cc2538_armgcc/openstack/03b-IPv6/icmpv6rpl.c **** 
 260:build/openmote-cc2538_armgcc/openstack/03b-IPv6/icmpv6rpl.c **** 
 261:build/openmote-cc2538_armgcc/openstack/03b-IPv6/icmpv6rpl.c ****    // I'm not busy sending DIO/DAO anymore
 262:build/openmote-cc2538_armgcc/openstack/03b-IPv6/icmpv6rpl.c ****    if (packetfunctions_isBroadcastMulticast(&(msg->l2_nextORpreviousHop))){
 707              		.loc 1 262 0
 708 03aa 7B68     		ldr	r3, [r7, #4]
 709 03ac 3C33     		adds	r3, r3, #60
 710 03ae 1846     		mov	r0, r3
 711 03b0 FFF7FEFF 		bl	packetfunctions_isBroadcastMulticast
 712 03b4 0346     		mov	r3, r0
 713 03b6 002B     		cmp	r3, #0
 714 03b8 03D0     		beq	.L21
 263:build/openmote-cc2538_armgcc/openstack/03b-IPv6/icmpv6rpl.c ****         icmpv6rpl_vars.busySendingDIO = FALSE;
 715              		.loc 1 263 0
 716 03ba 074B     		ldr	r3, .L23
 717 03bc 0022     		movs	r2, #0
 718 03be 1A70     		strb	r2, [r3]
 719 03c0 02E0     		b	.L22
 720              	.L21:
 264:build/openmote-cc2538_armgcc/openstack/03b-IPv6/icmpv6rpl.c ****    } else {
 265:build/openmote-cc2538_armgcc/openstack/03b-IPv6/icmpv6rpl.c ****         icmpv6rpl_vars.busySendingDAO = FALSE;
 721              		.loc 1 265 0
 722 03c2 054B     		ldr	r3, .L23
 723 03c4 0022     		movs	r2, #0
 724 03c6 5A70     		strb	r2, [r3, #1]
 725              	.L22:
 266:build/openmote-cc2538_armgcc/openstack/03b-IPv6/icmpv6rpl.c ****    }
 267:build/openmote-cc2538_armgcc/openstack/03b-IPv6/icmpv6rpl.c ****    
 268:build/openmote-cc2538_armgcc/openstack/03b-IPv6/icmpv6rpl.c ****    // free packet
 269:build/openmote-cc2538_armgcc/openstack/03b-IPv6/icmpv6rpl.c ****    openqueue_freePacketBuffer(msg);
 726              		.loc 1 269 0
 727 03c8 7868     		ldr	r0, [r7, #4]
 728 03ca FFF7FEFF 		bl	openqueue_freePacketBuffer
 270:build/openmote-cc2538_armgcc/openstack/03b-IPv6/icmpv6rpl.c **** }
 729              		.loc 1 270 0
 730 03ce 00BF     		nop
 731 03d0 0837     		adds	r7, r7, #8
 732              		.cfi_def_cfa_offset 8
 733 03d2 BD46     		mov	sp, r7
 734              		.cfi_def_cfa_register 13
 735              		@ sp needed
 736 03d4 80BD     		pop	{r7, pc}
 737              	.L24:
 738 03d6 00BF     		.align	2
 739              	.L23:
 740 03d8 00000000 		.word	icmpv6rpl_vars
 741              		.cfi_endproc
 742              	.LFE4:
 744              		.align	2
 745              		.global	icmpv6rpl_receive
 746              		.thumb
 747              		.thumb_func
 749              	icmpv6rpl_receive:
 750              	.LFB5:
 271:build/openmote-cc2538_armgcc/openstack/03b-IPv6/icmpv6rpl.c **** 
 272:build/openmote-cc2538_armgcc/openstack/03b-IPv6/icmpv6rpl.c **** /**
 273:build/openmote-cc2538_armgcc/openstack/03b-IPv6/icmpv6rpl.c **** \brief Called when RPL message received.
 274:build/openmote-cc2538_armgcc/openstack/03b-IPv6/icmpv6rpl.c **** 
 275:build/openmote-cc2538_armgcc/openstack/03b-IPv6/icmpv6rpl.c **** \param[in] msg   Pointer to the received message.
 276:build/openmote-cc2538_armgcc/openstack/03b-IPv6/icmpv6rpl.c **** */
 277:build/openmote-cc2538_armgcc/openstack/03b-IPv6/icmpv6rpl.c **** void icmpv6rpl_receive(OpenQueueEntry_t* msg) {
 751              		.loc 1 277 0
 752              		.cfi_startproc
 753              		@ args = 0, pretend = 0, frame = 16
 754              		@ frame_needed = 1, uses_anonymous_args = 0
 755 03dc 80B5     		push	{r7, lr}
 756              		.cfi_def_cfa_offset 8
 757              		.cfi_offset 7, -8
 758              		.cfi_offset 14, -4
 759 03de 84B0     		sub	sp, sp, #16
 760              		.cfi_def_cfa_offset 24
 761 03e0 00AF     		add	r7, sp, #0
 762              		.cfi_def_cfa_register 7
 763 03e2 7860     		str	r0, [r7, #4]
 278:build/openmote-cc2538_armgcc/openstack/03b-IPv6/icmpv6rpl.c ****    uint8_t      icmpv6code;
 279:build/openmote-cc2538_armgcc/openstack/03b-IPv6/icmpv6rpl.c ****    
 280:build/openmote-cc2538_armgcc/openstack/03b-IPv6/icmpv6rpl.c ****    // take ownership
 281:build/openmote-cc2538_armgcc/openstack/03b-IPv6/icmpv6rpl.c ****    msg->owner      = COMPONENT_ICMPv6RPL;
 764              		.loc 1 281 0
 765 03e4 7B68     		ldr	r3, [r7, #4]
 766 03e6 1722     		movs	r2, #23
 767 03e8 5A70     		strb	r2, [r3, #1]
 282:build/openmote-cc2538_armgcc/openstack/03b-IPv6/icmpv6rpl.c ****    
 283:build/openmote-cc2538_armgcc/openstack/03b-IPv6/icmpv6rpl.c ****    // retrieve ICMPv6 code
 284:build/openmote-cc2538_armgcc/openstack/03b-IPv6/icmpv6rpl.c ****    icmpv6code      = (((ICMPv6_ht*)(msg->payload))->code);
 768              		.loc 1 284 0
 769 03ea 7B68     		ldr	r3, [r7, #4]
 770 03ec 5B68     		ldr	r3, [r3, #4]
 771 03ee 5B78     		ldrb	r3, [r3, #1]
 772 03f0 FB73     		strb	r3, [r7, #15]
 285:build/openmote-cc2538_armgcc/openstack/03b-IPv6/icmpv6rpl.c ****    
 286:build/openmote-cc2538_armgcc/openstack/03b-IPv6/icmpv6rpl.c ****    // toss ICMPv6 header
 287:build/openmote-cc2538_armgcc/openstack/03b-IPv6/icmpv6rpl.c ****    packetfunctions_tossHeader(msg,sizeof(ICMPv6_ht));
 773              		.loc 1 287 0
 774 03f2 0421     		movs	r1, #4
 775 03f4 7868     		ldr	r0, [r7, #4]
 776 03f6 FFF7FEFF 		bl	packetfunctions_tossHeader
 288:build/openmote-cc2538_armgcc/openstack/03b-IPv6/icmpv6rpl.c ****    
 289:build/openmote-cc2538_armgcc/openstack/03b-IPv6/icmpv6rpl.c ****    // handle message
 290:build/openmote-cc2538_armgcc/openstack/03b-IPv6/icmpv6rpl.c ****    switch (icmpv6code) {
 777              		.loc 1 290 0
 778 03fa FB7B     		ldrb	r3, [r7, #15]	@ zero_extendqisi2
 779 03fc 012B     		cmp	r3, #1
 780 03fe 06D0     		beq	.L27
 781 0400 022B     		cmp	r3, #2
 782 0402 0DD0     		beq	.L28
 783 0404 002B     		cmp	r3, #0
 784 0406 12D1     		bne	.L32
 291:build/openmote-cc2538_armgcc/openstack/03b-IPv6/icmpv6rpl.c ****       case IANA_ICMPv6_RPL_DIS:
 292:build/openmote-cc2538_armgcc/openstack/03b-IPv6/icmpv6rpl.c ****          icmpv6rpl_timer_DIO_task();
 785              		.loc 1 292 0
 786 0408 FFF7FEFF 		bl	icmpv6rpl_timer_DIO_task
 293:build/openmote-cc2538_armgcc/openstack/03b-IPv6/icmpv6rpl.c ****          break;
 787              		.loc 1 293 0
 788 040c 18E0     		b	.L30
 789              	.L27:
 294:build/openmote-cc2538_armgcc/openstack/03b-IPv6/icmpv6rpl.c ****       case IANA_ICMPv6_RPL_DIO:
 295:build/openmote-cc2538_armgcc/openstack/03b-IPv6/icmpv6rpl.c ****          if (idmanager_getIsDAGroot()==TRUE) {
 790              		.loc 1 295 0
 791 040e FFF7FEFF 		bl	idmanager_getIsDAGroot
 792 0412 0346     		mov	r3, r0
 793 0414 002B     		cmp	r3, #0
 794 0416 12D1     		bne	.L33
 296:build/openmote-cc2538_armgcc/openstack/03b-IPv6/icmpv6rpl.c ****             // stop here if I'm in the DAG root
 297:build/openmote-cc2538_armgcc/openstack/03b-IPv6/icmpv6rpl.c ****             break; // break, don't return
 298:build/openmote-cc2538_armgcc/openstack/03b-IPv6/icmpv6rpl.c ****          }
 299:build/openmote-cc2538_armgcc/openstack/03b-IPv6/icmpv6rpl.c ****          // update routing info for that neighbor
 300:build/openmote-cc2538_armgcc/openstack/03b-IPv6/icmpv6rpl.c ****          icmpv6rpl_indicateRxDIO(msg);
 795              		.loc 1 300 0
 796 0418 7868     		ldr	r0, [r7, #4]
 797 041a FFF7FEFF 		bl	icmpv6rpl_indicateRxDIO
 301:build/openmote-cc2538_armgcc/openstack/03b-IPv6/icmpv6rpl.c ****          
 302:build/openmote-cc2538_armgcc/openstack/03b-IPv6/icmpv6rpl.c ****          break;
 798              		.loc 1 302 0
 799 041e 0FE0     		b	.L30
 800              	.L28:
 303:build/openmote-cc2538_armgcc/openstack/03b-IPv6/icmpv6rpl.c ****       
 304:build/openmote-cc2538_armgcc/openstack/03b-IPv6/icmpv6rpl.c ****       case IANA_ICMPv6_RPL_DAO:
 305:build/openmote-cc2538_armgcc/openstack/03b-IPv6/icmpv6rpl.c ****          // this should never happen
 306:build/openmote-cc2538_armgcc/openstack/03b-IPv6/icmpv6rpl.c ****          openserial_printError(COMPONENT_ICMPv6RPL,ERR_UNEXPECTED_DAO,
 801              		.loc 1 306 0
 802 0420 0023     		movs	r3, #0
 803 0422 0022     		movs	r2, #0
 804 0424 0A21     		movs	r1, #10
 805 0426 1720     		movs	r0, #23
 806 0428 FFF7FEFF 		bl	openserial_printError
 307:build/openmote-cc2538_armgcc/openstack/03b-IPv6/icmpv6rpl.c ****                                (errorparameter_t)0,
 308:build/openmote-cc2538_armgcc/openstack/03b-IPv6/icmpv6rpl.c ****                                (errorparameter_t)0);
 309:build/openmote-cc2538_armgcc/openstack/03b-IPv6/icmpv6rpl.c ****          break;
 807              		.loc 1 309 0
 808 042c 08E0     		b	.L30
 809              	.L32:
 310:build/openmote-cc2538_armgcc/openstack/03b-IPv6/icmpv6rpl.c ****       default:
 311:build/openmote-cc2538_armgcc/openstack/03b-IPv6/icmpv6rpl.c ****          // this should never happen
 312:build/openmote-cc2538_armgcc/openstack/03b-IPv6/icmpv6rpl.c ****          openserial_printError(COMPONENT_ICMPv6RPL,ERR_MSG_UNKNOWN_TYPE,
 810              		.loc 1 312 0
 811 042e FB7B     		ldrb	r3, [r7, #15]	@ zero_extendqisi2
 812 0430 9AB2     		uxth	r2, r3
 813 0432 0023     		movs	r3, #0
 814 0434 3021     		movs	r1, #48
 815 0436 1720     		movs	r0, #23
 816 0438 FFF7FEFF 		bl	openserial_printError
 313:build/openmote-cc2538_armgcc/openstack/03b-IPv6/icmpv6rpl.c ****                                (errorparameter_t)icmpv6code,
 314:build/openmote-cc2538_armgcc/openstack/03b-IPv6/icmpv6rpl.c ****                                (errorparameter_t)0);
 315:build/openmote-cc2538_armgcc/openstack/03b-IPv6/icmpv6rpl.c ****          break;
 817              		.loc 1 315 0
 818 043c 00E0     		b	.L30
 819              	.L33:
 297:build/openmote-cc2538_armgcc/openstack/03b-IPv6/icmpv6rpl.c ****          }
 820              		.loc 1 297 0
 821 043e 00BF     		nop
 822              	.L30:
 316:build/openmote-cc2538_armgcc/openstack/03b-IPv6/icmpv6rpl.c ****       
 317:build/openmote-cc2538_armgcc/openstack/03b-IPv6/icmpv6rpl.c ****    }
 318:build/openmote-cc2538_armgcc/openstack/03b-IPv6/icmpv6rpl.c ****    
 319:build/openmote-cc2538_armgcc/openstack/03b-IPv6/icmpv6rpl.c ****    // free message
 320:build/openmote-cc2538_armgcc/openstack/03b-IPv6/icmpv6rpl.c ****    openqueue_freePacketBuffer(msg);
 823              		.loc 1 320 0
 824 0440 7868     		ldr	r0, [r7, #4]
 825 0442 FFF7FEFF 		bl	openqueue_freePacketBuffer
 321:build/openmote-cc2538_armgcc/openstack/03b-IPv6/icmpv6rpl.c **** }
 826              		.loc 1 321 0
 827 0446 00BF     		nop
 828 0448 1037     		adds	r7, r7, #16
 829              		.cfi_def_cfa_offset 8
 830 044a BD46     		mov	sp, r7
 831              		.cfi_def_cfa_register 13
 832              		@ sp needed
 833 044c 80BD     		pop	{r7, pc}
 834              		.cfi_endproc
 835              	.LFE5:
 837 044e 00BF     		.align	2
 838              		.global	icmpv6rpl_getPreferredParentIndex
 839              		.thumb
 840              		.thumb_func
 842              	icmpv6rpl_getPreferredParentIndex:
 843              	.LFB6:
 322:build/openmote-cc2538_armgcc/openstack/03b-IPv6/icmpv6rpl.c **** 
 323:build/openmote-cc2538_armgcc/openstack/03b-IPv6/icmpv6rpl.c **** /**
 324:build/openmote-cc2538_armgcc/openstack/03b-IPv6/icmpv6rpl.c **** \brief Retrieve this mote's parent index in neighbor table.
 325:build/openmote-cc2538_armgcc/openstack/03b-IPv6/icmpv6rpl.c **** 
 326:build/openmote-cc2538_armgcc/openstack/03b-IPv6/icmpv6rpl.c **** \returns TRUE and index of parent if have one, FALSE if no parent
 327:build/openmote-cc2538_armgcc/openstack/03b-IPv6/icmpv6rpl.c **** */
 328:build/openmote-cc2538_armgcc/openstack/03b-IPv6/icmpv6rpl.c **** bool icmpv6rpl_getPreferredParentIndex(uint8_t* indexptr) {
 844              		.loc 1 328 0
 845              		.cfi_startproc
 846              		@ args = 0, pretend = 0, frame = 8
 847              		@ frame_needed = 1, uses_anonymous_args = 0
 848              		@ link register save eliminated.
 849 0450 80B4     		push	{r7}
 850              		.cfi_def_cfa_offset 4
 851              		.cfi_offset 7, -4
 852 0452 83B0     		sub	sp, sp, #12
 853              		.cfi_def_cfa_offset 16
 854 0454 00AF     		add	r7, sp, #0
 855              		.cfi_def_cfa_register 7
 856 0456 7860     		str	r0, [r7, #4]
 329:build/openmote-cc2538_armgcc/openstack/03b-IPv6/icmpv6rpl.c ****    *indexptr = icmpv6rpl_vars.ParentIndex;
 857              		.loc 1 329 0
 858 0458 064B     		ldr	r3, .L36
 859 045a 93F88B20 		ldrb	r2, [r3, #139]	@ zero_extendqisi2
 860 045e 7B68     		ldr	r3, [r7, #4]
 861 0460 1A70     		strb	r2, [r3]
 330:build/openmote-cc2538_armgcc/openstack/03b-IPv6/icmpv6rpl.c ****    return icmpv6rpl_vars.haveParent;
 862              		.loc 1 330 0
 863 0462 044B     		ldr	r3, .L36
 864 0464 93F88A30 		ldrb	r3, [r3, #138]	@ zero_extendqisi2
 331:build/openmote-cc2538_armgcc/openstack/03b-IPv6/icmpv6rpl.c **** }
 865              		.loc 1 331 0
 866 0468 1846     		mov	r0, r3
 867 046a 0C37     		adds	r7, r7, #12
 868              		.cfi_def_cfa_offset 4
 869 046c BD46     		mov	sp, r7
 870              		.cfi_def_cfa_register 13
 871              		@ sp needed
 872 046e 80BC     		pop	{r7}
 873              		.cfi_restore 7
 874              		.cfi_def_cfa_offset 0
 875 0470 7047     		bx	lr
 876              	.L37:
 877 0472 00BF     		.align	2
 878              	.L36:
 879 0474 00000000 		.word	icmpv6rpl_vars
 880              		.cfi_endproc
 881              	.LFE6:
 883              		.align	2
 884              		.global	icmpv6rpl_getPreferredParentEui64
 885              		.thumb
 886              		.thumb_func
 888              	icmpv6rpl_getPreferredParentEui64:
 889              	.LFB7:
 332:build/openmote-cc2538_armgcc/openstack/03b-IPv6/icmpv6rpl.c **** 
 333:build/openmote-cc2538_armgcc/openstack/03b-IPv6/icmpv6rpl.c **** /**
 334:build/openmote-cc2538_armgcc/openstack/03b-IPv6/icmpv6rpl.c **** \brief Retrieve my preferred parent's EUI64 address.
 335:build/openmote-cc2538_armgcc/openstack/03b-IPv6/icmpv6rpl.c **** \param[out] addressToWrite Where to copy the preferred parent's address to.
 336:build/openmote-cc2538_armgcc/openstack/03b-IPv6/icmpv6rpl.c **** */
 337:build/openmote-cc2538_armgcc/openstack/03b-IPv6/icmpv6rpl.c **** bool icmpv6rpl_getPreferredParentEui64(open_addr_t* addressToWrite) {
 890              		.loc 1 337 0
 891              		.cfi_startproc
 892              		@ args = 0, pretend = 0, frame = 8
 893              		@ frame_needed = 1, uses_anonymous_args = 0
 894 0478 80B5     		push	{r7, lr}
 895              		.cfi_def_cfa_offset 8
 896              		.cfi_offset 7, -8
 897              		.cfi_offset 14, -4
 898 047a 82B0     		sub	sp, sp, #8
 899              		.cfi_def_cfa_offset 16
 900 047c 00AF     		add	r7, sp, #0
 901              		.cfi_def_cfa_register 7
 902 047e 7860     		str	r0, [r7, #4]
 338:build/openmote-cc2538_armgcc/openstack/03b-IPv6/icmpv6rpl.c ****     if (
 339:build/openmote-cc2538_armgcc/openstack/03b-IPv6/icmpv6rpl.c ****         icmpv6rpl_vars.haveParent && 
 903              		.loc 1 339 0
 904 0480 154B     		ldr	r3, .L41
 905 0482 93F88A30 		ldrb	r3, [r3, #138]	@ zero_extendqisi2
 338:build/openmote-cc2538_armgcc/openstack/03b-IPv6/icmpv6rpl.c ****     if (
 906              		.loc 1 338 0
 907 0486 002B     		cmp	r3, #0
 908 0488 21D0     		beq	.L39
 340:build/openmote-cc2538_armgcc/openstack/03b-IPv6/icmpv6rpl.c ****         neighbors_getNeighborNoResource(icmpv6rpl_vars.ParentIndex)    == FALSE &&
 909              		.loc 1 340 0
 910 048a 134B     		ldr	r3, .L41
 911 048c 93F88B30 		ldrb	r3, [r3, #139]	@ zero_extendqisi2
 912 0490 1846     		mov	r0, r3
 913 0492 FFF7FEFF 		bl	neighbors_getNeighborNoResource
 914 0496 0346     		mov	r3, r0
 915 0498 83F00103 		eor	r3, r3, #1
 916 049c DBB2     		uxtb	r3, r3
 339:build/openmote-cc2538_armgcc/openstack/03b-IPv6/icmpv6rpl.c ****         neighbors_getNeighborNoResource(icmpv6rpl_vars.ParentIndex)    == FALSE &&
 917              		.loc 1 339 0
 918 049e 002B     		cmp	r3, #0
 919 04a0 15D0     		beq	.L39
 341:build/openmote-cc2538_armgcc/openstack/03b-IPv6/icmpv6rpl.c ****         neighbors_getNeighborIsInBlacklist(icmpv6rpl_vars.ParentIndex) == FALSE
 920              		.loc 1 341 0
 921 04a2 0D4B     		ldr	r3, .L41
 922 04a4 93F88B30 		ldrb	r3, [r3, #139]	@ zero_extendqisi2
 923 04a8 1846     		mov	r0, r3
 924 04aa FFF7FEFF 		bl	neighbors_getNeighborIsInBlacklist
 925 04ae 0346     		mov	r3, r0
 926 04b0 83F00103 		eor	r3, r3, #1
 927 04b4 DBB2     		uxtb	r3, r3
 340:build/openmote-cc2538_armgcc/openstack/03b-IPv6/icmpv6rpl.c ****         neighbors_getNeighborNoResource(icmpv6rpl_vars.ParentIndex)    == FALSE &&
 928              		.loc 1 340 0
 929 04b6 002B     		cmp	r3, #0
 930 04b8 09D0     		beq	.L39
 342:build/openmote-cc2538_armgcc/openstack/03b-IPv6/icmpv6rpl.c ****     ){
 343:build/openmote-cc2538_armgcc/openstack/03b-IPv6/icmpv6rpl.c ****         return neighbors_getNeighborEui64(addressToWrite,ADDR_64B,icmpv6rpl_vars.ParentIndex);
 931              		.loc 1 343 0
 932 04ba 074B     		ldr	r3, .L41
 933 04bc 93F88B30 		ldrb	r3, [r3, #139]	@ zero_extendqisi2
 934 04c0 1A46     		mov	r2, r3
 935 04c2 0221     		movs	r1, #2
 936 04c4 7868     		ldr	r0, [r7, #4]
 937 04c6 FFF7FEFF 		bl	neighbors_getNeighborEui64
 938 04ca 0346     		mov	r3, r0
 939 04cc 00E0     		b	.L40
 940              	.L39:
 344:build/openmote-cc2538_armgcc/openstack/03b-IPv6/icmpv6rpl.c ****     } else {
 345:build/openmote-cc2538_armgcc/openstack/03b-IPv6/icmpv6rpl.c ****         return FALSE;
 941              		.loc 1 345 0
 942 04ce 0023     		movs	r3, #0
 943              	.L40:
 346:build/openmote-cc2538_armgcc/openstack/03b-IPv6/icmpv6rpl.c ****     }
 347:build/openmote-cc2538_armgcc/openstack/03b-IPv6/icmpv6rpl.c **** }
 944              		.loc 1 347 0
 945 04d0 1846     		mov	r0, r3
 946 04d2 0837     		adds	r7, r7, #8
 947              		.cfi_def_cfa_offset 8
 948 04d4 BD46     		mov	sp, r7
 949              		.cfi_def_cfa_register 13
 950              		@ sp needed
 951 04d6 80BD     		pop	{r7, pc}
 952              	.L42:
 953              		.align	2
 954              	.L41:
 955 04d8 00000000 		.word	icmpv6rpl_vars
 956              		.cfi_endproc
 957              	.LFE7:
 959              		.align	2
 960              		.global	icmpv6rpl_isPreferredParent
 961              		.thumb
 962              		.thumb_func
 964              	icmpv6rpl_isPreferredParent:
 965              	.LFB8:
 348:build/openmote-cc2538_armgcc/openstack/03b-IPv6/icmpv6rpl.c **** 
 349:build/openmote-cc2538_armgcc/openstack/03b-IPv6/icmpv6rpl.c **** /**
 350:build/openmote-cc2538_armgcc/openstack/03b-IPv6/icmpv6rpl.c **** \brief Indicate whether some neighbor is the routing parent.
 351:build/openmote-cc2538_armgcc/openstack/03b-IPv6/icmpv6rpl.c **** 
 352:build/openmote-cc2538_armgcc/openstack/03b-IPv6/icmpv6rpl.c **** \param[in] address The EUI64 address of the neighbor.
 353:build/openmote-cc2538_armgcc/openstack/03b-IPv6/icmpv6rpl.c **** 
 354:build/openmote-cc2538_armgcc/openstack/03b-IPv6/icmpv6rpl.c **** \returns TRUE if that neighbor is preferred parent, FALSE otherwise.
 355:build/openmote-cc2538_armgcc/openstack/03b-IPv6/icmpv6rpl.c **** */
 356:build/openmote-cc2538_armgcc/openstack/03b-IPv6/icmpv6rpl.c **** bool icmpv6rpl_isPreferredParent(open_addr_t* address) {
 966              		.loc 1 356 0
 967              		.cfi_startproc
 968              		@ args = 0, pretend = 0, frame = 32
 969              		@ frame_needed = 1, uses_anonymous_args = 0
 970 04dc 80B5     		push	{r7, lr}
 971              		.cfi_def_cfa_offset 8
 972              		.cfi_offset 7, -8
 973              		.cfi_offset 14, -4
 974 04de 88B0     		sub	sp, sp, #32
 975              		.cfi_def_cfa_offset 40
 976 04e0 00AF     		add	r7, sp, #0
 977              		.cfi_def_cfa_register 7
 978 04e2 7860     		str	r0, [r7, #4]
 357:build/openmote-cc2538_armgcc/openstack/03b-IPv6/icmpv6rpl.c ****    open_addr_t  temp;
 358:build/openmote-cc2538_armgcc/openstack/03b-IPv6/icmpv6rpl.c ****    // do we currently have a parent?
 359:build/openmote-cc2538_armgcc/openstack/03b-IPv6/icmpv6rpl.c ****    if (icmpv6rpl_vars.haveParent==FALSE) {
 979              		.loc 1 359 0
 980 04e4 154B     		ldr	r3, .L50
 981 04e6 93F88A30 		ldrb	r3, [r3, #138]	@ zero_extendqisi2
 982 04ea 83F00103 		eor	r3, r3, #1
 983 04ee DBB2     		uxtb	r3, r3
 984 04f0 002B     		cmp	r3, #0
 985 04f2 01D0     		beq	.L44
 360:build/openmote-cc2538_armgcc/openstack/03b-IPv6/icmpv6rpl.c ****       return FALSE;
 986              		.loc 1 360 0
 987 04f4 0023     		movs	r3, #0
 988 04f6 1DE0     		b	.L48
 989              	.L44:
 361:build/openmote-cc2538_armgcc/openstack/03b-IPv6/icmpv6rpl.c ****    }
 362:build/openmote-cc2538_armgcc/openstack/03b-IPv6/icmpv6rpl.c ****    
 363:build/openmote-cc2538_armgcc/openstack/03b-IPv6/icmpv6rpl.c ****    //compare parent address to the one presented.
 364:build/openmote-cc2538_armgcc/openstack/03b-IPv6/icmpv6rpl.c ****    switch (address->type) {
 990              		.loc 1 364 0
 991 04f8 7B68     		ldr	r3, [r7, #4]
 992 04fa 1B78     		ldrb	r3, [r3]	@ zero_extendqisi2
 993 04fc 022B     		cmp	r3, #2
 994 04fe 10D1     		bne	.L49
 365:build/openmote-cc2538_armgcc/openstack/03b-IPv6/icmpv6rpl.c ****       case ADDR_64B:
 366:build/openmote-cc2538_armgcc/openstack/03b-IPv6/icmpv6rpl.c ****          neighbors_getNeighborEui64(&temp,ADDR_64B,icmpv6rpl_vars.ParentIndex);
 995              		.loc 1 366 0
 996 0500 0E4B     		ldr	r3, .L50
 997 0502 93F88B20 		ldrb	r2, [r3, #139]	@ zero_extendqisi2
 998 0506 07F10C03 		add	r3, r7, #12
 999 050a 0221     		movs	r1, #2
 1000 050c 1846     		mov	r0, r3
 1001 050e FFF7FEFF 		bl	neighbors_getNeighborEui64
 367:build/openmote-cc2538_armgcc/openstack/03b-IPv6/icmpv6rpl.c ****          return packetfunctions_sameAddress(address,&temp);
 1002              		.loc 1 367 0
 1003 0512 07F10C03 		add	r3, r7, #12
 1004 0516 1946     		mov	r1, r3
 1005 0518 7868     		ldr	r0, [r7, #4]
 1006 051a FFF7FEFF 		bl	packetfunctions_sameAddress
 1007 051e 0346     		mov	r3, r0
 1008 0520 08E0     		b	.L48
 1009              	.L49:
 368:build/openmote-cc2538_armgcc/openstack/03b-IPv6/icmpv6rpl.c ****       default:
 369:build/openmote-cc2538_armgcc/openstack/03b-IPv6/icmpv6rpl.c ****          openserial_printCritical(COMPONENT_NEIGHBORS,ERR_WRONG_ADDR_TYPE,
 370:build/openmote-cc2538_armgcc/openstack/03b-IPv6/icmpv6rpl.c ****                                (errorparameter_t)address->type,
 1010              		.loc 1 370 0
 1011 0522 7B68     		ldr	r3, [r7, #4]
 1012 0524 1B78     		ldrb	r3, [r3]	@ zero_extendqisi2
 369:build/openmote-cc2538_armgcc/openstack/03b-IPv6/icmpv6rpl.c ****                                (errorparameter_t)address->type,
 1013              		.loc 1 369 0
 1014 0526 9AB2     		uxth	r2, r3
 1015 0528 0323     		movs	r3, #3
 1016 052a 3121     		movs	r1, #49
 1017 052c 0D20     		movs	r0, #13
 1018 052e FFF7FEFF 		bl	openserial_printCritical
 371:build/openmote-cc2538_armgcc/openstack/03b-IPv6/icmpv6rpl.c ****                                (errorparameter_t)3);
 372:build/openmote-cc2538_armgcc/openstack/03b-IPv6/icmpv6rpl.c ****          return FALSE;
 1019              		.loc 1 372 0
 1020 0532 0023     		movs	r3, #0
 1021              	.L48:
 373:build/openmote-cc2538_armgcc/openstack/03b-IPv6/icmpv6rpl.c ****    }
 374:build/openmote-cc2538_armgcc/openstack/03b-IPv6/icmpv6rpl.c **** }
 1022              		.loc 1 374 0 discriminator 1
 1023 0534 1846     		mov	r0, r3
 1024 0536 2037     		adds	r7, r7, #32
 1025              		.cfi_def_cfa_offset 8
 1026 0538 BD46     		mov	sp, r7
 1027              		.cfi_def_cfa_register 13
 1028              		@ sp needed
 1029 053a 80BD     		pop	{r7, pc}
 1030              	.L51:
 1031              		.align	2
 1032              	.L50:
 1033 053c 00000000 		.word	icmpv6rpl_vars
 1034              		.cfi_endproc
 1035              	.LFE8:
 1037              		.align	2
 1038              		.global	icmpv6rpl_getMyDAGrank
 1039              		.thumb
 1040              		.thumb_func
 1042              	icmpv6rpl_getMyDAGrank:
 1043              	.LFB9:
 375:build/openmote-cc2538_armgcc/openstack/03b-IPv6/icmpv6rpl.c **** 
 376:build/openmote-cc2538_armgcc/openstack/03b-IPv6/icmpv6rpl.c **** /**
 377:build/openmote-cc2538_armgcc/openstack/03b-IPv6/icmpv6rpl.c **** \brief Retrieve this mote's current DAG rank.
 378:build/openmote-cc2538_armgcc/openstack/03b-IPv6/icmpv6rpl.c **** 
 379:build/openmote-cc2538_armgcc/openstack/03b-IPv6/icmpv6rpl.c **** \returns This mote's current DAG rank.
 380:build/openmote-cc2538_armgcc/openstack/03b-IPv6/icmpv6rpl.c **** */
 381:build/openmote-cc2538_armgcc/openstack/03b-IPv6/icmpv6rpl.c **** dagrank_t icmpv6rpl_getMyDAGrank() {
 1044              		.loc 1 381 0
 1045              		.cfi_startproc
 1046              		@ args = 0, pretend = 0, frame = 0
 1047              		@ frame_needed = 1, uses_anonymous_args = 0
 1048              		@ link register save eliminated.
 1049 0540 80B4     		push	{r7}
 1050              		.cfi_def_cfa_offset 4
 1051              		.cfi_offset 7, -4
 1052 0542 00AF     		add	r7, sp, #0
 1053              		.cfi_def_cfa_register 7
 382:build/openmote-cc2538_armgcc/openstack/03b-IPv6/icmpv6rpl.c ****    return icmpv6rpl_vars.myDAGrank;
 1054              		.loc 1 382 0
 1055 0544 034B     		ldr	r3, .L54
 1056 0546 B3F88630 		ldrh	r3, [r3, #134]
 383:build/openmote-cc2538_armgcc/openstack/03b-IPv6/icmpv6rpl.c **** }
 1057              		.loc 1 383 0
 1058 054a 1846     		mov	r0, r3
 1059 054c BD46     		mov	sp, r7
 1060              		.cfi_def_cfa_register 13
 1061              		@ sp needed
 1062 054e 80BC     		pop	{r7}
 1063              		.cfi_restore 7
 1064              		.cfi_def_cfa_offset 0
 1065 0550 7047     		bx	lr
 1066              	.L55:
 1067 0552 00BF     		.align	2
 1068              	.L54:
 1069 0554 00000000 		.word	icmpv6rpl_vars
 1070              		.cfi_endproc
 1071              	.LFE9:
 1073              		.align	2
 1074              		.global	icmpv6rpl_setMyDAGrank
 1075              		.thumb
 1076              		.thumb_func
 1078              	icmpv6rpl_setMyDAGrank:
 1079              	.LFB10:
 384:build/openmote-cc2538_armgcc/openstack/03b-IPv6/icmpv6rpl.c **** 
 385:build/openmote-cc2538_armgcc/openstack/03b-IPv6/icmpv6rpl.c **** /**
 386:build/openmote-cc2538_armgcc/openstack/03b-IPv6/icmpv6rpl.c **** \brief Direct intervention to set the value of DAG rank in the data structure
 387:build/openmote-cc2538_armgcc/openstack/03b-IPv6/icmpv6rpl.c **** 
 388:build/openmote-cc2538_armgcc/openstack/03b-IPv6/icmpv6rpl.c **** Meant for direct control from command on serial port or from test application,
 389:build/openmote-cc2538_armgcc/openstack/03b-IPv6/icmpv6rpl.c **** bypassing the routing protocol!
 390:build/openmote-cc2538_armgcc/openstack/03b-IPv6/icmpv6rpl.c **** */
 391:build/openmote-cc2538_armgcc/openstack/03b-IPv6/icmpv6rpl.c **** void icmpv6rpl_setMyDAGrank(dagrank_t rank){
 1080              		.loc 1 391 0
 1081              		.cfi_startproc
 1082              		@ args = 0, pretend = 0, frame = 8
 1083              		@ frame_needed = 1, uses_anonymous_args = 0
 1084              		@ link register save eliminated.
 1085 0558 80B4     		push	{r7}
 1086              		.cfi_def_cfa_offset 4
 1087              		.cfi_offset 7, -4
 1088 055a 83B0     		sub	sp, sp, #12
 1089              		.cfi_def_cfa_offset 16
 1090 055c 00AF     		add	r7, sp, #0
 1091              		.cfi_def_cfa_register 7
 1092 055e 0346     		mov	r3, r0
 1093 0560 FB80     		strh	r3, [r7, #6]	@ movhi
 392:build/openmote-cc2538_armgcc/openstack/03b-IPv6/icmpv6rpl.c ****     icmpv6rpl_vars.myDAGrank = rank;
 1094              		.loc 1 392 0
 1095 0562 044A     		ldr	r2, .L57
 1096 0564 FB88     		ldrh	r3, [r7, #6]	@ movhi
 1097 0566 A2F88630 		strh	r3, [r2, #134]	@ movhi
 393:build/openmote-cc2538_armgcc/openstack/03b-IPv6/icmpv6rpl.c **** }
 1098              		.loc 1 393 0
 1099 056a 00BF     		nop
 1100 056c 0C37     		adds	r7, r7, #12
 1101              		.cfi_def_cfa_offset 4
 1102 056e BD46     		mov	sp, r7
 1103              		.cfi_def_cfa_register 13
 1104              		@ sp needed
 1105 0570 80BC     		pop	{r7}
 1106              		.cfi_restore 7
 1107              		.cfi_def_cfa_offset 0
 1108 0572 7047     		bx	lr
 1109              	.L58:
 1110              		.align	2
 1111              	.L57:
 1112 0574 00000000 		.word	icmpv6rpl_vars
 1113              		.cfi_endproc
 1114              	.LFE10:
 1116              		.align	2
 1117              		.global	icmpv6rpl_updateMyDAGrankAndParentSelection
 1118              		.thumb
 1119              		.thumb_func
 1121              	icmpv6rpl_updateMyDAGrankAndParentSelection:
 1122              	.LFB11:
 394:build/openmote-cc2538_armgcc/openstack/03b-IPv6/icmpv6rpl.c **** /**
 395:build/openmote-cc2538_armgcc/openstack/03b-IPv6/icmpv6rpl.c **** \brief Routing algorithm
 396:build/openmote-cc2538_armgcc/openstack/03b-IPv6/icmpv6rpl.c **** */
 397:build/openmote-cc2538_armgcc/openstack/03b-IPv6/icmpv6rpl.c **** void icmpv6rpl_updateMyDAGrankAndParentSelection() {
 1123              		.loc 1 397 0
 1124              		.cfi_startproc
 1125              		@ args = 0, pretend = 0, frame = 56
 1126              		@ frame_needed = 1, uses_anonymous_args = 0
 1127 0578 80B5     		push	{r7, lr}
 1128              		.cfi_def_cfa_offset 8
 1129              		.cfi_offset 7, -8
 1130              		.cfi_offset 14, -4
 1131 057a 8EB0     		sub	sp, sp, #56
 1132              		.cfi_def_cfa_offset 64
 1133 057c 00AF     		add	r7, sp, #0
 1134              		.cfi_def_cfa_register 7
 398:build/openmote-cc2538_armgcc/openstack/03b-IPv6/icmpv6rpl.c ****     uint8_t   i;
 399:build/openmote-cc2538_armgcc/openstack/03b-IPv6/icmpv6rpl.c ****     uint16_t  previousDAGrank;
 400:build/openmote-cc2538_armgcc/openstack/03b-IPv6/icmpv6rpl.c ****     uint16_t  prevRankIncrease;
 401:build/openmote-cc2538_armgcc/openstack/03b-IPv6/icmpv6rpl.c ****     uint8_t   prevParentIndex;
 402:build/openmote-cc2538_armgcc/openstack/03b-IPv6/icmpv6rpl.c ****     bool      prevHadParent;
 403:build/openmote-cc2538_armgcc/openstack/03b-IPv6/icmpv6rpl.c ****     bool      foundBetterParent;
 404:build/openmote-cc2538_armgcc/openstack/03b-IPv6/icmpv6rpl.c ****     // temporaries
 405:build/openmote-cc2538_armgcc/openstack/03b-IPv6/icmpv6rpl.c ****     uint16_t  rankIncrease;
 406:build/openmote-cc2538_armgcc/openstack/03b-IPv6/icmpv6rpl.c ****     dagrank_t neighborRank;
 407:build/openmote-cc2538_armgcc/openstack/03b-IPv6/icmpv6rpl.c ****     uint32_t  tentativeDAGrank;
 408:build/openmote-cc2538_armgcc/openstack/03b-IPv6/icmpv6rpl.c ****     
 409:build/openmote-cc2538_armgcc/openstack/03b-IPv6/icmpv6rpl.c ****     open_addr_t addressToWrite;
 410:build/openmote-cc2538_armgcc/openstack/03b-IPv6/icmpv6rpl.c ****    
 411:build/openmote-cc2538_armgcc/openstack/03b-IPv6/icmpv6rpl.c ****     // if I'm a DAGroot, my DAGrank is always MINHOPRANKINCREASE
 412:build/openmote-cc2538_armgcc/openstack/03b-IPv6/icmpv6rpl.c ****     if ((idmanager_getIsDAGroot())==TRUE) {
 1135              		.loc 1 412 0
 1136 057e FFF7FEFF 		bl	idmanager_getIsDAGroot
 1137 0582 0346     		mov	r3, r0
 1138 0584 002B     		cmp	r3, #0
 1139 0586 0BD0     		beq	.L60
 413:build/openmote-cc2538_armgcc/openstack/03b-IPv6/icmpv6rpl.c ****         // the dagrank is not set through setting command, set rank to MINHOPRANKINCREASE here 
 414:build/openmote-cc2538_armgcc/openstack/03b-IPv6/icmpv6rpl.c ****         if (icmpv6rpl_vars.myDAGrank!=MINHOPRANKINCREASE) { // test for change so as not to report 
 1140              		.loc 1 414 0
 1141 0588 AC4B     		ldr	r3, .L85
 1142 058a B3F88630 		ldrh	r3, [r3, #134]
 1143 058e B3F5807F 		cmp	r3, #256
 1144 0592 05D0     		beq	.L60
 415:build/openmote-cc2538_armgcc/openstack/03b-IPv6/icmpv6rpl.c ****             icmpv6rpl_vars.myDAGrank=MINHOPRANKINCREASE;
 1145              		.loc 1 415 0
 1146 0594 A94B     		ldr	r3, .L85
 1147 0596 4FF48072 		mov	r2, #256
 1148 059a A3F88620 		strh	r2, [r3, #134]	@ movhi
 416:build/openmote-cc2538_armgcc/openstack/03b-IPv6/icmpv6rpl.c ****             //printf("I am ROOT NODE %d, updating my rank. Current rank %d \n", idmanager_getMyID(A
 417:build/openmote-cc2538_armgcc/openstack/03b-IPv6/icmpv6rpl.c ****             return;
 1149              		.loc 1 417 0
 1150 059e 49E1     		b	.L59
 1151              	.L60:
 418:build/openmote-cc2538_armgcc/openstack/03b-IPv6/icmpv6rpl.c ****         }
 419:build/openmote-cc2538_armgcc/openstack/03b-IPv6/icmpv6rpl.c ****     }
 420:build/openmote-cc2538_armgcc/openstack/03b-IPv6/icmpv6rpl.c **** 
 421:build/openmote-cc2538_armgcc/openstack/03b-IPv6/icmpv6rpl.c ****     open_addr_t      NeighborAddress;
 422:build/openmote-cc2538_armgcc/openstack/03b-IPv6/icmpv6rpl.c **** 
 423:build/openmote-cc2538_armgcc/openstack/03b-IPv6/icmpv6rpl.c ****     //printf("I am NODE %d, updating my rank. Current rank %d \n", idmanager_getMyID(ADDR_64B)->add
 424:build/openmote-cc2538_armgcc/openstack/03b-IPv6/icmpv6rpl.c **** 
 425:build/openmote-cc2538_armgcc/openstack/03b-IPv6/icmpv6rpl.c ****     // prep for loop, remember state before neighbor table scanning
 426:build/openmote-cc2538_armgcc/openstack/03b-IPv6/icmpv6rpl.c ****     prevParentIndex      = icmpv6rpl_vars.ParentIndex;
 1152              		.loc 1 426 0
 1153 05a0 A64B     		ldr	r3, .L85
 1154 05a2 93F88B30 		ldrb	r3, [r3, #139]
 1155 05a6 87F82F30 		strb	r3, [r7, #47]
 427:build/openmote-cc2538_armgcc/openstack/03b-IPv6/icmpv6rpl.c ****     prevHadParent        = icmpv6rpl_vars.haveParent;
 1156              		.loc 1 427 0
 1157 05aa A44B     		ldr	r3, .L85
 1158 05ac 93F88A30 		ldrb	r3, [r3, #138]
 1159 05b0 87F82E30 		strb	r3, [r7, #46]
 428:build/openmote-cc2538_armgcc/openstack/03b-IPv6/icmpv6rpl.c ****     prevRankIncrease     = icmpv6rpl_vars.rankIncrease;
 1160              		.loc 1 428 0
 1161 05b4 A14B     		ldr	r3, .L85
 1162 05b6 B3F88830 		ldrh	r3, [r3, #136]	@ movhi
 1163 05ba BB85     		strh	r3, [r7, #44]	@ movhi
 429:build/openmote-cc2538_armgcc/openstack/03b-IPv6/icmpv6rpl.c ****     // update my rank to current parent first
 430:build/openmote-cc2538_armgcc/openstack/03b-IPv6/icmpv6rpl.c ****     if (icmpv6rpl_vars.haveParent==TRUE){
 1164              		.loc 1 430 0
 1165 05bc 9F4B     		ldr	r3, .L85
 1166 05be 93F88A30 		ldrb	r3, [r3, #138]	@ zero_extendqisi2
 1167 05c2 002B     		cmp	r3, #0
 1168 05c4 4FD0     		beq	.L62
 431:build/openmote-cc2538_armgcc/openstack/03b-IPv6/icmpv6rpl.c ****       
 432:build/openmote-cc2538_armgcc/openstack/03b-IPv6/icmpv6rpl.c ****     	neighbors_getNeighborEui64(&NeighborAddress, ADDR_64B, icmpv6rpl_vars.ParentIndex);
 1169              		.loc 1 432 0
 1170 05c6 9D4B     		ldr	r3, .L85
 1171 05c8 93F88B20 		ldrb	r2, [r3, #139]	@ zero_extendqisi2
 1172 05cc 3B46     		mov	r3, r7
 1173 05ce 0221     		movs	r1, #2
 1174 05d0 1846     		mov	r0, r3
 1175 05d2 FFF7FEFF 		bl	neighbors_getNeighborEui64
 433:build/openmote-cc2538_armgcc/openstack/03b-IPv6/icmpv6rpl.c ****         //printf("I am NODE %d, I have parent. Current parent is %d \n", idmanager_getMyID(ADDR_64B
 434:build/openmote-cc2538_armgcc/openstack/03b-IPv6/icmpv6rpl.c **** 
 435:build/openmote-cc2538_armgcc/openstack/03b-IPv6/icmpv6rpl.c ****         if (
 436:build/openmote-cc2538_armgcc/openstack/03b-IPv6/icmpv6rpl.c ****             neighbors_getNeighborNoResource(icmpv6rpl_vars.ParentIndex)    == TRUE ||
 1176              		.loc 1 436 0
 1177 05d6 994B     		ldr	r3, .L85
 1178 05d8 93F88B30 		ldrb	r3, [r3, #139]	@ zero_extendqisi2
 1179 05dc 1846     		mov	r0, r3
 1180 05de FFF7FEFF 		bl	neighbors_getNeighborNoResource
 1181 05e2 0346     		mov	r3, r0
 435:build/openmote-cc2538_armgcc/openstack/03b-IPv6/icmpv6rpl.c ****             neighbors_getNeighborNoResource(icmpv6rpl_vars.ParentIndex)    == TRUE ||
 1182              		.loc 1 435 0
 1183 05e4 002B     		cmp	r3, #0
 1184 05e6 08D1     		bne	.L63
 437:build/openmote-cc2538_armgcc/openstack/03b-IPv6/icmpv6rpl.c ****             neighbors_getNeighborIsInBlacklist(icmpv6rpl_vars.ParentIndex) == TRUE
 1185              		.loc 1 437 0
 1186 05e8 944B     		ldr	r3, .L85
 1187 05ea 93F88B30 		ldrb	r3, [r3, #139]	@ zero_extendqisi2
 1188 05ee 1846     		mov	r0, r3
 1189 05f0 FFF7FEFF 		bl	neighbors_getNeighborIsInBlacklist
 1190 05f4 0346     		mov	r3, r0
 436:build/openmote-cc2538_armgcc/openstack/03b-IPv6/icmpv6rpl.c ****             neighbors_getNeighborIsInBlacklist(icmpv6rpl_vars.ParentIndex) == TRUE
 1191              		.loc 1 436 0
 1192 05f6 002B     		cmp	r3, #0
 1193 05f8 05D0     		beq	.L64
 1194              	.L63:
 438:build/openmote-cc2538_armgcc/openstack/03b-IPv6/icmpv6rpl.c ****         ){
 439:build/openmote-cc2538_armgcc/openstack/03b-IPv6/icmpv6rpl.c ****             icmpv6rpl_vars.myDAGrank = 65535;
 1195              		.loc 1 439 0
 1196 05fa 904B     		ldr	r3, .L85
 1197 05fc 4FF6FF72 		movw	r2, #65535
 1198 0600 A3F88620 		strh	r2, [r3, #134]	@ movhi
 1199 0604 2FE0     		b	.L62
 1200              	.L64:
 440:build/openmote-cc2538_armgcc/openstack/03b-IPv6/icmpv6rpl.c ****         } else {
 441:build/openmote-cc2538_armgcc/openstack/03b-IPv6/icmpv6rpl.c **** 
 442:build/openmote-cc2538_armgcc/openstack/03b-IPv6/icmpv6rpl.c **** 
 443:build/openmote-cc2538_armgcc/openstack/03b-IPv6/icmpv6rpl.c ****             //printf("I am NODE %d, updating my rank with my current parent \n", idmanager_getMyID(
 444:build/openmote-cc2538_armgcc/openstack/03b-IPv6/icmpv6rpl.c **** 
 445:build/openmote-cc2538_armgcc/openstack/03b-IPv6/icmpv6rpl.c ****             if (neighbors_reachedMinimalTransmission(icmpv6rpl_vars.ParentIndex)==FALSE){
 1201              		.loc 1 445 0
 1202 0606 8D4B     		ldr	r3, .L85
 1203 0608 93F88B30 		ldrb	r3, [r3, #139]	@ zero_extendqisi2
 1204 060c 1846     		mov	r0, r3
 1205 060e FFF7FEFF 		bl	neighbors_reachedMinimalTransmission
 1206 0612 0346     		mov	r3, r0
 1207 0614 83F00103 		eor	r3, r3, #1
 1208 0618 DBB2     		uxtb	r3, r3
 1209 061a 002B     		cmp	r3, #0
 1210 061c 40F00981 		bne	.L82
 446:build/openmote-cc2538_armgcc/openstack/03b-IPv6/icmpv6rpl.c ****                 // I havn't enough transmission to my parent, don't update.
 447:build/openmote-cc2538_armgcc/openstack/03b-IPv6/icmpv6rpl.c ****             	//printf("I am NODE %d, dont have enough TX with my parent, so skipping parent switchi
 448:build/openmote-cc2538_armgcc/openstack/03b-IPv6/icmpv6rpl.c ****                 return;
 449:build/openmote-cc2538_armgcc/openstack/03b-IPv6/icmpv6rpl.c ****             }
 450:build/openmote-cc2538_armgcc/openstack/03b-IPv6/icmpv6rpl.c ****             rankIncrease     = neighbors_getLinkMetric(icmpv6rpl_vars.ParentIndex);
 1211              		.loc 1 450 0
 1212 0620 864B     		ldr	r3, .L85
 1213 0622 93F88B30 		ldrb	r3, [r3, #139]	@ zero_extendqisi2
 1214 0626 1846     		mov	r0, r3
 1215 0628 FFF7FEFF 		bl	neighbors_getLinkMetric
 1216 062c 0346     		mov	r3, r0
 1217 062e 7B85     		strh	r3, [r7, #42]	@ movhi
 451:build/openmote-cc2538_armgcc/openstack/03b-IPv6/icmpv6rpl.c ****             neighborRank     = neighbors_getNeighborRank(icmpv6rpl_vars.ParentIndex);
 1218              		.loc 1 451 0
 1219 0630 824B     		ldr	r3, .L85
 1220 0632 93F88B30 		ldrb	r3, [r3, #139]	@ zero_extendqisi2
 1221 0636 1846     		mov	r0, r3
 1222 0638 FFF7FEFF 		bl	neighbors_getNeighborRank
 1223 063c 0346     		mov	r3, r0
 1224 063e 3B85     		strh	r3, [r7, #40]	@ movhi
 452:build/openmote-cc2538_armgcc/openstack/03b-IPv6/icmpv6rpl.c ****             tentativeDAGrank = (uint32_t)neighborRank+rankIncrease;
 1225              		.loc 1 452 0
 1226 0640 3A8D     		ldrh	r2, [r7, #40]
 1227 0642 7B8D     		ldrh	r3, [r7, #42]
 1228 0644 1344     		add	r3, r3, r2
 1229 0646 3B63     		str	r3, [r7, #48]
 453:build/openmote-cc2538_armgcc/openstack/03b-IPv6/icmpv6rpl.c ****             if (tentativeDAGrank>65535) {
 1230              		.loc 1 453 0
 1231 0648 3B6B     		ldr	r3, [r7, #48]
 1232 064a B3F5803F 		cmp	r3, #65536
 1233 064e 05D3     		bcc	.L66
 454:build/openmote-cc2538_armgcc/openstack/03b-IPv6/icmpv6rpl.c ****                 icmpv6rpl_vars.myDAGrank = 65535;
 1234              		.loc 1 454 0
 1235 0650 7A4B     		ldr	r3, .L85
 1236 0652 4FF6FF72 		movw	r2, #65535
 1237 0656 A3F88620 		strh	r2, [r3, #134]	@ movhi
 1238 065a 04E0     		b	.L62
 1239              	.L66:
 455:build/openmote-cc2538_armgcc/openstack/03b-IPv6/icmpv6rpl.c ****             } else {
 456:build/openmote-cc2538_armgcc/openstack/03b-IPv6/icmpv6rpl.c ****                 icmpv6rpl_vars.myDAGrank = (uint16_t)tentativeDAGrank;
 1240              		.loc 1 456 0
 1241 065c 3B6B     		ldr	r3, [r7, #48]
 1242 065e 9AB2     		uxth	r2, r3
 1243 0660 764B     		ldr	r3, .L85
 1244 0662 A3F88620 		strh	r2, [r3, #134]	@ movhi
 1245              	.L62:
 457:build/openmote-cc2538_armgcc/openstack/03b-IPv6/icmpv6rpl.c ****             }
 458:build/openmote-cc2538_armgcc/openstack/03b-IPv6/icmpv6rpl.c **** 
 459:build/openmote-cc2538_armgcc/openstack/03b-IPv6/icmpv6rpl.c ****             //printf("I am NODE %d, my updated rank with my current parent %d is %d \n", idmanager_
 460:build/openmote-cc2538_armgcc/openstack/03b-IPv6/icmpv6rpl.c ****         }
 461:build/openmote-cc2538_armgcc/openstack/03b-IPv6/icmpv6rpl.c ****     }
 462:build/openmote-cc2538_armgcc/openstack/03b-IPv6/icmpv6rpl.c ****     previousDAGrank      = icmpv6rpl_vars.myDAGrank;
 1246              		.loc 1 462 0
 1247 0666 754B     		ldr	r3, .L85
 1248 0668 B3F88630 		ldrh	r3, [r3, #134]	@ movhi
 1249 066c FB84     		strh	r3, [r7, #38]	@ movhi
 463:build/openmote-cc2538_armgcc/openstack/03b-IPv6/icmpv6rpl.c ****     foundBetterParent    = FALSE;
 1250              		.loc 1 463 0
 1251 066e 0023     		movs	r3, #0
 1252 0670 87F83630 		strb	r3, [r7, #54]
 464:build/openmote-cc2538_armgcc/openstack/03b-IPv6/icmpv6rpl.c ****     icmpv6rpl_vars.haveParent = FALSE;
 1253              		.loc 1 464 0
 1254 0674 714B     		ldr	r3, .L85
 1255 0676 0022     		movs	r2, #0
 1256 0678 83F88A20 		strb	r2, [r3, #138]
 465:build/openmote-cc2538_armgcc/openstack/03b-IPv6/icmpv6rpl.c **** 
 466:build/openmote-cc2538_armgcc/openstack/03b-IPv6/icmpv6rpl.c ****     //printf("I am NODE %d, doing some Housekeeping, My previous rank is % \n", idmanager_getMyID(A
 467:build/openmote-cc2538_armgcc/openstack/03b-IPv6/icmpv6rpl.c ****     // loop through neighbor table, update myDAGrank
 468:build/openmote-cc2538_armgcc/openstack/03b-IPv6/icmpv6rpl.c ****     for (i=0;i<MAXNUMNEIGHBORS;i++) {
 1257              		.loc 1 468 0
 1258 067c 0023     		movs	r3, #0
 1259 067e 87F83730 		strb	r3, [r7, #55]
 1260 0682 66E0     		b	.L67
 1261              	.L74:
 469:build/openmote-cc2538_armgcc/openstack/03b-IPv6/icmpv6rpl.c ****         if (neighbors_isStableNeighborByIndex(i)) { // in use and link is stable
 1262              		.loc 1 469 0
 1263 0684 97F83730 		ldrb	r3, [r7, #55]	@ zero_extendqisi2
 1264 0688 1846     		mov	r0, r3
 1265 068a FFF7FEFF 		bl	neighbors_isStableNeighborByIndex
 1266 068e 0346     		mov	r3, r0
 1267 0690 002B     		cmp	r3, #0
 1268 0692 59D0     		beq	.L68
 470:build/openmote-cc2538_armgcc/openstack/03b-IPv6/icmpv6rpl.c ****             // neighbor marked as NORES can't be parent
 471:build/openmote-cc2538_armgcc/openstack/03b-IPv6/icmpv6rpl.c **** //            if (
 472:build/openmote-cc2538_armgcc/openstack/03b-IPv6/icmpv6rpl.c **** //                neighbors_getNeighborNoResource(i)   == TRUE ||
 473:build/openmote-cc2538_armgcc/openstack/03b-IPv6/icmpv6rpl.c **** //                neighbors_getNeighborIsInBlacklist(i)== TRUE
 474:build/openmote-cc2538_armgcc/openstack/03b-IPv6/icmpv6rpl.c **** //            ) {
 475:build/openmote-cc2538_armgcc/openstack/03b-IPv6/icmpv6rpl.c **** //                continue;
 476:build/openmote-cc2538_armgcc/openstack/03b-IPv6/icmpv6rpl.c **** //            }
 477:build/openmote-cc2538_armgcc/openstack/03b-IPv6/icmpv6rpl.c ****             // get link cost to this neighbor
 478:build/openmote-cc2538_armgcc/openstack/03b-IPv6/icmpv6rpl.c ****             rankIncrease=neighbors_getLinkMetric(i);
 1269              		.loc 1 478 0
 1270 0694 97F83730 		ldrb	r3, [r7, #55]	@ zero_extendqisi2
 1271 0698 1846     		mov	r0, r3
 1272 069a FFF7FEFF 		bl	neighbors_getLinkMetric
 1273 069e 0346     		mov	r3, r0
 1274 06a0 7B85     		strh	r3, [r7, #42]	@ movhi
 479:build/openmote-cc2538_armgcc/openstack/03b-IPv6/icmpv6rpl.c ****             // get this neighbor's advertized rank
 480:build/openmote-cc2538_armgcc/openstack/03b-IPv6/icmpv6rpl.c ****             neighborRank=neighbors_getNeighborRank(i);
 1275              		.loc 1 480 0
 1276 06a2 97F83730 		ldrb	r3, [r7, #55]	@ zero_extendqisi2
 1277 06a6 1846     		mov	r0, r3
 1278 06a8 FFF7FEFF 		bl	neighbors_getNeighborRank
 1279 06ac 0346     		mov	r3, r0
 1280 06ae 3B85     		strh	r3, [r7, #40]	@ movhi
 481:build/openmote-cc2538_armgcc/openstack/03b-IPv6/icmpv6rpl.c ****             // if this neighbor has unknown/infinite rank, pass on it
 482:build/openmote-cc2538_armgcc/openstack/03b-IPv6/icmpv6rpl.c ****             if (neighborRank==DEFAULTDAGRANK) continue;
 1281              		.loc 1 482 0
 1282 06b0 3B8D     		ldrh	r3, [r7, #40]
 1283 06b2 4FF6FF72 		movw	r2, #65535
 1284 06b6 9342     		cmp	r3, r2
 1285 06b8 43D0     		beq	.L83
 483:build/openmote-cc2538_armgcc/openstack/03b-IPv6/icmpv6rpl.c ****             // compute tentative cost of full path to root through this neighbor
 484:build/openmote-cc2538_armgcc/openstack/03b-IPv6/icmpv6rpl.c ****             tentativeDAGrank = (uint32_t)neighborRank+rankIncrease;
 1286              		.loc 1 484 0
 1287 06ba 3A8D     		ldrh	r2, [r7, #40]
 1288 06bc 7B8D     		ldrh	r3, [r7, #42]
 1289 06be 1344     		add	r3, r3, r2
 1290 06c0 3B63     		str	r3, [r7, #48]
 485:build/openmote-cc2538_armgcc/openstack/03b-IPv6/icmpv6rpl.c ****             neighbors_getNeighborEui64(&NeighborAddress, ADDR_64B, i);
 1291              		.loc 1 485 0
 1292 06c2 97F83720 		ldrb	r2, [r7, #55]	@ zero_extendqisi2
 1293 06c6 3B46     		mov	r3, r7
 1294 06c8 0221     		movs	r1, #2
 1295 06ca 1846     		mov	r0, r3
 1296 06cc FFF7FEFF 		bl	neighbors_getNeighborEui64
 486:build/openmote-cc2538_armgcc/openstack/03b-IPv6/icmpv6rpl.c ****             //printf("I am NODE %d, my tentative rank with node %d would be %d \n", idmanager_getMy
 487:build/openmote-cc2538_armgcc/openstack/03b-IPv6/icmpv6rpl.c **** 
 488:build/openmote-cc2538_armgcc/openstack/03b-IPv6/icmpv6rpl.c **** 
 489:build/openmote-cc2538_armgcc/openstack/03b-IPv6/icmpv6rpl.c ****             if (tentativeDAGrank > 65535) {tentativeDAGrank = 65535;}
 1297              		.loc 1 489 0
 1298 06d0 3B6B     		ldr	r3, [r7, #48]
 1299 06d2 B3F5803F 		cmp	r3, #65536
 1300 06d6 02D3     		bcc	.L70
 1301              		.loc 1 489 0 is_stmt 0 discriminator 1
 1302 06d8 4FF6FF73 		movw	r3, #65535
 1303 06dc 3B63     		str	r3, [r7, #48]
 1304              	.L70:
 490:build/openmote-cc2538_armgcc/openstack/03b-IPv6/icmpv6rpl.c ****             // if not low enough to justify switch, pass (i.e. hysterisis)
 491:build/openmote-cc2538_armgcc/openstack/03b-IPv6/icmpv6rpl.c ****             if (
 492:build/openmote-cc2538_armgcc/openstack/03b-IPv6/icmpv6rpl.c ****                 (previousDAGrank<tentativeDAGrank) ||
 1305              		.loc 1 492 0 is_stmt 1
 1306 06de FA8C     		ldrh	r2, [r7, #38]
 491:build/openmote-cc2538_armgcc/openstack/03b-IPv6/icmpv6rpl.c ****                 (previousDAGrank<tentativeDAGrank) ||
 1307              		.loc 1 491 0
 1308 06e0 3B6B     		ldr	r3, [r7, #48]
 1309 06e2 9A42     		cmp	r2, r3
 1310 06e4 2FD3     		bcc	.L84
 493:build/openmote-cc2538_armgcc/openstack/03b-IPv6/icmpv6rpl.c ****                 (previousDAGrank-tentativeDAGrank < 2*MINHOPRANKINCREASE)
 1311              		.loc 1 493 0
 1312 06e6 FA8C     		ldrh	r2, [r7, #38]
 1313 06e8 3B6B     		ldr	r3, [r7, #48]
 1314 06ea D31A     		subs	r3, r2, r3
 492:build/openmote-cc2538_armgcc/openstack/03b-IPv6/icmpv6rpl.c ****                 (previousDAGrank-tentativeDAGrank < 2*MINHOPRANKINCREASE)
 1315              		.loc 1 492 0
 1316 06ec B3F5007F 		cmp	r3, #512
 1317 06f0 29D3     		bcc	.L84
 494:build/openmote-cc2538_armgcc/openstack/03b-IPv6/icmpv6rpl.c ****             ) {
 495:build/openmote-cc2538_armgcc/openstack/03b-IPv6/icmpv6rpl.c ****                   //printf("I am NODE %d, not changing parent since my old rank was %d \n", idmanag
 496:build/openmote-cc2538_armgcc/openstack/03b-IPv6/icmpv6rpl.c **** 
 497:build/openmote-cc2538_armgcc/openstack/03b-IPv6/icmpv6rpl.c ****                   continue;
 498:build/openmote-cc2538_armgcc/openstack/03b-IPv6/icmpv6rpl.c ****             }
 499:build/openmote-cc2538_armgcc/openstack/03b-IPv6/icmpv6rpl.c ****             // remember that we have at least one valid candidate parent
 500:build/openmote-cc2538_armgcc/openstack/03b-IPv6/icmpv6rpl.c ****             foundBetterParent=TRUE;
 1318              		.loc 1 500 0
 1319 06f2 0123     		movs	r3, #1
 1320 06f4 87F83630 		strb	r3, [r7, #54]
 501:build/openmote-cc2538_armgcc/openstack/03b-IPv6/icmpv6rpl.c ****             if (idmanager_getMyID(ADDR_64B)->addr_64b[7] == 0x36){
 1321              		.loc 1 501 0
 1322 06f8 0220     		movs	r0, #2
 1323 06fa FFF7FEFF 		bl	idmanager_getMyID
 1324 06fe 0346     		mov	r3, r0
 1325 0700 1B7A     		ldrb	r3, [r3, #8]	@ zero_extendqisi2
 1326 0702 362B     		cmp	r3, #54
 1327 0704 07D1     		bne	.L73
 1328              	.LBB2:
 502:build/openmote-cc2538_armgcc/openstack/03b-IPv6/icmpv6rpl.c ****          	   leds_debug_toggle();
 1329              		.loc 1 502 0
 1330 0706 FFF7FEFF 		bl	leds_debug_toggle
 503:build/openmote-cc2538_armgcc/openstack/03b-IPv6/icmpv6rpl.c ****          		openserial_printError(
 1331              		.loc 1 503 0
 1332 070a 0023     		movs	r3, #0
 1333 070c 0022     		movs	r2, #0
 1334 070e 0C21     		movs	r1, #12
 1335 0710 1220     		movs	r0, #18
 1336 0712 FFF7FEFF 		bl	openserial_printError
 1337              	.L73:
 1338              	.LBE2:
 504:build/openmote-cc2538_armgcc/openstack/03b-IPv6/icmpv6rpl.c ****          				COMPONENT_IPHC,
 505:build/openmote-cc2538_armgcc/openstack/03b-IPv6/icmpv6rpl.c ****          				ERR_6LOWPAN_UNSUPPORTED,
 506:build/openmote-cc2538_armgcc/openstack/03b-IPv6/icmpv6rpl.c ****          				(errorparameter_t)0,
 507:build/openmote-cc2538_armgcc/openstack/03b-IPv6/icmpv6rpl.c ****          				(errorparameter_t)0
 508:build/openmote-cc2538_armgcc/openstack/03b-IPv6/icmpv6rpl.c ****          		);
 509:build/openmote-cc2538_armgcc/openstack/03b-IPv6/icmpv6rpl.c ****             }
 510:build/openmote-cc2538_armgcc/openstack/03b-IPv6/icmpv6rpl.c ****             // select best candidate so far
 511:build/openmote-cc2538_armgcc/openstack/03b-IPv6/icmpv6rpl.c ****             if (icmpv6rpl_vars.myDAGrank>tentativeDAGrank) {
 1339              		.loc 1 511 0
 1340 0716 494B     		ldr	r3, .L85
 1341 0718 B3F88630 		ldrh	r3, [r3, #134]
 1342 071c 1A46     		mov	r2, r3
 1343 071e 3B6B     		ldr	r3, [r7, #48]
 1344 0720 9A42     		cmp	r2, r3
 1345 0722 11D9     		bls	.L68
 512:build/openmote-cc2538_armgcc/openstack/03b-IPv6/icmpv6rpl.c ****             	//printf("I am NODE %d, Changing parent to %d since my old rank was %d and new could b
 513:build/openmote-cc2538_armgcc/openstack/03b-IPv6/icmpv6rpl.c **** 
 514:build/openmote-cc2538_armgcc/openstack/03b-IPv6/icmpv6rpl.c ****                 icmpv6rpl_vars.myDAGrank    = (uint16_t)tentativeDAGrank;
 1346              		.loc 1 514 0
 1347 0724 3B6B     		ldr	r3, [r7, #48]
 1348 0726 9AB2     		uxth	r2, r3
 1349 0728 444B     		ldr	r3, .L85
 1350 072a A3F88620 		strh	r2, [r3, #134]	@ movhi
 515:build/openmote-cc2538_armgcc/openstack/03b-IPv6/icmpv6rpl.c ****                 icmpv6rpl_vars.ParentIndex  = i;
 1351              		.loc 1 515 0
 1352 072e 434A     		ldr	r2, .L85
 1353 0730 97F83730 		ldrb	r3, [r7, #55]
 1354 0734 82F88B30 		strb	r3, [r2, #139]
 516:build/openmote-cc2538_armgcc/openstack/03b-IPv6/icmpv6rpl.c ****                 icmpv6rpl_vars.rankIncrease = rankIncrease;
 1355              		.loc 1 516 0
 1356 0738 404A     		ldr	r2, .L85
 1357 073a 7B8D     		ldrh	r3, [r7, #42]	@ movhi
 1358 073c A2F88830 		strh	r3, [r2, #136]	@ movhi
 1359 0740 02E0     		b	.L68
 1360              	.L83:
 482:build/openmote-cc2538_armgcc/openstack/03b-IPv6/icmpv6rpl.c ****             // compute tentative cost of full path to root through this neighbor
 1361              		.loc 1 482 0
 1362 0742 00BF     		nop
 1363 0744 00E0     		b	.L68
 1364              	.L84:
 497:build/openmote-cc2538_armgcc/openstack/03b-IPv6/icmpv6rpl.c ****             }
 1365              		.loc 1 497 0
 1366 0746 00BF     		nop
 1367              	.L68:
 468:build/openmote-cc2538_armgcc/openstack/03b-IPv6/icmpv6rpl.c ****         if (neighbors_isStableNeighborByIndex(i)) { // in use and link is stable
 1368              		.loc 1 468 0 discriminator 2
 1369 0748 97F83730 		ldrb	r3, [r7, #55]	@ zero_extendqisi2
 1370 074c 0133     		adds	r3, r3, #1
 1371 074e 87F83730 		strb	r3, [r7, #55]
 1372              	.L67:
 468:build/openmote-cc2538_armgcc/openstack/03b-IPv6/icmpv6rpl.c ****         if (neighbors_isStableNeighborByIndex(i)) { // in use and link is stable
 1373              		.loc 1 468 0 is_stmt 0 discriminator 1
 1374 0752 97F83730 		ldrb	r3, [r7, #55]	@ zero_extendqisi2
 1375 0756 1D2B     		cmp	r3, #29
 1376 0758 94D9     		bls	.L74
 517:build/openmote-cc2538_armgcc/openstack/03b-IPv6/icmpv6rpl.c ****             }
 518:build/openmote-cc2538_armgcc/openstack/03b-IPv6/icmpv6rpl.c ****         }
 519:build/openmote-cc2538_armgcc/openstack/03b-IPv6/icmpv6rpl.c ****     }
 520:build/openmote-cc2538_armgcc/openstack/03b-IPv6/icmpv6rpl.c ****    
 521:build/openmote-cc2538_armgcc/openstack/03b-IPv6/icmpv6rpl.c ****     if (foundBetterParent) {
 1377              		.loc 1 521 0 is_stmt 1
 1378 075a 97F83630 		ldrb	r3, [r7, #54]	@ zero_extendqisi2
 1379 075e 002B     		cmp	r3, #0
 1380 0760 54D0     		beq	.L75
 522:build/openmote-cc2538_armgcc/openstack/03b-IPv6/icmpv6rpl.c ****         icmpv6rpl_vars.haveParent=TRUE;
 1381              		.loc 1 522 0
 1382 0762 364B     		ldr	r3, .L85
 1383 0764 0122     		movs	r2, #1
 1384 0766 83F88A20 		strb	r2, [r3, #138]
 523:build/openmote-cc2538_armgcc/openstack/03b-IPv6/icmpv6rpl.c ****         if (!prevHadParent) {
 1385              		.loc 1 523 0
 1386 076a 97F82E30 		ldrb	r3, [r7, #46]
 1387 076e 83F00103 		eor	r3, r3, #1
 1388 0772 DBB2     		uxtb	r3, r3
 1389 0774 002B     		cmp	r3, #0
 1390 0776 15D0     		beq	.L76
 524:build/openmote-cc2538_armgcc/openstack/03b-IPv6/icmpv6rpl.c ****         	neighbors_getNeighborEui64(&NeighborAddress, ADDR_64B, icmpv6rpl_vars.ParentIndex);
 1391              		.loc 1 524 0
 1392 0778 304B     		ldr	r3, .L85
 1393 077a 93F88B20 		ldrb	r2, [r3, #139]	@ zero_extendqisi2
 1394 077e 3B46     		mov	r3, r7
 1395 0780 0221     		movs	r1, #2
 1396 0782 1846     		mov	r0, r3
 1397 0784 FFF7FEFF 		bl	neighbors_getNeighborEui64
 525:build/openmote-cc2538_armgcc/openstack/03b-IPv6/icmpv6rpl.c ****         	//printf("I am NODE %d, FIRST time I get a parent. Parent now is %d \n", idmanager_getMyID
 526:build/openmote-cc2538_armgcc/openstack/03b-IPv6/icmpv6rpl.c ****             // in case preParent is killed before calling this function, clear the preferredParent 
 527:build/openmote-cc2538_armgcc/openstack/03b-IPv6/icmpv6rpl.c ****             neighbors_setPreferredParent(prevParentIndex, FALSE);
 1398              		.loc 1 527 0
 1399 0788 97F82F30 		ldrb	r3, [r7, #47]	@ zero_extendqisi2
 1400 078c 0021     		movs	r1, #0
 1401 078e 1846     		mov	r0, r3
 1402 0790 FFF7FEFF 		bl	neighbors_setPreferredParent
 528:build/openmote-cc2538_armgcc/openstack/03b-IPv6/icmpv6rpl.c ****             // set neighbors as preferred parent
 529:build/openmote-cc2538_armgcc/openstack/03b-IPv6/icmpv6rpl.c ****             neighbors_setPreferredParent(icmpv6rpl_vars.ParentIndex, TRUE);
 1403              		.loc 1 529 0
 1404 0794 294B     		ldr	r3, .L85
 1405 0796 93F88B30 		ldrb	r3, [r3, #139]	@ zero_extendqisi2
 1406 079a 0121     		movs	r1, #1
 1407 079c 1846     		mov	r0, r3
 1408 079e FFF7FEFF 		bl	neighbors_setPreferredParent
 1409 07a2 47E0     		b	.L59
 1410              	.L76:
 530:build/openmote-cc2538_armgcc/openstack/03b-IPv6/icmpv6rpl.c ****         } else {
 531:build/openmote-cc2538_armgcc/openstack/03b-IPv6/icmpv6rpl.c ****             if (icmpv6rpl_vars.ParentIndex==prevParentIndex) {
 1411              		.loc 1 531 0
 1412 07a4 254B     		ldr	r3, .L85
 1413 07a6 93F88B30 		ldrb	r3, [r3, #139]	@ zero_extendqisi2
 1414 07aa 97F82F20 		ldrb	r2, [r7, #47]	@ zero_extendqisi2
 1415 07ae 9A42     		cmp	r2, r3
 1416 07b0 0ED1     		bne	.L78
 532:build/openmote-cc2538_armgcc/openstack/03b-IPv6/icmpv6rpl.c ****                 // report on the rank change if any, not on the deletion/creation of parent
 533:build/openmote-cc2538_armgcc/openstack/03b-IPv6/icmpv6rpl.c ****                 if (icmpv6rpl_vars.myDAGrank!=previousDAGrank) {
 1417              		.loc 1 533 0
 1418 07b2 224B     		ldr	r3, .L85
 1419 07b4 B3F88630 		ldrh	r3, [r3, #134]
 1420 07b8 FA8C     		ldrh	r2, [r7, #38]
 1421 07ba 9A42     		cmp	r2, r3
 1422 07bc 3AD1     		bne	.L59
 534:build/openmote-cc2538_armgcc/openstack/03b-IPv6/icmpv6rpl.c ****                 } else {
 535:build/openmote-cc2538_armgcc/openstack/03b-IPv6/icmpv6rpl.c ****                     // same parent, same rank, nothing to report about 
 536:build/openmote-cc2538_armgcc/openstack/03b-IPv6/icmpv6rpl.c ****                 	neighbors_getNeighborEui64(&NeighborAddress, ADDR_64B, icmpv6rpl_vars.ParentIndex)
 1423              		.loc 1 536 0
 1424 07be 1F4B     		ldr	r3, .L85
 1425 07c0 93F88B20 		ldrb	r2, [r3, #139]	@ zero_extendqisi2
 1426 07c4 3B46     		mov	r3, r7
 1427 07c6 0221     		movs	r1, #2
 1428 07c8 1846     		mov	r0, r3
 1429 07ca FFF7FEFF 		bl	neighbors_getNeighborEui64
 1430 07ce 31E0     		b	.L59
 1431              	.L78:
 537:build/openmote-cc2538_armgcc/openstack/03b-IPv6/icmpv6rpl.c ****                 	//printf("I am NODE %d, I will be with the same parent %d \n", idmanager_getMyID(A
 538:build/openmote-cc2538_armgcc/openstack/03b-IPv6/icmpv6rpl.c ****                 }
 539:build/openmote-cc2538_armgcc/openstack/03b-IPv6/icmpv6rpl.c ****             } else {
 540:build/openmote-cc2538_armgcc/openstack/03b-IPv6/icmpv6rpl.c **** 
 541:build/openmote-cc2538_armgcc/openstack/03b-IPv6/icmpv6rpl.c ****             	neighbors_getNeighborEui64(&NeighborAddress, ADDR_64B, icmpv6rpl_vars.ParentIndex);
 1432              		.loc 1 541 0
 1433 07d0 1A4B     		ldr	r3, .L85
 1434 07d2 93F88B20 		ldrb	r2, [r3, #139]	@ zero_extendqisi2
 1435 07d6 3B46     		mov	r3, r7
 1436 07d8 0221     		movs	r1, #2
 1437 07da 1846     		mov	r0, r3
 1438 07dc FFF7FEFF 		bl	neighbors_getNeighborEui64
 542:build/openmote-cc2538_armgcc/openstack/03b-IPv6/icmpv6rpl.c ****             	//printf("I am NODE %d, SWITHCING TO %d !!!!!!!!!!!!! \n", idmanager_getMyID(ADDR_64B)
 543:build/openmote-cc2538_armgcc/openstack/03b-IPv6/icmpv6rpl.c **** //            	if (idmanager_getMyID(ADDR_64B)->addr_64b[7]==0x67){
 544:build/openmote-cc2538_armgcc/openstack/03b-IPv6/icmpv6rpl.c **** //            		leds_debug_toggle();
 545:build/openmote-cc2538_armgcc/openstack/03b-IPv6/icmpv6rpl.c **** //            	}
 546:build/openmote-cc2538_armgcc/openstack/03b-IPv6/icmpv6rpl.c ****                 // clear neighbors preferredParent flag
 547:build/openmote-cc2538_armgcc/openstack/03b-IPv6/icmpv6rpl.c ****                 neighbors_setPreferredParent(prevParentIndex, FALSE);
 1439              		.loc 1 547 0
 1440 07e0 97F82F30 		ldrb	r3, [r7, #47]	@ zero_extendqisi2
 1441 07e4 0021     		movs	r1, #0
 1442 07e6 1846     		mov	r0, r3
 1443 07e8 FFF7FEFF 		bl	neighbors_setPreferredParent
 548:build/openmote-cc2538_armgcc/openstack/03b-IPv6/icmpv6rpl.c ****                 // set neighbors as preferred parent
 549:build/openmote-cc2538_armgcc/openstack/03b-IPv6/icmpv6rpl.c ****                 neighbors_setPreferredParent(icmpv6rpl_vars.ParentIndex, TRUE);
 1444              		.loc 1 549 0
 1445 07ec 134B     		ldr	r3, .L85
 1446 07ee 93F88B30 		ldrb	r3, [r3, #139]	@ zero_extendqisi2
 1447 07f2 0121     		movs	r1, #1
 1448 07f4 1846     		mov	r0, r3
 1449 07f6 FFF7FEFF 		bl	neighbors_setPreferredParent
 550:build/openmote-cc2538_armgcc/openstack/03b-IPv6/icmpv6rpl.c ****                 // get prepare parent address
 551:build/openmote-cc2538_armgcc/openstack/03b-IPv6/icmpv6rpl.c ****                 neighbors_getNeighborEui64(&addressToWrite,ADDR_64B,prevParentIndex);
 1450              		.loc 1 551 0
 1451 07fa 97F82F20 		ldrb	r2, [r7, #47]	@ zero_extendqisi2
 1452 07fe 07F11403 		add	r3, r7, #20
 1453 0802 0221     		movs	r1, #2
 1454 0804 1846     		mov	r0, r3
 1455 0806 FFF7FEFF 		bl	neighbors_getNeighborEui64
 1456 080a 13E0     		b	.L59
 1457              	.L75:
 552:build/openmote-cc2538_armgcc/openstack/03b-IPv6/icmpv6rpl.c ****             }
 553:build/openmote-cc2538_armgcc/openstack/03b-IPv6/icmpv6rpl.c ****         }
 554:build/openmote-cc2538_armgcc/openstack/03b-IPv6/icmpv6rpl.c ****     } else {
 555:build/openmote-cc2538_armgcc/openstack/03b-IPv6/icmpv6rpl.c ****         // restore routing table as we found it on entry
 556:build/openmote-cc2538_armgcc/openstack/03b-IPv6/icmpv6rpl.c ****         icmpv6rpl_vars.myDAGrank   = previousDAGrank;
 1458              		.loc 1 556 0
 1459 080c 0B4A     		ldr	r2, .L85
 1460 080e FB8C     		ldrh	r3, [r7, #38]	@ movhi
 1461 0810 A2F88630 		strh	r3, [r2, #134]	@ movhi
 557:build/openmote-cc2538_armgcc/openstack/03b-IPv6/icmpv6rpl.c ****         icmpv6rpl_vars.ParentIndex = prevParentIndex;
 1462              		.loc 1 557 0
 1463 0814 094A     		ldr	r2, .L85
 1464 0816 97F82F30 		ldrb	r3, [r7, #47]
 1465 081a 82F88B30 		strb	r3, [r2, #139]
 558:build/openmote-cc2538_armgcc/openstack/03b-IPv6/icmpv6rpl.c ****         icmpv6rpl_vars.haveParent  = prevHadParent;
 1466              		.loc 1 558 0
 1467 081e 074A     		ldr	r2, .L85
 1468 0820 97F82E30 		ldrb	r3, [r7, #46]
 1469 0824 82F88A30 		strb	r3, [r2, #138]
 559:build/openmote-cc2538_armgcc/openstack/03b-IPv6/icmpv6rpl.c ****         icmpv6rpl_vars.rankIncrease= prevRankIncrease;
 1470              		.loc 1 559 0
 1471 0828 044A     		ldr	r2, .L85
 1472 082a BB8D     		ldrh	r3, [r7, #44]	@ movhi
 1473 082c A2F88830 		strh	r3, [r2, #136]	@ movhi
 1474 0830 00E0     		b	.L59
 1475              	.L82:
 448:build/openmote-cc2538_armgcc/openstack/03b-IPv6/icmpv6rpl.c ****             }
 1476              		.loc 1 448 0
 1477 0832 00BF     		nop
 1478              	.L59:
 560:build/openmote-cc2538_armgcc/openstack/03b-IPv6/icmpv6rpl.c ****         // no change to report on
 561:build/openmote-cc2538_armgcc/openstack/03b-IPv6/icmpv6rpl.c ****     }
 562:build/openmote-cc2538_armgcc/openstack/03b-IPv6/icmpv6rpl.c **** }
 1479              		.loc 1 562 0
 1480 0834 3837     		adds	r7, r7, #56
 1481              		.cfi_def_cfa_offset 8
 1482 0836 BD46     		mov	sp, r7
 1483              		.cfi_def_cfa_register 13
 1484              		@ sp needed
 1485 0838 80BD     		pop	{r7, pc}
 1486              	.L86:
 1487 083a 00BF     		.align	2
 1488              	.L85:
 1489 083c 00000000 		.word	icmpv6rpl_vars
 1490              		.cfi_endproc
 1491              	.LFE11:
 1493              		.align	2
 1494              		.global	icmpv6rpl_indicateRxDIO
 1495              		.thumb
 1496              		.thumb_func
 1498              	icmpv6rpl_indicateRxDIO:
 1499              	.LFB12:
 563:build/openmote-cc2538_armgcc/openstack/03b-IPv6/icmpv6rpl.c **** /**
 564:build/openmote-cc2538_armgcc/openstack/03b-IPv6/icmpv6rpl.c **** \brief Indicate I just received a RPL DIO from a neighbor.
 565:build/openmote-cc2538_armgcc/openstack/03b-IPv6/icmpv6rpl.c **** 
 566:build/openmote-cc2538_armgcc/openstack/03b-IPv6/icmpv6rpl.c **** This function should be called for each received a DIO is received so neighbor
 567:build/openmote-cc2538_armgcc/openstack/03b-IPv6/icmpv6rpl.c **** routing information in the neighbor table can be updated.
 568:build/openmote-cc2538_armgcc/openstack/03b-IPv6/icmpv6rpl.c **** 
 569:build/openmote-cc2538_armgcc/openstack/03b-IPv6/icmpv6rpl.c **** The fields which are updated are:
 570:build/openmote-cc2538_armgcc/openstack/03b-IPv6/icmpv6rpl.c **** - DAGrank
 571:build/openmote-cc2538_armgcc/openstack/03b-IPv6/icmpv6rpl.c **** 
 572:build/openmote-cc2538_armgcc/openstack/03b-IPv6/icmpv6rpl.c **** \param[in] msg The received message with msg->payload pointing to the DIO
 573:build/openmote-cc2538_armgcc/openstack/03b-IPv6/icmpv6rpl.c ****    header.
 574:build/openmote-cc2538_armgcc/openstack/03b-IPv6/icmpv6rpl.c **** */
 575:build/openmote-cc2538_armgcc/openstack/03b-IPv6/icmpv6rpl.c **** void icmpv6rpl_indicateRxDIO(OpenQueueEntry_t* msg) {
 1500              		.loc 1 575 0
 1501              		.cfi_startproc
 1502              		@ args = 0, pretend = 0, frame = 64
 1503              		@ frame_needed = 1, uses_anonymous_args = 0
 1504 0840 B0B5     		push	{r4, r5, r7, lr}
 1505              		.cfi_def_cfa_offset 16
 1506              		.cfi_offset 4, -16
 1507              		.cfi_offset 5, -12
 1508              		.cfi_offset 7, -8
 1509              		.cfi_offset 14, -4
 1510 0842 90B0     		sub	sp, sp, #64
 1511              		.cfi_def_cfa_offset 80
 1512 0844 00AF     		add	r7, sp, #0
 1513              		.cfi_def_cfa_register 7
 1514 0846 7860     		str	r0, [r7, #4]
 576:build/openmote-cc2538_armgcc/openstack/03b-IPv6/icmpv6rpl.c ****    uint8_t          i;
 577:build/openmote-cc2538_armgcc/openstack/03b-IPv6/icmpv6rpl.c ****    uint8_t          temp_8b;
 578:build/openmote-cc2538_armgcc/openstack/03b-IPv6/icmpv6rpl.c ****    dagrank_t        neighborRank;
 579:build/openmote-cc2538_armgcc/openstack/03b-IPv6/icmpv6rpl.c ****    open_addr_t      NeighborAddress;
 580:build/openmote-cc2538_armgcc/openstack/03b-IPv6/icmpv6rpl.c ****    open_addr_t      myPrefix;
 581:build/openmote-cc2538_armgcc/openstack/03b-IPv6/icmpv6rpl.c ****    uint8_t*         current;
 582:build/openmote-cc2538_armgcc/openstack/03b-IPv6/icmpv6rpl.c ****    uint8_t          optionsLen;
 583:build/openmote-cc2538_armgcc/openstack/03b-IPv6/icmpv6rpl.c ****    // take ownership over the packet
 584:build/openmote-cc2538_armgcc/openstack/03b-IPv6/icmpv6rpl.c ****    msg->owner = COMPONENT_NEIGHBORS;
 1515              		.loc 1 584 0
 1516 0848 7B68     		ldr	r3, [r7, #4]
 1517 084a 0D22     		movs	r2, #13
 1518 084c 5A70     		strb	r2, [r3, #1]
 585:build/openmote-cc2538_armgcc/openstack/03b-IPv6/icmpv6rpl.c ****    
 586:build/openmote-cc2538_armgcc/openstack/03b-IPv6/icmpv6rpl.c ****    // update some fields of our DIO 
 587:build/openmote-cc2538_armgcc/openstack/03b-IPv6/icmpv6rpl.c ****    memcpy(
 588:build/openmote-cc2538_armgcc/openstack/03b-IPv6/icmpv6rpl.c ****       &(icmpv6rpl_vars.dio),
 589:build/openmote-cc2538_armgcc/openstack/03b-IPv6/icmpv6rpl.c ****       (icmpv6rpl_dio_ht*)(msg->payload),
 1519              		.loc 1 589 0
 1520 084e 7B68     		ldr	r3, [r7, #4]
 1521 0850 5A68     		ldr	r2, [r3, #4]
 587:build/openmote-cc2538_armgcc/openstack/03b-IPv6/icmpv6rpl.c ****       &(icmpv6rpl_vars.dio),
 1522              		.loc 1 587 0
 1523 0852 C44B     		ldr	r3, .L123
 1524 0854 0333     		adds	r3, r3, #3
 1525 0856 1068     		ldr	r0, [r2]	@ unaligned
 1526 0858 5168     		ldr	r1, [r2, #4]	@ unaligned
 1527 085a 9568     		ldr	r5, [r2, #8]	@ unaligned
 1528 085c D468     		ldr	r4, [r2, #12]	@ unaligned
 1529 085e 1860     		str	r0, [r3]	@ unaligned
 1530 0860 5960     		str	r1, [r3, #4]	@ unaligned
 1531 0862 9D60     		str	r5, [r3, #8]	@ unaligned
 1532 0864 DC60     		str	r4, [r3, #12]	@ unaligned
 1533 0866 1069     		ldr	r0, [r2, #16]	@ unaligned
 1534 0868 5169     		ldr	r1, [r2, #20]	@ unaligned
 1535 086a 1861     		str	r0, [r3, #16]	@ unaligned
 1536 086c 5961     		str	r1, [r3, #20]	@ unaligned
 590:build/openmote-cc2538_armgcc/openstack/03b-IPv6/icmpv6rpl.c ****       sizeof(icmpv6rpl_dio_ht)
 591:build/openmote-cc2538_armgcc/openstack/03b-IPv6/icmpv6rpl.c ****    );
 592:build/openmote-cc2538_armgcc/openstack/03b-IPv6/icmpv6rpl.c ****    
 593:build/openmote-cc2538_armgcc/openstack/03b-IPv6/icmpv6rpl.c ****    // write DODAGID in DIO and DAO
 594:build/openmote-cc2538_armgcc/openstack/03b-IPv6/icmpv6rpl.c ****    icmpv6rpl_writeDODAGid(&(((icmpv6rpl_dio_ht*)(msg->payload))->DODAGID[0]));
 1537              		.loc 1 594 0
 1538 086e 7B68     		ldr	r3, [r7, #4]
 1539 0870 5B68     		ldr	r3, [r3, #4]
 1540 0872 0833     		adds	r3, r3, #8
 1541 0874 1846     		mov	r0, r3
 1542 0876 FFF7FEFF 		bl	icmpv6rpl_writeDODAGid
 595:build/openmote-cc2538_armgcc/openstack/03b-IPv6/icmpv6rpl.c ****    
 596:build/openmote-cc2538_armgcc/openstack/03b-IPv6/icmpv6rpl.c ****    // save pointer to incoming DIO header in global structure for simplfying debug.
 597:build/openmote-cc2538_armgcc/openstack/03b-IPv6/icmpv6rpl.c ****    icmpv6rpl_vars.incomingDio = (icmpv6rpl_dio_ht*)(msg->payload);
 1543              		.loc 1 597 0
 1544 087a 7B68     		ldr	r3, [r7, #4]
 1545 087c 5B68     		ldr	r3, [r3, #4]
 1546 087e B94A     		ldr	r2, .L123
 1547 0880 C2F88C30 		str	r3, [r2, #140]
 598:build/openmote-cc2538_armgcc/openstack/03b-IPv6/icmpv6rpl.c ****    current = msg->payload + sizeof(icmpv6rpl_dio_ht);
 1548              		.loc 1 598 0
 1549 0884 7B68     		ldr	r3, [r7, #4]
 1550 0886 5B68     		ldr	r3, [r3, #4]
 1551 0888 1833     		adds	r3, r3, #24
 1552 088a BB63     		str	r3, [r7, #56]
 599:build/openmote-cc2538_armgcc/openstack/03b-IPv6/icmpv6rpl.c ****    optionsLen = msg->length - sizeof(icmpv6rpl_dio_ht);
 1553              		.loc 1 599 0
 1554 088c 7B68     		ldr	r3, [r7, #4]
 1555 088e 1B7A     		ldrb	r3, [r3, #8]	@ zero_extendqisi2
 1556 0890 183B     		subs	r3, r3, #24
 1557 0892 87F83730 		strb	r3, [r7, #55]
 600:build/openmote-cc2538_armgcc/openstack/03b-IPv6/icmpv6rpl.c ****    
 601:build/openmote-cc2538_armgcc/openstack/03b-IPv6/icmpv6rpl.c ****    while (optionsLen>0){
 1558              		.loc 1 601 0
 1559 0896 78E0     		b	.L88
 1560              	.L92:
 602:build/openmote-cc2538_armgcc/openstack/03b-IPv6/icmpv6rpl.c ****      switch (current[0]){
 1561              		.loc 1 602 0
 1562 0898 BB6B     		ldr	r3, [r7, #56]
 1563 089a 1B78     		ldrb	r3, [r3]	@ zero_extendqisi2
 1564 089c 042B     		cmp	r3, #4
 1565 089e 02D0     		beq	.L90
 1566 08a0 082B     		cmp	r3, #8
 1567 08a2 23D0     		beq	.L91
 1568 08a4 5FE0     		b	.L111
 1569              	.L90:
 603:build/openmote-cc2538_armgcc/openstack/03b-IPv6/icmpv6rpl.c ****      case RPL_OPTION_CONFIG:
 604:build/openmote-cc2538_armgcc/openstack/03b-IPv6/icmpv6rpl.c ****        // configuration option
 605:build/openmote-cc2538_armgcc/openstack/03b-IPv6/icmpv6rpl.c ****        icmpv6rpl_vars.incomingConf = (icmpv6rpl_config_ht*)(current);
 1570              		.loc 1 605 0
 1571 08a6 AF4A     		ldr	r2, .L123
 1572 08a8 BB6B     		ldr	r3, [r7, #56]
 1573 08aa C2F89430 		str	r3, [r2, #148]
 606:build/openmote-cc2538_armgcc/openstack/03b-IPv6/icmpv6rpl.c ****        memcpy(&icmpv6rpl_vars.conf,icmpv6rpl_vars.incomingConf, sizeof(icmpv6rpl_config_ht));
 1574              		.loc 1 606 0
 1575 08ae AD4B     		ldr	r3, .L123
 1576 08b0 D3F89420 		ldr	r2, [r3, #148]
 1577 08b4 AB4B     		ldr	r3, .L123
 1578 08b6 3B33     		adds	r3, r3, #59
 1579 08b8 1468     		ldr	r4, [r2]	@ unaligned
 1580 08ba 5068     		ldr	r0, [r2, #4]	@ unaligned
 1581 08bc 9168     		ldr	r1, [r2, #8]	@ unaligned
 1582 08be D268     		ldr	r2, [r2, #12]	@ unaligned
 1583 08c0 1C60     		str	r4, [r3]	@ unaligned
 1584 08c2 5860     		str	r0, [r3, #4]	@ unaligned
 1585 08c4 9960     		str	r1, [r3, #8]	@ unaligned
 1586 08c6 DA60     		str	r2, [r3, #12]	@ unaligned
 607:build/openmote-cc2538_armgcc/openstack/03b-IPv6/icmpv6rpl.c ****        // do whatever needs to be done with the configuration option of RPL
 608:build/openmote-cc2538_armgcc/openstack/03b-IPv6/icmpv6rpl.c ****        optionsLen = optionsLen - current[1] - 2;
 1587              		.loc 1 608 0
 1588 08c8 BB6B     		ldr	r3, [r7, #56]
 1589 08ca 0133     		adds	r3, r3, #1
 1590 08cc 1B78     		ldrb	r3, [r3]	@ zero_extendqisi2
 1591 08ce 97F83720 		ldrb	r2, [r7, #55]
 1592 08d2 D31A     		subs	r3, r2, r3
 1593 08d4 DBB2     		uxtb	r3, r3
 1594 08d6 023B     		subs	r3, r3, #2
 1595 08d8 87F83730 		strb	r3, [r7, #55]
 609:build/openmote-cc2538_armgcc/openstack/03b-IPv6/icmpv6rpl.c ****        current = current + current[1] + 2;
 1596              		.loc 1 609 0
 1597 08dc BB6B     		ldr	r3, [r7, #56]
 1598 08de 0133     		adds	r3, r3, #1
 1599 08e0 1B78     		ldrb	r3, [r3]	@ zero_extendqisi2
 1600 08e2 0233     		adds	r3, r3, #2
 1601 08e4 BA6B     		ldr	r2, [r7, #56]
 1602 08e6 1344     		add	r3, r3, r2
 1603 08e8 BB63     		str	r3, [r7, #56]
 610:build/openmote-cc2538_armgcc/openstack/03b-IPv6/icmpv6rpl.c ****        break;
 1604              		.loc 1 610 0
 1605 08ea 4EE0     		b	.L88
 1606              	.L91:
 611:build/openmote-cc2538_armgcc/openstack/03b-IPv6/icmpv6rpl.c ****      case RPL_OPTION_PIO:
 612:build/openmote-cc2538_armgcc/openstack/03b-IPv6/icmpv6rpl.c ****        // pio
 613:build/openmote-cc2538_armgcc/openstack/03b-IPv6/icmpv6rpl.c ****         icmpv6rpl_vars.incomingPio = (icmpv6rpl_pio_t*)(current);
 1607              		.loc 1 613 0
 1608 08ec 9D4A     		ldr	r2, .L123
 1609 08ee BB6B     		ldr	r3, [r7, #56]
 1610 08f0 C2F89030 		str	r3, [r2, #144]
 614:build/openmote-cc2538_armgcc/openstack/03b-IPv6/icmpv6rpl.c ****         // update PIO with the received one.
 615:build/openmote-cc2538_armgcc/openstack/03b-IPv6/icmpv6rpl.c ****         memcpy(&icmpv6rpl_vars.pio,icmpv6rpl_vars.incomingPio, sizeof(icmpv6rpl_pio_t));
 1611              		.loc 1 615 0
 1612 08f4 9B4B     		ldr	r3, .L123
 1613 08f6 D3F89020 		ldr	r2, [r3, #144]
 1614 08fa 9A4B     		ldr	r3, .L123
 1615 08fc 1B33     		adds	r3, r3, #27
 1616 08fe 1568     		ldr	r5, [r2]	@ unaligned
 1617 0900 5468     		ldr	r4, [r2, #4]	@ unaligned
 1618 0902 9068     		ldr	r0, [r2, #8]	@ unaligned
 1619 0904 D168     		ldr	r1, [r2, #12]	@ unaligned
 1620 0906 1D60     		str	r5, [r3]	@ unaligned
 1621 0908 5C60     		str	r4, [r3, #4]	@ unaligned
 1622 090a 9860     		str	r0, [r3, #8]	@ unaligned
 1623 090c D960     		str	r1, [r3, #12]	@ unaligned
 1624 090e 1569     		ldr	r5, [r2, #16]	@ unaligned
 1625 0910 5469     		ldr	r4, [r2, #20]	@ unaligned
 1626 0912 9069     		ldr	r0, [r2, #24]	@ unaligned
 1627 0914 D169     		ldr	r1, [r2, #28]	@ unaligned
 1628 0916 1D61     		str	r5, [r3, #16]	@ unaligned
 1629 0918 5C61     		str	r4, [r3, #20]	@ unaligned
 1630 091a 9861     		str	r0, [r3, #24]	@ unaligned
 1631 091c D961     		str	r1, [r3, #28]	@ unaligned
 616:build/openmote-cc2538_armgcc/openstack/03b-IPv6/icmpv6rpl.c ****         // update my prefix from PIO 
 617:build/openmote-cc2538_armgcc/openstack/03b-IPv6/icmpv6rpl.c ****         // looks like we adopt the prefix from any PIO without a question about this node being our
 618:build/openmote-cc2538_armgcc/openstack/03b-IPv6/icmpv6rpl.c ****         myPrefix.type = ADDR_PREFIX;
 1632              		.loc 1 618 0
 1633 091e 0523     		movs	r3, #5
 1634 0920 3B73     		strb	r3, [r7, #12]
 619:build/openmote-cc2538_armgcc/openstack/03b-IPv6/icmpv6rpl.c ****         memcpy(
 620:build/openmote-cc2538_armgcc/openstack/03b-IPv6/icmpv6rpl.c ****           myPrefix.prefix,
 621:build/openmote-cc2538_armgcc/openstack/03b-IPv6/icmpv6rpl.c ****           icmpv6rpl_vars.incomingPio->prefix,
 1635              		.loc 1 621 0
 1636 0922 904B     		ldr	r3, .L123
 1637 0924 D3F89030 		ldr	r3, [r3, #144]
 1638 0928 03F11002 		add	r2, r3, #16
 619:build/openmote-cc2538_armgcc/openstack/03b-IPv6/icmpv6rpl.c ****         memcpy(
 1639              		.loc 1 619 0
 1640 092c 07F10D03 		add	r3, r7, #13
 1641 0930 1168     		ldr	r1, [r2]	@ unaligned
 1642 0932 5268     		ldr	r2, [r2, #4]	@ unaligned
 1643 0934 1960     		str	r1, [r3]	@ unaligned
 1644 0936 5A60     		str	r2, [r3, #4]	@ unaligned
 622:build/openmote-cc2538_armgcc/openstack/03b-IPv6/icmpv6rpl.c ****           sizeof(myPrefix.prefix)
 623:build/openmote-cc2538_armgcc/openstack/03b-IPv6/icmpv6rpl.c ****         );
 624:build/openmote-cc2538_armgcc/openstack/03b-IPv6/icmpv6rpl.c ****         idmanager_setMyID(&myPrefix);
 1645              		.loc 1 624 0
 1646 0938 07F10C03 		add	r3, r7, #12
 1647 093c 1846     		mov	r0, r3
 1648 093e FFF7FEFF 		bl	idmanager_setMyID
 625:build/openmote-cc2538_armgcc/openstack/03b-IPv6/icmpv6rpl.c ****         optionsLen = optionsLen - current[1] - 2;
 1649              		.loc 1 625 0
 1650 0942 BB6B     		ldr	r3, [r7, #56]
 1651 0944 0133     		adds	r3, r3, #1
 1652 0946 1B78     		ldrb	r3, [r3]	@ zero_extendqisi2
 1653 0948 97F83720 		ldrb	r2, [r7, #55]
 1654 094c D31A     		subs	r3, r2, r3
 1655 094e DBB2     		uxtb	r3, r3
 1656 0950 023B     		subs	r3, r3, #2
 1657 0952 87F83730 		strb	r3, [r7, #55]
 626:build/openmote-cc2538_armgcc/openstack/03b-IPv6/icmpv6rpl.c ****         current = current + current[1] + 2;
 1658              		.loc 1 626 0
 1659 0956 BB6B     		ldr	r3, [r7, #56]
 1660 0958 0133     		adds	r3, r3, #1
 1661 095a 1B78     		ldrb	r3, [r3]	@ zero_extendqisi2
 1662 095c 0233     		adds	r3, r3, #2
 1663 095e BA6B     		ldr	r2, [r7, #56]
 1664 0960 1344     		add	r3, r3, r2
 1665 0962 BB63     		str	r3, [r7, #56]
 627:build/openmote-cc2538_armgcc/openstack/03b-IPv6/icmpv6rpl.c ****        break;
 1666              		.loc 1 627 0
 1667 0964 11E0     		b	.L88
 1668              	.L111:
 628:build/openmote-cc2538_armgcc/openstack/03b-IPv6/icmpv6rpl.c ****      default:
 629:build/openmote-cc2538_armgcc/openstack/03b-IPv6/icmpv6rpl.c ****        //option not supported, just jump the len;
 630:build/openmote-cc2538_armgcc/openstack/03b-IPv6/icmpv6rpl.c ****        optionsLen = optionsLen - current[1] - 2;
 1669              		.loc 1 630 0
 1670 0966 BB6B     		ldr	r3, [r7, #56]
 1671 0968 0133     		adds	r3, r3, #1
 1672 096a 1B78     		ldrb	r3, [r3]	@ zero_extendqisi2
 1673 096c 97F83720 		ldrb	r2, [r7, #55]
 1674 0970 D31A     		subs	r3, r2, r3
 1675 0972 DBB2     		uxtb	r3, r3
 1676 0974 023B     		subs	r3, r3, #2
 1677 0976 87F83730 		strb	r3, [r7, #55]
 631:build/openmote-cc2538_armgcc/openstack/03b-IPv6/icmpv6rpl.c ****        current = current + current[1] + 2;
 1678              		.loc 1 631 0
 1679 097a BB6B     		ldr	r3, [r7, #56]
 1680 097c 0133     		adds	r3, r3, #1
 1681 097e 1B78     		ldrb	r3, [r3]	@ zero_extendqisi2
 1682 0980 0233     		adds	r3, r3, #2
 1683 0982 BA6B     		ldr	r2, [r7, #56]
 1684 0984 1344     		add	r3, r3, r2
 1685 0986 BB63     		str	r3, [r7, #56]
 632:build/openmote-cc2538_armgcc/openstack/03b-IPv6/icmpv6rpl.c ****        break;
 1686              		.loc 1 632 0
 1687 0988 00BF     		nop
 1688              	.L88:
 601:build/openmote-cc2538_armgcc/openstack/03b-IPv6/icmpv6rpl.c ****      switch (current[0]){
 1689              		.loc 1 601 0
 1690 098a 97F83730 		ldrb	r3, [r7, #55]	@ zero_extendqisi2
 1691 098e 002B     		cmp	r3, #0
 1692 0990 82D1     		bne	.L92
 633:build/openmote-cc2538_armgcc/openstack/03b-IPv6/icmpv6rpl.c ****      }
 634:build/openmote-cc2538_armgcc/openstack/03b-IPv6/icmpv6rpl.c ****    }
 635:build/openmote-cc2538_armgcc/openstack/03b-IPv6/icmpv6rpl.c ****    
 636:build/openmote-cc2538_armgcc/openstack/03b-IPv6/icmpv6rpl.c ****    // quick fix: rank is two bytes in network order: need to swap bytes
 637:build/openmote-cc2538_armgcc/openstack/03b-IPv6/icmpv6rpl.c ****    temp_8b            = *(msg->payload+2);
 1693              		.loc 1 637 0
 1694 0992 7B68     		ldr	r3, [r7, #4]
 1695 0994 5B68     		ldr	r3, [r3, #4]
 1696 0996 9B78     		ldrb	r3, [r3, #2]
 1697 0998 87F83630 		strb	r3, [r7, #54]
 638:build/openmote-cc2538_armgcc/openstack/03b-IPv6/icmpv6rpl.c ****    icmpv6rpl_vars.incomingDio->rank = (temp_8b << 8) + *(msg->payload+3);
 1698              		.loc 1 638 0
 1699 099c 714B     		ldr	r3, .L123
 1700 099e D3F88C30 		ldr	r3, [r3, #140]
 1701 09a2 97F83620 		ldrb	r2, [r7, #54]	@ zero_extendqisi2
 1702 09a6 92B2     		uxth	r2, r2
 1703 09a8 1202     		lsls	r2, r2, #8
 1704 09aa 91B2     		uxth	r1, r2
 1705 09ac 7A68     		ldr	r2, [r7, #4]
 1706 09ae 5268     		ldr	r2, [r2, #4]
 1707 09b0 0332     		adds	r2, r2, #3
 1708 09b2 1278     		ldrb	r2, [r2]	@ zero_extendqisi2
 1709 09b4 92B2     		uxth	r2, r2
 1710 09b6 0A44     		add	r2, r2, r1
 1711 09b8 92B2     		uxth	r2, r2
 1712 09ba 5A80     		strh	r2, [r3, #2]	@ unaligned
 639:build/openmote-cc2538_armgcc/openstack/03b-IPv6/icmpv6rpl.c ****    
 640:build/openmote-cc2538_armgcc/openstack/03b-IPv6/icmpv6rpl.c **** 
 641:build/openmote-cc2538_armgcc/openstack/03b-IPv6/icmpv6rpl.c ****    //update rank in DIO as well (which will be overwritten with my rank when send).
 642:build/openmote-cc2538_armgcc/openstack/03b-IPv6/icmpv6rpl.c ****    icmpv6rpl_vars.dio.rank = icmpv6rpl_vars.incomingDio->rank;
 1713              		.loc 1 642 0
 1714 09bc 694B     		ldr	r3, .L123
 1715 09be D3F88C30 		ldr	r3, [r3, #140]
 1716 09c2 5B88     		ldrh	r3, [r3, #2]	@ unaligned
 1717 09c4 9AB2     		uxth	r2, r3
 1718 09c6 674B     		ldr	r3, .L123
 1719 09c8 A3F80520 		strh	r2, [r3, #5]	@ unaligned
 643:build/openmote-cc2538_armgcc/openstack/03b-IPv6/icmpv6rpl.c ****    //printf("====\n");
 644:build/openmote-cc2538_armgcc/openstack/03b-IPv6/icmpv6rpl.c **** 
 645:build/openmote-cc2538_armgcc/openstack/03b-IPv6/icmpv6rpl.c **** //   if (idmanager_getMyID(ADDR_64B)->addr_64b[7] == 0x36){
 646:build/openmote-cc2538_armgcc/openstack/03b-IPv6/icmpv6rpl.c **** //	   leds_debug_toggle();
 647:build/openmote-cc2538_armgcc/openstack/03b-IPv6/icmpv6rpl.c **** //		openserial_printError(
 648:build/openmote-cc2538_armgcc/openstack/03b-IPv6/icmpv6rpl.c **** //				COMPONENT_IPHC,
 649:build/openmote-cc2538_armgcc/openstack/03b-IPv6/icmpv6rpl.c **** //				ERR_6LOWPAN_UNSUPPORTED,
 650:build/openmote-cc2538_armgcc/openstack/03b-IPv6/icmpv6rpl.c **** //				(errorparameter_t)13,
 651:build/openmote-cc2538_armgcc/openstack/03b-IPv6/icmpv6rpl.c **** //				(errorparameter_t)(icmpv6rpl_vars.dio.rank)
 652:build/openmote-cc2538_armgcc/openstack/03b-IPv6/icmpv6rpl.c **** //		);
 653:build/openmote-cc2538_armgcc/openstack/03b-IPv6/icmpv6rpl.c **** ////	   printf("I am NODE %d, DIO received from %d announced rank is  %d \n", idmanager_getMyID(ADD
 654:build/openmote-cc2538_armgcc/openstack/03b-IPv6/icmpv6rpl.c **** ////
 655:build/openmote-cc2538_armgcc/openstack/03b-IPv6/icmpv6rpl.c **** //   }
 656:build/openmote-cc2538_armgcc/openstack/03b-IPv6/icmpv6rpl.c **** 
 657:build/openmote-cc2538_armgcc/openstack/03b-IPv6/icmpv6rpl.c ****    // update rank of that neighbor in table
 658:build/openmote-cc2538_armgcc/openstack/03b-IPv6/icmpv6rpl.c ****    for (i=0;i<MAXNUMNEIGHBORS;i++) {
 1720              		.loc 1 658 0
 1721 09cc 0023     		movs	r3, #0
 1722 09ce 87F83F30 		strb	r3, [r7, #63]
 1723 09d2 F1E0     		b	.L93
 1724              	.L110:
 659:build/openmote-cc2538_armgcc/openstack/03b-IPv6/icmpv6rpl.c ****       if (neighbors_getNeighborEui64(&NeighborAddress, ADDR_64B, i)) { // this neighbor entry is in
 1725              		.loc 1 659 0
 1726 09d4 97F83F20 		ldrb	r2, [r7, #63]	@ zero_extendqisi2
 1727 09d8 07F12003 		add	r3, r7, #32
 1728 09dc 0221     		movs	r1, #2
 1729 09de 1846     		mov	r0, r3
 1730 09e0 FFF7FEFF 		bl	neighbors_getNeighborEui64
 1731 09e4 0346     		mov	r3, r0
 1732 09e6 002B     		cmp	r3, #0
 1733 09e8 00F0E180 		beq	.L94
 660:build/openmote-cc2538_armgcc/openstack/03b-IPv6/icmpv6rpl.c ****          if (packetfunctions_sameAddress(&(msg->l2_nextORpreviousHop),&NeighborAddress)) { // match
 1734              		.loc 1 660 0
 1735 09ec 7B68     		ldr	r3, [r7, #4]
 1736 09ee 3C33     		adds	r3, r3, #60
 1737 09f0 07F12002 		add	r2, r7, #32
 1738 09f4 1146     		mov	r1, r2
 1739 09f6 1846     		mov	r0, r3
 1740 09f8 FFF7FEFF 		bl	packetfunctions_sameAddress
 1741 09fc 0346     		mov	r3, r0
 1742 09fe 002B     		cmp	r3, #0
 1743 0a00 00F0D580 		beq	.L94
 661:build/openmote-cc2538_armgcc/openstack/03b-IPv6/icmpv6rpl.c ****             neighborRank=neighbors_getNeighborRank(i);
 1744              		.loc 1 661 0
 1745 0a04 97F83F30 		ldrb	r3, [r7, #63]	@ zero_extendqisi2
 1746 0a08 1846     		mov	r0, r3
 1747 0a0a FFF7FEFF 		bl	neighbors_getNeighborRank
 1748 0a0e 0346     		mov	r3, r0
 1749 0a10 BB86     		strh	r3, [r7, #52]	@ movhi
 662:build/openmote-cc2538_armgcc/openstack/03b-IPv6/icmpv6rpl.c ****             //printf("====\n");
 663:build/openmote-cc2538_armgcc/openstack/03b-IPv6/icmpv6rpl.c ****             //printf("I am NODE %d, DIO received from %d announced rank is  %d \n", idmanager_getMy
 664:build/openmote-cc2538_armgcc/openstack/03b-IPv6/icmpv6rpl.c **** 
 665:build/openmote-cc2538_armgcc/openstack/03b-IPv6/icmpv6rpl.c ****             //node 2 only will connect with node 1
 666:build/openmote-cc2538_armgcc/openstack/03b-IPv6/icmpv6rpl.c ****             if ((idmanager_getMyID(ADDR_64B)->addr_64b[7] == 0x61) && (NeighborAddress.addr_64b[7] 
 1750              		.loc 1 666 0
 1751 0a12 0220     		movs	r0, #2
 1752 0a14 FFF7FEFF 		bl	idmanager_getMyID
 1753 0a18 0346     		mov	r3, r0
 1754 0a1a 1B7A     		ldrb	r3, [r3, #8]	@ zero_extendqisi2
 1755 0a1c 612B     		cmp	r3, #97
 1756 0a1e 04D1     		bne	.L95
 1757              		.loc 1 666 0 is_stmt 0 discriminator 1
 1758 0a20 97F82830 		ldrb	r3, [r7, #40]	@ zero_extendqisi2
 1759 0a24 6B2B     		cmp	r3, #107
 1760 0a26 40F0CD80 		bne	.L112
 1761              	.L95:
 667:build/openmote-cc2538_armgcc/openstack/03b-IPv6/icmpv6rpl.c ****             	break;
 668:build/openmote-cc2538_armgcc/openstack/03b-IPv6/icmpv6rpl.c ****             }
 669:build/openmote-cc2538_armgcc/openstack/03b-IPv6/icmpv6rpl.c **** 
 670:build/openmote-cc2538_armgcc/openstack/03b-IPv6/icmpv6rpl.c ****             //node 3 only will connect with node 1
 671:build/openmote-cc2538_armgcc/openstack/03b-IPv6/icmpv6rpl.c ****             if ((idmanager_getMyID(ADDR_64B)->addr_64b[7] == 0x2b) && (NeighborAddress.addr_64b[7] 
 1762              		.loc 1 671 0 is_stmt 1
 1763 0a2a 0220     		movs	r0, #2
 1764 0a2c FFF7FEFF 		bl	idmanager_getMyID
 1765 0a30 0346     		mov	r3, r0
 1766 0a32 1B7A     		ldrb	r3, [r3, #8]	@ zero_extendqisi2
 1767 0a34 2B2B     		cmp	r3, #43
 1768 0a36 04D1     		bne	.L97
 1769              		.loc 1 671 0 is_stmt 0 discriminator 1
 1770 0a38 97F82830 		ldrb	r3, [r7, #40]	@ zero_extendqisi2
 1771 0a3c 6B2B     		cmp	r3, #107
 1772 0a3e 40F0C380 		bne	.L113
 1773              	.L97:
 672:build/openmote-cc2538_armgcc/openstack/03b-IPv6/icmpv6rpl.c ****             	break;
 673:build/openmote-cc2538_armgcc/openstack/03b-IPv6/icmpv6rpl.c ****             }
 674:build/openmote-cc2538_armgcc/openstack/03b-IPv6/icmpv6rpl.c **** 
 675:build/openmote-cc2538_armgcc/openstack/03b-IPv6/icmpv6rpl.c **** 
 676:build/openmote-cc2538_armgcc/openstack/03b-IPv6/icmpv6rpl.c ****             //node 4 only will connect with node 2
 677:build/openmote-cc2538_armgcc/openstack/03b-IPv6/icmpv6rpl.c ****             if ((idmanager_getMyID(ADDR_64B)->addr_64b[7] == 0x67) && (NeighborAddress.addr_64b[7] 
 1774              		.loc 1 677 0 is_stmt 1
 1775 0a42 0220     		movs	r0, #2
 1776 0a44 FFF7FEFF 		bl	idmanager_getMyID
 1777 0a48 0346     		mov	r3, r0
 1778 0a4a 1B7A     		ldrb	r3, [r3, #8]	@ zero_extendqisi2
 1779 0a4c 672B     		cmp	r3, #103
 1780 0a4e 04D1     		bne	.L98
 1781              		.loc 1 677 0 is_stmt 0 discriminator 1
 1782 0a50 97F82830 		ldrb	r3, [r7, #40]	@ zero_extendqisi2
 1783 0a54 612B     		cmp	r3, #97
 1784 0a56 40F0B980 		bne	.L114
 1785              	.L98:
 678:build/openmote-cc2538_armgcc/openstack/03b-IPv6/icmpv6rpl.c ****             	break;
 679:build/openmote-cc2538_armgcc/openstack/03b-IPv6/icmpv6rpl.c ****             }
 680:build/openmote-cc2538_armgcc/openstack/03b-IPv6/icmpv6rpl.c **** 
 681:build/openmote-cc2538_armgcc/openstack/03b-IPv6/icmpv6rpl.c ****             //node 5 only will connect with node 3
 682:build/openmote-cc2538_armgcc/openstack/03b-IPv6/icmpv6rpl.c ****             if ((idmanager_getMyID(ADDR_64B)->addr_64b[7] == 0x07) && (NeighborAddress.addr_64b[7] 
 1786              		.loc 1 682 0 is_stmt 1
 1787 0a5a 0220     		movs	r0, #2
 1788 0a5c FFF7FEFF 		bl	idmanager_getMyID
 1789 0a60 0346     		mov	r3, r0
 1790 0a62 1B7A     		ldrb	r3, [r3, #8]	@ zero_extendqisi2
 1791 0a64 072B     		cmp	r3, #7
 1792 0a66 04D1     		bne	.L99
 1793              		.loc 1 682 0 is_stmt 0 discriminator 1
 1794 0a68 97F82830 		ldrb	r3, [r7, #40]	@ zero_extendqisi2
 1795 0a6c 2B2B     		cmp	r3, #43
 1796 0a6e 40F0AF80 		bne	.L115
 1797              	.L99:
 683:build/openmote-cc2538_armgcc/openstack/03b-IPv6/icmpv6rpl.c **** 
 684:build/openmote-cc2538_armgcc/openstack/03b-IPv6/icmpv6rpl.c ****             	break;
 685:build/openmote-cc2538_armgcc/openstack/03b-IPv6/icmpv6rpl.c ****             }
 686:build/openmote-cc2538_armgcc/openstack/03b-IPv6/icmpv6rpl.c **** 
 687:build/openmote-cc2538_armgcc/openstack/03b-IPv6/icmpv6rpl.c ****             //node 6 only will connect with node 4
 688:build/openmote-cc2538_armgcc/openstack/03b-IPv6/icmpv6rpl.c ****             if ((idmanager_getMyID(ADDR_64B)->addr_64b[7] == 0x55) && (NeighborAddress.addr_64b[7] 
 1798              		.loc 1 688 0 is_stmt 1
 1799 0a72 0220     		movs	r0, #2
 1800 0a74 FFF7FEFF 		bl	idmanager_getMyID
 1801 0a78 0346     		mov	r3, r0
 1802 0a7a 1B7A     		ldrb	r3, [r3, #8]	@ zero_extendqisi2
 1803 0a7c 552B     		cmp	r3, #85
 1804 0a7e 04D1     		bne	.L100
 1805              		.loc 1 688 0 is_stmt 0 discriminator 1
 1806 0a80 97F82830 		ldrb	r3, [r7, #40]	@ zero_extendqisi2
 1807 0a84 672B     		cmp	r3, #103
 1808 0a86 40F0A580 		bne	.L116
 1809              	.L100:
 689:build/openmote-cc2538_armgcc/openstack/03b-IPv6/icmpv6rpl.c **** 
 690:build/openmote-cc2538_armgcc/openstack/03b-IPv6/icmpv6rpl.c ****             	break;
 691:build/openmote-cc2538_armgcc/openstack/03b-IPv6/icmpv6rpl.c ****             }
 692:build/openmote-cc2538_armgcc/openstack/03b-IPv6/icmpv6rpl.c **** 
 693:build/openmote-cc2538_armgcc/openstack/03b-IPv6/icmpv6rpl.c ****             //node 7 only will connect with node 5
 694:build/openmote-cc2538_armgcc/openstack/03b-IPv6/icmpv6rpl.c ****             if ((idmanager_getMyID(ADDR_64B)->addr_64b[7] == 0xac) && (NeighborAddress.addr_64b[7] 
 1810              		.loc 1 694 0 is_stmt 1
 1811 0a8a 0220     		movs	r0, #2
 1812 0a8c FFF7FEFF 		bl	idmanager_getMyID
 1813 0a90 0346     		mov	r3, r0
 1814 0a92 1B7A     		ldrb	r3, [r3, #8]	@ zero_extendqisi2
 1815 0a94 AC2B     		cmp	r3, #172
 1816 0a96 04D1     		bne	.L101
 1817              		.loc 1 694 0 is_stmt 0 discriminator 1
 1818 0a98 97F82830 		ldrb	r3, [r7, #40]	@ zero_extendqisi2
 1819 0a9c 072B     		cmp	r3, #7
 1820 0a9e 40F09B80 		bne	.L117
 1821              	.L101:
 695:build/openmote-cc2538_armgcc/openstack/03b-IPv6/icmpv6rpl.c **** 
 696:build/openmote-cc2538_armgcc/openstack/03b-IPv6/icmpv6rpl.c ****             	break;
 697:build/openmote-cc2538_armgcc/openstack/03b-IPv6/icmpv6rpl.c ****             }
 698:build/openmote-cc2538_armgcc/openstack/03b-IPv6/icmpv6rpl.c ****             //node 8 only will connect with node 6 or 7
 699:build/openmote-cc2538_armgcc/openstack/03b-IPv6/icmpv6rpl.c ****             if ((idmanager_getMyID(ADDR_64B)->addr_64b[7] == 0x36) && (NeighborAddress.addr_64b[7] 
 1822              		.loc 1 699 0 is_stmt 1
 1823 0aa2 0220     		movs	r0, #2
 1824 0aa4 FFF7FEFF 		bl	idmanager_getMyID
 1825 0aa8 0346     		mov	r3, r0
 1826 0aaa 1B7A     		ldrb	r3, [r3, #8]	@ zero_extendqisi2
 1827 0aac 362B     		cmp	r3, #54
 1828 0aae 04D1     		bne	.L102
 1829              		.loc 1 699 0 is_stmt 0 discriminator 1
 1830 0ab0 97F82830 		ldrb	r3, [r7, #40]	@ zero_extendqisi2
 1831 0ab4 6B2B     		cmp	r3, #107
 1832 0ab6 00F09180 		beq	.L118
 1833              	.L102:
 700:build/openmote-cc2538_armgcc/openstack/03b-IPv6/icmpv6rpl.c **** 
 701:build/openmote-cc2538_armgcc/openstack/03b-IPv6/icmpv6rpl.c ****             	break;
 702:build/openmote-cc2538_armgcc/openstack/03b-IPv6/icmpv6rpl.c ****             }
 703:build/openmote-cc2538_armgcc/openstack/03b-IPv6/icmpv6rpl.c ****             if ((idmanager_getMyID(ADDR_64B)->addr_64b[7] == 0x36) && (NeighborAddress.addr_64b[7] 
 1834              		.loc 1 703 0 is_stmt 1
 1835 0aba 0220     		movs	r0, #2
 1836 0abc FFF7FEFF 		bl	idmanager_getMyID
 1837 0ac0 0346     		mov	r3, r0
 1838 0ac2 1B7A     		ldrb	r3, [r3, #8]	@ zero_extendqisi2
 1839 0ac4 362B     		cmp	r3, #54
 1840 0ac6 04D1     		bne	.L103
 1841              		.loc 1 703 0 is_stmt 0 discriminator 1
 1842 0ac8 97F82830 		ldrb	r3, [r7, #40]	@ zero_extendqisi2
 1843 0acc 612B     		cmp	r3, #97
 1844 0ace 00F08780 		beq	.L119
 1845              	.L103:
 704:build/openmote-cc2538_armgcc/openstack/03b-IPv6/icmpv6rpl.c **** 
 705:build/openmote-cc2538_armgcc/openstack/03b-IPv6/icmpv6rpl.c ****             	break;
 706:build/openmote-cc2538_armgcc/openstack/03b-IPv6/icmpv6rpl.c ****             }
 707:build/openmote-cc2538_armgcc/openstack/03b-IPv6/icmpv6rpl.c ****             if ((idmanager_getMyID(ADDR_64B)->addr_64b[7] == 0x36) && (NeighborAddress.addr_64b[7] 
 1846              		.loc 1 707 0 is_stmt 1
 1847 0ad2 0220     		movs	r0, #2
 1848 0ad4 FFF7FEFF 		bl	idmanager_getMyID
 1849 0ad8 0346     		mov	r3, r0
 1850 0ada 1B7A     		ldrb	r3, [r3, #8]	@ zero_extendqisi2
 1851 0adc 362B     		cmp	r3, #54
 1852 0ade 03D1     		bne	.L104
 1853              		.loc 1 707 0 is_stmt 0 discriminator 1
 1854 0ae0 97F82830 		ldrb	r3, [r7, #40]	@ zero_extendqisi2
 1855 0ae4 2B2B     		cmp	r3, #43
 1856 0ae6 7DD0     		beq	.L120
 1857              	.L104:
 708:build/openmote-cc2538_armgcc/openstack/03b-IPv6/icmpv6rpl.c **** 
 709:build/openmote-cc2538_armgcc/openstack/03b-IPv6/icmpv6rpl.c ****             	break;
 710:build/openmote-cc2538_armgcc/openstack/03b-IPv6/icmpv6rpl.c ****             }
 711:build/openmote-cc2538_armgcc/openstack/03b-IPv6/icmpv6rpl.c ****             if ((idmanager_getMyID(ADDR_64B)->addr_64b[7] == 0x36) && (NeighborAddress.addr_64b[7] 
 1858              		.loc 1 711 0 is_stmt 1
 1859 0ae8 0220     		movs	r0, #2
 1860 0aea FFF7FEFF 		bl	idmanager_getMyID
 1861 0aee 0346     		mov	r3, r0
 1862 0af0 1B7A     		ldrb	r3, [r3, #8]	@ zero_extendqisi2
 1863 0af2 362B     		cmp	r3, #54
 1864 0af4 03D1     		bne	.L105
 1865              		.loc 1 711 0 is_stmt 0 discriminator 1
 1866 0af6 97F82830 		ldrb	r3, [r7, #40]	@ zero_extendqisi2
 1867 0afa 672B     		cmp	r3, #103
 1868 0afc 74D0     		beq	.L121
 1869              	.L105:
 712:build/openmote-cc2538_armgcc/openstack/03b-IPv6/icmpv6rpl.c **** 
 713:build/openmote-cc2538_armgcc/openstack/03b-IPv6/icmpv6rpl.c ****             	break;
 714:build/openmote-cc2538_armgcc/openstack/03b-IPv6/icmpv6rpl.c ****             }
 715:build/openmote-cc2538_armgcc/openstack/03b-IPv6/icmpv6rpl.c ****             if ((idmanager_getMyID(ADDR_64B)->addr_64b[7] == 0x36) && (NeighborAddress.addr_64b[7] 
 1870              		.loc 1 715 0 is_stmt 1
 1871 0afe 0220     		movs	r0, #2
 1872 0b00 FFF7FEFF 		bl	idmanager_getMyID
 1873 0b04 0346     		mov	r3, r0
 1874 0b06 1B7A     		ldrb	r3, [r3, #8]	@ zero_extendqisi2
 1875 0b08 362B     		cmp	r3, #54
 1876 0b0a 03D1     		bne	.L106
 1877              		.loc 1 715 0 is_stmt 0 discriminator 1
 1878 0b0c 97F82830 		ldrb	r3, [r7, #40]	@ zero_extendqisi2
 1879 0b10 072B     		cmp	r3, #7
 1880 0b12 6BD0     		beq	.L122
 1881              	.L106:
 716:build/openmote-cc2538_armgcc/openstack/03b-IPv6/icmpv6rpl.c **** 
 717:build/openmote-cc2538_armgcc/openstack/03b-IPv6/icmpv6rpl.c ****             	break;
 718:build/openmote-cc2538_armgcc/openstack/03b-IPv6/icmpv6rpl.c ****             }
 719:build/openmote-cc2538_armgcc/openstack/03b-IPv6/icmpv6rpl.c **** 
 720:build/openmote-cc2538_armgcc/openstack/03b-IPv6/icmpv6rpl.c **** 
 721:build/openmote-cc2538_armgcc/openstack/03b-IPv6/icmpv6rpl.c **** 
 722:build/openmote-cc2538_armgcc/openstack/03b-IPv6/icmpv6rpl.c **** 
 723:build/openmote-cc2538_armgcc/openstack/03b-IPv6/icmpv6rpl.c ****             if (
 724:build/openmote-cc2538_armgcc/openstack/03b-IPv6/icmpv6rpl.c ****               (icmpv6rpl_vars.incomingDio->rank > neighborRank) &&
 1882              		.loc 1 724 0 is_stmt 1
 1883 0b14 134B     		ldr	r3, .L123
 1884 0b16 D3F88C30 		ldr	r3, [r3, #140]
 1885 0b1a 5B88     		ldrh	r3, [r3, #2]	@ unaligned
 1886 0b1c 9BB2     		uxth	r3, r3
 723:build/openmote-cc2538_armgcc/openstack/03b-IPv6/icmpv6rpl.c ****               (icmpv6rpl_vars.incomingDio->rank > neighborRank) &&
 1887              		.loc 1 723 0
 1888 0b1e BA8E     		ldrh	r2, [r7, #52]
 1889 0b20 9A42     		cmp	r2, r3
 1890 0b22 21D2     		bcs	.L107
 725:build/openmote-cc2538_armgcc/openstack/03b-IPv6/icmpv6rpl.c ****               (icmpv6rpl_vars.incomingDio->rank - neighborRank) > ((3*DEFAULTLINKCOST-2)*MINHOPRANK
 1891              		.loc 1 725 0
 1892 0b24 0F4B     		ldr	r3, .L123
 1893 0b26 D3F88C30 		ldr	r3, [r3, #140]
 1894 0b2a 5B88     		ldrh	r3, [r3, #2]	@ unaligned
 1895 0b2c 9BB2     		uxth	r3, r3
 1896 0b2e 1A46     		mov	r2, r3
 1897 0b30 BB8E     		ldrh	r3, [r7, #52]
 1898 0b32 D31A     		subs	r3, r2, r3
 724:build/openmote-cc2538_armgcc/openstack/03b-IPv6/icmpv6rpl.c ****               (icmpv6rpl_vars.incomingDio->rank - neighborRank) > ((3*DEFAULTLINKCOST-2)*MINHOPRANK
 1899              		.loc 1 724 0
 1900 0b34 B3F5206F 		cmp	r3, #2560
 1901 0b38 16DD     		ble	.L107
 726:build/openmote-cc2538_armgcc/openstack/03b-IPv6/icmpv6rpl.c ****             ) {
 727:build/openmote-cc2538_armgcc/openstack/03b-IPv6/icmpv6rpl.c ****                // the new DAGrank looks suspiciously high, only increment a bit
 728:build/openmote-cc2538_armgcc/openstack/03b-IPv6/icmpv6rpl.c ****                neighbors_setNeighborRank(i,neighborRank + ((3*DEFAULTLINKCOST-2)*2*MINHOPRANKINCREA
 1902              		.loc 1 728 0
 1903 0b3a BB8E     		ldrh	r3, [r7, #52]	@ movhi
 1904 0b3c 03F5A053 		add	r3, r3, #5120
 1905 0b40 9AB2     		uxth	r2, r3
 1906 0b42 97F83F30 		ldrb	r3, [r7, #63]	@ zero_extendqisi2
 1907 0b46 1146     		mov	r1, r2
 1908 0b48 1846     		mov	r0, r3
 1909 0b4a FFF7FEFF 		bl	neighbors_setNeighborRank
 729:build/openmote-cc2538_armgcc/openstack/03b-IPv6/icmpv6rpl.c ****                openserial_printError(COMPONENT_NEIGHBORS,ERR_LARGE_DAGRANK,
 730:build/openmote-cc2538_armgcc/openstack/03b-IPv6/icmpv6rpl.c ****                                (errorparameter_t)icmpv6rpl_vars.incomingDio->rank,
 1910              		.loc 1 730 0
 1911 0b4e 054B     		ldr	r3, .L123
 1912 0b50 D3F88C30 		ldr	r3, [r3, #140]
 1913 0b54 5B88     		ldrh	r3, [r3, #2]	@ unaligned
 1914 0b56 9AB2     		uxth	r2, r3
 729:build/openmote-cc2538_armgcc/openstack/03b-IPv6/icmpv6rpl.c ****                openserial_printError(COMPONENT_NEIGHBORS,ERR_LARGE_DAGRANK,
 1915              		.loc 1 729 0
 1916 0b58 BB8E     		ldrh	r3, [r7, #52]
 1917 0b5a 1021     		movs	r1, #16
 1918 0b5c 0D20     		movs	r0, #13
 1919 0b5e FFF7FEFF 		bl	openserial_printError
 1920 0b62 21E0     		b	.L108
 1921              	.L124:
 1922              		.align	2
 1923              	.L123:
 1924 0b64 00000000 		.word	icmpv6rpl_vars
 1925              	.L107:
 731:build/openmote-cc2538_armgcc/openstack/03b-IPv6/icmpv6rpl.c ****                                (errorparameter_t)neighborRank);
 732:build/openmote-cc2538_armgcc/openstack/03b-IPv6/icmpv6rpl.c ****             } else {
 733:build/openmote-cc2538_armgcc/openstack/03b-IPv6/icmpv6rpl.c **** 
 734:build/openmote-cc2538_armgcc/openstack/03b-IPv6/icmpv6rpl.c **** 
 735:build/openmote-cc2538_armgcc/openstack/03b-IPv6/icmpv6rpl.c ****                 if (idmanager_getMyID(ADDR_64B)->addr_64b[7] == 0x36){
 1926              		.loc 1 735 0
 1927 0b68 0220     		movs	r0, #2
 1928 0b6a FFF7FEFF 		bl	idmanager_getMyID
 1929 0b6e 0346     		mov	r3, r0
 1930 0b70 1B7A     		ldrb	r3, [r3, #8]	@ zero_extendqisi2
 1931 0b72 362B     		cmp	r3, #54
 1932 0b74 0DD1     		bne	.L109
 1933              	.LBB3:
 736:build/openmote-cc2538_armgcc/openstack/03b-IPv6/icmpv6rpl.c ****              	   leds_debug_toggle();
 1934              		.loc 1 736 0
 1935 0b76 FFF7FEFF 		bl	leds_debug_toggle
 737:build/openmote-cc2538_armgcc/openstack/03b-IPv6/icmpv6rpl.c ****              		openserial_printError(
 738:build/openmote-cc2538_armgcc/openstack/03b-IPv6/icmpv6rpl.c ****              				COMPONENT_IPHC,
 739:build/openmote-cc2538_armgcc/openstack/03b-IPv6/icmpv6rpl.c ****              				ERR_6LOWPAN_UNSUPPORTED,
 740:build/openmote-cc2538_armgcc/openstack/03b-IPv6/icmpv6rpl.c ****              				(errorparameter_t)msg->l2_nextORpreviousHop.addr_64b[7],
 1936              		.loc 1 740 0
 1937 0b7a 7B68     		ldr	r3, [r7, #4]
 1938 0b7c 93F84430 		ldrb	r3, [r3, #68]	@ zero_extendqisi2
 737:build/openmote-cc2538_armgcc/openstack/03b-IPv6/icmpv6rpl.c ****              		openserial_printError(
 1939              		.loc 1 737 0
 1940 0b80 9AB2     		uxth	r2, r3
 741:build/openmote-cc2538_armgcc/openstack/03b-IPv6/icmpv6rpl.c ****              				(errorparameter_t)(icmpv6rpl_vars.dio.rank)
 1941              		.loc 1 741 0
 1942 0b82 1D4B     		ldr	r3, .L125
 1943 0b84 B3F80530 		ldrh	r3, [r3, #5]	@ unaligned
 1944 0b88 9BB2     		uxth	r3, r3
 737:build/openmote-cc2538_armgcc/openstack/03b-IPv6/icmpv6rpl.c ****              		openserial_printError(
 1945              		.loc 1 737 0
 1946 0b8a 0C21     		movs	r1, #12
 1947 0b8c 1220     		movs	r0, #18
 1948 0b8e FFF7FEFF 		bl	openserial_printError
 1949              	.L109:
 1950              	.LBE3:
 742:build/openmote-cc2538_armgcc/openstack/03b-IPv6/icmpv6rpl.c ****              		);
 743:build/openmote-cc2538_armgcc/openstack/03b-IPv6/icmpv6rpl.c ****                 }
 744:build/openmote-cc2538_armgcc/openstack/03b-IPv6/icmpv6rpl.c ****                //printf("I am NODE %d, DIO received from %d its rank entry was %d \n", idmanager_ge
 745:build/openmote-cc2538_armgcc/openstack/03b-IPv6/icmpv6rpl.c ****                neighbors_setNeighborRank(i,icmpv6rpl_vars.incomingDio->rank);
 1951              		.loc 1 745 0
 1952 0b92 194B     		ldr	r3, .L125
 1953 0b94 D3F88C30 		ldr	r3, [r3, #140]
 1954 0b98 5B88     		ldrh	r3, [r3, #2]	@ unaligned
 1955 0b9a 9AB2     		uxth	r2, r3
 1956 0b9c 97F83F30 		ldrb	r3, [r7, #63]	@ zero_extendqisi2
 1957 0ba0 1146     		mov	r1, r2
 1958 0ba2 1846     		mov	r0, r3
 1959 0ba4 FFF7FEFF 		bl	neighbors_setNeighborRank
 1960              	.L108:
 746:build/openmote-cc2538_armgcc/openstack/03b-IPv6/icmpv6rpl.c ****                //printf("I am NODE %d, Rank entry updated for %d its rank is now %d \n", idmanager_
 747:build/openmote-cc2538_armgcc/openstack/03b-IPv6/icmpv6rpl.c **** 
 748:build/openmote-cc2538_armgcc/openstack/03b-IPv6/icmpv6rpl.c ****             }
 749:build/openmote-cc2538_armgcc/openstack/03b-IPv6/icmpv6rpl.c ****             // since changes were made to neighbors DAG rank, run the routing algorithm again
 750:build/openmote-cc2538_armgcc/openstack/03b-IPv6/icmpv6rpl.c ****             icmpv6rpl_updateMyDAGrankAndParentSelection(); 
 1961              		.loc 1 750 0
 1962 0ba8 FFF7FEFF 		bl	icmpv6rpl_updateMyDAGrankAndParentSelection
 751:build/openmote-cc2538_armgcc/openstack/03b-IPv6/icmpv6rpl.c ****             break; // there should be only one matching entry, no need to loop further
 1963              		.loc 1 751 0
 1964 0bac 1FE0     		b	.L96
 1965              	.L94:
 658:build/openmote-cc2538_armgcc/openstack/03b-IPv6/icmpv6rpl.c ****       if (neighbors_getNeighborEui64(&NeighborAddress, ADDR_64B, i)) { // this neighbor entry is in
 1966              		.loc 1 658 0 discriminator 2
 1967 0bae 97F83F30 		ldrb	r3, [r7, #63]	@ zero_extendqisi2
 1968 0bb2 0133     		adds	r3, r3, #1
 1969 0bb4 87F83F30 		strb	r3, [r7, #63]
 1970              	.L93:
 658:build/openmote-cc2538_armgcc/openstack/03b-IPv6/icmpv6rpl.c ****       if (neighbors_getNeighborEui64(&NeighborAddress, ADDR_64B, i)) { // this neighbor entry is in
 1971              		.loc 1 658 0 is_stmt 0 discriminator 1
 1972 0bb8 97F83F30 		ldrb	r3, [r7, #63]	@ zero_extendqisi2
 1973 0bbc 1D2B     		cmp	r3, #29
 1974 0bbe 7FF609AF 		bls	.L110
 752:build/openmote-cc2538_armgcc/openstack/03b-IPv6/icmpv6rpl.c ****          }
 753:build/openmote-cc2538_armgcc/openstack/03b-IPv6/icmpv6rpl.c ****       }
 754:build/openmote-cc2538_armgcc/openstack/03b-IPv6/icmpv6rpl.c ****    } 
 755:build/openmote-cc2538_armgcc/openstack/03b-IPv6/icmpv6rpl.c **** }
 1975              		.loc 1 755 0 is_stmt 1
 1976 0bc2 14E0     		b	.L96
 1977              	.L112:
 667:build/openmote-cc2538_armgcc/openstack/03b-IPv6/icmpv6rpl.c ****             }
 1978              		.loc 1 667 0
 1979 0bc4 00BF     		nop
 1980 0bc6 12E0     		b	.L96
 1981              	.L113:
 672:build/openmote-cc2538_armgcc/openstack/03b-IPv6/icmpv6rpl.c ****             }
 1982              		.loc 1 672 0
 1983 0bc8 00BF     		nop
 1984 0bca 10E0     		b	.L96
 1985              	.L114:
 678:build/openmote-cc2538_armgcc/openstack/03b-IPv6/icmpv6rpl.c ****             }
 1986              		.loc 1 678 0
 1987 0bcc 00BF     		nop
 1988 0bce 0EE0     		b	.L96
 1989              	.L115:
 684:build/openmote-cc2538_armgcc/openstack/03b-IPv6/icmpv6rpl.c ****             }
 1990              		.loc 1 684 0
 1991 0bd0 00BF     		nop
 1992 0bd2 0CE0     		b	.L96
 1993              	.L116:
 690:build/openmote-cc2538_armgcc/openstack/03b-IPv6/icmpv6rpl.c ****             }
 1994              		.loc 1 690 0
 1995 0bd4 00BF     		nop
 1996 0bd6 0AE0     		b	.L96
 1997              	.L117:
 696:build/openmote-cc2538_armgcc/openstack/03b-IPv6/icmpv6rpl.c ****             }
 1998              		.loc 1 696 0
 1999 0bd8 00BF     		nop
 2000 0bda 08E0     		b	.L96
 2001              	.L118:
 701:build/openmote-cc2538_armgcc/openstack/03b-IPv6/icmpv6rpl.c ****             }
 2002              		.loc 1 701 0
 2003 0bdc 00BF     		nop
 2004 0bde 06E0     		b	.L96
 2005              	.L119:
 705:build/openmote-cc2538_armgcc/openstack/03b-IPv6/icmpv6rpl.c ****             }
 2006              		.loc 1 705 0
 2007 0be0 00BF     		nop
 2008 0be2 04E0     		b	.L96
 2009              	.L120:
 709:build/openmote-cc2538_armgcc/openstack/03b-IPv6/icmpv6rpl.c ****             }
 2010              		.loc 1 709 0
 2011 0be4 00BF     		nop
 2012 0be6 02E0     		b	.L96
 2013              	.L121:
 713:build/openmote-cc2538_armgcc/openstack/03b-IPv6/icmpv6rpl.c ****             }
 2014              		.loc 1 713 0
 2015 0be8 00BF     		nop
 2016 0bea 00E0     		b	.L96
 2017              	.L122:
 717:build/openmote-cc2538_armgcc/openstack/03b-IPv6/icmpv6rpl.c ****             }
 2018              		.loc 1 717 0
 2019 0bec 00BF     		nop
 2020              	.L96:
 2021              		.loc 1 755 0 discriminator 1
 2022 0bee 00BF     		nop
 2023 0bf0 4037     		adds	r7, r7, #64
 2024              		.cfi_def_cfa_offset 16
 2025 0bf2 BD46     		mov	sp, r7
 2026              		.cfi_def_cfa_register 13
 2027              		@ sp needed
 2028 0bf4 B0BD     		pop	{r4, r5, r7, pc}
 2029              	.L126:
 2030 0bf6 00BF     		.align	2
 2031              	.L125:
 2032 0bf8 00000000 		.word	icmpv6rpl_vars
 2033              		.cfi_endproc
 2034              	.LFE12:
 2036              		.align	2
 2037              		.global	icmpv6rpl_killPreferredParent
 2038              		.thumb
 2039              		.thumb_func
 2041              	icmpv6rpl_killPreferredParent:
 2042              	.LFB13:
 756:build/openmote-cc2538_armgcc/openstack/03b-IPv6/icmpv6rpl.c **** 
 757:build/openmote-cc2538_armgcc/openstack/03b-IPv6/icmpv6rpl.c **** void icmpv6rpl_killPreferredParent() {
 2043              		.loc 1 757 0
 2044              		.cfi_startproc
 2045              		@ args = 0, pretend = 0, frame = 0
 2046              		@ frame_needed = 1, uses_anonymous_args = 0
 2047 0bfc 80B5     		push	{r7, lr}
 2048              		.cfi_def_cfa_offset 8
 2049              		.cfi_offset 7, -8
 2050              		.cfi_offset 14, -4
 2051 0bfe 00AF     		add	r7, sp, #0
 2052              		.cfi_def_cfa_register 7
 758:build/openmote-cc2538_armgcc/openstack/03b-IPv6/icmpv6rpl.c ****     icmpv6rpl_vars.haveParent=FALSE;
 2053              		.loc 1 758 0
 2054 0c00 0A4B     		ldr	r3, .L131
 2055 0c02 0022     		movs	r2, #0
 2056 0c04 83F88A20 		strb	r2, [r3, #138]
 759:build/openmote-cc2538_armgcc/openstack/03b-IPv6/icmpv6rpl.c ****     if (idmanager_getIsDAGroot()==TRUE) {
 2057              		.loc 1 759 0
 2058 0c08 FFF7FEFF 		bl	idmanager_getIsDAGroot
 2059 0c0c 0346     		mov	r3, r0
 2060 0c0e 002B     		cmp	r3, #0
 2061 0c10 05D0     		beq	.L128
 760:build/openmote-cc2538_armgcc/openstack/03b-IPv6/icmpv6rpl.c ****        icmpv6rpl_vars.myDAGrank=MINHOPRANKINCREASE;
 2062              		.loc 1 760 0
 2063 0c12 064B     		ldr	r3, .L131
 2064 0c14 4FF48072 		mov	r2, #256
 2065 0c18 A3F88620 		strh	r2, [r3, #134]	@ movhi
 761:build/openmote-cc2538_armgcc/openstack/03b-IPv6/icmpv6rpl.c ****     } else {
 762:build/openmote-cc2538_armgcc/openstack/03b-IPv6/icmpv6rpl.c ****        icmpv6rpl_vars.myDAGrank=DEFAULTDAGRANK;
 763:build/openmote-cc2538_armgcc/openstack/03b-IPv6/icmpv6rpl.c ****     }
 764:build/openmote-cc2538_armgcc/openstack/03b-IPv6/icmpv6rpl.c **** }
 2066              		.loc 1 764 0
 2067 0c1c 04E0     		b	.L130
 2068              	.L128:
 762:build/openmote-cc2538_armgcc/openstack/03b-IPv6/icmpv6rpl.c ****     }
 2069              		.loc 1 762 0
 2070 0c1e 034B     		ldr	r3, .L131
 2071 0c20 4FF6FF72 		movw	r2, #65535
 2072 0c24 A3F88620 		strh	r2, [r3, #134]	@ movhi
 2073              	.L130:
 2074              		.loc 1 764 0
 2075 0c28 00BF     		nop
 2076 0c2a 80BD     		pop	{r7, pc}
 2077              	.L132:
 2078              		.align	2
 2079              	.L131:
 2080 0c2c 00000000 		.word	icmpv6rpl_vars
 2081              		.cfi_endproc
 2082              	.LFE13:
 2084              		.align	2
 2085              		.global	icmpv6rpl_timer_DIO_cb
 2086              		.thumb
 2087              		.thumb_func
 2089              	icmpv6rpl_timer_DIO_cb:
 2090              	.LFB14:
 765:build/openmote-cc2538_armgcc/openstack/03b-IPv6/icmpv6rpl.c **** 
 766:build/openmote-cc2538_armgcc/openstack/03b-IPv6/icmpv6rpl.c **** //=========================== private =========================================
 767:build/openmote-cc2538_armgcc/openstack/03b-IPv6/icmpv6rpl.c **** 
 768:build/openmote-cc2538_armgcc/openstack/03b-IPv6/icmpv6rpl.c **** //===== DIO-related
 769:build/openmote-cc2538_armgcc/openstack/03b-IPv6/icmpv6rpl.c **** 
 770:build/openmote-cc2538_armgcc/openstack/03b-IPv6/icmpv6rpl.c **** /**
 771:build/openmote-cc2538_armgcc/openstack/03b-IPv6/icmpv6rpl.c **** \brief DIO timer callback function.
 772:build/openmote-cc2538_armgcc/openstack/03b-IPv6/icmpv6rpl.c **** 
 773:build/openmote-cc2538_armgcc/openstack/03b-IPv6/icmpv6rpl.c **** \note This function is executed in interrupt context, and should only push a 
 774:build/openmote-cc2538_armgcc/openstack/03b-IPv6/icmpv6rpl.c ****    task.
 775:build/openmote-cc2538_armgcc/openstack/03b-IPv6/icmpv6rpl.c **** */
 776:build/openmote-cc2538_armgcc/openstack/03b-IPv6/icmpv6rpl.c **** void icmpv6rpl_timer_DIO_cb(opentimers_id_t id) {
 2091              		.loc 1 776 0
 2092              		.cfi_startproc
 2093              		@ args = 0, pretend = 0, frame = 8
 2094              		@ frame_needed = 1, uses_anonymous_args = 0
 2095 0c30 90B5     		push	{r4, r7, lr}
 2096              		.cfi_def_cfa_offset 12
 2097              		.cfi_offset 4, -12
 2098              		.cfi_offset 7, -8
 2099              		.cfi_offset 14, -4
 2100 0c32 85B0     		sub	sp, sp, #20
 2101              		.cfi_def_cfa_offset 32
 2102 0c34 02AF     		add	r7, sp, #8
 2103              		.cfi_def_cfa 7, 24
 2104 0c36 0346     		mov	r3, r0
 2105 0c38 FB71     		strb	r3, [r7, #7]
 777:build/openmote-cc2538_armgcc/openstack/03b-IPv6/icmpv6rpl.c ****     scheduler_push_task(icmpv6rpl_timer_DIO_task,TASKPRIO_RPL);
 2106              		.loc 1 777 0
 2107 0c3a 0421     		movs	r1, #4
 2108 0c3c 0B48     		ldr	r0, .L134
 2109 0c3e FFF7FEFF 		bl	scheduler_push_task
 778:build/openmote-cc2538_armgcc/openstack/03b-IPv6/icmpv6rpl.c ****     // update the period
 779:build/openmote-cc2538_armgcc/openstack/03b-IPv6/icmpv6rpl.c ****     opentimers_scheduleIn(
 2110              		.loc 1 779 0
 2111 0c42 0B4B     		ldr	r3, .L134+4
 2112 0c44 93F85E40 		ldrb	r4, [r3, #94]	@ zero_extendqisi2
 780:build/openmote-cc2538_armgcc/openstack/03b-IPv6/icmpv6rpl.c ****         icmpv6rpl_vars.timerIdDIO,
 781:build/openmote-cc2538_armgcc/openstack/03b-IPv6/icmpv6rpl.c ****         872 +(openrandom_get16b()&0xff),
 2113              		.loc 1 781 0
 2114 0c48 FFF7FEFF 		bl	openrandom_get16b
 2115 0c4c 0346     		mov	r3, r0
 2116 0c4e DBB2     		uxtb	r3, r3
 2117 0c50 03F55A73 		add	r3, r3, #872
 779:build/openmote-cc2538_armgcc/openstack/03b-IPv6/icmpv6rpl.c ****         icmpv6rpl_vars.timerIdDIO,
 2118              		.loc 1 779 0
 2119 0c54 1946     		mov	r1, r3
 2120 0c56 074B     		ldr	r3, .L134+8
 2121 0c58 0093     		str	r3, [sp]
 2122 0c5a 0123     		movs	r3, #1
 2123 0c5c 0022     		movs	r2, #0
 2124 0c5e 2046     		mov	r0, r4
 2125 0c60 FFF7FEFF 		bl	opentimers_scheduleIn
 782:build/openmote-cc2538_armgcc/openstack/03b-IPv6/icmpv6rpl.c ****         TIME_MS,
 783:build/openmote-cc2538_armgcc/openstack/03b-IPv6/icmpv6rpl.c ****         TIMER_ONESHOT,
 784:build/openmote-cc2538_armgcc/openstack/03b-IPv6/icmpv6rpl.c ****        icmpv6rpl_timer_DIO_cb
 785:build/openmote-cc2538_armgcc/openstack/03b-IPv6/icmpv6rpl.c ****     );
 786:build/openmote-cc2538_armgcc/openstack/03b-IPv6/icmpv6rpl.c **** }
 2126              		.loc 1 786 0
 2127 0c64 00BF     		nop
 2128 0c66 0C37     		adds	r7, r7, #12
 2129              		.cfi_def_cfa_offset 12
 2130 0c68 BD46     		mov	sp, r7
 2131              		.cfi_def_cfa_register 13
 2132              		@ sp needed
 2133 0c6a 90BD     		pop	{r4, r7, pc}
 2134              	.L135:
 2135              		.align	2
 2136              	.L134:
 2137 0c6c 00000000 		.word	icmpv6rpl_timer_DIO_task
 2138 0c70 00000000 		.word	icmpv6rpl_vars
 2139 0c74 00000000 		.word	icmpv6rpl_timer_DIO_cb
 2140              		.cfi_endproc
 2141              	.LFE14:
 2143              		.align	2
 2144              		.global	icmpv6rpl_timer_DIO_task
 2145              		.thumb
 2146              		.thumb_func
 2148              	icmpv6rpl_timer_DIO_task:
 2149              	.LFB15:
 787:build/openmote-cc2538_armgcc/openstack/03b-IPv6/icmpv6rpl.c **** 
 788:build/openmote-cc2538_armgcc/openstack/03b-IPv6/icmpv6rpl.c **** /**
 789:build/openmote-cc2538_armgcc/openstack/03b-IPv6/icmpv6rpl.c **** \brief Handler for DIO timer event.
 790:build/openmote-cc2538_armgcc/openstack/03b-IPv6/icmpv6rpl.c **** 
 791:build/openmote-cc2538_armgcc/openstack/03b-IPv6/icmpv6rpl.c **** \note This function is executed in task context, called by the scheduler.
 792:build/openmote-cc2538_armgcc/openstack/03b-IPv6/icmpv6rpl.c **** */
 793:build/openmote-cc2538_armgcc/openstack/03b-IPv6/icmpv6rpl.c **** void icmpv6rpl_timer_DIO_task() {
 2150              		.loc 1 793 0
 2151              		.cfi_startproc
 2152              		@ args = 0, pretend = 0, frame = 8
 2153              		@ frame_needed = 1, uses_anonymous_args = 0
 2154 0c78 80B5     		push	{r7, lr}
 2155              		.cfi_def_cfa_offset 8
 2156              		.cfi_offset 7, -8
 2157              		.cfi_offset 14, -4
 2158 0c7a 82B0     		sub	sp, sp, #8
 2159              		.cfi_def_cfa_offset 16
 2160 0c7c 00AF     		add	r7, sp, #0
 2161              		.cfi_def_cfa_register 7
 794:build/openmote-cc2538_armgcc/openstack/03b-IPv6/icmpv6rpl.c ****     
 795:build/openmote-cc2538_armgcc/openstack/03b-IPv6/icmpv6rpl.c ****     uint16_t newPeriod;
 796:build/openmote-cc2538_armgcc/openstack/03b-IPv6/icmpv6rpl.c ****     // current period 
 797:build/openmote-cc2538_armgcc/openstack/03b-IPv6/icmpv6rpl.c ****     newPeriod = DIO_PORTION*(neighbors_getNumNeighbors()+1);
 2162              		.loc 1 797 0
 2163 0c7e FFF7FEFF 		bl	neighbors_getNumNeighbors
 2164 0c82 0346     		mov	r3, r0
 2165 0c84 0133     		adds	r3, r3, #1
 2166 0c86 9BB2     		uxth	r3, r3
 2167 0c88 1A46     		mov	r2, r3	@ movhi
 2168 0c8a 5200     		lsls	r2, r2, #1
 2169 0c8c 1344     		add	r3, r3, r2
 2170 0c8e 5B00     		lsls	r3, r3, #1
 2171 0c90 FB80     		strh	r3, [r7, #6]	@ movhi
 798:build/openmote-cc2538_armgcc/openstack/03b-IPv6/icmpv6rpl.c ****     if (
 799:build/openmote-cc2538_armgcc/openstack/03b-IPv6/icmpv6rpl.c ****         icmpv6rpl_vars.dioPeriod        < newPeriod &&
 2172              		.loc 1 799 0
 2173 0c92 1C4B     		ldr	r3, .L141
 2174 0c94 B3F86030 		ldrh	r3, [r3, #96]
 798:build/openmote-cc2538_armgcc/openstack/03b-IPv6/icmpv6rpl.c ****     if (
 2175              		.loc 1 798 0
 2176 0c98 FA88     		ldrh	r2, [r7, #6]
 2177 0c9a 9A42     		cmp	r2, r3
 2178 0c9c 10D9     		bls	.L137
 800:build/openmote-cc2538_armgcc/openstack/03b-IPv6/icmpv6rpl.c ****         icmpv6rpl_vars.dioTimerCounter  > newPeriod
 2179              		.loc 1 800 0
 2180 0c9e 194B     		ldr	r3, .L141
 2181 0ca0 B3F85C30 		ldrh	r3, [r3, #92]
 799:build/openmote-cc2538_armgcc/openstack/03b-IPv6/icmpv6rpl.c ****         icmpv6rpl_vars.dioTimerCounter  > newPeriod
 2182              		.loc 1 799 0
 2183 0ca4 FA88     		ldrh	r2, [r7, #6]
 2184 0ca6 9A42     		cmp	r2, r3
 2185 0ca8 0AD2     		bcs	.L137
 801:build/openmote-cc2538_armgcc/openstack/03b-IPv6/icmpv6rpl.c ****     ){
 802:build/openmote-cc2538_armgcc/openstack/03b-IPv6/icmpv6rpl.c ****         icmpv6rpl_vars.dioTimerCounter  = 0;
 2186              		.loc 1 802 0
 2187 0caa 164B     		ldr	r3, .L141
 2188 0cac 0022     		movs	r2, #0
 2189 0cae A3F85C20 		strh	r2, [r3, #92]	@ movhi
 803:build/openmote-cc2538_armgcc/openstack/03b-IPv6/icmpv6rpl.c ****         icmpv6rpl_vars.dioPeriod        = newPeriod;
 2190              		.loc 1 803 0
 2191 0cb2 144A     		ldr	r2, .L141
 2192 0cb4 FB88     		ldrh	r3, [r7, #6]	@ movhi
 2193 0cb6 A2F86030 		strh	r3, [r2, #96]	@ movhi
 804:build/openmote-cc2538_armgcc/openstack/03b-IPv6/icmpv6rpl.c ****         sendDIO();
 2194              		.loc 1 804 0
 2195 0cba FFF7FEFF 		bl	sendDIO
 2196 0cbe 1CE0     		b	.L138
 2197              	.L137:
 805:build/openmote-cc2538_armgcc/openstack/03b-IPv6/icmpv6rpl.c ****     } else {
 806:build/openmote-cc2538_armgcc/openstack/03b-IPv6/icmpv6rpl.c ****         icmpv6rpl_vars.dioPeriod        = newPeriod;
 2198              		.loc 1 806 0
 2199 0cc0 104A     		ldr	r2, .L141
 2200 0cc2 FB88     		ldrh	r3, [r7, #6]	@ movhi
 2201 0cc4 A2F86030 		strh	r3, [r2, #96]	@ movhi
 807:build/openmote-cc2538_armgcc/openstack/03b-IPv6/icmpv6rpl.c ****         icmpv6rpl_vars.dioTimerCounter  = (icmpv6rpl_vars.dioTimerCounter+1)%icmpv6rpl_vars.dioPeri
 2202              		.loc 1 807 0
 2203 0cc8 0E4B     		ldr	r3, .L141
 2204 0cca B3F85C30 		ldrh	r3, [r3, #92]
 2205 0cce 0133     		adds	r3, r3, #1
 2206 0cd0 0C4A     		ldr	r2, .L141
 2207 0cd2 B2F86020 		ldrh	r2, [r2, #96]
 2208 0cd6 93FBF2F1 		sdiv	r1, r3, r2
 2209 0cda 02FB01F2 		mul	r2, r2, r1
 2210 0cde 9B1A     		subs	r3, r3, r2
 2211 0ce0 9AB2     		uxth	r2, r3
 2212 0ce2 084B     		ldr	r3, .L141
 2213 0ce4 A3F85C20 		strh	r2, [r3, #92]	@ movhi
 808:build/openmote-cc2538_armgcc/openstack/03b-IPv6/icmpv6rpl.c ****         switch (icmpv6rpl_vars.dioTimerCounter) {
 2214              		.loc 1 808 0
 2215 0ce8 064B     		ldr	r3, .L141
 2216 0cea B3F85C30 		ldrh	r3, [r3, #92]
 2217 0cee 002B     		cmp	r3, #0
 2218 0cf0 00D0     		beq	.L140
 809:build/openmote-cc2538_armgcc/openstack/03b-IPv6/icmpv6rpl.c ****         case 0:
 810:build/openmote-cc2538_armgcc/openstack/03b-IPv6/icmpv6rpl.c ****             sendDIO();
 811:build/openmote-cc2538_armgcc/openstack/03b-IPv6/icmpv6rpl.c ****             break;
 812:build/openmote-cc2538_armgcc/openstack/03b-IPv6/icmpv6rpl.c ****         default:
 813:build/openmote-cc2538_armgcc/openstack/03b-IPv6/icmpv6rpl.c ****             break;
 2219              		.loc 1 813 0
 2220 0cf2 02E0     		b	.L138
 2221              	.L140:
 810:build/openmote-cc2538_armgcc/openstack/03b-IPv6/icmpv6rpl.c ****             break;
 2222              		.loc 1 810 0
 2223 0cf4 FFF7FEFF 		bl	sendDIO
 811:build/openmote-cc2538_armgcc/openstack/03b-IPv6/icmpv6rpl.c ****         default:
 2224              		.loc 1 811 0
 2225 0cf8 00BF     		nop
 2226              	.L138:
 814:build/openmote-cc2538_armgcc/openstack/03b-IPv6/icmpv6rpl.c ****         }
 815:build/openmote-cc2538_armgcc/openstack/03b-IPv6/icmpv6rpl.c ****     }
 816:build/openmote-cc2538_armgcc/openstack/03b-IPv6/icmpv6rpl.c **** }
 2227              		.loc 1 816 0
 2228 0cfa 00BF     		nop
 2229 0cfc 0837     		adds	r7, r7, #8
 2230              		.cfi_def_cfa_offset 8
 2231 0cfe BD46     		mov	sp, r7
 2232              		.cfi_def_cfa_register 13
 2233              		@ sp needed
 2234 0d00 80BD     		pop	{r7, pc}
 2235              	.L142:
 2236 0d02 00BF     		.align	2
 2237              	.L141:
 2238 0d04 00000000 		.word	icmpv6rpl_vars
 2239              		.cfi_endproc
 2240              	.LFE15:
 2242              		.section	.rodata
 2243              		.align	2
 2244              	.LC0:
 2245 0074 BB       		.byte	-69
 2246 0075 BB       		.byte	-69
 2247 0076 00       		.byte	0
 2248 0077 00       		.byte	0
 2249 0078 00       		.byte	0
 2250 0079 00       		.byte	0
 2251 007a 00       		.byte	0
 2252 007b 00       		.byte	0
 2253 007c 00       		.byte	0
 2254 007d 12       		.byte	18
 2255 007e 4B       		.byte	75
 2256 007f 00       		.byte	0
 2257 0080 06       		.byte	6
 2258 0081 13       		.byte	19
 2259 0082 06       		.byte	6
 2260 0083 36       		.byte	54
 2261              		.text
 2262              		.align	2
 2263              		.global	icmpv6rpl_sendWhisperDIO
 2264              		.thumb
 2265              		.thumb_func
 2267              	icmpv6rpl_sendWhisperDIO:
 2268              	.LFB16:
 817:build/openmote-cc2538_armgcc/openstack/03b-IPv6/icmpv6rpl.c **** 
 818:build/openmote-cc2538_armgcc/openstack/03b-IPv6/icmpv6rpl.c **** /**
 819:build/openmote-cc2538_armgcc/openstack/03b-IPv6/icmpv6rpl.c **** \brief Prepare and a send a RPL DIO.
 820:build/openmote-cc2538_armgcc/openstack/03b-IPv6/icmpv6rpl.c **** */
 821:build/openmote-cc2538_armgcc/openstack/03b-IPv6/icmpv6rpl.c **** void icmpv6rpl_sendWhisperDIO(uint8_t target, uint8_t currentParent,uint16_t rankTarget) {
 2269              		.loc 1 821 0
 2270              		.cfi_startproc
 2271              		@ args = 0, pretend = 0, frame = 48
 2272              		@ frame_needed = 1, uses_anonymous_args = 0
 2273 0d08 B0B5     		push	{r4, r5, r7, lr}
 2274              		.cfi_def_cfa_offset 16
 2275              		.cfi_offset 4, -16
 2276              		.cfi_offset 5, -12
 2277              		.cfi_offset 7, -8
 2278              		.cfi_offset 14, -4
 2279 0d0a 8CB0     		sub	sp, sp, #48
 2280              		.cfi_def_cfa_offset 64
 2281 0d0c 00AF     		add	r7, sp, #0
 2282              		.cfi_def_cfa_register 7
 2283 0d0e 0346     		mov	r3, r0
 2284 0d10 FB71     		strb	r3, [r7, #7]
 2285 0d12 0B46     		mov	r3, r1
 2286 0d14 BB71     		strb	r3, [r7, #6]
 2287 0d16 1346     		mov	r3, r2	@ movhi
 2288 0d18 BB80     		strh	r3, [r7, #4]	@ movhi
 822:build/openmote-cc2538_armgcc/openstack/03b-IPv6/icmpv6rpl.c **** 	   OpenQueueEntry_t*    msg;
 823:build/openmote-cc2538_armgcc/openstack/03b-IPv6/icmpv6rpl.c **** 
 824:build/openmote-cc2538_armgcc/openstack/03b-IPv6/icmpv6rpl.c **** 	   // stop if I'm not sync'ed
 825:build/openmote-cc2538_armgcc/openstack/03b-IPv6/icmpv6rpl.c **** 	   if (ieee154e_isSynch()==FALSE) {
 2289              		.loc 1 825 0
 2290 0d1a FFF7FEFF 		bl	ieee154e_isSynch
 2291 0d1e 0346     		mov	r3, r0
 2292 0d20 83F00103 		eor	r3, r3, #1
 2293 0d24 DBB2     		uxtb	r3, r3
 2294 0d26 002B     		cmp	r3, #0
 2295 0d28 09D0     		beq	.L144
 826:build/openmote-cc2538_armgcc/openstack/03b-IPv6/icmpv6rpl.c **** 
 827:build/openmote-cc2538_armgcc/openstack/03b-IPv6/icmpv6rpl.c **** 	      // remove packets genereted by this module (DIO and DAO) from openqueue
 828:build/openmote-cc2538_armgcc/openstack/03b-IPv6/icmpv6rpl.c **** 	      openqueue_removeAllCreatedBy(COMPONENT_ICMPv6RPL);
 2296              		.loc 1 828 0
 2297 0d2a 1720     		movs	r0, #23
 2298 0d2c FFF7FEFF 		bl	openqueue_removeAllCreatedBy
 829:build/openmote-cc2538_armgcc/openstack/03b-IPv6/icmpv6rpl.c **** 
 830:build/openmote-cc2538_armgcc/openstack/03b-IPv6/icmpv6rpl.c **** 	      // I'm not busy sending a DIO/DAO
 831:build/openmote-cc2538_armgcc/openstack/03b-IPv6/icmpv6rpl.c **** 	      icmpv6rpl_vars.busySendingDIO  = FALSE;
 2299              		.loc 1 831 0
 2300 0d30 564B     		ldr	r3, .L154
 2301 0d32 0022     		movs	r2, #0
 2302 0d34 1A70     		strb	r2, [r3]
 832:build/openmote-cc2538_armgcc/openstack/03b-IPv6/icmpv6rpl.c **** 	      icmpv6rpl_vars.busySendingDAO  = FALSE;
 2303              		.loc 1 832 0
 2304 0d36 554B     		ldr	r3, .L154
 2305 0d38 0022     		movs	r2, #0
 2306 0d3a 5A70     		strb	r2, [r3, #1]
 833:build/openmote-cc2538_armgcc/openstack/03b-IPv6/icmpv6rpl.c **** 
 834:build/openmote-cc2538_armgcc/openstack/03b-IPv6/icmpv6rpl.c **** 	      // stop here
 835:build/openmote-cc2538_armgcc/openstack/03b-IPv6/icmpv6rpl.c **** 	      return;
 2307              		.loc 1 835 0
 2308 0d3c A2E0     		b	.L143
 2309              	.L144:
 836:build/openmote-cc2538_armgcc/openstack/03b-IPv6/icmpv6rpl.c **** 	   }
 837:build/openmote-cc2538_armgcc/openstack/03b-IPv6/icmpv6rpl.c **** 
 838:build/openmote-cc2538_armgcc/openstack/03b-IPv6/icmpv6rpl.c **** 	   // do not send DIO if I have the default DAG rank
 839:build/openmote-cc2538_armgcc/openstack/03b-IPv6/icmpv6rpl.c **** 	   if (icmpv6rpl_getMyDAGrank()==DEFAULTDAGRANK) {
 2310              		.loc 1 839 0
 2311 0d3e FFF7FEFF 		bl	icmpv6rpl_getMyDAGrank
 2312 0d42 0346     		mov	r3, r0
 2313 0d44 1A46     		mov	r2, r3
 2314 0d46 4FF6FF73 		movw	r3, #65535
 2315 0d4a 9A42     		cmp	r2, r3
 2316 0d4c 00F09780 		beq	.L152
 840:build/openmote-cc2538_armgcc/openstack/03b-IPv6/icmpv6rpl.c **** 	      return;
 841:build/openmote-cc2538_armgcc/openstack/03b-IPv6/icmpv6rpl.c **** 	   }
 842:build/openmote-cc2538_armgcc/openstack/03b-IPv6/icmpv6rpl.c **** 
 843:build/openmote-cc2538_armgcc/openstack/03b-IPv6/icmpv6rpl.c **** 	   // do not send DIO if I'm already busy sending
 844:build/openmote-cc2538_armgcc/openstack/03b-IPv6/icmpv6rpl.c **** 	   if (icmpv6rpl_vars.busySendingDIO==TRUE) {
 2317              		.loc 1 844 0
 2318 0d50 4E4B     		ldr	r3, .L154
 2319 0d52 1B78     		ldrb	r3, [r3]	@ zero_extendqisi2
 2320 0d54 002B     		cmp	r3, #0
 2321 0d56 40F09480 		bne	.L153
 845:build/openmote-cc2538_armgcc/openstack/03b-IPv6/icmpv6rpl.c **** 	           return;
 846:build/openmote-cc2538_armgcc/openstack/03b-IPv6/icmpv6rpl.c **** 	   }
 847:build/openmote-cc2538_armgcc/openstack/03b-IPv6/icmpv6rpl.c **** 
 848:build/openmote-cc2538_armgcc/openstack/03b-IPv6/icmpv6rpl.c **** 	   // if you get here, all good to send a DIO
 849:build/openmote-cc2538_armgcc/openstack/03b-IPv6/icmpv6rpl.c **** 
 850:build/openmote-cc2538_armgcc/openstack/03b-IPv6/icmpv6rpl.c **** 	   //printf("I am WISHPER node %d, preparing FAKEDIO to %d to make him leave its current parent %d
 851:build/openmote-cc2538_armgcc/openstack/03b-IPv6/icmpv6rpl.c **** 
 852:build/openmote-cc2538_armgcc/openstack/03b-IPv6/icmpv6rpl.c **** 	   // reserve a free packet buffer for DIO
 853:build/openmote-cc2538_armgcc/openstack/03b-IPv6/icmpv6rpl.c **** 	   msg = openqueue_getFreePacketBuffer(COMPONENT_ICMPv6RPL);
 2322              		.loc 1 853 0
 2323 0d5a 1720     		movs	r0, #23
 2324 0d5c FFF7FEFF 		bl	openqueue_getFreePacketBuffer
 2325 0d60 F862     		str	r0, [r7, #44]
 854:build/openmote-cc2538_armgcc/openstack/03b-IPv6/icmpv6rpl.c **** 
 855:build/openmote-cc2538_armgcc/openstack/03b-IPv6/icmpv6rpl.c **** 
 856:build/openmote-cc2538_armgcc/openstack/03b-IPv6/icmpv6rpl.c **** 	   if (msg==NULL) {
 2326              		.loc 1 856 0
 2327 0d62 FB6A     		ldr	r3, [r7, #44]
 2328 0d64 002B     		cmp	r3, #0
 2329 0d66 06D1     		bne	.L148
 857:build/openmote-cc2538_armgcc/openstack/03b-IPv6/icmpv6rpl.c **** 	      openserial_printError(COMPONENT_ICMPv6RPL,ERR_NO_FREE_PACKET_BUFFER,
 2330              		.loc 1 857 0
 2331 0d68 0023     		movs	r3, #0
 2332 0d6a 0022     		movs	r2, #0
 2333 0d6c 2C21     		movs	r1, #44
 2334 0d6e 1720     		movs	r0, #23
 2335 0d70 FFF7FEFF 		bl	openserial_printError
 858:build/openmote-cc2538_armgcc/openstack/03b-IPv6/icmpv6rpl.c **** 	                            (errorparameter_t)0,
 859:build/openmote-cc2538_armgcc/openstack/03b-IPv6/icmpv6rpl.c **** 	                            (errorparameter_t)0);
 860:build/openmote-cc2538_armgcc/openstack/03b-IPv6/icmpv6rpl.c **** 
 861:build/openmote-cc2538_armgcc/openstack/03b-IPv6/icmpv6rpl.c **** 	      return;
 2336              		.loc 1 861 0
 2337 0d74 86E0     		b	.L143
 2338              	.L148:
 862:build/openmote-cc2538_armgcc/openstack/03b-IPv6/icmpv6rpl.c **** 	   }
 863:build/openmote-cc2538_armgcc/openstack/03b-IPv6/icmpv6rpl.c **** 
 864:build/openmote-cc2538_armgcc/openstack/03b-IPv6/icmpv6rpl.c **** 	   // take ownership
 865:build/openmote-cc2538_armgcc/openstack/03b-IPv6/icmpv6rpl.c **** 	   msg->creator                             = COMPONENT_ICMPv6RPL;
 2339              		.loc 1 865 0
 2340 0d76 FB6A     		ldr	r3, [r7, #44]
 2341 0d78 1722     		movs	r2, #23
 2342 0d7a 1A70     		strb	r2, [r3]
 866:build/openmote-cc2538_armgcc/openstack/03b-IPv6/icmpv6rpl.c **** 	   msg->owner                               = COMPONENT_ICMPv6RPL;
 2343              		.loc 1 866 0
 2344 0d7c FB6A     		ldr	r3, [r7, #44]
 2345 0d7e 1722     		movs	r2, #23
 2346 0d80 5A70     		strb	r2, [r3, #1]
 867:build/openmote-cc2538_armgcc/openstack/03b-IPv6/icmpv6rpl.c **** 
 868:build/openmote-cc2538_armgcc/openstack/03b-IPv6/icmpv6rpl.c **** 	   msg->isDioFake				    = TRUE;
 2347              		.loc 1 868 0
 2348 0d82 FB6A     		ldr	r3, [r7, #44]
 2349 0d84 0122     		movs	r2, #1
 2350 0d86 83F84321 		strb	r2, [r3, #323]
 869:build/openmote-cc2538_armgcc/openstack/03b-IPv6/icmpv6rpl.c **** 	   //msg->isSixtopFake				= FALSE;
 870:build/openmote-cc2538_armgcc/openstack/03b-IPv6/icmpv6rpl.c **** 
 871:build/openmote-cc2538_armgcc/openstack/03b-IPv6/icmpv6rpl.c **** 	   // set transport information
 872:build/openmote-cc2538_armgcc/openstack/03b-IPv6/icmpv6rpl.c **** 	   msg->l4_protocol                         = IANA_ICMPv6;
 2351              		.loc 1 872 0
 2352 0d8a FB6A     		ldr	r3, [r7, #44]
 2353 0d8c 3A22     		movs	r2, #58
 2354 0d8e 9A73     		strb	r2, [r3, #14]
 873:build/openmote-cc2538_armgcc/openstack/03b-IPv6/icmpv6rpl.c **** 	   msg->l4_protocol_compressed              = FALSE;
 2355              		.loc 1 873 0
 2356 0d90 FB6A     		ldr	r3, [r7, #44]
 2357 0d92 0022     		movs	r2, #0
 2358 0d94 DA73     		strb	r2, [r3, #15]
 874:build/openmote-cc2538_armgcc/openstack/03b-IPv6/icmpv6rpl.c **** 	   msg->l4_sourcePortORicmpv6Type           = IANA_ICMPv6_RPL;
 2359              		.loc 1 874 0
 2360 0d96 FB6A     		ldr	r3, [r7, #44]
 2361 0d98 9B22     		movs	r2, #155
 2362 0d9a 1A82     		strh	r2, [r3, #16]	@ movhi
 875:build/openmote-cc2538_armgcc/openstack/03b-IPv6/icmpv6rpl.c **** 
 876:build/openmote-cc2538_armgcc/openstack/03b-IPv6/icmpv6rpl.c **** 
 877:build/openmote-cc2538_armgcc/openstack/03b-IPv6/icmpv6rpl.c **** 	   uint8_t whisper_rpl_destAddress[] = {
 2363              		.loc 1 877 0
 2364 0d9c 3C4B     		ldr	r3, .L154+4
 2365 0d9e 07F11C04 		add	r4, r7, #28
 2366 0da2 1868     		ldr	r0, [r3]	@ unaligned
 2367 0da4 5968     		ldr	r1, [r3, #4]	@ unaligned
 2368 0da6 9A68     		ldr	r2, [r3, #8]	@ unaligned
 2369 0da8 DB68     		ldr	r3, [r3, #12]	@ unaligned
 2370 0daa 0FC4     		stmia	r4!, {r0, r1, r2, r3}
 878:build/openmote-cc2538_armgcc/openstack/03b-IPv6/icmpv6rpl.c **** 	   	0xbb, 0xbb, 0x00, 0x00, 0x00, 0x00, 0x00, 0x00, \
 879:build/openmote-cc2538_armgcc/openstack/03b-IPv6/icmpv6rpl.c **** 		0x00, 0x12, 0x4b, 0x00, 0x06, 0x13, 0x06, 0x36
 880:build/openmote-cc2538_armgcc/openstack/03b-IPv6/icmpv6rpl.c **** 	   };
 881:build/openmote-cc2538_armgcc/openstack/03b-IPv6/icmpv6rpl.c **** 
 882:build/openmote-cc2538_armgcc/openstack/03b-IPv6/icmpv6rpl.c **** //	   uint8_t whisper_rpl_destAddress[] = {
 883:build/openmote-cc2538_armgcc/openstack/03b-IPv6/icmpv6rpl.c **** //	   	0xbb, 0xbb, 0x00, 0x00, 0x00, 0x00, 0x00, 0x00, \
 884:build/openmote-cc2538_armgcc/openstack/03b-IPv6/icmpv6rpl.c **** //		0x14, 0x15, 0x92, 0xcc, 0x00, 0x00, 0x00, 0x04
 885:build/openmote-cc2538_armgcc/openstack/03b-IPv6/icmpv6rpl.c **** //	   };
 886:build/openmote-cc2538_armgcc/openstack/03b-IPv6/icmpv6rpl.c **** 
 887:build/openmote-cc2538_armgcc/openstack/03b-IPv6/icmpv6rpl.c **** 	   open_addr_t targetDestinationAddress;
 888:build/openmote-cc2538_armgcc/openstack/03b-IPv6/icmpv6rpl.c **** 	   targetDestinationAddress.type = ADDR_128B;
 2371              		.loc 1 888 0
 2372 0dac 0323     		movs	r3, #3
 2373 0dae 3B72     		strb	r3, [r7, #8]
 889:build/openmote-cc2538_armgcc/openstack/03b-IPv6/icmpv6rpl.c **** 
 890:build/openmote-cc2538_armgcc/openstack/03b-IPv6/icmpv6rpl.c **** 	   //whisper_rpl_destAddress[15]=target;
 891:build/openmote-cc2538_armgcc/openstack/03b-IPv6/icmpv6rpl.c **** 	   //memcpy(&(whisper_newParent128[15]),icmpv6rpl_vars.newParent,1);
 892:build/openmote-cc2538_armgcc/openstack/03b-IPv6/icmpv6rpl.c **** 	   memcpy(&targetDestinationAddress.addr_128b[0],whisper_rpl_destAddress,sizeof(whisper_rpl_destAd
 2374              		.loc 1 892 0
 2375 0db0 07F10904 		add	r4, r7, #9
 2376 0db4 07F11C05 		add	r5, r7, #28
 2377 0db8 0FCD     		ldmia	r5!, {r0, r1, r2, r3}
 2378 0dba 2060     		str	r0, [r4]	@ unaligned
 2379 0dbc 6160     		str	r1, [r4, #4]	@ unaligned
 2380 0dbe A260     		str	r2, [r4, #8]	@ unaligned
 2381 0dc0 E360     		str	r3, [r4, #12]	@ unaligned
 893:build/openmote-cc2538_armgcc/openstack/03b-IPv6/icmpv6rpl.c **** 
 894:build/openmote-cc2538_armgcc/openstack/03b-IPv6/icmpv6rpl.c **** 
 895:build/openmote-cc2538_armgcc/openstack/03b-IPv6/icmpv6rpl.c **** 	   // set DIO destination
 896:build/openmote-cc2538_armgcc/openstack/03b-IPv6/icmpv6rpl.c **** 	   memcpy(&(msg->l3_destinationAdd),&targetDestinationAddress,sizeof(open_addr_t));
 2382              		.loc 1 896 0
 2383 0dc2 FB6A     		ldr	r3, [r7, #44]
 2384 0dc4 1933     		adds	r3, r3, #25
 2385 0dc6 1D46     		mov	r5, r3
 2386 0dc8 07F10804 		add	r4, r7, #8
 2387 0dcc 0FCC     		ldmia	r4!, {r0, r1, r2, r3}
 2388 0dce 2860     		str	r0, [r5]	@ unaligned
 2389 0dd0 6960     		str	r1, [r5, #4]	@ unaligned
 2390 0dd2 AA60     		str	r2, [r5, #8]	@ unaligned
 2391 0dd4 EB60     		str	r3, [r5, #12]	@ unaligned
 2392 0dd6 2378     		ldrb	r3, [r4]
 2393 0dd8 2B74     		strb	r3, [r5, #16]
 897:build/openmote-cc2538_armgcc/openstack/03b-IPv6/icmpv6rpl.c **** 
 898:build/openmote-cc2538_armgcc/openstack/03b-IPv6/icmpv6rpl.c **** 	   //===== DIO payload
 899:build/openmote-cc2538_armgcc/openstack/03b-IPv6/icmpv6rpl.c **** 	   // note: DIO is already mostly populated
 900:build/openmote-cc2538_armgcc/openstack/03b-IPv6/icmpv6rpl.c **** 	   icmpv6rpl_vars.dio.rank                  = rankTarget;
 2394              		.loc 1 900 0
 2395 0dda 2C4B     		ldr	r3, .L154
 2396 0ddc BA88     		ldrh	r2, [r7, #4]	@ movhi
 2397 0dde A3F80520 		strh	r2, [r3, #5]	@ unaligned
 901:build/openmote-cc2538_armgcc/openstack/03b-IPv6/icmpv6rpl.c **** 	   //icmpv6rpl_vars.dio.rank                  = 2999;
 902:build/openmote-cc2538_armgcc/openstack/03b-IPv6/icmpv6rpl.c **** 	   //icmpv6rpl_vars.dio.rank                  = icmpv6rpl_getMyDAGrank();
 903:build/openmote-cc2538_armgcc/openstack/03b-IPv6/icmpv6rpl.c **** 	   packetfunctions_reserveHeaderSize(msg,sizeof(icmpv6rpl_dio_ht));
 2398              		.loc 1 903 0
 2399 0de2 1821     		movs	r1, #24
 2400 0de4 F86A     		ldr	r0, [r7, #44]
 2401 0de6 FFF7FEFF 		bl	packetfunctions_reserveHeaderSize
 904:build/openmote-cc2538_armgcc/openstack/03b-IPv6/icmpv6rpl.c **** 	   memcpy(
 905:build/openmote-cc2538_armgcc/openstack/03b-IPv6/icmpv6rpl.c **** 	      ((icmpv6rpl_dio_ht*)(msg->payload)),
 2402              		.loc 1 905 0
 2403 0dea FB6A     		ldr	r3, [r7, #44]
 2404 0dec 5A68     		ldr	r2, [r3, #4]
 904:build/openmote-cc2538_armgcc/openstack/03b-IPv6/icmpv6rpl.c **** 	   memcpy(
 2405              		.loc 1 904 0
 2406 0dee 274B     		ldr	r3, .L154
 2407 0df0 0333     		adds	r3, r3, #3
 2408 0df2 1868     		ldr	r0, [r3]	@ unaligned
 2409 0df4 5968     		ldr	r1, [r3, #4]	@ unaligned
 2410 0df6 9D68     		ldr	r5, [r3, #8]	@ unaligned
 2411 0df8 DC68     		ldr	r4, [r3, #12]	@ unaligned
 2412 0dfa 1060     		str	r0, [r2]	@ unaligned
 2413 0dfc 5160     		str	r1, [r2, #4]	@ unaligned
 2414 0dfe 9560     		str	r5, [r2, #8]	@ unaligned
 2415 0e00 D460     		str	r4, [r2, #12]	@ unaligned
 2416 0e02 1869     		ldr	r0, [r3, #16]	@ unaligned
 2417 0e04 5969     		ldr	r1, [r3, #20]	@ unaligned
 2418 0e06 1061     		str	r0, [r2, #16]	@ unaligned
 2419 0e08 5161     		str	r1, [r2, #20]	@ unaligned
 906:build/openmote-cc2538_armgcc/openstack/03b-IPv6/icmpv6rpl.c **** 	      &(icmpv6rpl_vars.dio),
 907:build/openmote-cc2538_armgcc/openstack/03b-IPv6/icmpv6rpl.c **** 	      sizeof(icmpv6rpl_dio_ht)
 908:build/openmote-cc2538_armgcc/openstack/03b-IPv6/icmpv6rpl.c **** 	   );
 909:build/openmote-cc2538_armgcc/openstack/03b-IPv6/icmpv6rpl.c **** 
 910:build/openmote-cc2538_armgcc/openstack/03b-IPv6/icmpv6rpl.c **** 	   // reverse the rank bytes order in Big Endian
 911:build/openmote-cc2538_armgcc/openstack/03b-IPv6/icmpv6rpl.c **** 	   *(msg->payload+2) = (icmpv6rpl_vars.dio.rank >> 8) & 0xFF;
 2420              		.loc 1 911 0
 2421 0e0a FB6A     		ldr	r3, [r7, #44]
 2422 0e0c 5B68     		ldr	r3, [r3, #4]
 2423 0e0e 0233     		adds	r3, r3, #2
 2424 0e10 1E4A     		ldr	r2, .L154
 2425 0e12 B2F80520 		ldrh	r2, [r2, #5]	@ unaligned
 2426 0e16 92B2     		uxth	r2, r2
 2427 0e18 120A     		lsrs	r2, r2, #8
 2428 0e1a 92B2     		uxth	r2, r2
 2429 0e1c D2B2     		uxtb	r2, r2
 2430 0e1e 1A70     		strb	r2, [r3]
 912:build/openmote-cc2538_armgcc/openstack/03b-IPv6/icmpv6rpl.c **** 	   *(msg->payload+3) = icmpv6rpl_vars.dio.rank        & 0xFF;
 2431              		.loc 1 912 0
 2432 0e20 FB6A     		ldr	r3, [r7, #44]
 2433 0e22 5B68     		ldr	r3, [r3, #4]
 2434 0e24 0333     		adds	r3, r3, #3
 2435 0e26 194A     		ldr	r2, .L154
 2436 0e28 B2F80520 		ldrh	r2, [r2, #5]	@ unaligned
 2437 0e2c 92B2     		uxth	r2, r2
 2438 0e2e D2B2     		uxtb	r2, r2
 2439 0e30 1A70     		strb	r2, [r3]
 913:build/openmote-cc2538_armgcc/openstack/03b-IPv6/icmpv6rpl.c **** 
 914:build/openmote-cc2538_armgcc/openstack/03b-IPv6/icmpv6rpl.c **** 	   //===== ICMPv6 header
 915:build/openmote-cc2538_armgcc/openstack/03b-IPv6/icmpv6rpl.c **** 	   packetfunctions_reserveHeaderSize(msg,sizeof(ICMPv6_ht));
 2440              		.loc 1 915 0
 2441 0e32 0421     		movs	r1, #4
 2442 0e34 F86A     		ldr	r0, [r7, #44]
 2443 0e36 FFF7FEFF 		bl	packetfunctions_reserveHeaderSize
 916:build/openmote-cc2538_armgcc/openstack/03b-IPv6/icmpv6rpl.c **** 	   ((ICMPv6_ht*)(msg->payload))->type       = msg->l4_sourcePortORicmpv6Type;
 2444              		.loc 1 916 0
 2445 0e3a FB6A     		ldr	r3, [r7, #44]
 2446 0e3c 5B68     		ldr	r3, [r3, #4]
 2447 0e3e FA6A     		ldr	r2, [r7, #44]
 2448 0e40 128A     		ldrh	r2, [r2, #16]
 2449 0e42 D2B2     		uxtb	r2, r2
 2450 0e44 1A70     		strb	r2, [r3]
 917:build/openmote-cc2538_armgcc/openstack/03b-IPv6/icmpv6rpl.c **** 	   ((ICMPv6_ht*)(msg->payload))->code       = IANA_ICMPv6_RPL_DIO;
 2451              		.loc 1 917 0
 2452 0e46 FB6A     		ldr	r3, [r7, #44]
 2453 0e48 5B68     		ldr	r3, [r3, #4]
 2454 0e4a 0122     		movs	r2, #1
 2455 0e4c 5A70     		strb	r2, [r3, #1]
 918:build/openmote-cc2538_armgcc/openstack/03b-IPv6/icmpv6rpl.c **** 	   packetfunctions_calculateChecksum(msg,(uint8_t*)&(((ICMPv6_ht*)(msg->payload))->checksum));//ca
 2456              		.loc 1 918 0
 2457 0e4e FB6A     		ldr	r3, [r7, #44]
 2458 0e50 5B68     		ldr	r3, [r3, #4]
 2459 0e52 0233     		adds	r3, r3, #2
 2460 0e54 1946     		mov	r1, r3
 2461 0e56 F86A     		ldr	r0, [r7, #44]
 2462 0e58 FFF7FEFF 		bl	packetfunctions_calculateChecksum
 919:build/openmote-cc2538_armgcc/openstack/03b-IPv6/icmpv6rpl.c **** 
 920:build/openmote-cc2538_armgcc/openstack/03b-IPv6/icmpv6rpl.c **** 	    //send
 921:build/openmote-cc2538_armgcc/openstack/03b-IPv6/icmpv6rpl.c **** 	    if (icmpv6_send(msg)==E_SUCCESS) {
 2463              		.loc 1 921 0
 2464 0e5c F86A     		ldr	r0, [r7, #44]
 2465 0e5e FFF7FEFF 		bl	icmpv6_send
 2466 0e62 0346     		mov	r3, r0
 2467 0e64 002B     		cmp	r3, #0
 2468 0e66 03D1     		bne	.L149
 922:build/openmote-cc2538_armgcc/openstack/03b-IPv6/icmpv6rpl.c **** 	        icmpv6rpl_vars.busySendingDIO = TRUE;
 2469              		.loc 1 922 0
 2470 0e68 084B     		ldr	r3, .L154
 2471 0e6a 0122     		movs	r2, #1
 2472 0e6c 1A70     		strb	r2, [r3]
 2473 0e6e 02E0     		b	.L150
 2474              	.L149:
 923:build/openmote-cc2538_armgcc/openstack/03b-IPv6/icmpv6rpl.c **** 	        //printf("I am node %d, Enqueued SUCCESS \n",idmanager_getMyID(ADDR_64B)->addr_64b[7]);
 924:build/openmote-cc2538_armgcc/openstack/03b-IPv6/icmpv6rpl.c **** 	    } else {
 925:build/openmote-cc2538_armgcc/openstack/03b-IPv6/icmpv6rpl.c **** 	        openqueue_freePacketBuffer(msg);
 2475              		.loc 1 925 0
 2476 0e70 F86A     		ldr	r0, [r7, #44]
 2477 0e72 FFF7FEFF 		bl	openqueue_freePacketBuffer
 2478              	.L150:
 926:build/openmote-cc2538_armgcc/openstack/03b-IPv6/icmpv6rpl.c **** 	    }
 927:build/openmote-cc2538_armgcc/openstack/03b-IPv6/icmpv6rpl.c **** 	    //if wisper, we don't wait until the send done
 928:build/openmote-cc2538_armgcc/openstack/03b-IPv6/icmpv6rpl.c **** 	    icmpv6rpl_vars.busySendingDIO = FALSE;
 2479              		.loc 1 928 0
 2480 0e76 054B     		ldr	r3, .L154
 2481 0e78 0022     		movs	r2, #0
 2482 0e7a 1A70     		strb	r2, [r3]
 2483 0e7c 02E0     		b	.L143
 2484              	.L152:
 840:build/openmote-cc2538_armgcc/openstack/03b-IPv6/icmpv6rpl.c **** 	   }
 2485              		.loc 1 840 0
 2486 0e7e 00BF     		nop
 2487 0e80 00E0     		b	.L143
 2488              	.L153:
 845:build/openmote-cc2538_armgcc/openstack/03b-IPv6/icmpv6rpl.c **** 	   }
 2489              		.loc 1 845 0
 2490 0e82 00BF     		nop
 2491              	.L143:
 929:build/openmote-cc2538_armgcc/openstack/03b-IPv6/icmpv6rpl.c **** }
 2492              		.loc 1 929 0
 2493 0e84 3037     		adds	r7, r7, #48
 2494              		.cfi_def_cfa_offset 16
 2495 0e86 BD46     		mov	sp, r7
 2496              		.cfi_def_cfa_register 13
 2497              		@ sp needed
 2498 0e88 B0BD     		pop	{r4, r5, r7, pc}
 2499              	.L155:
 2500 0e8a 00BF     		.align	2
 2501              	.L154:
 2502 0e8c 00000000 		.word	icmpv6rpl_vars
 2503 0e90 74000000 		.word	.LC0
 2504              		.cfi_endproc
 2505              	.LFE16:
 2507              		.align	2
 2508              		.global	sendDIO
 2509              		.thumb
 2510              		.thumb_func
 2512              	sendDIO:
 2513              	.LFB17:
 930:build/openmote-cc2538_armgcc/openstack/03b-IPv6/icmpv6rpl.c **** 
 931:build/openmote-cc2538_armgcc/openstack/03b-IPv6/icmpv6rpl.c **** /**
 932:build/openmote-cc2538_armgcc/openstack/03b-IPv6/icmpv6rpl.c **** \brief Prepare and a send a RPL DIO.
 933:build/openmote-cc2538_armgcc/openstack/03b-IPv6/icmpv6rpl.c **** */
 934:build/openmote-cc2538_armgcc/openstack/03b-IPv6/icmpv6rpl.c **** void sendDIO() {
 2514              		.loc 1 934 0
 2515              		.cfi_startproc
 2516              		@ args = 0, pretend = 0, frame = 8
 2517              		@ frame_needed = 1, uses_anonymous_args = 0
 2518 0e94 B0B5     		push	{r4, r5, r7, lr}
 2519              		.cfi_def_cfa_offset 16
 2520              		.cfi_offset 4, -16
 2521              		.cfi_offset 5, -12
 2522              		.cfi_offset 7, -8
 2523              		.cfi_offset 14, -4
 2524 0e96 82B0     		sub	sp, sp, #8
 2525              		.cfi_def_cfa_offset 24
 2526 0e98 00AF     		add	r7, sp, #0
 2527              		.cfi_def_cfa_register 7
 935:build/openmote-cc2538_armgcc/openstack/03b-IPv6/icmpv6rpl.c ****    OpenQueueEntry_t*    msg;
 936:build/openmote-cc2538_armgcc/openstack/03b-IPv6/icmpv6rpl.c ****    
 937:build/openmote-cc2538_armgcc/openstack/03b-IPv6/icmpv6rpl.c **** 
 938:build/openmote-cc2538_armgcc/openstack/03b-IPv6/icmpv6rpl.c **** 
 939:build/openmote-cc2538_armgcc/openstack/03b-IPv6/icmpv6rpl.c ****    // stop if I'm not sync'ed
 940:build/openmote-cc2538_armgcc/openstack/03b-IPv6/icmpv6rpl.c ****    if (ieee154e_isSynch()==FALSE) {
 2528              		.loc 1 940 0
 2529 0e9a FFF7FEFF 		bl	ieee154e_isSynch
 2530 0e9e 0346     		mov	r3, r0
 2531 0ea0 83F00103 		eor	r3, r3, #1
 2532 0ea4 DBB2     		uxtb	r3, r3
 2533 0ea6 002B     		cmp	r3, #0
 2534 0ea8 09D0     		beq	.L157
 941:build/openmote-cc2538_armgcc/openstack/03b-IPv6/icmpv6rpl.c ****       
 942:build/openmote-cc2538_armgcc/openstack/03b-IPv6/icmpv6rpl.c ****       // remove packets genereted by this module (DIO and DAO) from openqueue
 943:build/openmote-cc2538_armgcc/openstack/03b-IPv6/icmpv6rpl.c ****       openqueue_removeAllCreatedBy(COMPONENT_ICMPv6RPL);
 2535              		.loc 1 943 0
 2536 0eaa 1720     		movs	r0, #23
 2537 0eac FFF7FEFF 		bl	openqueue_removeAllCreatedBy
 944:build/openmote-cc2538_armgcc/openstack/03b-IPv6/icmpv6rpl.c ****       
 945:build/openmote-cc2538_armgcc/openstack/03b-IPv6/icmpv6rpl.c ****       // I'm not busy sending a DIO/DAO
 946:build/openmote-cc2538_armgcc/openstack/03b-IPv6/icmpv6rpl.c ****       icmpv6rpl_vars.busySendingDIO  = FALSE;
 2538              		.loc 1 946 0
 2539 0eb0 674B     		ldr	r3, .L165
 2540 0eb2 0022     		movs	r2, #0
 2541 0eb4 1A70     		strb	r2, [r3]
 947:build/openmote-cc2538_armgcc/openstack/03b-IPv6/icmpv6rpl.c ****       icmpv6rpl_vars.busySendingDAO  = FALSE;
 2542              		.loc 1 947 0
 2543 0eb6 664B     		ldr	r3, .L165
 2544 0eb8 0022     		movs	r2, #0
 2545 0eba 5A70     		strb	r2, [r3, #1]
 948:build/openmote-cc2538_armgcc/openstack/03b-IPv6/icmpv6rpl.c ****       
 949:build/openmote-cc2538_armgcc/openstack/03b-IPv6/icmpv6rpl.c ****       // stop here
 950:build/openmote-cc2538_armgcc/openstack/03b-IPv6/icmpv6rpl.c ****       return;
 2546              		.loc 1 950 0
 2547 0ebc C4E0     		b	.L156
 2548              	.L157:
 951:build/openmote-cc2538_armgcc/openstack/03b-IPv6/icmpv6rpl.c ****    }
 952:build/openmote-cc2538_armgcc/openstack/03b-IPv6/icmpv6rpl.c **** 
 953:build/openmote-cc2538_armgcc/openstack/03b-IPv6/icmpv6rpl.c **** //   if(idmanager_getMyID(ADDR_64B)->addr_64b[7] == 0x07){
 954:build/openmote-cc2538_armgcc/openstack/03b-IPv6/icmpv6rpl.c **** //	   return;
 955:build/openmote-cc2538_armgcc/openstack/03b-IPv6/icmpv6rpl.c **** //   }
 956:build/openmote-cc2538_armgcc/openstack/03b-IPv6/icmpv6rpl.c **** 
 957:build/openmote-cc2538_armgcc/openstack/03b-IPv6/icmpv6rpl.c ****    // do not send DIO if I have the default DAG rank
 958:build/openmote-cc2538_armgcc/openstack/03b-IPv6/icmpv6rpl.c ****    if (icmpv6rpl_getMyDAGrank()==DEFAULTDAGRANK) {
 2549              		.loc 1 958 0
 2550 0ebe FFF7FEFF 		bl	icmpv6rpl_getMyDAGrank
 2551 0ec2 0346     		mov	r3, r0
 2552 0ec4 1A46     		mov	r2, r3
 2553 0ec6 4FF6FF73 		movw	r3, #65535
 2554 0eca 9A42     		cmp	r2, r3
 2555 0ecc 00F0B980 		beq	.L163
 959:build/openmote-cc2538_armgcc/openstack/03b-IPv6/icmpv6rpl.c ****       return;
 960:build/openmote-cc2538_armgcc/openstack/03b-IPv6/icmpv6rpl.c ****    }
 961:build/openmote-cc2538_armgcc/openstack/03b-IPv6/icmpv6rpl.c ****    
 962:build/openmote-cc2538_armgcc/openstack/03b-IPv6/icmpv6rpl.c ****    // do not send DIO if I'm already busy sending
 963:build/openmote-cc2538_armgcc/openstack/03b-IPv6/icmpv6rpl.c ****    if (icmpv6rpl_vars.busySendingDIO==TRUE) {
 2556              		.loc 1 963 0
 2557 0ed0 5F4B     		ldr	r3, .L165
 2558 0ed2 1B78     		ldrb	r3, [r3]	@ zero_extendqisi2
 2559 0ed4 002B     		cmp	r3, #0
 2560 0ed6 40F0B680 		bne	.L164
 964:build/openmote-cc2538_armgcc/openstack/03b-IPv6/icmpv6rpl.c ****       return;
 965:build/openmote-cc2538_armgcc/openstack/03b-IPv6/icmpv6rpl.c ****    }
 966:build/openmote-cc2538_armgcc/openstack/03b-IPv6/icmpv6rpl.c ****    
 967:build/openmote-cc2538_armgcc/openstack/03b-IPv6/icmpv6rpl.c ****    // if you get here, all good to send a DIO
 968:build/openmote-cc2538_armgcc/openstack/03b-IPv6/icmpv6rpl.c ****    //printf("I am node %d,trying to send dio \n", idmanager_getMyID(ADDR_64B)->addr_64b[7]);
 969:build/openmote-cc2538_armgcc/openstack/03b-IPv6/icmpv6rpl.c **** 
 970:build/openmote-cc2538_armgcc/openstack/03b-IPv6/icmpv6rpl.c ****    // reserve a free packet buffer for DIO
 971:build/openmote-cc2538_armgcc/openstack/03b-IPv6/icmpv6rpl.c ****    msg = openqueue_getFreePacketBuffer(COMPONENT_ICMPv6RPL);
 2561              		.loc 1 971 0
 2562 0eda 1720     		movs	r0, #23
 2563 0edc FFF7FEFF 		bl	openqueue_getFreePacketBuffer
 2564 0ee0 7860     		str	r0, [r7, #4]
 972:build/openmote-cc2538_armgcc/openstack/03b-IPv6/icmpv6rpl.c ****    if (msg==NULL) {
 2565              		.loc 1 972 0
 2566 0ee2 7B68     		ldr	r3, [r7, #4]
 2567 0ee4 002B     		cmp	r3, #0
 2568 0ee6 06D1     		bne	.L161
 973:build/openmote-cc2538_armgcc/openstack/03b-IPv6/icmpv6rpl.c ****       openserial_printError(COMPONENT_ICMPv6RPL,ERR_NO_FREE_PACKET_BUFFER,
 2569              		.loc 1 973 0
 2570 0ee8 0023     		movs	r3, #0
 2571 0eea 0022     		movs	r2, #0
 2572 0eec 2C21     		movs	r1, #44
 2573 0eee 1720     		movs	r0, #23
 2574 0ef0 FFF7FEFF 		bl	openserial_printError
 974:build/openmote-cc2538_armgcc/openstack/03b-IPv6/icmpv6rpl.c ****                             (errorparameter_t)0,
 975:build/openmote-cc2538_armgcc/openstack/03b-IPv6/icmpv6rpl.c ****                             (errorparameter_t)0);
 976:build/openmote-cc2538_armgcc/openstack/03b-IPv6/icmpv6rpl.c ****       
 977:build/openmote-cc2538_armgcc/openstack/03b-IPv6/icmpv6rpl.c ****       return;
 2575              		.loc 1 977 0
 2576 0ef4 A8E0     		b	.L156
 2577              	.L161:
 978:build/openmote-cc2538_armgcc/openstack/03b-IPv6/icmpv6rpl.c ****    }
 979:build/openmote-cc2538_armgcc/openstack/03b-IPv6/icmpv6rpl.c ****    
 980:build/openmote-cc2538_armgcc/openstack/03b-IPv6/icmpv6rpl.c ****    // take ownership
 981:build/openmote-cc2538_armgcc/openstack/03b-IPv6/icmpv6rpl.c ****    msg->creator                             = COMPONENT_ICMPv6RPL;
 2578              		.loc 1 981 0
 2579 0ef6 7B68     		ldr	r3, [r7, #4]
 2580 0ef8 1722     		movs	r2, #23
 2581 0efa 1A70     		strb	r2, [r3]
 982:build/openmote-cc2538_armgcc/openstack/03b-IPv6/icmpv6rpl.c ****    msg->owner                               = COMPONENT_ICMPv6RPL;
 2582              		.loc 1 982 0
 2583 0efc 7B68     		ldr	r3, [r7, #4]
 2584 0efe 1722     		movs	r2, #23
 2585 0f00 5A70     		strb	r2, [r3, #1]
 983:build/openmote-cc2538_armgcc/openstack/03b-IPv6/icmpv6rpl.c ****    
 984:build/openmote-cc2538_armgcc/openstack/03b-IPv6/icmpv6rpl.c ****    // set transport information
 985:build/openmote-cc2538_armgcc/openstack/03b-IPv6/icmpv6rpl.c ****    msg->l4_protocol                         = IANA_ICMPv6;
 2586              		.loc 1 985 0
 2587 0f02 7B68     		ldr	r3, [r7, #4]
 2588 0f04 3A22     		movs	r2, #58
 2589 0f06 9A73     		strb	r2, [r3, #14]
 986:build/openmote-cc2538_armgcc/openstack/03b-IPv6/icmpv6rpl.c ****    msg->l4_protocol_compressed              = FALSE;
 2590              		.loc 1 986 0
 2591 0f08 7B68     		ldr	r3, [r7, #4]
 2592 0f0a 0022     		movs	r2, #0
 2593 0f0c DA73     		strb	r2, [r3, #15]
 987:build/openmote-cc2538_armgcc/openstack/03b-IPv6/icmpv6rpl.c ****    msg->l4_sourcePortORicmpv6Type           = IANA_ICMPv6_RPL;
 2594              		.loc 1 987 0
 2595 0f0e 7B68     		ldr	r3, [r7, #4]
 2596 0f10 9B22     		movs	r2, #155
 2597 0f12 1A82     		strh	r2, [r3, #16]	@ movhi
 988:build/openmote-cc2538_armgcc/openstack/03b-IPv6/icmpv6rpl.c ****    
 989:build/openmote-cc2538_armgcc/openstack/03b-IPv6/icmpv6rpl.c ****    // set DIO destination
 990:build/openmote-cc2538_armgcc/openstack/03b-IPv6/icmpv6rpl.c ****    memcpy(&(msg->l3_destinationAdd),&icmpv6rpl_vars.dioDestination,sizeof(open_addr_t));
 2598              		.loc 1 990 0
 2599 0f14 7B68     		ldr	r3, [r7, #4]
 2600 0f16 03F11902 		add	r2, r3, #25
 2601 0f1a 4D4B     		ldr	r3, .L165
 2602 0f1c 4B33     		adds	r3, r3, #75
 2603 0f1e 1D68     		ldr	r5, [r3]	@ unaligned
 2604 0f20 5C68     		ldr	r4, [r3, #4]	@ unaligned
 2605 0f22 9868     		ldr	r0, [r3, #8]	@ unaligned
 2606 0f24 D968     		ldr	r1, [r3, #12]	@ unaligned
 2607 0f26 1560     		str	r5, [r2]	@ unaligned
 2608 0f28 5460     		str	r4, [r2, #4]	@ unaligned
 2609 0f2a 9060     		str	r0, [r2, #8]	@ unaligned
 2610 0f2c D160     		str	r1, [r2, #12]	@ unaligned
 2611 0f2e 1B7C     		ldrb	r3, [r3, #16]
 2612 0f30 1374     		strb	r3, [r2, #16]
 991:build/openmote-cc2538_armgcc/openstack/03b-IPv6/icmpv6rpl.c ****    
 992:build/openmote-cc2538_armgcc/openstack/03b-IPv6/icmpv6rpl.c ****    //===== Configuration option
 993:build/openmote-cc2538_armgcc/openstack/03b-IPv6/icmpv6rpl.c ****    packetfunctions_reserveHeaderSize(msg,sizeof(icmpv6rpl_config_ht));
 2613              		.loc 1 993 0
 2614 0f32 1021     		movs	r1, #16
 2615 0f34 7868     		ldr	r0, [r7, #4]
 2616 0f36 FFF7FEFF 		bl	packetfunctions_reserveHeaderSize
 994:build/openmote-cc2538_armgcc/openstack/03b-IPv6/icmpv6rpl.c ****     
 995:build/openmote-cc2538_armgcc/openstack/03b-IPv6/icmpv6rpl.c ****    //copy the PIO in the packet
 996:build/openmote-cc2538_armgcc/openstack/03b-IPv6/icmpv6rpl.c ****    memcpy(
 997:build/openmote-cc2538_armgcc/openstack/03b-IPv6/icmpv6rpl.c ****       ((icmpv6rpl_pio_t*)(msg->payload)),
 2617              		.loc 1 997 0
 2618 0f3a 7B68     		ldr	r3, [r7, #4]
 2619 0f3c 5A68     		ldr	r2, [r3, #4]
 996:build/openmote-cc2538_armgcc/openstack/03b-IPv6/icmpv6rpl.c ****       ((icmpv6rpl_pio_t*)(msg->payload)),
 2620              		.loc 1 996 0
 2621 0f3e 444B     		ldr	r3, .L165
 2622 0f40 3B33     		adds	r3, r3, #59
 2623 0f42 1C68     		ldr	r4, [r3]	@ unaligned
 2624 0f44 5868     		ldr	r0, [r3, #4]	@ unaligned
 2625 0f46 9968     		ldr	r1, [r3, #8]	@ unaligned
 2626 0f48 DB68     		ldr	r3, [r3, #12]	@ unaligned
 2627 0f4a 1460     		str	r4, [r2]	@ unaligned
 2628 0f4c 5060     		str	r0, [r2, #4]	@ unaligned
 2629 0f4e 9160     		str	r1, [r2, #8]	@ unaligned
 2630 0f50 D360     		str	r3, [r2, #12]	@ unaligned
 998:build/openmote-cc2538_armgcc/openstack/03b-IPv6/icmpv6rpl.c ****       &(icmpv6rpl_vars.conf),
 999:build/openmote-cc2538_armgcc/openstack/03b-IPv6/icmpv6rpl.c ****       sizeof(icmpv6rpl_config_ht)
1000:build/openmote-cc2538_armgcc/openstack/03b-IPv6/icmpv6rpl.c ****    );
1001:build/openmote-cc2538_armgcc/openstack/03b-IPv6/icmpv6rpl.c ****    
1002:build/openmote-cc2538_armgcc/openstack/03b-IPv6/icmpv6rpl.c ****    //===== PIO payload
1003:build/openmote-cc2538_armgcc/openstack/03b-IPv6/icmpv6rpl.c **** 
1004:build/openmote-cc2538_armgcc/openstack/03b-IPv6/icmpv6rpl.c ****    packetfunctions_reserveHeaderSize(msg,sizeof(icmpv6rpl_pio_t));
 2631              		.loc 1 1004 0
 2632 0f52 2021     		movs	r1, #32
 2633 0f54 7868     		ldr	r0, [r7, #4]
 2634 0f56 FFF7FEFF 		bl	packetfunctions_reserveHeaderSize
1005:build/openmote-cc2538_armgcc/openstack/03b-IPv6/icmpv6rpl.c **** 
1006:build/openmote-cc2538_armgcc/openstack/03b-IPv6/icmpv6rpl.c ****    // copy my prefix into the PIO
1007:build/openmote-cc2538_armgcc/openstack/03b-IPv6/icmpv6rpl.c ****    
1008:build/openmote-cc2538_armgcc/openstack/03b-IPv6/icmpv6rpl.c ****    memcpy(
1009:build/openmote-cc2538_armgcc/openstack/03b-IPv6/icmpv6rpl.c ****       &(icmpv6rpl_vars.pio.prefix[0]),
1010:build/openmote-cc2538_armgcc/openstack/03b-IPv6/icmpv6rpl.c ****       idmanager_getMyID(ADDR_PREFIX)->prefix,
 2635              		.loc 1 1010 0
 2636 0f5a 0520     		movs	r0, #5
 2637 0f5c FFF7FEFF 		bl	idmanager_getMyID
 2638 0f60 0346     		mov	r3, r0
 2639 0f62 0133     		adds	r3, r3, #1
1008:build/openmote-cc2538_armgcc/openstack/03b-IPv6/icmpv6rpl.c ****       &(icmpv6rpl_vars.pio.prefix[0]),
 2640              		.loc 1 1008 0
 2641 0f64 0822     		movs	r2, #8
 2642 0f66 1946     		mov	r1, r3
 2643 0f68 3A48     		ldr	r0, .L165+4
 2644 0f6a FFF7FEFF 		bl	memcpy
1011:build/openmote-cc2538_armgcc/openstack/03b-IPv6/icmpv6rpl.c ****       sizeof(idmanager_getMyID(ADDR_PREFIX)->prefix)
1012:build/openmote-cc2538_armgcc/openstack/03b-IPv6/icmpv6rpl.c ****    );
1013:build/openmote-cc2538_armgcc/openstack/03b-IPv6/icmpv6rpl.c ****    // host address is not needed. Only prefix.
1014:build/openmote-cc2538_armgcc/openstack/03b-IPv6/icmpv6rpl.c ****    /* memcpy(
1015:build/openmote-cc2538_armgcc/openstack/03b-IPv6/icmpv6rpl.c ****       &(icmpv6rpl_vars.pio.prefix[8]),
1016:build/openmote-cc2538_armgcc/openstack/03b-IPv6/icmpv6rpl.c ****       idmanager_getMyID(ADDR_64B)->addr_64b,
1017:build/openmote-cc2538_armgcc/openstack/03b-IPv6/icmpv6rpl.c ****       sizeof(idmanager_getMyID(ADDR_64B)->addr_64b)
1018:build/openmote-cc2538_armgcc/openstack/03b-IPv6/icmpv6rpl.c ****    );*/
1019:build/openmote-cc2538_armgcc/openstack/03b-IPv6/icmpv6rpl.c ****    
1020:build/openmote-cc2538_armgcc/openstack/03b-IPv6/icmpv6rpl.c ****    //copy the PIO in the packet
1021:build/openmote-cc2538_armgcc/openstack/03b-IPv6/icmpv6rpl.c ****    memcpy(
1022:build/openmote-cc2538_armgcc/openstack/03b-IPv6/icmpv6rpl.c ****       ((icmpv6rpl_pio_t*)(msg->payload)),
 2645              		.loc 1 1022 0
 2646 0f6e 7B68     		ldr	r3, [r7, #4]
 2647 0f70 5A68     		ldr	r2, [r3, #4]
1021:build/openmote-cc2538_armgcc/openstack/03b-IPv6/icmpv6rpl.c ****       ((icmpv6rpl_pio_t*)(msg->payload)),
 2648              		.loc 1 1021 0
 2649 0f72 374B     		ldr	r3, .L165
 2650 0f74 1B33     		adds	r3, r3, #27
 2651 0f76 1D68     		ldr	r5, [r3]	@ unaligned
 2652 0f78 5C68     		ldr	r4, [r3, #4]	@ unaligned
 2653 0f7a 9868     		ldr	r0, [r3, #8]	@ unaligned
 2654 0f7c D968     		ldr	r1, [r3, #12]	@ unaligned
 2655 0f7e 1560     		str	r5, [r2]	@ unaligned
 2656 0f80 5460     		str	r4, [r2, #4]	@ unaligned
 2657 0f82 9060     		str	r0, [r2, #8]	@ unaligned
 2658 0f84 D160     		str	r1, [r2, #12]	@ unaligned
 2659 0f86 1D69     		ldr	r5, [r3, #16]	@ unaligned
 2660 0f88 5C69     		ldr	r4, [r3, #20]	@ unaligned
 2661 0f8a 9869     		ldr	r0, [r3, #24]	@ unaligned
 2662 0f8c D969     		ldr	r1, [r3, #28]	@ unaligned
 2663 0f8e 1561     		str	r5, [r2, #16]	@ unaligned
 2664 0f90 5461     		str	r4, [r2, #20]	@ unaligned
 2665 0f92 9061     		str	r0, [r2, #24]	@ unaligned
 2666 0f94 D161     		str	r1, [r2, #28]	@ unaligned
1023:build/openmote-cc2538_armgcc/openstack/03b-IPv6/icmpv6rpl.c ****       &(icmpv6rpl_vars.pio),
1024:build/openmote-cc2538_armgcc/openstack/03b-IPv6/icmpv6rpl.c ****       sizeof(icmpv6rpl_pio_t)
1025:build/openmote-cc2538_armgcc/openstack/03b-IPv6/icmpv6rpl.c ****    );
1026:build/openmote-cc2538_armgcc/openstack/03b-IPv6/icmpv6rpl.c **** 
1027:build/openmote-cc2538_armgcc/openstack/03b-IPv6/icmpv6rpl.c **** 
1028:build/openmote-cc2538_armgcc/openstack/03b-IPv6/icmpv6rpl.c ****    //===== DIO payload
1029:build/openmote-cc2538_armgcc/openstack/03b-IPv6/icmpv6rpl.c ****    // note: DIO is already mostly populated
1030:build/openmote-cc2538_armgcc/openstack/03b-IPv6/icmpv6rpl.c ****    icmpv6rpl_vars.dio.rank                  = icmpv6rpl_getMyDAGrank();
 2667              		.loc 1 1030 0
 2668 0f96 FFF7FEFF 		bl	icmpv6rpl_getMyDAGrank
 2669 0f9a 0346     		mov	r3, r0
 2670 0f9c 1A46     		mov	r2, r3
 2671 0f9e 2C4B     		ldr	r3, .L165
 2672 0fa0 A3F80520 		strh	r2, [r3, #5]	@ unaligned
1031:build/openmote-cc2538_armgcc/openstack/03b-IPv6/icmpv6rpl.c ****    packetfunctions_reserveHeaderSize(msg,sizeof(icmpv6rpl_dio_ht));
 2673              		.loc 1 1031 0
 2674 0fa4 1821     		movs	r1, #24
 2675 0fa6 7868     		ldr	r0, [r7, #4]
 2676 0fa8 FFF7FEFF 		bl	packetfunctions_reserveHeaderSize
1032:build/openmote-cc2538_armgcc/openstack/03b-IPv6/icmpv6rpl.c ****    memcpy(
1033:build/openmote-cc2538_armgcc/openstack/03b-IPv6/icmpv6rpl.c ****       ((icmpv6rpl_dio_ht*)(msg->payload)),
 2677              		.loc 1 1033 0
 2678 0fac 7B68     		ldr	r3, [r7, #4]
 2679 0fae 5A68     		ldr	r2, [r3, #4]
1032:build/openmote-cc2538_armgcc/openstack/03b-IPv6/icmpv6rpl.c ****    memcpy(
 2680              		.loc 1 1032 0
 2681 0fb0 274B     		ldr	r3, .L165
 2682 0fb2 0333     		adds	r3, r3, #3
 2683 0fb4 1868     		ldr	r0, [r3]	@ unaligned
 2684 0fb6 5968     		ldr	r1, [r3, #4]	@ unaligned
 2685 0fb8 9D68     		ldr	r5, [r3, #8]	@ unaligned
 2686 0fba DC68     		ldr	r4, [r3, #12]	@ unaligned
 2687 0fbc 1060     		str	r0, [r2]	@ unaligned
 2688 0fbe 5160     		str	r1, [r2, #4]	@ unaligned
 2689 0fc0 9560     		str	r5, [r2, #8]	@ unaligned
 2690 0fc2 D460     		str	r4, [r2, #12]	@ unaligned
 2691 0fc4 1869     		ldr	r0, [r3, #16]	@ unaligned
 2692 0fc6 5969     		ldr	r1, [r3, #20]	@ unaligned
 2693 0fc8 1061     		str	r0, [r2, #16]	@ unaligned
 2694 0fca 5161     		str	r1, [r2, #20]	@ unaligned
1034:build/openmote-cc2538_armgcc/openstack/03b-IPv6/icmpv6rpl.c ****       &(icmpv6rpl_vars.dio),
1035:build/openmote-cc2538_armgcc/openstack/03b-IPv6/icmpv6rpl.c ****       sizeof(icmpv6rpl_dio_ht)
1036:build/openmote-cc2538_armgcc/openstack/03b-IPv6/icmpv6rpl.c ****    );
1037:build/openmote-cc2538_armgcc/openstack/03b-IPv6/icmpv6rpl.c ****    
1038:build/openmote-cc2538_armgcc/openstack/03b-IPv6/icmpv6rpl.c ****    // reverse the rank bytes order in Big Endian
1039:build/openmote-cc2538_armgcc/openstack/03b-IPv6/icmpv6rpl.c ****    *(msg->payload+2) = (icmpv6rpl_vars.dio.rank >> 8) & 0xFF;
 2695              		.loc 1 1039 0
 2696 0fcc 7B68     		ldr	r3, [r7, #4]
 2697 0fce 5B68     		ldr	r3, [r3, #4]
 2698 0fd0 0233     		adds	r3, r3, #2
 2699 0fd2 1F4A     		ldr	r2, .L165
 2700 0fd4 B2F80520 		ldrh	r2, [r2, #5]	@ unaligned
 2701 0fd8 92B2     		uxth	r2, r2
 2702 0fda 120A     		lsrs	r2, r2, #8
 2703 0fdc 92B2     		uxth	r2, r2
 2704 0fde D2B2     		uxtb	r2, r2
 2705 0fe0 1A70     		strb	r2, [r3]
1040:build/openmote-cc2538_armgcc/openstack/03b-IPv6/icmpv6rpl.c ****    *(msg->payload+3) = icmpv6rpl_vars.dio.rank        & 0xFF;
 2706              		.loc 1 1040 0
 2707 0fe2 7B68     		ldr	r3, [r7, #4]
 2708 0fe4 5B68     		ldr	r3, [r3, #4]
 2709 0fe6 0333     		adds	r3, r3, #3
 2710 0fe8 194A     		ldr	r2, .L165
 2711 0fea B2F80520 		ldrh	r2, [r2, #5]	@ unaligned
 2712 0fee 92B2     		uxth	r2, r2
 2713 0ff0 D2B2     		uxtb	r2, r2
 2714 0ff2 1A70     		strb	r2, [r3]
1041:build/openmote-cc2538_armgcc/openstack/03b-IPv6/icmpv6rpl.c ****    
1042:build/openmote-cc2538_armgcc/openstack/03b-IPv6/icmpv6rpl.c ****    //===== ICMPv6 header
1043:build/openmote-cc2538_armgcc/openstack/03b-IPv6/icmpv6rpl.c ****    packetfunctions_reserveHeaderSize(msg,sizeof(ICMPv6_ht));
 2715              		.loc 1 1043 0
 2716 0ff4 0421     		movs	r1, #4
 2717 0ff6 7868     		ldr	r0, [r7, #4]
 2718 0ff8 FFF7FEFF 		bl	packetfunctions_reserveHeaderSize
1044:build/openmote-cc2538_armgcc/openstack/03b-IPv6/icmpv6rpl.c ****    ((ICMPv6_ht*)(msg->payload))->type       = msg->l4_sourcePortORicmpv6Type;
 2719              		.loc 1 1044 0
 2720 0ffc 7B68     		ldr	r3, [r7, #4]
 2721 0ffe 5B68     		ldr	r3, [r3, #4]
 2722 1000 7A68     		ldr	r2, [r7, #4]
 2723 1002 128A     		ldrh	r2, [r2, #16]
 2724 1004 D2B2     		uxtb	r2, r2
 2725 1006 1A70     		strb	r2, [r3]
1045:build/openmote-cc2538_armgcc/openstack/03b-IPv6/icmpv6rpl.c ****    ((ICMPv6_ht*)(msg->payload))->code       = IANA_ICMPv6_RPL_DIO;
 2726              		.loc 1 1045 0
 2727 1008 7B68     		ldr	r3, [r7, #4]
 2728 100a 5B68     		ldr	r3, [r3, #4]
 2729 100c 0122     		movs	r2, #1
 2730 100e 5A70     		strb	r2, [r3, #1]
1046:build/openmote-cc2538_armgcc/openstack/03b-IPv6/icmpv6rpl.c ****    packetfunctions_calculateChecksum(msg,(uint8_t*)&(((ICMPv6_ht*)(msg->payload))->checksum));//cal
 2731              		.loc 1 1046 0
 2732 1010 7B68     		ldr	r3, [r7, #4]
 2733 1012 5B68     		ldr	r3, [r3, #4]
 2734 1014 0233     		adds	r3, r3, #2
 2735 1016 1946     		mov	r1, r3
 2736 1018 7868     		ldr	r0, [r7, #4]
 2737 101a FFF7FEFF 		bl	packetfunctions_calculateChecksum
1047:build/openmote-cc2538_armgcc/openstack/03b-IPv6/icmpv6rpl.c ****    
1048:build/openmote-cc2538_armgcc/openstack/03b-IPv6/icmpv6rpl.c ****    //printf("I am node %d, Enqueuing DIO with rank %d \n", idmanager_getMyID(ADDR_64B)->addr_64b[7]
1049:build/openmote-cc2538_armgcc/openstack/03b-IPv6/icmpv6rpl.c ****     msg->isDioFake=FALSE;
 2738              		.loc 1 1049 0
 2739 101e 7B68     		ldr	r3, [r7, #4]
 2740 1020 0022     		movs	r2, #0
 2741 1022 83F84321 		strb	r2, [r3, #323]
1050:build/openmote-cc2538_armgcc/openstack/03b-IPv6/icmpv6rpl.c ****     //send
1051:build/openmote-cc2538_armgcc/openstack/03b-IPv6/icmpv6rpl.c ****     if (icmpv6_send(msg)==E_SUCCESS) {
 2742              		.loc 1 1051 0
 2743 1026 7868     		ldr	r0, [r7, #4]
 2744 1028 FFF7FEFF 		bl	icmpv6_send
 2745 102c 0346     		mov	r3, r0
 2746 102e 002B     		cmp	r3, #0
 2747 1030 03D1     		bne	.L162
1052:build/openmote-cc2538_armgcc/openstack/03b-IPv6/icmpv6rpl.c ****         icmpv6rpl_vars.busySendingDIO = TRUE; 
 2748              		.loc 1 1052 0
 2749 1032 074B     		ldr	r3, .L165
 2750 1034 0122     		movs	r2, #1
 2751 1036 1A70     		strb	r2, [r3]
 2752 1038 06E0     		b	.L156
 2753              	.L162:
1053:build/openmote-cc2538_armgcc/openstack/03b-IPv6/icmpv6rpl.c ****     } else {
1054:build/openmote-cc2538_armgcc/openstack/03b-IPv6/icmpv6rpl.c ****         openqueue_freePacketBuffer(msg);
 2754              		.loc 1 1054 0
 2755 103a 7868     		ldr	r0, [r7, #4]
 2756 103c FFF7FEFF 		bl	openqueue_freePacketBuffer
 2757 1040 02E0     		b	.L156
 2758              	.L163:
 959:build/openmote-cc2538_armgcc/openstack/03b-IPv6/icmpv6rpl.c ****    }
 2759              		.loc 1 959 0
 2760 1042 00BF     		nop
 2761 1044 00E0     		b	.L156
 2762              	.L164:
 964:build/openmote-cc2538_armgcc/openstack/03b-IPv6/icmpv6rpl.c ****    }
 2763              		.loc 1 964 0
 2764 1046 00BF     		nop
 2765              	.L156:
1055:build/openmote-cc2538_armgcc/openstack/03b-IPv6/icmpv6rpl.c ****     }
1056:build/openmote-cc2538_armgcc/openstack/03b-IPv6/icmpv6rpl.c **** }
 2766              		.loc 1 1056 0
 2767 1048 0837     		adds	r7, r7, #8
 2768              		.cfi_def_cfa_offset 16
 2769 104a BD46     		mov	sp, r7
 2770              		.cfi_def_cfa_register 13
 2771              		@ sp needed
 2772 104c B0BD     		pop	{r4, r5, r7, pc}
 2773              	.L166:
 2774 104e 00BF     		.align	2
 2775              	.L165:
 2776 1050 00000000 		.word	icmpv6rpl_vars
 2777 1054 2B000000 		.word	icmpv6rpl_vars+43
 2778              		.cfi_endproc
 2779              	.LFE17:
 2781              		.align	2
 2782              		.global	icmpv6rpl_timer_DAO_cb
 2783              		.thumb
 2784              		.thumb_func
 2786              	icmpv6rpl_timer_DAO_cb:
 2787              	.LFB18:
1057:build/openmote-cc2538_armgcc/openstack/03b-IPv6/icmpv6rpl.c **** 
1058:build/openmote-cc2538_armgcc/openstack/03b-IPv6/icmpv6rpl.c **** //===== DAO-related
1059:build/openmote-cc2538_armgcc/openstack/03b-IPv6/icmpv6rpl.c **** 
1060:build/openmote-cc2538_armgcc/openstack/03b-IPv6/icmpv6rpl.c **** /**
1061:build/openmote-cc2538_armgcc/openstack/03b-IPv6/icmpv6rpl.c **** \brief DAO timer callback function.
1062:build/openmote-cc2538_armgcc/openstack/03b-IPv6/icmpv6rpl.c **** 
1063:build/openmote-cc2538_armgcc/openstack/03b-IPv6/icmpv6rpl.c **** \note This function is executed in interrupt context, and should only push a
1064:build/openmote-cc2538_armgcc/openstack/03b-IPv6/icmpv6rpl.c ****    task.
1065:build/openmote-cc2538_armgcc/openstack/03b-IPv6/icmpv6rpl.c **** */
1066:build/openmote-cc2538_armgcc/openstack/03b-IPv6/icmpv6rpl.c **** void icmpv6rpl_timer_DAO_cb(opentimers_id_t id) {
 2788              		.loc 1 1066 0
 2789              		.cfi_startproc
 2790              		@ args = 0, pretend = 0, frame = 8
 2791              		@ frame_needed = 1, uses_anonymous_args = 0
 2792 1058 90B5     		push	{r4, r7, lr}
 2793              		.cfi_def_cfa_offset 12
 2794              		.cfi_offset 4, -12
 2795              		.cfi_offset 7, -8
 2796              		.cfi_offset 14, -4
 2797 105a 85B0     		sub	sp, sp, #20
 2798              		.cfi_def_cfa_offset 32
 2799 105c 02AF     		add	r7, sp, #8
 2800              		.cfi_def_cfa 7, 24
 2801 105e 0346     		mov	r3, r0
 2802 1060 FB71     		strb	r3, [r7, #7]
1067:build/openmote-cc2538_armgcc/openstack/03b-IPv6/icmpv6rpl.c ****     scheduler_push_task(icmpv6rpl_timer_DAO_task,TASKPRIO_RPL);
 2803              		.loc 1 1067 0
 2804 1062 0421     		movs	r1, #4
 2805 1064 0B48     		ldr	r0, .L168
 2806 1066 FFF7FEFF 		bl	scheduler_push_task
1068:build/openmote-cc2538_armgcc/openstack/03b-IPv6/icmpv6rpl.c ****     // update the period
1069:build/openmote-cc2538_armgcc/openstack/03b-IPv6/icmpv6rpl.c ****     opentimers_scheduleIn(
 2807              		.loc 1 1069 0
 2808 106a 0B4B     		ldr	r3, .L168+4
 2809 106c 93F88040 		ldrb	r4, [r3, #128]	@ zero_extendqisi2
1070:build/openmote-cc2538_armgcc/openstack/03b-IPv6/icmpv6rpl.c ****         icmpv6rpl_vars.timerIdDAO,
1071:build/openmote-cc2538_armgcc/openstack/03b-IPv6/icmpv6rpl.c ****         872 +(openrandom_get16b()&0xff),
 2810              		.loc 1 1071 0
 2811 1070 FFF7FEFF 		bl	openrandom_get16b
 2812 1074 0346     		mov	r3, r0
 2813 1076 DBB2     		uxtb	r3, r3
 2814 1078 03F55A73 		add	r3, r3, #872
1069:build/openmote-cc2538_armgcc/openstack/03b-IPv6/icmpv6rpl.c ****         icmpv6rpl_vars.timerIdDAO,
 2815              		.loc 1 1069 0
 2816 107c 1946     		mov	r1, r3
 2817 107e 074B     		ldr	r3, .L168+8
 2818 1080 0093     		str	r3, [sp]
 2819 1082 0123     		movs	r3, #1
 2820 1084 0022     		movs	r2, #0
 2821 1086 2046     		mov	r0, r4
 2822 1088 FFF7FEFF 		bl	opentimers_scheduleIn
1072:build/openmote-cc2538_armgcc/openstack/03b-IPv6/icmpv6rpl.c ****         TIME_MS,
1073:build/openmote-cc2538_armgcc/openstack/03b-IPv6/icmpv6rpl.c ****         TIMER_ONESHOT,
1074:build/openmote-cc2538_armgcc/openstack/03b-IPv6/icmpv6rpl.c ****         icmpv6rpl_timer_DAO_cb
1075:build/openmote-cc2538_armgcc/openstack/03b-IPv6/icmpv6rpl.c ****     );
1076:build/openmote-cc2538_armgcc/openstack/03b-IPv6/icmpv6rpl.c **** }
 2823              		.loc 1 1076 0
 2824 108c 00BF     		nop
 2825 108e 0C37     		adds	r7, r7, #12
 2826              		.cfi_def_cfa_offset 12
 2827 1090 BD46     		mov	sp, r7
 2828              		.cfi_def_cfa_register 13
 2829              		@ sp needed
 2830 1092 90BD     		pop	{r4, r7, pc}
 2831              	.L169:
 2832              		.align	2
 2833              	.L168:
 2834 1094 00000000 		.word	icmpv6rpl_timer_DAO_task
 2835 1098 00000000 		.word	icmpv6rpl_vars
 2836 109c 00000000 		.word	icmpv6rpl_timer_DAO_cb
 2837              		.cfi_endproc
 2838              	.LFE18:
 2840              		.align	2
 2841              		.global	icmpv6rpl_timer_DAO_task
 2842              		.thumb
 2843              		.thumb_func
 2845              	icmpv6rpl_timer_DAO_task:
 2846              	.LFB19:
1077:build/openmote-cc2538_armgcc/openstack/03b-IPv6/icmpv6rpl.c **** 
1078:build/openmote-cc2538_armgcc/openstack/03b-IPv6/icmpv6rpl.c **** /**
1079:build/openmote-cc2538_armgcc/openstack/03b-IPv6/icmpv6rpl.c **** \brief Handler for DAO timer event.
1080:build/openmote-cc2538_armgcc/openstack/03b-IPv6/icmpv6rpl.c **** 
1081:build/openmote-cc2538_armgcc/openstack/03b-IPv6/icmpv6rpl.c **** \note This function is executed in task context, called by the scheduler.
1082:build/openmote-cc2538_armgcc/openstack/03b-IPv6/icmpv6rpl.c **** */
1083:build/openmote-cc2538_armgcc/openstack/03b-IPv6/icmpv6rpl.c **** void icmpv6rpl_timer_DAO_task() {
 2847              		.loc 1 1083 0
 2848              		.cfi_startproc
 2849              		@ args = 0, pretend = 0, frame = 0
 2850              		@ frame_needed = 1, uses_anonymous_args = 0
 2851 10a0 80B5     		push	{r7, lr}
 2852              		.cfi_def_cfa_offset 8
 2853              		.cfi_offset 7, -8
 2854              		.cfi_offset 14, -4
 2855 10a2 00AF     		add	r7, sp, #0
 2856              		.cfi_def_cfa_register 7
1084:build/openmote-cc2538_armgcc/openstack/03b-IPv6/icmpv6rpl.c ****     icmpv6rpl_vars.daoTimerCounter = (icmpv6rpl_vars.daoTimerCounter+1)%icmpv6rpl_vars.daoPeriod;
 2857              		.loc 1 1084 0
 2858 10a4 0D4B     		ldr	r3, .L174
 2859 10a6 B3F88230 		ldrh	r3, [r3, #130]
 2860 10aa 0133     		adds	r3, r3, #1
 2861 10ac 0B4A     		ldr	r2, .L174
 2862 10ae B2F88420 		ldrh	r2, [r2, #132]
 2863 10b2 93FBF2F1 		sdiv	r1, r3, r2
 2864 10b6 02FB01F2 		mul	r2, r2, r1
 2865 10ba 9B1A     		subs	r3, r3, r2
 2866 10bc 9AB2     		uxth	r2, r3
 2867 10be 074B     		ldr	r3, .L174
 2868 10c0 A3F88220 		strh	r2, [r3, #130]	@ movhi
1085:build/openmote-cc2538_armgcc/openstack/03b-IPv6/icmpv6rpl.c ****     switch (icmpv6rpl_vars.daoTimerCounter) {
 2869              		.loc 1 1085 0
 2870 10c4 054B     		ldr	r3, .L174
 2871 10c6 B3F88230 		ldrh	r3, [r3, #130]
 2872 10ca 002B     		cmp	r3, #0
 2873 10cc 00D0     		beq	.L172
1086:build/openmote-cc2538_armgcc/openstack/03b-IPv6/icmpv6rpl.c ****     case 0:
1087:build/openmote-cc2538_armgcc/openstack/03b-IPv6/icmpv6rpl.c ****         // called every TIMER_DAO_TIMEOUT seconds
1088:build/openmote-cc2538_armgcc/openstack/03b-IPv6/icmpv6rpl.c ****         sendDAO();
1089:build/openmote-cc2538_armgcc/openstack/03b-IPv6/icmpv6rpl.c ****         break;
1090:build/openmote-cc2538_armgcc/openstack/03b-IPv6/icmpv6rpl.c ****     default:
1091:build/openmote-cc2538_armgcc/openstack/03b-IPv6/icmpv6rpl.c ****         break;
 2874              		.loc 1 1091 0
 2875 10ce 02E0     		b	.L173
 2876              	.L172:
1088:build/openmote-cc2538_armgcc/openstack/03b-IPv6/icmpv6rpl.c ****         break;
 2877              		.loc 1 1088 0
 2878 10d0 FFF7FEFF 		bl	sendDAO
1089:build/openmote-cc2538_armgcc/openstack/03b-IPv6/icmpv6rpl.c ****     default:
 2879              		.loc 1 1089 0
 2880 10d4 00BF     		nop
 2881              	.L173:
1092:build/openmote-cc2538_armgcc/openstack/03b-IPv6/icmpv6rpl.c ****     }
1093:build/openmote-cc2538_armgcc/openstack/03b-IPv6/icmpv6rpl.c **** }
 2882              		.loc 1 1093 0
 2883 10d6 00BF     		nop
 2884 10d8 80BD     		pop	{r7, pc}
 2885              	.L175:
 2886 10da 00BF     		.align	2
 2887              	.L174:
 2888 10dc 00000000 		.word	icmpv6rpl_vars
 2889              		.cfi_endproc
 2890              	.LFE19:
 2892              		.align	2
 2893              		.global	sendDAO
 2894              		.thumb
 2895              		.thumb_func
 2897              	sendDAO:
 2898              	.LFB20:
1094:build/openmote-cc2538_armgcc/openstack/03b-IPv6/icmpv6rpl.c **** 
1095:build/openmote-cc2538_armgcc/openstack/03b-IPv6/icmpv6rpl.c **** /**
1096:build/openmote-cc2538_armgcc/openstack/03b-IPv6/icmpv6rpl.c **** \brief Prepare and a send a RPL DAO.
1097:build/openmote-cc2538_armgcc/openstack/03b-IPv6/icmpv6rpl.c **** */
1098:build/openmote-cc2538_armgcc/openstack/03b-IPv6/icmpv6rpl.c **** void sendDAO() {
 2899              		.loc 1 1098 0
 2900              		.cfi_startproc
 2901              		@ args = 0, pretend = 0, frame = 40
 2902              		@ frame_needed = 1, uses_anonymous_args = 0
 2903 10e0 B0B5     		push	{r4, r5, r7, lr}
 2904              		.cfi_def_cfa_offset 16
 2905              		.cfi_offset 4, -16
 2906              		.cfi_offset 5, -12
 2907              		.cfi_offset 7, -8
 2908              		.cfi_offset 14, -4
 2909 10e2 8AB0     		sub	sp, sp, #40
 2910              		.cfi_def_cfa_offset 56
 2911 10e4 00AF     		add	r7, sp, #0
 2912              		.cfi_def_cfa_register 7
1099:build/openmote-cc2538_armgcc/openstack/03b-IPv6/icmpv6rpl.c ****    OpenQueueEntry_t*    msg;                // pointer to DAO messages
1100:build/openmote-cc2538_armgcc/openstack/03b-IPv6/icmpv6rpl.c ****    uint8_t              nbrIdx;             // running neighbor index
1101:build/openmote-cc2538_armgcc/openstack/03b-IPv6/icmpv6rpl.c ****    uint8_t              numTransitParents,numTargetParents;  // the number of parents indicated in 
1102:build/openmote-cc2538_armgcc/openstack/03b-IPv6/icmpv6rpl.c ****    open_addr_t         address;
1103:build/openmote-cc2538_armgcc/openstack/03b-IPv6/icmpv6rpl.c ****    open_addr_t*        prefix;
1104:build/openmote-cc2538_armgcc/openstack/03b-IPv6/icmpv6rpl.c ****    
1105:build/openmote-cc2538_armgcc/openstack/03b-IPv6/icmpv6rpl.c ****    if (ieee154e_isSynch()==FALSE) {
 2913              		.loc 1 1105 0
 2914 10e6 FFF7FEFF 		bl	ieee154e_isSynch
 2915 10ea 0346     		mov	r3, r0
 2916 10ec 83F00103 		eor	r3, r3, #1
 2917 10f0 DBB2     		uxtb	r3, r3
 2918 10f2 002B     		cmp	r3, #0
 2919 10f4 09D0     		beq	.L177
1106:build/openmote-cc2538_armgcc/openstack/03b-IPv6/icmpv6rpl.c ****       // I'm not sync'ed 
1107:build/openmote-cc2538_armgcc/openstack/03b-IPv6/icmpv6rpl.c ****       
1108:build/openmote-cc2538_armgcc/openstack/03b-IPv6/icmpv6rpl.c ****       // delete packets genereted by this module (DIO and DAO) from openqueue
1109:build/openmote-cc2538_armgcc/openstack/03b-IPv6/icmpv6rpl.c ****       openqueue_removeAllCreatedBy(COMPONENT_ICMPv6RPL);
 2920              		.loc 1 1109 0
 2921 10f6 1720     		movs	r0, #23
 2922 10f8 FFF7FEFF 		bl	openqueue_removeAllCreatedBy
1110:build/openmote-cc2538_armgcc/openstack/03b-IPv6/icmpv6rpl.c ****       
1111:build/openmote-cc2538_armgcc/openstack/03b-IPv6/icmpv6rpl.c ****       // I'm not busy sending a DIO/DAO
1112:build/openmote-cc2538_armgcc/openstack/03b-IPv6/icmpv6rpl.c ****       icmpv6rpl_vars.busySendingDAO = FALSE;
 2923              		.loc 1 1112 0
 2924 10fc 914B     		ldr	r3, .L196
 2925 10fe 0022     		movs	r2, #0
 2926 1100 5A70     		strb	r2, [r3, #1]
1113:build/openmote-cc2538_armgcc/openstack/03b-IPv6/icmpv6rpl.c ****       icmpv6rpl_vars.busySendingDIO = FALSE;
 2927              		.loc 1 1113 0
 2928 1102 904B     		ldr	r3, .L196
 2929 1104 0022     		movs	r2, #0
 2930 1106 1A70     		strb	r2, [r3]
1114:build/openmote-cc2538_armgcc/openstack/03b-IPv6/icmpv6rpl.c ****       
1115:build/openmote-cc2538_armgcc/openstack/03b-IPv6/icmpv6rpl.c ****       // stop here
1116:build/openmote-cc2538_armgcc/openstack/03b-IPv6/icmpv6rpl.c ****       return;
 2931              		.loc 1 1116 0
 2932 1108 19E1     		b	.L176
 2933              	.L177:
1117:build/openmote-cc2538_armgcc/openstack/03b-IPv6/icmpv6rpl.c ****    }
1118:build/openmote-cc2538_armgcc/openstack/03b-IPv6/icmpv6rpl.c ****    
1119:build/openmote-cc2538_armgcc/openstack/03b-IPv6/icmpv6rpl.c ****    // dont' send a DAO if you're the DAG root
1120:build/openmote-cc2538_armgcc/openstack/03b-IPv6/icmpv6rpl.c ****    if (idmanager_getIsDAGroot()==TRUE) {
 2934              		.loc 1 1120 0
 2935 110a FFF7FEFF 		bl	idmanager_getIsDAGroot
 2936 110e 0346     		mov	r3, r0
 2937 1110 002B     		cmp	r3, #0
 2938 1112 40F00F81 		bne	.L192
1121:build/openmote-cc2538_armgcc/openstack/03b-IPv6/icmpv6rpl.c ****       return;
1122:build/openmote-cc2538_armgcc/openstack/03b-IPv6/icmpv6rpl.c ****    }
1123:build/openmote-cc2538_armgcc/openstack/03b-IPv6/icmpv6rpl.c ****    
1124:build/openmote-cc2538_armgcc/openstack/03b-IPv6/icmpv6rpl.c ****    // dont' send a DAO if you did not acquire a DAGrank
1125:build/openmote-cc2538_armgcc/openstack/03b-IPv6/icmpv6rpl.c ****    if (icmpv6rpl_getMyDAGrank()==DEFAULTDAGRANK) {
 2939              		.loc 1 1125 0
 2940 1116 FFF7FEFF 		bl	icmpv6rpl_getMyDAGrank
 2941 111a 0346     		mov	r3, r0
 2942 111c 1A46     		mov	r2, r3
 2943 111e 4FF6FF73 		movw	r3, #65535
 2944 1122 9A42     		cmp	r2, r3
 2945 1124 00F00881 		beq	.L193
1126:build/openmote-cc2538_armgcc/openstack/03b-IPv6/icmpv6rpl.c ****        return;
1127:build/openmote-cc2538_armgcc/openstack/03b-IPv6/icmpv6rpl.c ****    }
1128:build/openmote-cc2538_armgcc/openstack/03b-IPv6/icmpv6rpl.c ****    
1129:build/openmote-cc2538_armgcc/openstack/03b-IPv6/icmpv6rpl.c ****    // dont' send a DAO if you're still busy sending the previous one
1130:build/openmote-cc2538_armgcc/openstack/03b-IPv6/icmpv6rpl.c ****    if (icmpv6rpl_vars.busySendingDAO==TRUE) {
 2946              		.loc 1 1130 0
 2947 1128 864B     		ldr	r3, .L196
 2948 112a 5B78     		ldrb	r3, [r3, #1]	@ zero_extendqisi2
 2949 112c 002B     		cmp	r3, #0
 2950 112e 40F00581 		bne	.L194
1131:build/openmote-cc2538_armgcc/openstack/03b-IPv6/icmpv6rpl.c ****       return;
1132:build/openmote-cc2538_armgcc/openstack/03b-IPv6/icmpv6rpl.c ****    }
1133:build/openmote-cc2538_armgcc/openstack/03b-IPv6/icmpv6rpl.c ****    
1134:build/openmote-cc2538_armgcc/openstack/03b-IPv6/icmpv6rpl.c ****    // if you get here, you start construct DAO
1135:build/openmote-cc2538_armgcc/openstack/03b-IPv6/icmpv6rpl.c ****    
1136:build/openmote-cc2538_armgcc/openstack/03b-IPv6/icmpv6rpl.c ****    // reserve a free packet buffer for DAO
1137:build/openmote-cc2538_armgcc/openstack/03b-IPv6/icmpv6rpl.c ****    msg = openqueue_getFreePacketBuffer(COMPONENT_ICMPv6RPL);
 2951              		.loc 1 1137 0
 2952 1132 1720     		movs	r0, #23
 2953 1134 FFF7FEFF 		bl	openqueue_getFreePacketBuffer
 2954 1138 3862     		str	r0, [r7, #32]
1138:build/openmote-cc2538_armgcc/openstack/03b-IPv6/icmpv6rpl.c ****    if (msg==NULL) {
 2955              		.loc 1 1138 0
 2956 113a 3B6A     		ldr	r3, [r7, #32]
 2957 113c 002B     		cmp	r3, #0
 2958 113e 06D1     		bne	.L182
1139:build/openmote-cc2538_armgcc/openstack/03b-IPv6/icmpv6rpl.c ****       openserial_printError(COMPONENT_ICMPv6RPL,ERR_NO_FREE_PACKET_BUFFER,
 2959              		.loc 1 1139 0
 2960 1140 0023     		movs	r3, #0
 2961 1142 0022     		movs	r2, #0
 2962 1144 2C21     		movs	r1, #44
 2963 1146 1720     		movs	r0, #23
 2964 1148 FFF7FEFF 		bl	openserial_printError
1140:build/openmote-cc2538_armgcc/openstack/03b-IPv6/icmpv6rpl.c ****                             (errorparameter_t)0,
1141:build/openmote-cc2538_armgcc/openstack/03b-IPv6/icmpv6rpl.c ****                             (errorparameter_t)0);
1142:build/openmote-cc2538_armgcc/openstack/03b-IPv6/icmpv6rpl.c ****       return;
 2965              		.loc 1 1142 0
 2966 114c F7E0     		b	.L176
 2967              	.L182:
1143:build/openmote-cc2538_armgcc/openstack/03b-IPv6/icmpv6rpl.c ****    }
1144:build/openmote-cc2538_armgcc/openstack/03b-IPv6/icmpv6rpl.c ****    
1145:build/openmote-cc2538_armgcc/openstack/03b-IPv6/icmpv6rpl.c ****    // take ownership
1146:build/openmote-cc2538_armgcc/openstack/03b-IPv6/icmpv6rpl.c ****    msg->creator                             = COMPONENT_ICMPv6RPL;
 2968              		.loc 1 1146 0
 2969 114e 3B6A     		ldr	r3, [r7, #32]
 2970 1150 1722     		movs	r2, #23
 2971 1152 1A70     		strb	r2, [r3]
1147:build/openmote-cc2538_armgcc/openstack/03b-IPv6/icmpv6rpl.c ****    msg->owner                               = COMPONENT_ICMPv6RPL;
 2972              		.loc 1 1147 0
 2973 1154 3B6A     		ldr	r3, [r7, #32]
 2974 1156 1722     		movs	r2, #23
 2975 1158 5A70     		strb	r2, [r3, #1]
1148:build/openmote-cc2538_armgcc/openstack/03b-IPv6/icmpv6rpl.c ****    
1149:build/openmote-cc2538_armgcc/openstack/03b-IPv6/icmpv6rpl.c ****    // set transport information
1150:build/openmote-cc2538_armgcc/openstack/03b-IPv6/icmpv6rpl.c ****    msg->l4_protocol                         = IANA_ICMPv6;
 2976              		.loc 1 1150 0
 2977 115a 3B6A     		ldr	r3, [r7, #32]
 2978 115c 3A22     		movs	r2, #58
 2979 115e 9A73     		strb	r2, [r3, #14]
1151:build/openmote-cc2538_armgcc/openstack/03b-IPv6/icmpv6rpl.c ****    msg->l4_sourcePortORicmpv6Type           = IANA_ICMPv6_RPL;
 2980              		.loc 1 1151 0
 2981 1160 3B6A     		ldr	r3, [r7, #32]
 2982 1162 9B22     		movs	r2, #155
 2983 1164 1A82     		strh	r2, [r3, #16]	@ movhi
1152:build/openmote-cc2538_armgcc/openstack/03b-IPv6/icmpv6rpl.c ****    
1153:build/openmote-cc2538_armgcc/openstack/03b-IPv6/icmpv6rpl.c ****    // set DAO destination
1154:build/openmote-cc2538_armgcc/openstack/03b-IPv6/icmpv6rpl.c ****    msg->l3_destinationAdd.type=ADDR_128B;
 2984              		.loc 1 1154 0
 2985 1166 3B6A     		ldr	r3, [r7, #32]
 2986 1168 0322     		movs	r2, #3
 2987 116a 5A76     		strb	r2, [r3, #25]
1155:build/openmote-cc2538_armgcc/openstack/03b-IPv6/icmpv6rpl.c ****    memcpy(msg->l3_destinationAdd.addr_128b,icmpv6rpl_vars.dio.DODAGID,sizeof(icmpv6rpl_vars.dio.DOD
 2988              		.loc 1 1155 0
 2989 116c 3B6A     		ldr	r3, [r7, #32]
 2990 116e 03F11A02 		add	r2, r3, #26
 2991 1172 744B     		ldr	r3, .L196
 2992 1174 0B33     		adds	r3, r3, #11
 2993 1176 1C68     		ldr	r4, [r3]	@ unaligned
 2994 1178 5868     		ldr	r0, [r3, #4]	@ unaligned
 2995 117a 9968     		ldr	r1, [r3, #8]	@ unaligned
 2996 117c DB68     		ldr	r3, [r3, #12]	@ unaligned
 2997 117e 1460     		str	r4, [r2]	@ unaligned
 2998 1180 5060     		str	r0, [r2, #4]	@ unaligned
 2999 1182 9160     		str	r1, [r2, #8]	@ unaligned
 3000 1184 D360     		str	r3, [r2, #12]	@ unaligned
1156:build/openmote-cc2538_armgcc/openstack/03b-IPv6/icmpv6rpl.c ****    
1157:build/openmote-cc2538_armgcc/openstack/03b-IPv6/icmpv6rpl.c ****    //===== fill in packet
1158:build/openmote-cc2538_armgcc/openstack/03b-IPv6/icmpv6rpl.c ****    
1159:build/openmote-cc2538_armgcc/openstack/03b-IPv6/icmpv6rpl.c ****    //NOTE: limit to preferrred parent only the number of DAO transit addresses to send
1160:build/openmote-cc2538_armgcc/openstack/03b-IPv6/icmpv6rpl.c ****    
1161:build/openmote-cc2538_armgcc/openstack/03b-IPv6/icmpv6rpl.c ****    //=== transit option -- from RFC 6550, page 55 - 1 transit information header per parent is requ
1162:build/openmote-cc2538_armgcc/openstack/03b-IPv6/icmpv6rpl.c ****    //getting only preferred parent as transit
1163:build/openmote-cc2538_armgcc/openstack/03b-IPv6/icmpv6rpl.c ****    numTransitParents=0;
 3001              		.loc 1 1163 0
 3002 1186 0023     		movs	r3, #0
 3003 1188 FB77     		strb	r3, [r7, #31]
1164:build/openmote-cc2538_armgcc/openstack/03b-IPv6/icmpv6rpl.c ****    icmpv6rpl_getPreferredParentEui64(&address);
 3004              		.loc 1 1164 0
 3005 118a 3B1D     		adds	r3, r7, #4
 3006 118c 1846     		mov	r0, r3
 3007 118e FFF7FEFF 		bl	icmpv6rpl_getPreferredParentEui64
1165:build/openmote-cc2538_armgcc/openstack/03b-IPv6/icmpv6rpl.c ****    packetfunctions_writeAddress(msg,&address,OW_BIG_ENDIAN);
 3008              		.loc 1 1165 0
 3009 1192 3B1D     		adds	r3, r7, #4
 3010 1194 0022     		movs	r2, #0
 3011 1196 1946     		mov	r1, r3
 3012 1198 386A     		ldr	r0, [r7, #32]
 3013 119a FFF7FEFF 		bl	packetfunctions_writeAddress
1166:build/openmote-cc2538_armgcc/openstack/03b-IPv6/icmpv6rpl.c ****    prefix=idmanager_getMyID(ADDR_PREFIX);
 3014              		.loc 1 1166 0
 3015 119e 0520     		movs	r0, #5
 3016 11a0 FFF7FEFF 		bl	idmanager_getMyID
 3017 11a4 B861     		str	r0, [r7, #24]
1167:build/openmote-cc2538_armgcc/openstack/03b-IPv6/icmpv6rpl.c ****    packetfunctions_writeAddress(msg,prefix,OW_BIG_ENDIAN);
 3018              		.loc 1 1167 0
 3019 11a6 0022     		movs	r2, #0
 3020 11a8 B969     		ldr	r1, [r7, #24]
 3021 11aa 386A     		ldr	r0, [r7, #32]
 3022 11ac FFF7FEFF 		bl	packetfunctions_writeAddress
1168:build/openmote-cc2538_armgcc/openstack/03b-IPv6/icmpv6rpl.c ****    // update transit info fields
1169:build/openmote-cc2538_armgcc/openstack/03b-IPv6/icmpv6rpl.c ****    // from rfc6550 p.55 -- Variable, depending on whether or not the DODAG ParentAddress subfield i
1170:build/openmote-cc2538_armgcc/openstack/03b-IPv6/icmpv6rpl.c ****    // poipoi xv: it is not very clear if this includes all fields in the header. or as target info 
1171:build/openmote-cc2538_armgcc/openstack/03b-IPv6/icmpv6rpl.c ****    // using the same pattern as in target information.
1172:build/openmote-cc2538_armgcc/openstack/03b-IPv6/icmpv6rpl.c ****    icmpv6rpl_vars.dao_transit.optionLength  = LENGTH_ADDR128b + sizeof(icmpv6rpl_dao_transit_ht)-2;
 3023              		.loc 1 1172 0
 3024 11b0 644B     		ldr	r3, .L196
 3025 11b2 1422     		movs	r2, #20
 3026 11b4 83F87720 		strb	r2, [r3, #119]
1173:build/openmote-cc2538_armgcc/openstack/03b-IPv6/icmpv6rpl.c ****    icmpv6rpl_vars.dao_transit.PathControl=0; //todo. this is to set the preference of this parent. 
 3027              		.loc 1 1173 0
 3028 11b8 624B     		ldr	r3, .L196
 3029 11ba 0022     		movs	r2, #0
 3030 11bc 83F87920 		strb	r2, [r3, #121]
1174:build/openmote-cc2538_armgcc/openstack/03b-IPv6/icmpv6rpl.c ****    icmpv6rpl_vars.dao_transit.type=OPTION_TRANSIT_INFORMATION_TYPE;
 3031              		.loc 1 1174 0
 3032 11c0 604B     		ldr	r3, .L196
 3033 11c2 0622     		movs	r2, #6
 3034 11c4 83F87620 		strb	r2, [r3, #118]
1175:build/openmote-cc2538_armgcc/openstack/03b-IPv6/icmpv6rpl.c ****            
1176:build/openmote-cc2538_armgcc/openstack/03b-IPv6/icmpv6rpl.c ****    // write transit info in packet
1177:build/openmote-cc2538_armgcc/openstack/03b-IPv6/icmpv6rpl.c ****    packetfunctions_reserveHeaderSize(msg,sizeof(icmpv6rpl_dao_transit_ht));
 3035              		.loc 1 1177 0
 3036 11c8 0621     		movs	r1, #6
 3037 11ca 386A     		ldr	r0, [r7, #32]
 3038 11cc FFF7FEFF 		bl	packetfunctions_reserveHeaderSize
1178:build/openmote-cc2538_armgcc/openstack/03b-IPv6/icmpv6rpl.c ****    memcpy(
1179:build/openmote-cc2538_armgcc/openstack/03b-IPv6/icmpv6rpl.c ****           ((icmpv6rpl_dao_transit_ht*)(msg->payload)),
 3039              		.loc 1 1179 0
 3040 11d0 3B6A     		ldr	r3, [r7, #32]
 3041 11d2 5A68     		ldr	r2, [r3, #4]
1178:build/openmote-cc2538_armgcc/openstack/03b-IPv6/icmpv6rpl.c ****    memcpy(
 3042              		.loc 1 1178 0
 3043 11d4 5B4B     		ldr	r3, .L196
 3044 11d6 7633     		adds	r3, r3, #118
 3045 11d8 1968     		ldr	r1, [r3]	@ unaligned
 3046 11da 1160     		str	r1, [r2]	@ unaligned
 3047 11dc 9B88     		ldrh	r3, [r3, #4]	@ unaligned
 3048 11de 9380     		strh	r3, [r2, #4]	@ unaligned
1180:build/openmote-cc2538_armgcc/openstack/03b-IPv6/icmpv6rpl.c ****           &(icmpv6rpl_vars.dao_transit),
1181:build/openmote-cc2538_armgcc/openstack/03b-IPv6/icmpv6rpl.c ****           sizeof(icmpv6rpl_dao_transit_ht)
1182:build/openmote-cc2538_armgcc/openstack/03b-IPv6/icmpv6rpl.c ****    );
1183:build/openmote-cc2538_armgcc/openstack/03b-IPv6/icmpv6rpl.c ****    numTransitParents++;
 3049              		.loc 1 1183 0
 3050 11e0 FB7F     		ldrb	r3, [r7, #31]	@ zero_extendqisi2
 3051 11e2 0133     		adds	r3, r3, #1
 3052 11e4 FB77     		strb	r3, [r7, #31]
1184:build/openmote-cc2538_armgcc/openstack/03b-IPv6/icmpv6rpl.c ****    
1185:build/openmote-cc2538_armgcc/openstack/03b-IPv6/icmpv6rpl.c ****    //target information is required. RFC 6550 page 55.
1186:build/openmote-cc2538_armgcc/openstack/03b-IPv6/icmpv6rpl.c ****    /*
1187:build/openmote-cc2538_armgcc/openstack/03b-IPv6/icmpv6rpl.c ****    One or more Transit Information options MUST be preceded by one or
1188:build/openmote-cc2538_armgcc/openstack/03b-IPv6/icmpv6rpl.c ****    more RPL Target options.   
1189:build/openmote-cc2538_armgcc/openstack/03b-IPv6/icmpv6rpl.c ****    */
1190:build/openmote-cc2538_armgcc/openstack/03b-IPv6/icmpv6rpl.c ****     numTargetParents                        = 0;
 3053              		.loc 1 1190 0
 3054 11e6 0023     		movs	r3, #0
 3055 11e8 87F82630 		strb	r3, [r7, #38]
1191:build/openmote-cc2538_armgcc/openstack/03b-IPv6/icmpv6rpl.c ****     for (nbrIdx=0;nbrIdx<MAXNUMNEIGHBORS;nbrIdx++) {
 3056              		.loc 1 1191 0
 3057 11ec 0023     		movs	r3, #0
 3058 11ee 87F82730 		strb	r3, [r7, #39]
 3059 11f2 45E0     		b	.L183
 3060              	.L187:
1192:build/openmote-cc2538_armgcc/openstack/03b-IPv6/icmpv6rpl.c ****       if ((neighbors_isNeighborWithHigherDAGrank(nbrIdx))==TRUE) {
 3061              		.loc 1 1192 0
 3062 11f4 97F82730 		ldrb	r3, [r7, #39]	@ zero_extendqisi2
 3063 11f8 1846     		mov	r0, r3
 3064 11fa FFF7FEFF 		bl	neighbors_isNeighborWithHigherDAGrank
 3065 11fe 0346     		mov	r3, r0
 3066 1200 002B     		cmp	r3, #0
 3067 1202 34D0     		beq	.L184
1193:build/openmote-cc2538_armgcc/openstack/03b-IPv6/icmpv6rpl.c ****          // this neighbor is of higher DAGrank as I am. so it is my child
1194:build/openmote-cc2538_armgcc/openstack/03b-IPv6/icmpv6rpl.c ****          
1195:build/openmote-cc2538_armgcc/openstack/03b-IPv6/icmpv6rpl.c ****          // write it's address in DAO RFC6550 page 80 check point 1.
1196:build/openmote-cc2538_armgcc/openstack/03b-IPv6/icmpv6rpl.c ****          neighbors_getNeighborEui64(&address,ADDR_64B,nbrIdx); 
 3068              		.loc 1 1196 0
 3069 1204 97F82720 		ldrb	r2, [r7, #39]	@ zero_extendqisi2
 3070 1208 3B1D     		adds	r3, r7, #4
 3071 120a 0221     		movs	r1, #2
 3072 120c 1846     		mov	r0, r3
 3073 120e FFF7FEFF 		bl	neighbors_getNeighborEui64
1197:build/openmote-cc2538_armgcc/openstack/03b-IPv6/icmpv6rpl.c ****          packetfunctions_writeAddress(msg,&address,OW_BIG_ENDIAN);
 3074              		.loc 1 1197 0
 3075 1212 3B1D     		adds	r3, r7, #4
 3076 1214 0022     		movs	r2, #0
 3077 1216 1946     		mov	r1, r3
 3078 1218 386A     		ldr	r0, [r7, #32]
 3079 121a FFF7FEFF 		bl	packetfunctions_writeAddress
1198:build/openmote-cc2538_armgcc/openstack/03b-IPv6/icmpv6rpl.c ****          prefix=idmanager_getMyID(ADDR_PREFIX);
 3080              		.loc 1 1198 0
 3081 121e 0520     		movs	r0, #5
 3082 1220 FFF7FEFF 		bl	idmanager_getMyID
 3083 1224 B861     		str	r0, [r7, #24]
1199:build/openmote-cc2538_armgcc/openstack/03b-IPv6/icmpv6rpl.c ****          packetfunctions_writeAddress(msg,prefix,OW_BIG_ENDIAN);
 3084              		.loc 1 1199 0
 3085 1226 0022     		movs	r2, #0
 3086 1228 B969     		ldr	r1, [r7, #24]
 3087 122a 386A     		ldr	r0, [r7, #32]
 3088 122c FFF7FEFF 		bl	packetfunctions_writeAddress
1200:build/openmote-cc2538_armgcc/openstack/03b-IPv6/icmpv6rpl.c ****         
1201:build/openmote-cc2538_armgcc/openstack/03b-IPv6/icmpv6rpl.c ****          // update target info fields 
1202:build/openmote-cc2538_armgcc/openstack/03b-IPv6/icmpv6rpl.c ****          // from rfc6550 p.55 -- Variable, length of the option in octets excluding the Type and Le
1203:build/openmote-cc2538_armgcc/openstack/03b-IPv6/icmpv6rpl.c ****          // poipoi xv: assuming that type and length fields refer to the 2 first bytes of the heade
1204:build/openmote-cc2538_armgcc/openstack/03b-IPv6/icmpv6rpl.c ****          icmpv6rpl_vars.dao_target.optionLength  = LENGTH_ADDR128b +sizeof(icmpv6rpl_dao_target_ht)
 3089              		.loc 1 1204 0
 3090 1230 444B     		ldr	r3, .L196
 3091 1232 1222     		movs	r2, #18
 3092 1234 83F87D20 		strb	r2, [r3, #125]
1205:build/openmote-cc2538_armgcc/openstack/03b-IPv6/icmpv6rpl.c ****          icmpv6rpl_vars.dao_target.type  = OPTION_TARGET_INFORMATION_TYPE;
 3093              		.loc 1 1205 0
 3094 1238 424B     		ldr	r3, .L196
 3095 123a 0522     		movs	r2, #5
 3096 123c 83F87C20 		strb	r2, [r3, #124]
1206:build/openmote-cc2538_armgcc/openstack/03b-IPv6/icmpv6rpl.c ****          icmpv6rpl_vars.dao_target.flags  = 0;       //must be 0
 3097              		.loc 1 1206 0
 3098 1240 404B     		ldr	r3, .L196
 3099 1242 0022     		movs	r2, #0
 3100 1244 83F87E20 		strb	r2, [r3, #126]
1207:build/openmote-cc2538_armgcc/openstack/03b-IPv6/icmpv6rpl.c ****          icmpv6rpl_vars.dao_target.prefixLength = 128; //128 leading bits  -- full address.
 3101              		.loc 1 1207 0
 3102 1248 3E4B     		ldr	r3, .L196
 3103 124a 8022     		movs	r2, #128
 3104 124c 83F87F20 		strb	r2, [r3, #127]
1208:build/openmote-cc2538_armgcc/openstack/03b-IPv6/icmpv6rpl.c ****          
1209:build/openmote-cc2538_armgcc/openstack/03b-IPv6/icmpv6rpl.c ****          // write transit info in packet
1210:build/openmote-cc2538_armgcc/openstack/03b-IPv6/icmpv6rpl.c ****          packetfunctions_reserveHeaderSize(msg,sizeof(icmpv6rpl_dao_target_ht));
 3105              		.loc 1 1210 0
 3106 1250 0421     		movs	r1, #4
 3107 1252 386A     		ldr	r0, [r7, #32]
 3108 1254 FFF7FEFF 		bl	packetfunctions_reserveHeaderSize
1211:build/openmote-cc2538_armgcc/openstack/03b-IPv6/icmpv6rpl.c ****          memcpy(
1212:build/openmote-cc2538_armgcc/openstack/03b-IPv6/icmpv6rpl.c ****                ((icmpv6rpl_dao_target_ht*)(msg->payload)),
 3109              		.loc 1 1212 0
 3110 1258 3B6A     		ldr	r3, [r7, #32]
 3111 125a 5A68     		ldr	r2, [r3, #4]
1211:build/openmote-cc2538_armgcc/openstack/03b-IPv6/icmpv6rpl.c ****          memcpy(
 3112              		.loc 1 1211 0
 3113 125c 394B     		ldr	r3, .L196
 3114 125e 7C33     		adds	r3, r3, #124
 3115 1260 1868     		ldr	r0, [r3]	@ unaligned
 3116 1262 1060     		str	r0, [r2]	@ unaligned
1213:build/openmote-cc2538_armgcc/openstack/03b-IPv6/icmpv6rpl.c ****                &(icmpv6rpl_vars.dao_target),
1214:build/openmote-cc2538_armgcc/openstack/03b-IPv6/icmpv6rpl.c ****                sizeof(icmpv6rpl_dao_target_ht)
1215:build/openmote-cc2538_armgcc/openstack/03b-IPv6/icmpv6rpl.c ****          );
1216:build/openmote-cc2538_armgcc/openstack/03b-IPv6/icmpv6rpl.c ****          
1217:build/openmote-cc2538_armgcc/openstack/03b-IPv6/icmpv6rpl.c ****          // remember I found it
1218:build/openmote-cc2538_armgcc/openstack/03b-IPv6/icmpv6rpl.c ****          numTargetParents++;
 3117              		.loc 1 1218 0
 3118 1264 97F82630 		ldrb	r3, [r7, #38]	@ zero_extendqisi2
